(dp1
S'output'
p2
S"<type 'exceptions.SyntaxError'> keyword can't be an expression (default.py, line 90)"
p3
sS'layer'
p4
S'/home/jigar/web2py/applications/app1/controllers/default.py'
p5
sS'code'
p6
S'# -*- coding: utf-8 -*-\n# this file is released under public domain and you can use without limitations\n\n#########################################################################\n## This is a samples controller\n## - index is the default action of any application\n## - user is required for authentication and authorization\n## - download is for downloading files uploaded in the db (does streaming)\n## - call exposes all registered services (none by default)\n#########################################################################\n\ndef index():\n    """\n    example action using the internationalization operator T and flash\n    rendered by views/default/index.html or views/generic.html\n    """\n    response.flash = "Welcome to web2py!"\n    return dict(message=T(\'Hello World\'))\n\ndef user():\n    """\n    exposes:\n    http://..../[app]/default/user/login\n    http://..../[app]/default/user/logout\n    http://..../[app]/default/user/register\n    http://..../[app]/default/user/profile\n    http://..../[app]/default/user/retrieve_password\n    http://..../[app]/default/user/change_password\n    use @auth.requires_login()\n        @auth.requires_membership(\'group name\')\n        @auth.requires_permission(\'read\',\'table name\',record_id)\n    to decorate functions that need access control\n    """\n    return dict(form=auth())\n\n\ndef download():\n    """\n    allows downloading of uploaded files\n    http://..../[app]/default/download/[filename]\n    """\n    return response.download(request,db)\n\n\ndef call():\n    """\n    exposes services. for example:\n    http://..../[app]/default/call/jsonrpc\n    decorate with @services.jsonrpc the functions to expose\n    supports xml, json, xmlrpc, jsonrpc, amfrpc, rss, csv\n    """\n    return service()\n\n\n@auth.requires_signature()\ndef data():\n    """\n    http://..../[app]/default/data/tables\n    http://..../[app]/default/data/create/[table]\n    http://..../[app]/default/data/read/[table]/[id]\n    http://..../[app]/default/data/update/[table]/[id]\n    http://..../[app]/default/data/delete/[table]/[id]\n    http://..../[app]/default/data/select/[table]\n    http://..../[app]/default/data/search/[table]\n    but URLs must be signed, i.e. linked with\n      A(\'table\',_href=URL(\'data/tables\',user_signature=True))\n    or with the signed load operator\n      LOAD(\'default\',\'data.load\',args=\'tables\',ajax=True,user_signature=True)\n    """\n    return dict(form=crud())\n\n@auth.requires_login()\ndef lall():\n\tx=db(db.Post.id>0).select()\n\ty=db(db.Post.User==db.auth_user.id).select(db.auth_user.first_name)\n\tz=db(db.auth_user.id==db.Votes.User).select()\n#\tresponse.flash= "Like karne ke liye dhanyavaad _^_!"\n\tif (len(request.args)!=0):\n\t\tr=request.args[0]\n\t\tp=request.args[1]\n\t\tprint r\n#\t\tresponse.flash= "Like karne ke liye dhanyavaad _^_!"\n\t\tif (request.args[1]=="like" ):\t\n\t\t\tb=db(db.Post.id==(int(r)+1)).select()\n\t\t\tif  db(db.Post.User_liked.contains(auth.user.id)).select() is None:\n\t\t\t\tresponse.flash= "Kitni baar like karega!!"\n\t\t\telse:\t\t\t\n\t\t\t\tresponse.flash= "Like karne ke liye dhanyavaad _^_!"\n\t\t\t\ta=db(db.Post.id==(int(r)+1)).update(Rating=b[0][\'Rating\']+5)\t\n\t\t\t\tdb(db.Post.id==(int(r)+1)).update(User_liked[len(User_liked)]=auth.user.id)\n#redirect(URL("lall"))\n\t\telif (request.args[1]=="dislike"):\t\n\t\t\tb=db(db.Post.id==int(r)+1).select(db.Post.Rating)\n\t\t\ta=db(db.Post.id==int(r)+1).update(Rating=b[0][\'Rating\']-3)\n#\t\t\tredirect(URL("lall"))\n\treturn locals()\n\n@auth.requires_login()\ndef postnews():\n\tform=SQLFORM(db.Post)\n\tif form.process().accepts:\n\t\tresponse.flash= \'News Posted!\'\n\treturn locals()\n\n@auth.requires_login()\ndef listcat():\n\tp=db(db.Post.id>0).select()\n\tq=db(db.Post.User==db.auth_user.id).select(db.auth_user.first_name)\n\ty=request.args[0]\n\tx=db(db.Post.Category==y).select()\n\tif (len(x)>0):\n\t\treturn locals()\t\n\telse :\n\t\treturn locals()\n\ndef addcomment():\n\tr=request.args[0]\n\tr=int(r)+1\n\tform=SQLFORM(db.Comments)\n\n\n\nresponse._vars=response._caller(lall)\n'
p7
sS'snapshot'
p8
(dp9
S'exception'
p10
(dp11
S'__getslice__'
p12
S"<method-wrapper '__getslice__' of exceptions.SyntaxError object>"
p13
sS'text'
p14
S"'db(db.Post.id==(int(r)+1)).update(User_liked[len(User_liked)]=auth.user.id)\\n'"
p15
sS'__str__'
p16
S"<method-wrapper '__str__' of exceptions.SyntaxError object>"
p17
sS'__reduce__'
p18
S'<built-in method __reduce__ of exceptions.SyntaxError object>'
p19
sS'__dict__'
p20
S'{}'
p21
sS'__sizeof__'
p22
S'<built-in method __sizeof__ of exceptions.SyntaxError object>'
p23
sS'__init__'
p24
S"<method-wrapper '__init__' of exceptions.SyntaxError object>"
p25
sS'__setattr__'
p26
S"<method-wrapper '__setattr__' of exceptions.SyntaxError object>"
p27
sS'__reduce_ex__'
p28
S'<built-in method __reduce_ex__ of exceptions.SyntaxError object>'
p29
sS'__new__'
p30
S'<built-in method __new__ of type object>'
p31
sS'__format__'
p32
S'<built-in method __format__ of exceptions.SyntaxError object>'
p33
sS'__class__'
p34
S"<type 'exceptions.SyntaxError'>"
p35
sS'filename'
p36
S"'/home/jigar/web2py/applications/app1/controllers/default.py'"
p37
sS'lineno'
p38
S'90'
p39
sS'msg'
p40
S'"keyword can\'t be an expression"'
p41
sS'__doc__'
p42
S"'Invalid syntax.'"
p43
sS'__getitem__'
p44
S"<method-wrapper '__getitem__' of exceptions.SyntaxError object>"
p45
sS'__setstate__'
p46
S'<built-in method __setstate__ of exceptions.SyntaxError object>'
p47
sS'__getattribute__'
p48
S"<method-wrapper '__getattribute__' of exceptions.SyntaxError object>"
p49
sS'print_file_and_line'
p50
S'None'
p51
sS'args'
p52
S'("keyword can\'t be an expression", (\'/home/jigar/web2py/applications/app1/controllers/default.py\', 90, None, \'db(db.Post.id==(int(r)+1)).update(User_liked[len(User_liked)]=auth.user.id)\\n\'))'
p53
sS'__subclasshook__'
p54
S'<built-in method __subclasshook__ of type object>'
p55
sS'offset'
p56
S'None'
p57
sS'__unicode__'
p58
S'<built-in method __unicode__ of exceptions.SyntaxError object>'
p59
sS'__delattr__'
p60
S"<method-wrapper '__delattr__' of exceptions.SyntaxError object>"
p61
sS'__repr__'
p62
S"<method-wrapper '__repr__' of exceptions.SyntaxError object>"
p63
sS'__hash__'
p64
S"<method-wrapper '__hash__' of exceptions.SyntaxError object>"
p65
ssS'evalue'
p66
S"keyword can't be an expression (default.py, line 90)"
p67
sS'request'
p68
ccopy_reg
_reconstructor
p69
(cgluon.html
BEAUTIFY
p70
c__builtin__
object
p71
NtRp72
(dp73
S'attributes'
p74
(dp75
sS'components'
p76
(lp77
g69
(cgluon.html
TABLE
p78
g71
NtRp79
(dp80
g74
(dp81
S'level'
p82
I5
ssS'parent'
p83
Nsg76
(lp84
g69
(cgluon.html
TR
p85
g71
NtRp86
(dp87
g74
(dp88
sg83
g79
sg76
(lp89
g69
(cgluon.html
TD
p90
g71
NtRp91
(dp92
g74
(dp93
S'_style'
p94
S'font-weight:bold;vertical-align:top'
p95
ssg83
g86
sg76
(lp96
S'ajax'
p97
asbag69
(g90
g71
NtRp98
(dp99
g74
(dp100
S'_valign'
p101
S'top'
p102
ssg83
g86
sg76
(lp103
S':'
asbag69
(g90
g71
NtRp104
(dp105
g74
(dp106
sg83
g86
sg76
(lp107
g69
(g70
g71
NtRp108
(dp109
g74
(dp110
g82
I5
ssg83
g104
sg76
(lp111
S'False'
p112
asbasbasbag69
(g85
g71
NtRp113
(dp114
g74
(dp115
sg83
g79
sg76
(lp116
g69
(g90
g71
NtRp117
(dp118
g74
(dp119
g94
g95
ssg83
g113
sg76
(lp120
S'application'
p121
asbag69
(g90
g71
NtRp122
(dp123
g74
(dp124
g101
g102
ssg83
g113
sg76
(lp125
S':'
asbag69
(g90
g71
NtRp126
(dp127
g74
(dp128
sg83
g113
sg76
(lp129
g69
(g70
g71
NtRp130
(dp131
g74
(dp132
g82
I5
ssg83
g126
sg76
(lp133
S'app1'
p134
asbasbasbag69
(g85
g71
NtRp135
(dp136
g74
(dp137
sg83
g79
sg76
(lp138
g69
(g90
g71
NtRp139
(dp140
g74
(dp141
g94
g95
ssg83
g135
sg76
(lp142
g52
asbag69
(g90
g71
NtRp143
(dp144
g74
(dp145
g101
g102
ssg83
g135
sg76
(lp146
S':'
asbag69
(g90
g71
NtRp147
(dp148
g74
(dp149
sg83
g135
sg76
(lp150
g69
(g70
g71
NtRp151
(dp152
g74
(dp153
g82
I5
ssg83
g147
sg76
(lp154
g69
(g78
g71
NtRp155
(dp156
g74
(dp157
g82
I4
ssg83
Nsg76
(lp158
sbasbasbasbag69
(g85
g71
NtRp159
(dp160
g74
(dp161
sg83
g79
sg76
(lp162
g69
(g90
g71
NtRp163
(dp164
g74
(dp165
g94
g95
ssg83
g159
sg76
(lp166
S'body'
p167
asbag69
(g90
g71
NtRp168
(dp169
g74
(dp170
g101
g102
ssg83
g159
sg76
(lp171
S':'
asbag69
(g90
g71
NtRp172
(dp173
g74
(dp174
sg83
g159
sg76
(lp175
g69
(g70
g71
NtRp176
(dp177
g74
(dp178
g82
I5
ssg83
g172
sg76
(lp179
S'<cStringIO.StringO object at 0x7fc83c2ed618>'
p180
asbasbasbag69
(g85
g71
NtRp181
(dp182
g74
(dp183
sg83
g79
sg76
(lp184
g69
(g90
g71
NtRp185
(dp186
g74
(dp187
g94
g95
ssg83
g181
sg76
(lp188
S'client'
p189
asbag69
(g90
g71
NtRp190
(dp191
g74
(dp192
g101
g102
ssg83
g181
sg76
(lp193
S':'
asbag69
(g90
g71
NtRp194
(dp195
g74
(dp196
sg83
g181
sg76
(lp197
g69
(g70
g71
NtRp198
(dp199
g74
(dp200
g82
I5
ssg83
g194
sg76
(lp201
S'127.0.0.1'
p202
asbasbasbag69
(g85
g71
NtRp203
(dp204
g74
(dp205
sg83
g79
sg76
(lp206
g69
(g90
g71
NtRp207
(dp208
g74
(dp209
g94
g95
ssg83
g203
sg76
(lp210
S'controller'
p211
asbag69
(g90
g71
NtRp212
(dp213
g74
(dp214
g101
g102
ssg83
g203
sg76
(lp215
S':'
asbag69
(g90
g71
NtRp216
(dp217
g74
(dp218
sg83
g203
sg76
(lp219
g69
(g70
g71
NtRp220
(dp221
g74
(dp222
g82
I5
ssg83
g216
sg76
(lp223
S'default'
p224
asbasbasbag69
(g85
g71
NtRp225
(dp226
g74
(dp227
sg83
g79
sg76
(lp228
g69
(g90
g71
NtRp229
(dp230
g74
(dp231
g94
g95
ssg83
g225
sg76
(lp232
S'cookies'
p233
asbag69
(g90
g71
NtRp234
(dp235
g74
(dp236
g101
g102
ssg83
g225
sg76
(lp237
S':'
asbag69
(g90
g71
NtRp238
(dp239
g74
(dp240
sg83
g225
sg76
(lp241
g69
(g70
g71
NtRp242
(dp243
g74
(dp244
g82
I5
ssg83
g238
sg76
(lp245
g69
(g78
g71
NtRp246
(dp247
g74
(dp248
g82
I4
ssg83
Nsg76
(lp249
g69
(g85
g71
NtRp250
(dp251
g74
(dp252
sg83
g246
sg76
(lp253
g69
(g90
g71
NtRp254
(dp255
g74
(dp256
g94
g95
ssg83
g250
sg76
(lp257
S'session_id_admin'
p258
asbag69
(g90
g71
NtRp259
(dp260
g74
(dp261
g101
g102
ssg83
g250
sg76
(lp262
S':'
asbag69
(g90
g71
NtRp263
(dp264
g74
(dp265
sg83
g250
sg76
(lp266
g69
(g70
g71
NtRp267
(dp268
g74
(dp269
g82
I4
ssg83
g263
sg76
(lp270
g69
(g78
g71
NtRp271
(dp272
g74
(dp273
g82
I3
ssg83
Nsg76
(lp274
g69
(g85
g71
NtRp275
(dp276
g74
(dp277
sg83
g271
sg76
(lp278
g69
(g90
g71
NtRp279
(dp280
g74
(dp281
g94
g95
ssg83
g275
sg76
(lp282
S'comment'
p283
asbag69
(g90
g71
NtRp284
(dp285
g74
(dp286
g101
g102
ssg83
g275
sg76
(lp287
S':'
asbag69
(g90
g71
NtRp288
(dp289
g74
(dp290
sg83
g275
sg76
(lp291
g69
(g70
g71
NtRp292
(dp293
g74
(dp294
g82
I3
ssg83
g288
sg76
(lp295
S''
asbasbasbag69
(g85
g71
NtRp296
(dp297
g74
(dp298
sg83
g271
sg76
(lp299
g69
(g90
g71
NtRp300
(dp301
g74
(dp302
g94
g95
ssg83
g296
sg76
(lp303
S'domain'
p304
asbag69
(g90
g71
NtRp305
(dp306
g74
(dp307
g101
g102
ssg83
g296
sg76
(lp308
S':'
asbag69
(g90
g71
NtRp309
(dp310
g74
(dp311
sg83
g296
sg76
(lp312
g69
(g70
g71
NtRp313
(dp314
g74
(dp315
g82
I3
ssg83
g309
sg76
(lp316
S''
asbasbasbag69
(g85
g71
NtRp317
(dp318
g74
(dp319
sg83
g271
sg76
(lp320
g69
(g90
g71
NtRp321
(dp322
g74
(dp323
g94
g95
ssg83
g317
sg76
(lp324
S'expires'
p325
asbag69
(g90
g71
NtRp326
(dp327
g74
(dp328
g101
g102
ssg83
g317
sg76
(lp329
S':'
asbag69
(g90
g71
NtRp330
(dp331
g74
(dp332
sg83
g317
sg76
(lp333
g69
(g70
g71
NtRp334
(dp335
g74
(dp336
g82
I3
ssg83
g330
sg76
(lp337
S''
asbasbasbag69
(g85
g71
NtRp338
(dp339
g74
(dp340
sg83
g271
sg76
(lp341
g69
(g90
g71
NtRp342
(dp343
g74
(dp344
g94
g95
ssg83
g338
sg76
(lp345
S'httponly'
p346
asbag69
(g90
g71
NtRp347
(dp348
g74
(dp349
g101
g102
ssg83
g338
sg76
(lp350
S':'
asbag69
(g90
g71
NtRp351
(dp352
g74
(dp353
sg83
g338
sg76
(lp354
g69
(g70
g71
NtRp355
(dp356
g74
(dp357
g82
I3
ssg83
g351
sg76
(lp358
S''
asbasbasbag69
(g85
g71
NtRp359
(dp360
g74
(dp361
sg83
g271
sg76
(lp362
g69
(g90
g71
NtRp363
(dp364
g74
(dp365
g94
g95
ssg83
g359
sg76
(lp366
S'max-age'
p367
asbag69
(g90
g71
NtRp368
(dp369
g74
(dp370
g101
g102
ssg83
g359
sg76
(lp371
S':'
asbag69
(g90
g71
NtRp372
(dp373
g74
(dp374
sg83
g359
sg76
(lp375
g69
(g70
g71
NtRp376
(dp377
g74
(dp378
g82
I3
ssg83
g372
sg76
(lp379
S''
asbasbasbag69
(g85
g71
NtRp380
(dp381
g74
(dp382
sg83
g271
sg76
(lp383
g69
(g90
g71
NtRp384
(dp385
g74
(dp386
g94
g95
ssg83
g380
sg76
(lp387
S'path'
p388
asbag69
(g90
g71
NtRp389
(dp390
g74
(dp391
g101
g102
ssg83
g380
sg76
(lp392
S':'
asbag69
(g90
g71
NtRp393
(dp394
g74
(dp395
sg83
g380
sg76
(lp396
g69
(g70
g71
NtRp397
(dp398
g74
(dp399
g82
I3
ssg83
g393
sg76
(lp400
S''
asbasbasbag69
(g85
g71
NtRp401
(dp402
g74
(dp403
sg83
g271
sg76
(lp404
g69
(g90
g71
NtRp405
(dp406
g74
(dp407
g94
g95
ssg83
g401
sg76
(lp408
S'secure'
p409
asbag69
(g90
g71
NtRp410
(dp411
g74
(dp412
g101
g102
ssg83
g401
sg76
(lp413
S':'
asbag69
(g90
g71
NtRp414
(dp415
g74
(dp416
sg83
g401
sg76
(lp417
g69
(g70
g71
NtRp418
(dp419
g74
(dp420
g82
I3
ssg83
g414
sg76
(lp421
S''
asbasbasbag69
(g85
g71
NtRp422
(dp423
g74
(dp424
sg83
g271
sg76
(lp425
g69
(g90
g71
NtRp426
(dp427
g74
(dp428
g94
g95
ssg83
g422
sg76
(lp429
S'version'
p430
asbag69
(g90
g71
NtRp431
(dp432
g74
(dp433
g101
g102
ssg83
g422
sg76
(lp434
S':'
asbag69
(g90
g71
NtRp435
(dp436
g74
(dp437
sg83
g422
sg76
(lp438
g69
(g70
g71
NtRp439
(dp440
g74
(dp441
g82
I3
ssg83
g435
sg76
(lp442
S''
asbasbasbasbasbasbasbag69
(g85
g71
NtRp443
(dp444
g74
(dp445
sg83
g246
sg76
(lp446
g69
(g90
g71
NtRp447
(dp448
g74
(dp449
g94
g95
ssg83
g443
sg76
(lp450
S'session_id_app1'
p451
asbag69
(g90
g71
NtRp452
(dp453
g74
(dp454
g101
g102
ssg83
g443
sg76
(lp455
S':'
asbag69
(g90
g71
NtRp456
(dp457
g74
(dp458
sg83
g443
sg76
(lp459
g69
(g70
g71
NtRp460
(dp461
g74
(dp462
g82
I4
ssg83
g456
sg76
(lp463
g69
(g78
g71
NtRp464
(dp465
g74
(dp466
g82
I3
ssg83
Nsg76
(lp467
g69
(g85
g71
NtRp468
(dp469
g74
(dp470
sg83
g464
sg76
(lp471
g69
(g90
g71
NtRp472
(dp473
g74
(dp474
g94
g95
ssg83
g468
sg76
(lp475
g283
asbag69
(g90
g71
NtRp476
(dp477
g74
(dp478
g101
g102
ssg83
g468
sg76
(lp479
S':'
asbag69
(g90
g71
NtRp480
(dp481
g74
(dp482
sg83
g468
sg76
(lp483
g69
(g70
g71
NtRp484
(dp485
g74
(dp486
g82
I3
ssg83
g480
sg76
(lp487
S''
asbasbasbag69
(g85
g71
NtRp488
(dp489
g74
(dp490
sg83
g464
sg76
(lp491
g69
(g90
g71
NtRp492
(dp493
g74
(dp494
g94
g95
ssg83
g488
sg76
(lp495
g304
asbag69
(g90
g71
NtRp496
(dp497
g74
(dp498
g101
g102
ssg83
g488
sg76
(lp499
S':'
asbag69
(g90
g71
NtRp500
(dp501
g74
(dp502
sg83
g488
sg76
(lp503
g69
(g70
g71
NtRp504
(dp505
g74
(dp506
g82
I3
ssg83
g500
sg76
(lp507
S''
asbasbasbag69
(g85
g71
NtRp508
(dp509
g74
(dp510
sg83
g464
sg76
(lp511
g69
(g90
g71
NtRp512
(dp513
g74
(dp514
g94
g95
ssg83
g508
sg76
(lp515
g325
asbag69
(g90
g71
NtRp516
(dp517
g74
(dp518
g101
g102
ssg83
g508
sg76
(lp519
S':'
asbag69
(g90
g71
NtRp520
(dp521
g74
(dp522
sg83
g508
sg76
(lp523
g69
(g70
g71
NtRp524
(dp525
g74
(dp526
g82
I3
ssg83
g520
sg76
(lp527
S''
asbasbasbag69
(g85
g71
NtRp528
(dp529
g74
(dp530
sg83
g464
sg76
(lp531
g69
(g90
g71
NtRp532
(dp533
g74
(dp534
g94
g95
ssg83
g528
sg76
(lp535
g346
asbag69
(g90
g71
NtRp536
(dp537
g74
(dp538
g101
g102
ssg83
g528
sg76
(lp539
S':'
asbag69
(g90
g71
NtRp540
(dp541
g74
(dp542
sg83
g528
sg76
(lp543
g69
(g70
g71
NtRp544
(dp545
g74
(dp546
g82
I3
ssg83
g540
sg76
(lp547
S''
asbasbasbag69
(g85
g71
NtRp548
(dp549
g74
(dp550
sg83
g464
sg76
(lp551
g69
(g90
g71
NtRp552
(dp553
g74
(dp554
g94
g95
ssg83
g548
sg76
(lp555
g367
asbag69
(g90
g71
NtRp556
(dp557
g74
(dp558
g101
g102
ssg83
g548
sg76
(lp559
S':'
asbag69
(g90
g71
NtRp560
(dp561
g74
(dp562
sg83
g548
sg76
(lp563
g69
(g70
g71
NtRp564
(dp565
g74
(dp566
g82
I3
ssg83
g560
sg76
(lp567
S''
asbasbasbag69
(g85
g71
NtRp568
(dp569
g74
(dp570
sg83
g464
sg76
(lp571
g69
(g90
g71
NtRp572
(dp573
g74
(dp574
g94
g95
ssg83
g568
sg76
(lp575
g388
asbag69
(g90
g71
NtRp576
(dp577
g74
(dp578
g101
g102
ssg83
g568
sg76
(lp579
S':'
asbag69
(g90
g71
NtRp580
(dp581
g74
(dp582
sg83
g568
sg76
(lp583
g69
(g70
g71
NtRp584
(dp585
g74
(dp586
g82
I3
ssg83
g580
sg76
(lp587
S''
asbasbasbag69
(g85
g71
NtRp588
(dp589
g74
(dp590
sg83
g464
sg76
(lp591
g69
(g90
g71
NtRp592
(dp593
g74
(dp594
g94
g95
ssg83
g588
sg76
(lp595
g409
asbag69
(g90
g71
NtRp596
(dp597
g74
(dp598
g101
g102
ssg83
g588
sg76
(lp599
S':'
asbag69
(g90
g71
NtRp600
(dp601
g74
(dp602
sg83
g588
sg76
(lp603
g69
(g70
g71
NtRp604
(dp605
g74
(dp606
g82
I3
ssg83
g600
sg76
(lp607
S''
asbasbasbag69
(g85
g71
NtRp608
(dp609
g74
(dp610
sg83
g464
sg76
(lp611
g69
(g90
g71
NtRp612
(dp613
g74
(dp614
g94
g95
ssg83
g608
sg76
(lp615
g430
asbag69
(g90
g71
NtRp616
(dp617
g74
(dp618
g101
g102
ssg83
g608
sg76
(lp619
S':'
asbag69
(g90
g71
NtRp620
(dp621
g74
(dp622
sg83
g608
sg76
(lp623
g69
(g70
g71
NtRp624
(dp625
g74
(dp626
g82
I3
ssg83
g620
sg76
(lp627
S''
asbasbasbasbasbasbasbag69
(g85
g71
NtRp628
(dp629
g74
(dp630
sg83
g246
sg76
(lp631
g69
(g90
g71
NtRp632
(dp633
g74
(dp634
g94
g95
ssg83
g628
sg76
(lp635
S'session_id_welcome'
p636
asbag69
(g90
g71
NtRp637
(dp638
g74
(dp639
g101
g102
ssg83
g628
sg76
(lp640
S':'
asbag69
(g90
g71
NtRp641
(dp642
g74
(dp643
sg83
g628
sg76
(lp644
g69
(g70
g71
NtRp645
(dp646
g74
(dp647
g82
I4
ssg83
g641
sg76
(lp648
g69
(g78
g71
NtRp649
(dp650
g74
(dp651
g82
I3
ssg83
Nsg76
(lp652
g69
(g85
g71
NtRp653
(dp654
g74
(dp655
sg83
g649
sg76
(lp656
g69
(g90
g71
NtRp657
(dp658
g74
(dp659
g94
g95
ssg83
g653
sg76
(lp660
g283
asbag69
(g90
g71
NtRp661
(dp662
g74
(dp663
g101
g102
ssg83
g653
sg76
(lp664
S':'
asbag69
(g90
g71
NtRp665
(dp666
g74
(dp667
sg83
g653
sg76
(lp668
g69
(g70
g71
NtRp669
(dp670
g74
(dp671
g82
I3
ssg83
g665
sg76
(lp672
S''
asbasbasbag69
(g85
g71
NtRp673
(dp674
g74
(dp675
sg83
g649
sg76
(lp676
g69
(g90
g71
NtRp677
(dp678
g74
(dp679
g94
g95
ssg83
g673
sg76
(lp680
g304
asbag69
(g90
g71
NtRp681
(dp682
g74
(dp683
g101
g102
ssg83
g673
sg76
(lp684
S':'
asbag69
(g90
g71
NtRp685
(dp686
g74
(dp687
sg83
g673
sg76
(lp688
g69
(g70
g71
NtRp689
(dp690
g74
(dp691
g82
I3
ssg83
g685
sg76
(lp692
S''
asbasbasbag69
(g85
g71
NtRp693
(dp694
g74
(dp695
sg83
g649
sg76
(lp696
g69
(g90
g71
NtRp697
(dp698
g74
(dp699
g94
g95
ssg83
g693
sg76
(lp700
g325
asbag69
(g90
g71
NtRp701
(dp702
g74
(dp703
g101
g102
ssg83
g693
sg76
(lp704
S':'
asbag69
(g90
g71
NtRp705
(dp706
g74
(dp707
sg83
g693
sg76
(lp708
g69
(g70
g71
NtRp709
(dp710
g74
(dp711
g82
I3
ssg83
g705
sg76
(lp712
S''
asbasbasbag69
(g85
g71
NtRp713
(dp714
g74
(dp715
sg83
g649
sg76
(lp716
g69
(g90
g71
NtRp717
(dp718
g74
(dp719
g94
g95
ssg83
g713
sg76
(lp720
g346
asbag69
(g90
g71
NtRp721
(dp722
g74
(dp723
g101
g102
ssg83
g713
sg76
(lp724
S':'
asbag69
(g90
g71
NtRp725
(dp726
g74
(dp727
sg83
g713
sg76
(lp728
g69
(g70
g71
NtRp729
(dp730
g74
(dp731
g82
I3
ssg83
g725
sg76
(lp732
S''
asbasbasbag69
(g85
g71
NtRp733
(dp734
g74
(dp735
sg83
g649
sg76
(lp736
g69
(g90
g71
NtRp737
(dp738
g74
(dp739
g94
g95
ssg83
g733
sg76
(lp740
g367
asbag69
(g90
g71
NtRp741
(dp742
g74
(dp743
g101
g102
ssg83
g733
sg76
(lp744
S':'
asbag69
(g90
g71
NtRp745
(dp746
g74
(dp747
sg83
g733
sg76
(lp748
g69
(g70
g71
NtRp749
(dp750
g74
(dp751
g82
I3
ssg83
g745
sg76
(lp752
S''
asbasbasbag69
(g85
g71
NtRp753
(dp754
g74
(dp755
sg83
g649
sg76
(lp756
g69
(g90
g71
NtRp757
(dp758
g74
(dp759
g94
g95
ssg83
g753
sg76
(lp760
g388
asbag69
(g90
g71
NtRp761
(dp762
g74
(dp763
g101
g102
ssg83
g753
sg76
(lp764
S':'
asbag69
(g90
g71
NtRp765
(dp766
g74
(dp767
sg83
g753
sg76
(lp768
g69
(g70
g71
NtRp769
(dp770
g74
(dp771
g82
I3
ssg83
g765
sg76
(lp772
S''
asbasbasbag69
(g85
g71
NtRp773
(dp774
g74
(dp775
sg83
g649
sg76
(lp776
g69
(g90
g71
NtRp777
(dp778
g74
(dp779
g94
g95
ssg83
g773
sg76
(lp780
g409
asbag69
(g90
g71
NtRp781
(dp782
g74
(dp783
g101
g102
ssg83
g773
sg76
(lp784
S':'
asbag69
(g90
g71
NtRp785
(dp786
g74
(dp787
sg83
g773
sg76
(lp788
g69
(g70
g71
NtRp789
(dp790
g74
(dp791
g82
I3
ssg83
g785
sg76
(lp792
S''
asbasbasbag69
(g85
g71
NtRp793
(dp794
g74
(dp795
sg83
g649
sg76
(lp796
g69
(g90
g71
NtRp797
(dp798
g74
(dp799
g94
g95
ssg83
g793
sg76
(lp800
g430
asbag69
(g90
g71
NtRp801
(dp802
g74
(dp803
g101
g102
ssg83
g793
sg76
(lp804
S':'
asbag69
(g90
g71
NtRp805
(dp806
g74
(dp807
sg83
g793
sg76
(lp808
g69
(g70
g71
NtRp809
(dp810
g74
(dp811
g82
I3
ssg83
g805
sg76
(lp812
S''
asbasbasbasbasbasbasbasbasbasbasbag69
(g85
g71
NtRp813
(dp814
g74
(dp815
sg83
g79
sg76
(lp816
g69
(g90
g71
NtRp817
(dp818
g74
(dp819
g94
g95
ssg83
g813
sg76
(lp820
S'env'
p821
asbag69
(g90
g71
NtRp822
(dp823
g74
(dp824
g101
g102
ssg83
g813
sg76
(lp825
S':'
asbag69
(g90
g71
NtRp826
(dp827
g74
(dp828
sg83
g813
sg76
(lp829
g69
(g70
g71
NtRp830
(dp831
g74
(dp832
g82
I5
ssg83
g826
sg76
(lp833
g69
(g78
g71
NtRp834
(dp835
g74
(dp836
g82
I4
ssg83
Nsg76
(lp837
g69
(g85
g71
NtRp838
(dp839
g74
(dp840
sg83
g834
sg76
(lp841
g69
(g90
g71
NtRp842
(dp843
g74
(dp844
g94
g95
ssg83
g838
sg76
(lp845
S'app_folders'
p846
asbag69
(g90
g71
NtRp847
(dp848
g74
(dp849
g101
g102
ssg83
g838
sg76
(lp850
S':'
asbag69
(g90
g71
NtRp851
(dp852
g74
(dp853
sg83
g838
sg76
(lp854
g69
(g70
g71
NtRp855
(dp856
g74
(dp857
g82
I4
ssg83
g851
sg76
(lp858
S"set(['/home/jigar/web2py/applications/welcome/', '/home/jigar/web2py/applications/app1/', '/home/jigar/web2py/applications/admin/'])"
p859
asbasbasbag69
(g85
g71
NtRp860
(dp861
g74
(dp862
sg83
g834
sg76
(lp863
g69
(g90
g71
NtRp864
(dp865
g74
(dp866
g94
g95
ssg83
g860
sg76
(lp867
S'applications_parent'
p868
asbag69
(g90
g71
NtRp869
(dp870
g74
(dp871
g101
g102
ssg83
g860
sg76
(lp872
S':'
asbag69
(g90
g71
NtRp873
(dp874
g74
(dp875
sg83
g860
sg76
(lp876
g69
(g70
g71
NtRp877
(dp878
g74
(dp879
g82
I4
ssg83
g873
sg76
(lp880
S'/home/jigar/web2py'
p881
asbasbasbag69
(g85
g71
NtRp882
(dp883
g74
(dp884
sg83
g834
sg76
(lp885
g69
(g90
g71
NtRp886
(dp887
g74
(dp888
g94
g95
ssg83
g882
sg76
(lp889
S'cmd_args'
p890
asbag69
(g90
g71
NtRp891
(dp892
g74
(dp893
g101
g102
ssg83
g882
sg76
(lp894
S':'
asbag69
(g90
g71
NtRp895
(dp896
g74
(dp897
sg83
g882
sg76
(lp898
g69
(g70
g71
NtRp899
(dp900
g74
(dp901
g82
I4
ssg83
g895
sg76
(lp902
g69
(g78
g71
NtRp903
(dp904
g74
(dp905
g82
I3
ssg83
Nsg76
(lp906
sbasbasbasbag69
(g85
g71
NtRp907
(dp908
g74
(dp909
sg83
g834
sg76
(lp910
g69
(g90
g71
NtRp911
(dp912
g74
(dp913
g94
g95
ssg83
g907
sg76
(lp914
S'cmd_options'
p915
asbag69
(g90
g71
NtRp916
(dp917
g74
(dp918
g101
g102
ssg83
g907
sg76
(lp919
S':'
asbag69
(g90
g71
NtRp920
(dp921
g74
(dp922
sg83
g907
sg76
(lp923
g69
(g70
g71
NtRp924
(dp925
g74
(dp926
g82
I4
ssg83
g920
sg76
(lp927
S"<Values at 0x19fcbd8: {'verbose': False, 'ip': '127.0.0.1', 'shutdown_timeout': 5, 'taskbar': False, 'port': 8000, 'maxthreads': None, 'softcron': False, 'server_name': 'jigar-Lenovo-Z580', 'bpython': False, 'nogui': False, 'nocron': False, 'extcron': False, 'debuglevel': 30, 'test': None, 'folder': '/home/jigar/web2py', 'config': '', 'import_models': False, 'winservice': '', 'shell': None, 'run': '', 'log_filename': 'httpserver.log', 'args': [''], 'socket_timeout': 1, 'profiler_filename': None, 'ssl_private_key': '', 'password': '<ask>', 'request_queue_size': 5, 'ssl_certificate': '', 'cronjob': False, 'plain': False, 'quiet': False, 'interfaces': None, 'minthreads': None, 'timeout': 10, 'numthreads': None, 'nobanner': False, 'pid_filename': 'httpserver.pid'}>"
p928
asbasbasbag69
(g85
g71
NtRp929
(dp930
g74
(dp931
sg83
g834
sg76
(lp932
g69
(g90
g71
NtRp933
(dp934
g74
(dp935
g94
g95
ssg83
g929
sg76
(lp936
S'db_sessions'
p937
asbag69
(g90
g71
NtRp938
(dp939
g74
(dp940
g101
g102
ssg83
g929
sg76
(lp941
S':'
asbag69
(g90
g71
NtRp942
(dp943
g74
(dp944
sg83
g929
sg76
(lp945
g69
(g70
g71
NtRp946
(dp947
g74
(dp948
g82
I4
ssg83
g942
sg76
(lp949
S'set([])'
p950
asbasbasbag69
(g85
g71
NtRp951
(dp952
g74
(dp953
sg83
g834
sg76
(lp954
g69
(g90
g71
NtRp955
(dp956
g74
(dp957
g94
g95
ssg83
g951
sg76
(lp958
S'debugging'
p959
asbag69
(g90
g71
NtRp960
(dp961
g74
(dp962
g101
g102
ssg83
g951
sg76
(lp963
S':'
asbag69
(g90
g71
NtRp964
(dp965
g74
(dp966
sg83
g951
sg76
(lp967
g69
(g70
g71
NtRp968
(dp969
g74
(dp970
g82
I4
ssg83
g964
sg76
(lp971
g112
asbasbasbag69
(g85
g71
NtRp972
(dp973
g74
(dp974
sg83
g834
sg76
(lp975
g69
(g90
g71
NtRp976
(dp977
g74
(dp978
g94
g95
ssg83
g972
sg76
(lp979
S'gluon_parent'
p980
asbag69
(g90
g71
NtRp981
(dp982
g74
(dp983
g101
g102
ssg83
g972
sg76
(lp984
S':'
asbag69
(g90
g71
NtRp985
(dp986
g74
(dp987
sg83
g972
sg76
(lp988
g69
(g70
g71
NtRp989
(dp990
g74
(dp991
g82
I4
ssg83
g985
sg76
(lp992
S'/usr/share/web2py'
p993
asbasbasbag69
(g85
g71
NtRp994
(dp995
g74
(dp996
sg83
g834
sg76
(lp997
g69
(g90
g71
NtRp998
(dp999
g74
(dp1000
g94
g95
ssg83
g994
sg76
(lp1001
S'http_accept'
p1002
asbag69
(g90
g71
NtRp1003
(dp1004
g74
(dp1005
g101
g102
ssg83
g994
sg76
(lp1006
S':'
asbag69
(g90
g71
NtRp1007
(dp1008
g74
(dp1009
sg83
g994
sg76
(lp1010
g69
(g70
g71
NtRp1011
(dp1012
g74
(dp1013
g82
I4
ssg83
g1007
sg76
(lp1014
S'text/html,application/xhtml+xml,application/xml;q=0.9,*/*;q=0.8'
p1015
asbasbasbag69
(g85
g71
NtRp1016
(dp1017
g74
(dp1018
sg83
g834
sg76
(lp1019
g69
(g90
g71
NtRp1020
(dp1021
g74
(dp1022
g94
g95
ssg83
g1016
sg76
(lp1023
S'http_accept_encoding'
p1024
asbag69
(g90
g71
NtRp1025
(dp1026
g74
(dp1027
g101
g102
ssg83
g1016
sg76
(lp1028
S':'
asbag69
(g90
g71
NtRp1029
(dp1030
g74
(dp1031
sg83
g1016
sg76
(lp1032
g69
(g70
g71
NtRp1033
(dp1034
g74
(dp1035
g82
I4
ssg83
g1029
sg76
(lp1036
S'gzip, deflate'
p1037
asbasbasbag69
(g85
g71
NtRp1038
(dp1039
g74
(dp1040
sg83
g834
sg76
(lp1041
g69
(g90
g71
NtRp1042
(dp1043
g74
(dp1044
g94
g95
ssg83
g1038
sg76
(lp1045
S'http_accept_language'
p1046
asbag69
(g90
g71
NtRp1047
(dp1048
g74
(dp1049
g101
g102
ssg83
g1038
sg76
(lp1050
S':'
asbag69
(g90
g71
NtRp1051
(dp1052
g74
(dp1053
sg83
g1038
sg76
(lp1054
g69
(g70
g71
NtRp1055
(dp1056
g74
(dp1057
g82
I4
ssg83
g1051
sg76
(lp1058
S'en-US,en;q=0.5'
p1059
asbasbasbag69
(g85
g71
NtRp1060
(dp1061
g74
(dp1062
sg83
g834
sg76
(lp1063
g69
(g90
g71
NtRp1064
(dp1065
g74
(dp1066
g94
g95
ssg83
g1060
sg76
(lp1067
S'http_connection'
p1068
asbag69
(g90
g71
NtRp1069
(dp1070
g74
(dp1071
g101
g102
ssg83
g1060
sg76
(lp1072
S':'
asbag69
(g90
g71
NtRp1073
(dp1074
g74
(dp1075
sg83
g1060
sg76
(lp1076
g69
(g70
g71
NtRp1077
(dp1078
g74
(dp1079
g82
I4
ssg83
g1073
sg76
(lp1080
S'keep-alive'
p1081
asbasbasbag69
(g85
g71
NtRp1082
(dp1083
g74
(dp1084
sg83
g834
sg76
(lp1085
g69
(g90
g71
NtRp1086
(dp1087
g74
(dp1088
g94
g95
ssg83
g1082
sg76
(lp1089
S'http_cookie'
p1090
asbag69
(g90
g71
NtRp1091
(dp1092
g74
(dp1093
g101
g102
ssg83
g1082
sg76
(lp1094
S':'
asbag69
(g90
g71
NtRp1095
(dp1096
g74
(dp1097
sg83
g1082
sg76
(lp1098
g69
(g70
g71
NtRp1099
(dp1100
g74
(dp1101
g82
I4
ssg83
g1095
sg76
(lp1102
S'session_id_welcome=127.0.0.1-b6f0729f-1b7b-417f-a0c4-729ef9448dca; session_id_admin=127.0.0.1-932cca65-c849-4cc4-aeab-720ab1480de6; session_id_app1=127.0.0.1-15782adb-a404-4b3e-868f-e60d89b9be1b'
p1103
asbasbasbag69
(g85
g71
NtRp1104
(dp1105
g74
(dp1106
sg83
g834
sg76
(lp1107
g69
(g90
g71
NtRp1108
(dp1109
g74
(dp1110
g94
g95
ssg83
g1104
sg76
(lp1111
S'http_host'
p1112
asbag69
(g90
g71
NtRp1113
(dp1114
g74
(dp1115
g101
g102
ssg83
g1104
sg76
(lp1116
S':'
asbag69
(g90
g71
NtRp1117
(dp1118
g74
(dp1119
sg83
g1104
sg76
(lp1120
g69
(g70
g71
NtRp1121
(dp1122
g74
(dp1123
g82
I4
ssg83
g1117
sg76
(lp1124
S'127.0.0.1:8000'
p1125
asbasbasbag69
(g85
g71
NtRp1126
(dp1127
g74
(dp1128
sg83
g834
sg76
(lp1129
g69
(g90
g71
NtRp1130
(dp1131
g74
(dp1132
g94
g95
ssg83
g1126
sg76
(lp1133
S'http_user_agent'
p1134
asbag69
(g90
g71
NtRp1135
(dp1136
g74
(dp1137
g101
g102
ssg83
g1126
sg76
(lp1138
S':'
asbag69
(g90
g71
NtRp1139
(dp1140
g74
(dp1141
sg83
g1126
sg76
(lp1142
g69
(g70
g71
NtRp1143
(dp1144
g74
(dp1145
g82
I4
ssg83
g1139
sg76
(lp1146
S'Mozilla/5.0 (X11; Ubuntu; Linux x86_64; rv:23.0) Gecko/20100101 Firefox/23.0'
p1147
asbasbasbag69
(g85
g71
NtRp1148
(dp1149
g74
(dp1150
sg83
g834
sg76
(lp1151
g69
(g90
g71
NtRp1152
(dp1153
g74
(dp1154
g94
g95
ssg83
g1148
sg76
(lp1155
S'is_jython'
p1156
asbag69
(g90
g71
NtRp1157
(dp1158
g74
(dp1159
g101
g102
ssg83
g1148
sg76
(lp1160
S':'
asbag69
(g90
g71
NtRp1161
(dp1162
g74
(dp1163
sg83
g1148
sg76
(lp1164
g69
(g70
g71
NtRp1165
(dp1166
g74
(dp1167
g82
I4
ssg83
g1161
sg76
(lp1168
g112
asbasbasbag69
(g85
g71
NtRp1169
(dp1170
g74
(dp1171
sg83
g834
sg76
(lp1172
g69
(g90
g71
NtRp1173
(dp1174
g74
(dp1175
g94
g95
ssg83
g1169
sg76
(lp1176
S'is_pypy'
p1177
asbag69
(g90
g71
NtRp1178
(dp1179
g74
(dp1180
g101
g102
ssg83
g1169
sg76
(lp1181
S':'
asbag69
(g90
g71
NtRp1182
(dp1183
g74
(dp1184
sg83
g1169
sg76
(lp1185
g69
(g70
g71
NtRp1186
(dp1187
g74
(dp1188
g82
I4
ssg83
g1182
sg76
(lp1189
g112
asbasbasbag69
(g85
g71
NtRp1190
(dp1191
g74
(dp1192
sg83
g834
sg76
(lp1193
g69
(g90
g71
NtRp1194
(dp1195
g74
(dp1196
g94
g95
ssg83
g1190
sg76
(lp1197
S'path_info'
p1198
asbag69
(g90
g71
NtRp1199
(dp1200
g74
(dp1201
g101
g102
ssg83
g1190
sg76
(lp1202
S':'
asbag69
(g90
g71
NtRp1203
(dp1204
g74
(dp1205
sg83
g1190
sg76
(lp1206
g69
(g70
g71
NtRp1207
(dp1208
g74
(dp1209
g82
I4
ssg83
g1203
sg76
(lp1210
S'/app1/default/lall'
p1211
asbasbasbag69
(g85
g71
NtRp1212
(dp1213
g74
(dp1214
sg83
g834
sg76
(lp1215
g69
(g90
g71
NtRp1216
(dp1217
g74
(dp1218
g94
g95
ssg83
g1212
sg76
(lp1219
S'query_string'
p1220
asbag69
(g90
g71
NtRp1221
(dp1222
g74
(dp1223
g101
g102
ssg83
g1212
sg76
(lp1224
S':'
asbag69
(g90
g71
NtRp1225
(dp1226
g74
(dp1227
sg83
g1212
sg76
(lp1228
g69
(g70
g71
NtRp1229
(dp1230
g74
(dp1231
g82
I4
ssg83
g1225
sg76
(lp1232
S''
asbasbasbag69
(g85
g71
NtRp1233
(dp1234
g74
(dp1235
sg83
g834
sg76
(lp1236
g69
(g90
g71
NtRp1237
(dp1238
g74
(dp1239
g94
g95
ssg83
g1233
sg76
(lp1240
S'remote_addr'
p1241
asbag69
(g90
g71
NtRp1242
(dp1243
g74
(dp1244
g101
g102
ssg83
g1233
sg76
(lp1245
S':'
asbag69
(g90
g71
NtRp1246
(dp1247
g74
(dp1248
sg83
g1233
sg76
(lp1249
g69
(g70
g71
NtRp1250
(dp1251
g74
(dp1252
g82
I4
ssg83
g1246
sg76
(lp1253
g202
asbasbasbag69
(g85
g71
NtRp1254
(dp1255
g74
(dp1256
sg83
g834
sg76
(lp1257
g69
(g90
g71
NtRp1258
(dp1259
g74
(dp1260
g94
g95
ssg83
g1254
sg76
(lp1261
S'remote_port'
p1262
asbag69
(g90
g71
NtRp1263
(dp1264
g74
(dp1265
g101
g102
ssg83
g1254
sg76
(lp1266
S':'
asbag69
(g90
g71
NtRp1267
(dp1268
g74
(dp1269
sg83
g1254
sg76
(lp1270
g69
(g70
g71
NtRp1271
(dp1272
g74
(dp1273
g82
I4
ssg83
g1267
sg76
(lp1274
S'56952'
p1275
asbasbasbag69
(g85
g71
NtRp1276
(dp1277
g74
(dp1278
sg83
g834
sg76
(lp1279
g69
(g90
g71
NtRp1280
(dp1281
g74
(dp1282
g94
g95
ssg83
g1276
sg76
(lp1283
S'request_method'
p1284
asbag69
(g90
g71
NtRp1285
(dp1286
g74
(dp1287
g101
g102
ssg83
g1276
sg76
(lp1288
S':'
asbag69
(g90
g71
NtRp1289
(dp1290
g74
(dp1291
sg83
g1276
sg76
(lp1292
g69
(g70
g71
NtRp1293
(dp1294
g74
(dp1295
g82
I4
ssg83
g1289
sg76
(lp1296
S'GET'
p1297
asbasbasbag69
(g85
g71
NtRp1298
(dp1299
g74
(dp1300
sg83
g834
sg76
(lp1301
g69
(g90
g71
NtRp1302
(dp1303
g74
(dp1304
g94
g95
ssg83
g1298
sg76
(lp1305
S'script_name'
p1306
asbag69
(g90
g71
NtRp1307
(dp1308
g74
(dp1309
g101
g102
ssg83
g1298
sg76
(lp1310
S':'
asbag69
(g90
g71
NtRp1311
(dp1312
g74
(dp1313
sg83
g1298
sg76
(lp1314
g69
(g70
g71
NtRp1315
(dp1316
g74
(dp1317
g82
I4
ssg83
g1311
sg76
(lp1318
S''
asbasbasbag69
(g85
g71
NtRp1319
(dp1320
g74
(dp1321
sg83
g834
sg76
(lp1322
g69
(g90
g71
NtRp1323
(dp1324
g74
(dp1325
g94
g95
ssg83
g1319
sg76
(lp1326
S'server_name'
p1327
asbag69
(g90
g71
NtRp1328
(dp1329
g74
(dp1330
g101
g102
ssg83
g1319
sg76
(lp1331
S':'
asbag69
(g90
g71
NtRp1332
(dp1333
g74
(dp1334
sg83
g1319
sg76
(lp1335
g69
(g70
g71
NtRp1336
(dp1337
g74
(dp1338
g82
I4
ssg83
g1332
sg76
(lp1339
S'jigar-Lenovo-Z580'
p1340
asbasbasbag69
(g85
g71
NtRp1341
(dp1342
g74
(dp1343
sg83
g834
sg76
(lp1344
g69
(g90
g71
NtRp1345
(dp1346
g74
(dp1347
g94
g95
ssg83
g1341
sg76
(lp1348
S'server_port'
p1349
asbag69
(g90
g71
NtRp1350
(dp1351
g74
(dp1352
g101
g102
ssg83
g1341
sg76
(lp1353
S':'
asbag69
(g90
g71
NtRp1354
(dp1355
g74
(dp1356
sg83
g1341
sg76
(lp1357
g69
(g70
g71
NtRp1358
(dp1359
g74
(dp1360
g82
I4
ssg83
g1354
sg76
(lp1361
S'8000'
p1362
asbasbasbag69
(g85
g71
NtRp1363
(dp1364
g74
(dp1365
sg83
g834
sg76
(lp1366
g69
(g90
g71
NtRp1367
(dp1368
g74
(dp1369
g94
g95
ssg83
g1363
sg76
(lp1370
S'server_protocol'
p1371
asbag69
(g90
g71
NtRp1372
(dp1373
g74
(dp1374
g101
g102
ssg83
g1363
sg76
(lp1375
S':'
asbag69
(g90
g71
NtRp1376
(dp1377
g74
(dp1378
sg83
g1363
sg76
(lp1379
g69
(g70
g71
NtRp1380
(dp1381
g74
(dp1382
g82
I4
ssg83
g1376
sg76
(lp1383
S'HTTP/1.1'
p1384
asbasbasbag69
(g85
g71
NtRp1385
(dp1386
g74
(dp1387
sg83
g834
sg76
(lp1388
g69
(g90
g71
NtRp1389
(dp1390
g74
(dp1391
g94
g95
ssg83
g1385
sg76
(lp1392
S'server_software'
p1393
asbag69
(g90
g71
NtRp1394
(dp1395
g74
(dp1396
g101
g102
ssg83
g1385
sg76
(lp1397
S':'
asbag69
(g90
g71
NtRp1398
(dp1399
g74
(dp1400
sg83
g1385
sg76
(lp1401
g69
(g70
g71
NtRp1402
(dp1403
g74
(dp1404
g82
I4
ssg83
g1398
sg76
(lp1405
S'Rocket 1.2.4'
p1406
asbasbasbag69
(g85
g71
NtRp1407
(dp1408
g74
(dp1409
sg83
g834
sg76
(lp1410
g69
(g90
g71
NtRp1411
(dp1412
g74
(dp1413
g94
g95
ssg83
g1407
sg76
(lp1414
S'web2py_crontype'
p1415
asbag69
(g90
g71
NtRp1416
(dp1417
g74
(dp1418
g101
g102
ssg83
g1407
sg76
(lp1419
S':'
asbag69
(g90
g71
NtRp1420
(dp1421
g74
(dp1422
sg83
g1407
sg76
(lp1423
g69
(g70
g71
NtRp1424
(dp1425
g74
(dp1426
g82
I4
ssg83
g1420
sg76
(lp1427
S'hard'
p1428
asbasbasbag69
(g85
g71
NtRp1429
(dp1430
g74
(dp1431
sg83
g834
sg76
(lp1432
g69
(g90
g71
NtRp1433
(dp1434
g74
(dp1435
g94
g95
ssg83
g1429
sg76
(lp1436
S'web2py_path'
p1437
asbag69
(g90
g71
NtRp1438
(dp1439
g74
(dp1440
g101
g102
ssg83
g1429
sg76
(lp1441
S':'
asbag69
(g90
g71
NtRp1442
(dp1443
g74
(dp1444
sg83
g1429
sg76
(lp1445
g69
(g70
g71
NtRp1446
(dp1447
g74
(dp1448
g82
I4
ssg83
g1442
sg76
(lp1449
g881
asbasbasbag69
(g85
g71
NtRp1450
(dp1451
g74
(dp1452
sg83
g834
sg76
(lp1453
g69
(g90
g71
NtRp1454
(dp1455
g74
(dp1456
g94
g95
ssg83
g1450
sg76
(lp1457
S'web2py_version'
p1458
asbag69
(g90
g71
NtRp1459
(dp1460
g74
(dp1461
g101
g102
ssg83
g1450
sg76
(lp1462
S':'
asbag69
(g90
g71
NtRp1463
(dp1464
g74
(dp1465
sg83
g1450
sg76
(lp1466
g69
(g70
g71
NtRp1467
(dp1468
g74
(dp1469
g82
I4
ssg83
g1463
sg76
(lp1470
g69
(g78
g71
NtRp1471
(dp1472
g74
(dp1473
g82
I3
ssg83
Nsg76
(lp1474
g69
(g85
g71
NtRp1475
(dp1476
g74
(dp1477
sg83
g1471
sg76
(lp1478
g69
(g90
g71
NtRp1479
(dp1480
g74
(dp1481
sg83
g1475
sg76
(lp1482
g69
(g70
g71
NtRp1483
(dp1484
g74
(dp1485
g82
I3
ssg83
g1479
sg76
(lp1486
S'1'
asbasbasbag69
(g85
g71
NtRp1487
(dp1488
g74
(dp1489
sg83
g1471
sg76
(lp1490
g69
(g90
g71
NtRp1491
(dp1492
g74
(dp1493
sg83
g1487
sg76
(lp1494
g69
(g70
g71
NtRp1495
(dp1496
g74
(dp1497
g82
I3
ssg83
g1491
sg76
(lp1498
S'99'
p1499
asbasbasbag69
(g85
g71
NtRp1500
(dp1501
g74
(dp1502
sg83
g1471
sg76
(lp1503
g69
(g90
g71
NtRp1504
(dp1505
g74
(dp1506
sg83
g1500
sg76
(lp1507
g69
(g70
g71
NtRp1508
(dp1509
g74
(dp1510
g82
I3
ssg83
g1504
sg76
(lp1511
S'4'
asbasbasbag69
(g85
g71
NtRp1512
(dp1513
g74
(dp1514
sg83
g1471
sg76
(lp1515
g69
(g90
g71
NtRp1516
(dp1517
g74
(dp1518
sg83
g1512
sg76
(lp1519
g69
(g70
g71
NtRp1520
(dp1521
g74
(dp1522
g82
I3
ssg83
g1516
sg76
(lp1523
S'datetime.datetime(2011, 12, 14, 14, 46, 14)'
p1524
asbasbasbag69
(g85
g71
NtRp1525
(dp1526
g74
(dp1527
sg83
g1471
sg76
(lp1528
g69
(g90
g71
NtRp1529
(dp1530
g74
(dp1531
sg83
g1525
sg76
(lp1532
g69
(g70
g71
NtRp1533
(dp1534
g74
(dp1535
g82
I3
ssg83
g1529
sg76
(lp1536
S'stable'
p1537
asbasbasbasbasbasbasbag69
(g85
g71
NtRp1538
(dp1539
g74
(dp1540
sg83
g834
sg76
(lp1541
g69
(g90
g71
NtRp1542
(dp1543
g74
(dp1544
g94
g95
ssg83
g1538
sg76
(lp1545
S'wsgi_errors'
p1546
asbag69
(g90
g71
NtRp1547
(dp1548
g74
(dp1549
g101
g102
ssg83
g1538
sg76
(lp1550
S':'
asbag69
(g90
g71
NtRp1551
(dp1552
g74
(dp1553
sg83
g1538
sg76
(lp1554
g69
(g70
g71
NtRp1555
(dp1556
g74
(dp1557
g82
I4
ssg83
g1551
sg76
(lp1558
S"<open file '<stderr>', mode 'w' at 0x7fc883477270>"
p1559
asbasbasbag69
(g85
g71
NtRp1560
(dp1561
g74
(dp1562
sg83
g834
sg76
(lp1563
g69
(g90
g71
NtRp1564
(dp1565
g74
(dp1566
g94
g95
ssg83
g1560
sg76
(lp1567
S'wsgi_file_wrapper'
p1568
asbag69
(g90
g71
NtRp1569
(dp1570
g74
(dp1571
g101
g102
ssg83
g1560
sg76
(lp1572
S':'
asbag69
(g90
g71
NtRp1573
(dp1574
g74
(dp1575
sg83
g1560
sg76
(lp1576
g69
(g70
g71
NtRp1577
(dp1578
g74
(dp1579
g82
I4
ssg83
g1573
sg76
(lp1580
S'<class wsgiref.util.FileWrapper at 0x1937328>'
p1581
asbasbasbag69
(g85
g71
NtRp1582
(dp1583
g74
(dp1584
sg83
g834
sg76
(lp1585
g69
(g90
g71
NtRp1586
(dp1587
g74
(dp1588
g94
g95
ssg83
g1582
sg76
(lp1589
S'wsgi_input'
p1590
asbag69
(g90
g71
NtRp1591
(dp1592
g74
(dp1593
g101
g102
ssg83
g1582
sg76
(lp1594
S':'
asbag69
(g90
g71
NtRp1595
(dp1596
g74
(dp1597
sg83
g1582
sg76
(lp1598
g69
(g70
g71
NtRp1599
(dp1600
g74
(dp1601
g82
I4
ssg83
g1595
sg76
(lp1602
S'<socket._fileobject object at 0x7fc84447f250>'
p1603
asbasbasbag69
(g85
g71
NtRp1604
(dp1605
g74
(dp1606
sg83
g834
sg76
(lp1607
g69
(g90
g71
NtRp1608
(dp1609
g74
(dp1610
g94
g95
ssg83
g1604
sg76
(lp1611
S'wsgi_multiprocess'
p1612
asbag69
(g90
g71
NtRp1613
(dp1614
g74
(dp1615
g101
g102
ssg83
g1604
sg76
(lp1616
S':'
asbag69
(g90
g71
NtRp1617
(dp1618
g74
(dp1619
sg83
g1604
sg76
(lp1620
g69
(g70
g71
NtRp1621
(dp1622
g74
(dp1623
g82
I4
ssg83
g1617
sg76
(lp1624
g112
asbasbasbag69
(g85
g71
NtRp1625
(dp1626
g74
(dp1627
sg83
g834
sg76
(lp1628
g69
(g90
g71
NtRp1629
(dp1630
g74
(dp1631
g94
g95
ssg83
g1625
sg76
(lp1632
S'wsgi_multithread'
p1633
asbag69
(g90
g71
NtRp1634
(dp1635
g74
(dp1636
g101
g102
ssg83
g1625
sg76
(lp1637
S':'
asbag69
(g90
g71
NtRp1638
(dp1639
g74
(dp1640
sg83
g1625
sg76
(lp1641
g69
(g70
g71
NtRp1642
(dp1643
g74
(dp1644
g82
I4
ssg83
g1638
sg76
(lp1645
S'True'
p1646
asbasbasbag69
(g85
g71
NtRp1647
(dp1648
g74
(dp1649
sg83
g834
sg76
(lp1650
g69
(g90
g71
NtRp1651
(dp1652
g74
(dp1653
g94
g95
ssg83
g1647
sg76
(lp1654
S'wsgi_run_once'
p1655
asbag69
(g90
g71
NtRp1656
(dp1657
g74
(dp1658
g101
g102
ssg83
g1647
sg76
(lp1659
S':'
asbag69
(g90
g71
NtRp1660
(dp1661
g74
(dp1662
sg83
g1647
sg76
(lp1663
g69
(g70
g71
NtRp1664
(dp1665
g74
(dp1666
g82
I4
ssg83
g1660
sg76
(lp1667
g112
asbasbasbag69
(g85
g71
NtRp1668
(dp1669
g74
(dp1670
sg83
g834
sg76
(lp1671
g69
(g90
g71
NtRp1672
(dp1673
g74
(dp1674
g94
g95
ssg83
g1668
sg76
(lp1675
S'wsgi_url_scheme'
p1676
asbag69
(g90
g71
NtRp1677
(dp1678
g74
(dp1679
g101
g102
ssg83
g1668
sg76
(lp1680
S':'
asbag69
(g90
g71
NtRp1681
(dp1682
g74
(dp1683
sg83
g1668
sg76
(lp1684
g69
(g70
g71
NtRp1685
(dp1686
g74
(dp1687
g82
I4
ssg83
g1681
sg76
(lp1688
S'http'
p1689
asbasbasbag69
(g85
g71
NtRp1690
(dp1691
g74
(dp1692
sg83
g834
sg76
(lp1693
g69
(g90
g71
NtRp1694
(dp1695
g74
(dp1696
g94
g95
ssg83
g1690
sg76
(lp1697
S'wsgi_version'
p1698
asbag69
(g90
g71
NtRp1699
(dp1700
g74
(dp1701
g101
g102
ssg83
g1690
sg76
(lp1702
S':'
asbag69
(g90
g71
NtRp1703
(dp1704
g74
(dp1705
sg83
g1690
sg76
(lp1706
g69
(g70
g71
NtRp1707
(dp1708
g74
(dp1709
g82
I4
ssg83
g1703
sg76
(lp1710
g69
(g78
g71
NtRp1711
(dp1712
g74
(dp1713
g82
I3
ssg83
Nsg76
(lp1714
g69
(g85
g71
NtRp1715
(dp1716
g74
(dp1717
sg83
g1711
sg76
(lp1718
g69
(g90
g71
NtRp1719
(dp1720
g74
(dp1721
sg83
g1715
sg76
(lp1722
g69
(g70
g71
NtRp1723
(dp1724
g74
(dp1725
g82
I3
ssg83
g1719
sg76
(lp1726
S'1'
asbasbasbag69
(g85
g71
NtRp1727
(dp1728
g74
(dp1729
sg83
g1711
sg76
(lp1730
g69
(g90
g71
NtRp1731
(dp1732
g74
(dp1733
sg83
g1727
sg76
(lp1734
g69
(g70
g71
NtRp1735
(dp1736
g74
(dp1737
g82
I3
ssg83
g1731
sg76
(lp1738
S'0'
asbasbasbasbasbasbasbasbasbasbasbag69
(g85
g71
NtRp1739
(dp1740
g74
(dp1741
sg83
g79
sg76
(lp1742
g69
(g90
g71
NtRp1743
(dp1744
g74
(dp1745
g94
g95
ssg83
g1739
sg76
(lp1746
S'extension'
p1747
asbag69
(g90
g71
NtRp1748
(dp1749
g74
(dp1750
g101
g102
ssg83
g1739
sg76
(lp1751
S':'
asbag69
(g90
g71
NtRp1752
(dp1753
g74
(dp1754
sg83
g1739
sg76
(lp1755
g69
(g70
g71
NtRp1756
(dp1757
g74
(dp1758
g82
I5
ssg83
g1752
sg76
(lp1759
S'html'
p1760
asbasbasbag69
(g85
g71
NtRp1761
(dp1762
g74
(dp1763
sg83
g79
sg76
(lp1764
g69
(g90
g71
NtRp1765
(dp1766
g74
(dp1767
g94
g95
ssg83
g1761
sg76
(lp1768
S'folder'
p1769
asbag69
(g90
g71
NtRp1770
(dp1771
g74
(dp1772
g101
g102
ssg83
g1761
sg76
(lp1773
S':'
asbag69
(g90
g71
NtRp1774
(dp1775
g74
(dp1776
sg83
g1761
sg76
(lp1777
g69
(g70
g71
NtRp1778
(dp1779
g74
(dp1780
g82
I5
ssg83
g1774
sg76
(lp1781
S'/home/jigar/web2py/applications/app1/'
p1782
asbasbasbag69
(g85
g71
NtRp1783
(dp1784
g74
(dp1785
sg83
g79
sg76
(lp1786
g69
(g90
g71
NtRp1787
(dp1788
g74
(dp1789
g94
g95
ssg83
g1783
sg76
(lp1790
S'function'
p1791
asbag69
(g90
g71
NtRp1792
(dp1793
g74
(dp1794
g101
g102
ssg83
g1783
sg76
(lp1795
S':'
asbag69
(g90
g71
NtRp1796
(dp1797
g74
(dp1798
sg83
g1783
sg76
(lp1799
g69
(g70
g71
NtRp1800
(dp1801
g74
(dp1802
g82
I5
ssg83
g1796
sg76
(lp1803
S'lall'
p1804
asbasbasbag69
(g85
g71
NtRp1805
(dp1806
g74
(dp1807
sg83
g79
sg76
(lp1808
g69
(g90
g71
NtRp1809
(dp1810
g74
(dp1811
g94
g95
ssg83
g1805
sg76
(lp1812
S'get_vars'
p1813
asbag69
(g90
g71
NtRp1814
(dp1815
g74
(dp1816
g101
g102
ssg83
g1805
sg76
(lp1817
S':'
asbag69
(g90
g71
NtRp1818
(dp1819
g74
(dp1820
sg83
g1805
sg76
(lp1821
g69
(g70
g71
NtRp1822
(dp1823
g74
(dp1824
g82
I5
ssg83
g1818
sg76
(lp1825
g69
(g78
g71
NtRp1826
(dp1827
g74
(dp1828
g82
I4
ssg83
Nsg76
(lp1829
sbasbasbasbag69
(g85
g71
NtRp1830
(dp1831
g74
(dp1832
sg83
g79
sg76
(lp1833
g69
(g90
g71
NtRp1834
(dp1835
g74
(dp1836
g94
g95
ssg83
g1830
sg76
(lp1837
S'global_settings'
p1838
asbag69
(g90
g71
NtRp1839
(dp1840
g74
(dp1841
g101
g102
ssg83
g1830
sg76
(lp1842
S':'
asbag69
(g90
g71
NtRp1843
(dp1844
g74
(dp1845
sg83
g1830
sg76
(lp1846
g69
(g70
g71
NtRp1847
(dp1848
g74
(dp1849
g82
I5
ssg83
g1843
sg76
(lp1850
g69
(g78
g71
NtRp1851
(dp1852
g74
(dp1853
g82
I4
ssg83
Nsg76
(lp1854
g69
(g85
g71
NtRp1855
(dp1856
g74
(dp1857
sg83
g1851
sg76
(lp1858
g69
(g90
g71
NtRp1859
(dp1860
g74
(dp1861
g94
g95
ssg83
g1855
sg76
(lp1862
g846
asbag69
(g90
g71
NtRp1863
(dp1864
g74
(dp1865
g101
g102
ssg83
g1855
sg76
(lp1866
S':'
asbag69
(g90
g71
NtRp1867
(dp1868
g74
(dp1869
sg83
g1855
sg76
(lp1870
g69
(g70
g71
NtRp1871
(dp1872
g74
(dp1873
g82
I4
ssg83
g1867
sg76
(lp1874
S"set(['/home/jigar/web2py/applications/welcome/', '/home/jigar/web2py/applications/app1/', '/home/jigar/web2py/applications/admin/'])"
p1875
asbasbasbag69
(g85
g71
NtRp1876
(dp1877
g74
(dp1878
sg83
g1851
sg76
(lp1879
g69
(g90
g71
NtRp1880
(dp1881
g74
(dp1882
g94
g95
ssg83
g1876
sg76
(lp1883
g868
asbag69
(g90
g71
NtRp1884
(dp1885
g74
(dp1886
g101
g102
ssg83
g1876
sg76
(lp1887
S':'
asbag69
(g90
g71
NtRp1888
(dp1889
g74
(dp1890
sg83
g1876
sg76
(lp1891
g69
(g70
g71
NtRp1892
(dp1893
g74
(dp1894
g82
I4
ssg83
g1888
sg76
(lp1895
g881
asbasbasbag69
(g85
g71
NtRp1896
(dp1897
g74
(dp1898
sg83
g1851
sg76
(lp1899
g69
(g90
g71
NtRp1900
(dp1901
g74
(dp1902
g94
g95
ssg83
g1896
sg76
(lp1903
g890
asbag69
(g90
g71
NtRp1904
(dp1905
g74
(dp1906
g101
g102
ssg83
g1896
sg76
(lp1907
S':'
asbag69
(g90
g71
NtRp1908
(dp1909
g74
(dp1910
sg83
g1896
sg76
(lp1911
g69
(g70
g71
NtRp1912
(dp1913
g74
(dp1914
g82
I4
ssg83
g1908
sg76
(lp1915
g69
(g78
g71
NtRp1916
(dp1917
g74
(dp1918
g82
I3
ssg83
Nsg76
(lp1919
sbasbasbasbag69
(g85
g71
NtRp1920
(dp1921
g74
(dp1922
sg83
g1851
sg76
(lp1923
g69
(g90
g71
NtRp1924
(dp1925
g74
(dp1926
g94
g95
ssg83
g1920
sg76
(lp1927
g915
asbag69
(g90
g71
NtRp1928
(dp1929
g74
(dp1930
g101
g102
ssg83
g1920
sg76
(lp1931
S':'
asbag69
(g90
g71
NtRp1932
(dp1933
g74
(dp1934
sg83
g1920
sg76
(lp1935
g69
(g70
g71
NtRp1936
(dp1937
g74
(dp1938
g82
I4
ssg83
g1932
sg76
(lp1939
S"<Values at 0x19fcbd8: {'verbose': False, 'ip': '127.0.0.1', 'shutdown_timeout': 5, 'taskbar': False, 'port': 8000, 'maxthreads': None, 'softcron': False, 'server_name': 'jigar-Lenovo-Z580', 'bpython': False, 'nogui': False, 'nocron': False, 'extcron': False, 'debuglevel': 30, 'test': None, 'folder': '/home/jigar/web2py', 'config': '', 'import_models': False, 'winservice': '', 'shell': None, 'run': '', 'log_filename': 'httpserver.log', 'args': [''], 'socket_timeout': 1, 'profiler_filename': None, 'ssl_private_key': '', 'password': '<ask>', 'request_queue_size': 5, 'ssl_certificate': '', 'cronjob': False, 'plain': False, 'quiet': False, 'interfaces': None, 'minthreads': None, 'timeout': 10, 'numthreads': None, 'nobanner': False, 'pid_filename': 'httpserver.pid'}>"
p1940
asbasbasbag69
(g85
g71
NtRp1941
(dp1942
g74
(dp1943
sg83
g1851
sg76
(lp1944
g69
(g90
g71
NtRp1945
(dp1946
g74
(dp1947
g94
g95
ssg83
g1941
sg76
(lp1948
g937
asbag69
(g90
g71
NtRp1949
(dp1950
g74
(dp1951
g101
g102
ssg83
g1941
sg76
(lp1952
S':'
asbag69
(g90
g71
NtRp1953
(dp1954
g74
(dp1955
sg83
g1941
sg76
(lp1956
g69
(g70
g71
NtRp1957
(dp1958
g74
(dp1959
g82
I4
ssg83
g1953
sg76
(lp1960
S'set([])'
p1961
asbasbasbag69
(g85
g71
NtRp1962
(dp1963
g74
(dp1964
sg83
g1851
sg76
(lp1965
g69
(g90
g71
NtRp1966
(dp1967
g74
(dp1968
g94
g95
ssg83
g1962
sg76
(lp1969
g959
asbag69
(g90
g71
NtRp1970
(dp1971
g74
(dp1972
g101
g102
ssg83
g1962
sg76
(lp1973
S':'
asbag69
(g90
g71
NtRp1974
(dp1975
g74
(dp1976
sg83
g1962
sg76
(lp1977
g69
(g70
g71
NtRp1978
(dp1979
g74
(dp1980
g82
I4
ssg83
g1974
sg76
(lp1981
g112
asbasbasbag69
(g85
g71
NtRp1982
(dp1983
g74
(dp1984
sg83
g1851
sg76
(lp1985
g69
(g90
g71
NtRp1986
(dp1987
g74
(dp1988
g94
g95
ssg83
g1982
sg76
(lp1989
g980
asbag69
(g90
g71
NtRp1990
(dp1991
g74
(dp1992
g101
g102
ssg83
g1982
sg76
(lp1993
S':'
asbag69
(g90
g71
NtRp1994
(dp1995
g74
(dp1996
sg83
g1982
sg76
(lp1997
g69
(g70
g71
NtRp1998
(dp1999
g74
(dp2000
g82
I4
ssg83
g1994
sg76
(lp2001
g993
asbasbasbag69
(g85
g71
NtRp2002
(dp2003
g74
(dp2004
sg83
g1851
sg76
(lp2005
g69
(g90
g71
NtRp2006
(dp2007
g74
(dp2008
g94
g95
ssg83
g2002
sg76
(lp2009
g1156
asbag69
(g90
g71
NtRp2010
(dp2011
g74
(dp2012
g101
g102
ssg83
g2002
sg76
(lp2013
S':'
asbag69
(g90
g71
NtRp2014
(dp2015
g74
(dp2016
sg83
g2002
sg76
(lp2017
g69
(g70
g71
NtRp2018
(dp2019
g74
(dp2020
g82
I4
ssg83
g2014
sg76
(lp2021
g112
asbasbasbag69
(g85
g71
NtRp2022
(dp2023
g74
(dp2024
sg83
g1851
sg76
(lp2025
g69
(g90
g71
NtRp2026
(dp2027
g74
(dp2028
g94
g95
ssg83
g2022
sg76
(lp2029
g1177
asbag69
(g90
g71
NtRp2030
(dp2031
g74
(dp2032
g101
g102
ssg83
g2022
sg76
(lp2033
S':'
asbag69
(g90
g71
NtRp2034
(dp2035
g74
(dp2036
sg83
g2022
sg76
(lp2037
g69
(g70
g71
NtRp2038
(dp2039
g74
(dp2040
g82
I4
ssg83
g2034
sg76
(lp2041
g112
asbasbasbag69
(g85
g71
NtRp2042
(dp2043
g74
(dp2044
sg83
g1851
sg76
(lp2045
g69
(g90
g71
NtRp2046
(dp2047
g74
(dp2048
g94
g95
ssg83
g2042
sg76
(lp2049
g1415
asbag69
(g90
g71
NtRp2050
(dp2051
g74
(dp2052
g101
g102
ssg83
g2042
sg76
(lp2053
S':'
asbag69
(g90
g71
NtRp2054
(dp2055
g74
(dp2056
sg83
g2042
sg76
(lp2057
g69
(g70
g71
NtRp2058
(dp2059
g74
(dp2060
g82
I4
ssg83
g2054
sg76
(lp2061
g1428
asbasbasbag69
(g85
g71
NtRp2062
(dp2063
g74
(dp2064
sg83
g1851
sg76
(lp2065
g69
(g90
g71
NtRp2066
(dp2067
g74
(dp2068
g94
g95
ssg83
g2062
sg76
(lp2069
g1458
asbag69
(g90
g71
NtRp2070
(dp2071
g74
(dp2072
g101
g102
ssg83
g2062
sg76
(lp2073
S':'
asbag69
(g90
g71
NtRp2074
(dp2075
g74
(dp2076
sg83
g2062
sg76
(lp2077
g69
(g70
g71
NtRp2078
(dp2079
g74
(dp2080
g82
I4
ssg83
g2074
sg76
(lp2081
g69
(g78
g71
NtRp2082
(dp2083
g74
(dp2084
g82
I3
ssg83
Nsg76
(lp2085
g69
(g85
g71
NtRp2086
(dp2087
g74
(dp2088
sg83
g2082
sg76
(lp2089
g69
(g90
g71
NtRp2090
(dp2091
g74
(dp2092
sg83
g2086
sg76
(lp2093
g69
(g70
g71
NtRp2094
(dp2095
g74
(dp2096
g82
I3
ssg83
g2090
sg76
(lp2097
S'1'
asbasbasbag69
(g85
g71
NtRp2098
(dp2099
g74
(dp2100
sg83
g2082
sg76
(lp2101
g69
(g90
g71
NtRp2102
(dp2103
g74
(dp2104
sg83
g2098
sg76
(lp2105
g69
(g70
g71
NtRp2106
(dp2107
g74
(dp2108
g82
I3
ssg83
g2102
sg76
(lp2109
S'99'
p2110
asbasbasbag69
(g85
g71
NtRp2111
(dp2112
g74
(dp2113
sg83
g2082
sg76
(lp2114
g69
(g90
g71
NtRp2115
(dp2116
g74
(dp2117
sg83
g2111
sg76
(lp2118
g69
(g70
g71
NtRp2119
(dp2120
g74
(dp2121
g82
I3
ssg83
g2115
sg76
(lp2122
S'4'
asbasbasbag69
(g85
g71
NtRp2123
(dp2124
g74
(dp2125
sg83
g2082
sg76
(lp2126
g69
(g90
g71
NtRp2127
(dp2128
g74
(dp2129
sg83
g2123
sg76
(lp2130
g69
(g70
g71
NtRp2131
(dp2132
g74
(dp2133
g82
I3
ssg83
g2127
sg76
(lp2134
S'datetime.datetime(2011, 12, 14, 14, 46, 14)'
p2135
asbasbasbag69
(g85
g71
NtRp2136
(dp2137
g74
(dp2138
sg83
g2082
sg76
(lp2139
g69
(g90
g71
NtRp2140
(dp2141
g74
(dp2142
sg83
g2136
sg76
(lp2143
g69
(g70
g71
NtRp2144
(dp2145
g74
(dp2146
g82
I3
ssg83
g2140
sg76
(lp2147
g1537
asbasbasbasbasbasbasbasbasbasbasbag69
(g85
g71
NtRp2148
(dp2149
g74
(dp2150
sg83
g79
sg76
(lp2151
g69
(g90
g71
NtRp2152
(dp2153
g74
(dp2154
g94
g95
ssg83
g2148
sg76
(lp2155
S'is_https'
p2156
asbag69
(g90
g71
NtRp2157
(dp2158
g74
(dp2159
g101
g102
ssg83
g2148
sg76
(lp2160
S':'
asbag69
(g90
g71
NtRp2161
(dp2162
g74
(dp2163
sg83
g2148
sg76
(lp2164
g69
(g70
g71
NtRp2165
(dp2166
g74
(dp2167
g82
I5
ssg83
g2161
sg76
(lp2168
g112
asbasbasbag69
(g85
g71
NtRp2169
(dp2170
g74
(dp2171
sg83
g79
sg76
(lp2172
g69
(g90
g71
NtRp2173
(dp2174
g74
(dp2175
g94
g95
ssg83
g2169
sg76
(lp2176
S'is_local'
p2177
asbag69
(g90
g71
NtRp2178
(dp2179
g74
(dp2180
g101
g102
ssg83
g2169
sg76
(lp2181
S':'
asbag69
(g90
g71
NtRp2182
(dp2183
g74
(dp2184
sg83
g2169
sg76
(lp2185
g69
(g70
g71
NtRp2186
(dp2187
g74
(dp2188
g82
I5
ssg83
g2182
sg76
(lp2189
g1646
asbasbasbag69
(g85
g71
NtRp2190
(dp2191
g74
(dp2192
sg83
g79
sg76
(lp2193
g69
(g90
g71
NtRp2194
(dp2195
g74
(dp2196
g94
g95
ssg83
g2190
sg76
(lp2197
S'is_restful'
p2198
asbag69
(g90
g71
NtRp2199
(dp2200
g74
(dp2201
g101
g102
ssg83
g2190
sg76
(lp2202
S':'
asbag69
(g90
g71
NtRp2203
(dp2204
g74
(dp2205
sg83
g2190
sg76
(lp2206
g69
(g70
g71
NtRp2207
(dp2208
g74
(dp2209
g82
I5
ssg83
g2203
sg76
(lp2210
g112
asbasbasbag69
(g85
g71
NtRp2211
(dp2212
g74
(dp2213
sg83
g79
sg76
(lp2214
g69
(g90
g71
NtRp2215
(dp2216
g74
(dp2217
g94
g95
ssg83
g2211
sg76
(lp2218
S'now'
p2219
asbag69
(g90
g71
NtRp2220
(dp2221
g74
(dp2222
g101
g102
ssg83
g2211
sg76
(lp2223
S':'
asbag69
(g90
g71
NtRp2224
(dp2225
g74
(dp2226
sg83
g2211
sg76
(lp2227
g69
(g70
g71
NtRp2228
(dp2229
g74
(dp2230
g82
I5
ssg83
g2224
sg76
(lp2231
S'datetime.datetime(2013, 8, 30, 0, 57, 53, 928398)'
p2232
asbasbasbag69
(g85
g71
NtRp2233
(dp2234
g74
(dp2235
sg83
g79
sg76
(lp2236
g69
(g90
g71
NtRp2237
(dp2238
g74
(dp2239
g94
g95
ssg83
g2233
sg76
(lp2240
S'post_vars'
p2241
asbag69
(g90
g71
NtRp2242
(dp2243
g74
(dp2244
g101
g102
ssg83
g2233
sg76
(lp2245
S':'
asbag69
(g90
g71
NtRp2246
(dp2247
g74
(dp2248
sg83
g2233
sg76
(lp2249
g69
(g70
g71
NtRp2250
(dp2251
g74
(dp2252
g82
I5
ssg83
g2246
sg76
(lp2253
g69
(g78
g71
NtRp2254
(dp2255
g74
(dp2256
g82
I4
ssg83
Nsg76
(lp2257
sbasbasbasbag69
(g85
g71
NtRp2258
(dp2259
g74
(dp2260
sg83
g79
sg76
(lp2261
g69
(g90
g71
NtRp2262
(dp2263
g74
(dp2264
g94
g95
ssg83
g2258
sg76
(lp2265
S'url'
p2266
asbag69
(g90
g71
NtRp2267
(dp2268
g74
(dp2269
g101
g102
ssg83
g2258
sg76
(lp2270
S':'
asbag69
(g90
g71
NtRp2271
(dp2272
g74
(dp2273
sg83
g2258
sg76
(lp2274
g69
(g70
g71
NtRp2275
(dp2276
g74
(dp2277
g82
I5
ssg83
g2271
sg76
(lp2278
S'/app1/default/lall'
p2279
asbasbasbag69
(g85
g71
NtRp2280
(dp2281
g74
(dp2282
sg83
g79
sg76
(lp2283
g69
(g90
g71
NtRp2284
(dp2285
g74
(dp2286
g94
g95
ssg83
g2280
sg76
(lp2287
S'utcnow'
p2288
asbag69
(g90
g71
NtRp2289
(dp2290
g74
(dp2291
g101
g102
ssg83
g2280
sg76
(lp2292
S':'
asbag69
(g90
g71
NtRp2293
(dp2294
g74
(dp2295
sg83
g2280
sg76
(lp2296
g69
(g70
g71
NtRp2297
(dp2298
g74
(dp2299
g82
I5
ssg83
g2293
sg76
(lp2300
S'datetime.datetime(2013, 8, 29, 19, 27, 53, 928451)'
p2301
asbasbasbag69
(g85
g71
NtRp2302
(dp2303
g74
(dp2304
sg83
g79
sg76
(lp2305
g69
(g90
g71
NtRp2306
(dp2307
g74
(dp2308
g94
g95
ssg83
g2302
sg76
(lp2309
S'uuid'
p2310
asbag69
(g90
g71
NtRp2311
(dp2312
g74
(dp2313
g101
g102
ssg83
g2302
sg76
(lp2314
S':'
asbag69
(g90
g71
NtRp2315
(dp2316
g74
(dp2317
sg83
g2302
sg76
(lp2318
g69
(g70
g71
NtRp2319
(dp2320
g74
(dp2321
g82
I5
ssg83
g2315
sg76
(lp2322
S'app1/127.0.0.1.2013-08-30.00-57-53.ad1828e1-7b47-46d1-9307-94793a9fce60'
p2323
asbasbasbag69
(g85
g71
NtRp2324
(dp2325
g74
(dp2326
sg83
g79
sg76
(lp2327
g69
(g90
g71
NtRp2328
(dp2329
g74
(dp2330
g94
g95
ssg83
g2324
sg76
(lp2331
S'vars'
p2332
asbag69
(g90
g71
NtRp2333
(dp2334
g74
(dp2335
g101
g102
ssg83
g2324
sg76
(lp2336
S':'
asbag69
(g90
g71
NtRp2337
(dp2338
g74
(dp2339
sg83
g2324
sg76
(lp2340
g69
(g70
g71
NtRp2341
(dp2342
g74
(dp2343
g82
I5
ssg83
g2337
sg76
(lp2344
g69
(g78
g71
NtRp2345
(dp2346
g74
(dp2347
g82
I4
ssg83
Nsg76
(lp2348
sbasbasbasbag69
(g85
g71
NtRp2349
(dp2350
g74
(dp2351
sg83
g79
sg76
(lp2352
g69
(g90
g71
NtRp2353
(dp2354
g74
(dp2355
g94
g95
ssg83
g2349
sg76
(lp2356
S'wsgi'
p2357
asbag69
(g90
g71
NtRp2358
(dp2359
g74
(dp2360
g101
g102
ssg83
g2349
sg76
(lp2361
S':'
asbag69
(g90
g71
NtRp2362
(dp2363
g74
(dp2364
sg83
g2349
sg76
(lp2365
g69
(g70
g71
NtRp2366
(dp2367
g74
(dp2368
g82
I5
ssg83
g2362
sg76
(lp2369
g69
(g78
g71
NtRp2370
(dp2371
g74
(dp2372
g82
I4
ssg83
Nsg76
(lp2373
g69
(g85
g71
NtRp2374
(dp2375
g74
(dp2376
sg83
g2370
sg76
(lp2377
g69
(g90
g71
NtRp2378
(dp2379
g74
(dp2380
g94
g95
ssg83
g2374
sg76
(lp2381
S'environ'
p2382
asbag69
(g90
g71
NtRp2383
(dp2384
g74
(dp2385
g101
g102
ssg83
g2374
sg76
(lp2386
S':'
asbag69
(g90
g71
NtRp2387
(dp2388
g74
(dp2389
sg83
g2374
sg76
(lp2390
g69
(g70
g71
NtRp2391
(dp2392
g74
(dp2393
g82
I4
ssg83
g2387
sg76
(lp2394
g69
(g78
g71
NtRp2395
(dp2396
g74
(dp2397
g82
I3
ssg83
Nsg76
(lp2398
g69
(g85
g71
NtRp2399
(dp2400
g74
(dp2401
sg83
g2395
sg76
(lp2402
g69
(g90
g71
NtRp2403
(dp2404
g74
(dp2405
g94
g95
ssg83
g2399
sg76
(lp2406
S'HTTP_ACCEPT'
p2407
asbag69
(g90
g71
NtRp2408
(dp2409
g74
(dp2410
g101
g102
ssg83
g2399
sg76
(lp2411
S':'
asbag69
(g90
g71
NtRp2412
(dp2413
g74
(dp2414
sg83
g2399
sg76
(lp2415
g69
(g70
g71
NtRp2416
(dp2417
g74
(dp2418
g82
I3
ssg83
g2412
sg76
(lp2419
g1015
asbasbasbag69
(g85
g71
NtRp2420
(dp2421
g74
(dp2422
sg83
g2395
sg76
(lp2423
g69
(g90
g71
NtRp2424
(dp2425
g74
(dp2426
g94
g95
ssg83
g2420
sg76
(lp2427
S'HTTP_ACCEPT_ENCODING'
p2428
asbag69
(g90
g71
NtRp2429
(dp2430
g74
(dp2431
g101
g102
ssg83
g2420
sg76
(lp2432
S':'
asbag69
(g90
g71
NtRp2433
(dp2434
g74
(dp2435
sg83
g2420
sg76
(lp2436
g69
(g70
g71
NtRp2437
(dp2438
g74
(dp2439
g82
I3
ssg83
g2433
sg76
(lp2440
g1037
asbasbasbag69
(g85
g71
NtRp2441
(dp2442
g74
(dp2443
sg83
g2395
sg76
(lp2444
g69
(g90
g71
NtRp2445
(dp2446
g74
(dp2447
g94
g95
ssg83
g2441
sg76
(lp2448
S'HTTP_ACCEPT_LANGUAGE'
p2449
asbag69
(g90
g71
NtRp2450
(dp2451
g74
(dp2452
g101
g102
ssg83
g2441
sg76
(lp2453
S':'
asbag69
(g90
g71
NtRp2454
(dp2455
g74
(dp2456
sg83
g2441
sg76
(lp2457
g69
(g70
g71
NtRp2458
(dp2459
g74
(dp2460
g82
I3
ssg83
g2454
sg76
(lp2461
g1059
asbasbasbag69
(g85
g71
NtRp2462
(dp2463
g74
(dp2464
sg83
g2395
sg76
(lp2465
g69
(g90
g71
NtRp2466
(dp2467
g74
(dp2468
g94
g95
ssg83
g2462
sg76
(lp2469
S'HTTP_CONNECTION'
p2470
asbag69
(g90
g71
NtRp2471
(dp2472
g74
(dp2473
g101
g102
ssg83
g2462
sg76
(lp2474
S':'
asbag69
(g90
g71
NtRp2475
(dp2476
g74
(dp2477
sg83
g2462
sg76
(lp2478
g69
(g70
g71
NtRp2479
(dp2480
g74
(dp2481
g82
I3
ssg83
g2475
sg76
(lp2482
g1081
asbasbasbag69
(g85
g71
NtRp2483
(dp2484
g74
(dp2485
sg83
g2395
sg76
(lp2486
g69
(g90
g71
NtRp2487
(dp2488
g74
(dp2489
g94
g95
ssg83
g2483
sg76
(lp2490
S'HTTP_COOKIE'
p2491
asbag69
(g90
g71
NtRp2492
(dp2493
g74
(dp2494
g101
g102
ssg83
g2483
sg76
(lp2495
S':'
asbag69
(g90
g71
NtRp2496
(dp2497
g74
(dp2498
sg83
g2483
sg76
(lp2499
g69
(g70
g71
NtRp2500
(dp2501
g74
(dp2502
g82
I3
ssg83
g2496
sg76
(lp2503
g1103
asbasbasbag69
(g85
g71
NtRp2504
(dp2505
g74
(dp2506
sg83
g2395
sg76
(lp2507
g69
(g90
g71
NtRp2508
(dp2509
g74
(dp2510
g94
g95
ssg83
g2504
sg76
(lp2511
S'HTTP_HOST'
p2512
asbag69
(g90
g71
NtRp2513
(dp2514
g74
(dp2515
g101
g102
ssg83
g2504
sg76
(lp2516
S':'
asbag69
(g90
g71
NtRp2517
(dp2518
g74
(dp2519
sg83
g2504
sg76
(lp2520
g69
(g70
g71
NtRp2521
(dp2522
g74
(dp2523
g82
I3
ssg83
g2517
sg76
(lp2524
g1125
asbasbasbag69
(g85
g71
NtRp2525
(dp2526
g74
(dp2527
sg83
g2395
sg76
(lp2528
g69
(g90
g71
NtRp2529
(dp2530
g74
(dp2531
g94
g95
ssg83
g2525
sg76
(lp2532
S'HTTP_USER_AGENT'
p2533
asbag69
(g90
g71
NtRp2534
(dp2535
g74
(dp2536
g101
g102
ssg83
g2525
sg76
(lp2537
S':'
asbag69
(g90
g71
NtRp2538
(dp2539
g74
(dp2540
sg83
g2525
sg76
(lp2541
g69
(g70
g71
NtRp2542
(dp2543
g74
(dp2544
g82
I3
ssg83
g2538
sg76
(lp2545
g1147
asbasbasbag69
(g85
g71
NtRp2546
(dp2547
g74
(dp2548
sg83
g2395
sg76
(lp2549
g69
(g90
g71
NtRp2550
(dp2551
g74
(dp2552
g94
g95
ssg83
g2546
sg76
(lp2553
S'PATH_INFO'
p2554
asbag69
(g90
g71
NtRp2555
(dp2556
g74
(dp2557
g101
g102
ssg83
g2546
sg76
(lp2558
S':'
asbag69
(g90
g71
NtRp2559
(dp2560
g74
(dp2561
sg83
g2546
sg76
(lp2562
g69
(g70
g71
NtRp2563
(dp2564
g74
(dp2565
g82
I3
ssg83
g2559
sg76
(lp2566
g1211
asbasbasbag69
(g85
g71
NtRp2567
(dp2568
g74
(dp2569
sg83
g2395
sg76
(lp2570
g69
(g90
g71
NtRp2571
(dp2572
g74
(dp2573
g94
g95
ssg83
g2567
sg76
(lp2574
S'QUERY_STRING'
p2575
asbag69
(g90
g71
NtRp2576
(dp2577
g74
(dp2578
g101
g102
ssg83
g2567
sg76
(lp2579
S':'
asbag69
(g90
g71
NtRp2580
(dp2581
g74
(dp2582
sg83
g2567
sg76
(lp2583
g69
(g70
g71
NtRp2584
(dp2585
g74
(dp2586
g82
I3
ssg83
g2580
sg76
(lp2587
S''
asbasbasbag69
(g85
g71
NtRp2588
(dp2589
g74
(dp2590
sg83
g2395
sg76
(lp2591
g69
(g90
g71
NtRp2592
(dp2593
g74
(dp2594
g94
g95
ssg83
g2588
sg76
(lp2595
S'REMOTE_ADDR'
p2596
asbag69
(g90
g71
NtRp2597
(dp2598
g74
(dp2599
g101
g102
ssg83
g2588
sg76
(lp2600
S':'
asbag69
(g90
g71
NtRp2601
(dp2602
g74
(dp2603
sg83
g2588
sg76
(lp2604
g69
(g70
g71
NtRp2605
(dp2606
g74
(dp2607
g82
I3
ssg83
g2601
sg76
(lp2608
g202
asbasbasbag69
(g85
g71
NtRp2609
(dp2610
g74
(dp2611
sg83
g2395
sg76
(lp2612
g69
(g90
g71
NtRp2613
(dp2614
g74
(dp2615
g94
g95
ssg83
g2609
sg76
(lp2616
S'REMOTE_PORT'
p2617
asbag69
(g90
g71
NtRp2618
(dp2619
g74
(dp2620
g101
g102
ssg83
g2609
sg76
(lp2621
S':'
asbag69
(g90
g71
NtRp2622
(dp2623
g74
(dp2624
sg83
g2609
sg76
(lp2625
g69
(g70
g71
NtRp2626
(dp2627
g74
(dp2628
g82
I3
ssg83
g2622
sg76
(lp2629
g1275
asbasbasbag69
(g85
g71
NtRp2630
(dp2631
g74
(dp2632
sg83
g2395
sg76
(lp2633
g69
(g90
g71
NtRp2634
(dp2635
g74
(dp2636
g94
g95
ssg83
g2630
sg76
(lp2637
S'REQUEST_METHOD'
p2638
asbag69
(g90
g71
NtRp2639
(dp2640
g74
(dp2641
g101
g102
ssg83
g2630
sg76
(lp2642
S':'
asbag69
(g90
g71
NtRp2643
(dp2644
g74
(dp2645
sg83
g2630
sg76
(lp2646
g69
(g70
g71
NtRp2647
(dp2648
g74
(dp2649
g82
I3
ssg83
g2643
sg76
(lp2650
g1297
asbasbasbag69
(g85
g71
NtRp2651
(dp2652
g74
(dp2653
sg83
g2395
sg76
(lp2654
g69
(g90
g71
NtRp2655
(dp2656
g74
(dp2657
g94
g95
ssg83
g2651
sg76
(lp2658
S'SCRIPT_NAME'
p2659
asbag69
(g90
g71
NtRp2660
(dp2661
g74
(dp2662
g101
g102
ssg83
g2651
sg76
(lp2663
S':'
asbag69
(g90
g71
NtRp2664
(dp2665
g74
(dp2666
sg83
g2651
sg76
(lp2667
g69
(g70
g71
NtRp2668
(dp2669
g74
(dp2670
g82
I3
ssg83
g2664
sg76
(lp2671
S''
asbasbasbag69
(g85
g71
NtRp2672
(dp2673
g74
(dp2674
sg83
g2395
sg76
(lp2675
g69
(g90
g71
NtRp2676
(dp2677
g74
(dp2678
g94
g95
ssg83
g2672
sg76
(lp2679
S'SERVER_NAME'
p2680
asbag69
(g90
g71
NtRp2681
(dp2682
g74
(dp2683
g101
g102
ssg83
g2672
sg76
(lp2684
S':'
asbag69
(g90
g71
NtRp2685
(dp2686
g74
(dp2687
sg83
g2672
sg76
(lp2688
g69
(g70
g71
NtRp2689
(dp2690
g74
(dp2691
g82
I3
ssg83
g2685
sg76
(lp2692
g1340
asbasbasbag69
(g85
g71
NtRp2693
(dp2694
g74
(dp2695
sg83
g2395
sg76
(lp2696
g69
(g90
g71
NtRp2697
(dp2698
g74
(dp2699
g94
g95
ssg83
g2693
sg76
(lp2700
S'SERVER_PORT'
p2701
asbag69
(g90
g71
NtRp2702
(dp2703
g74
(dp2704
g101
g102
ssg83
g2693
sg76
(lp2705
S':'
asbag69
(g90
g71
NtRp2706
(dp2707
g74
(dp2708
sg83
g2693
sg76
(lp2709
g69
(g70
g71
NtRp2710
(dp2711
g74
(dp2712
g82
I3
ssg83
g2706
sg76
(lp2713
g1362
asbasbasbag69
(g85
g71
NtRp2714
(dp2715
g74
(dp2716
sg83
g2395
sg76
(lp2717
g69
(g90
g71
NtRp2718
(dp2719
g74
(dp2720
g94
g95
ssg83
g2714
sg76
(lp2721
S'SERVER_PROTOCOL'
p2722
asbag69
(g90
g71
NtRp2723
(dp2724
g74
(dp2725
g101
g102
ssg83
g2714
sg76
(lp2726
S':'
asbag69
(g90
g71
NtRp2727
(dp2728
g74
(dp2729
sg83
g2714
sg76
(lp2730
g69
(g70
g71
NtRp2731
(dp2732
g74
(dp2733
g82
I3
ssg83
g2727
sg76
(lp2734
g1384
asbasbasbag69
(g85
g71
NtRp2735
(dp2736
g74
(dp2737
sg83
g2395
sg76
(lp2738
g69
(g90
g71
NtRp2739
(dp2740
g74
(dp2741
g94
g95
ssg83
g2735
sg76
(lp2742
S'SERVER_SOFTWARE'
p2743
asbag69
(g90
g71
NtRp2744
(dp2745
g74
(dp2746
g101
g102
ssg83
g2735
sg76
(lp2747
S':'
asbag69
(g90
g71
NtRp2748
(dp2749
g74
(dp2750
sg83
g2735
sg76
(lp2751
g69
(g70
g71
NtRp2752
(dp2753
g74
(dp2754
g82
I3
ssg83
g2748
sg76
(lp2755
g1406
asbasbasbag69
(g85
g71
NtRp2756
(dp2757
g74
(dp2758
sg83
g2395
sg76
(lp2759
g69
(g90
g71
NtRp2760
(dp2761
g74
(dp2762
g94
g95
ssg83
g2756
sg76
(lp2763
S'wsgi.errors'
p2764
asbag69
(g90
g71
NtRp2765
(dp2766
g74
(dp2767
g101
g102
ssg83
g2756
sg76
(lp2768
S':'
asbag69
(g90
g71
NtRp2769
(dp2770
g74
(dp2771
sg83
g2756
sg76
(lp2772
g69
(g70
g71
NtRp2773
(dp2774
g74
(dp2775
g82
I3
ssg83
g2769
sg76
(lp2776
S"<open file '<stderr>', mode 'w' at 0x7fc883477270>"
p2777
asbasbasbag69
(g85
g71
NtRp2778
(dp2779
g74
(dp2780
sg83
g2395
sg76
(lp2781
g69
(g90
g71
NtRp2782
(dp2783
g74
(dp2784
g94
g95
ssg83
g2778
sg76
(lp2785
S'wsgi.file_wrapper'
p2786
asbag69
(g90
g71
NtRp2787
(dp2788
g74
(dp2789
g101
g102
ssg83
g2778
sg76
(lp2790
S':'
asbag69
(g90
g71
NtRp2791
(dp2792
g74
(dp2793
sg83
g2778
sg76
(lp2794
g69
(g70
g71
NtRp2795
(dp2796
g74
(dp2797
g82
I3
ssg83
g2791
sg76
(lp2798
S'<class wsgiref.util.FileWrapper at 0x1937328>'
p2799
asbasbasbag69
(g85
g71
NtRp2800
(dp2801
g74
(dp2802
sg83
g2395
sg76
(lp2803
g69
(g90
g71
NtRp2804
(dp2805
g74
(dp2806
g94
g95
ssg83
g2800
sg76
(lp2807
S'wsgi.input'
p2808
asbag69
(g90
g71
NtRp2809
(dp2810
g74
(dp2811
g101
g102
ssg83
g2800
sg76
(lp2812
S':'
asbag69
(g90
g71
NtRp2813
(dp2814
g74
(dp2815
sg83
g2800
sg76
(lp2816
g69
(g70
g71
NtRp2817
(dp2818
g74
(dp2819
g82
I3
ssg83
g2813
sg76
(lp2820
S'<cStringIO.StringO object at 0x7fc83c2ed618>'
p2821
asbasbasbag69
(g85
g71
NtRp2822
(dp2823
g74
(dp2824
sg83
g2395
sg76
(lp2825
g69
(g90
g71
NtRp2826
(dp2827
g74
(dp2828
g94
g95
ssg83
g2822
sg76
(lp2829
S'wsgi.multiprocess'
p2830
asbag69
(g90
g71
NtRp2831
(dp2832
g74
(dp2833
g101
g102
ssg83
g2822
sg76
(lp2834
S':'
asbag69
(g90
g71
NtRp2835
(dp2836
g74
(dp2837
sg83
g2822
sg76
(lp2838
g69
(g70
g71
NtRp2839
(dp2840
g74
(dp2841
g82
I3
ssg83
g2835
sg76
(lp2842
g112
asbasbasbag69
(g85
g71
NtRp2843
(dp2844
g74
(dp2845
sg83
g2395
sg76
(lp2846
g69
(g90
g71
NtRp2847
(dp2848
g74
(dp2849
g94
g95
ssg83
g2843
sg76
(lp2850
S'wsgi.multithread'
p2851
asbag69
(g90
g71
NtRp2852
(dp2853
g74
(dp2854
g101
g102
ssg83
g2843
sg76
(lp2855
S':'
asbag69
(g90
g71
NtRp2856
(dp2857
g74
(dp2858
sg83
g2843
sg76
(lp2859
g69
(g70
g71
NtRp2860
(dp2861
g74
(dp2862
g82
I3
ssg83
g2856
sg76
(lp2863
g1646
asbasbasbag69
(g85
g71
NtRp2864
(dp2865
g74
(dp2866
sg83
g2395
sg76
(lp2867
g69
(g90
g71
NtRp2868
(dp2869
g74
(dp2870
g94
g95
ssg83
g2864
sg76
(lp2871
S'wsgi.run_once'
p2872
asbag69
(g90
g71
NtRp2873
(dp2874
g74
(dp2875
g101
g102
ssg83
g2864
sg76
(lp2876
S':'
asbag69
(g90
g71
NtRp2877
(dp2878
g74
(dp2879
sg83
g2864
sg76
(lp2880
g69
(g70
g71
NtRp2881
(dp2882
g74
(dp2883
g82
I3
ssg83
g2877
sg76
(lp2884
g112
asbasbasbag69
(g85
g71
NtRp2885
(dp2886
g74
(dp2887
sg83
g2395
sg76
(lp2888
g69
(g90
g71
NtRp2889
(dp2890
g74
(dp2891
g94
g95
ssg83
g2885
sg76
(lp2892
S'wsgi.url_scheme'
p2893
asbag69
(g90
g71
NtRp2894
(dp2895
g74
(dp2896
g101
g102
ssg83
g2885
sg76
(lp2897
S':'
asbag69
(g90
g71
NtRp2898
(dp2899
g74
(dp2900
sg83
g2885
sg76
(lp2901
g69
(g70
g71
NtRp2902
(dp2903
g74
(dp2904
g82
I3
ssg83
g2898
sg76
(lp2905
g1689
asbasbasbag69
(g85
g71
NtRp2906
(dp2907
g74
(dp2908
sg83
g2395
sg76
(lp2909
g69
(g90
g71
NtRp2910
(dp2911
g74
(dp2912
g94
g95
ssg83
g2906
sg76
(lp2913
S'wsgi.version'
p2914
asbag69
(g90
g71
NtRp2915
(dp2916
g74
(dp2917
g101
g102
ssg83
g2906
sg76
(lp2918
S':'
asbag69
(g90
g71
NtRp2919
(dp2920
g74
(dp2921
sg83
g2906
sg76
(lp2922
g69
(g70
g71
NtRp2923
(dp2924
g74
(dp2925
g82
I3
ssg83
g2919
sg76
(lp2926
S'1'
asbasbasbasbasbasbasbasbasbasbasbasbasbsS'frames'
p2927
(lp2928
(dp2929
S'file'
p2930
S'/usr/lib/pymodules/python2.7/gluon/restricted.py'
p2931
sS'dump'
p2932
(dp2933
S'code'
p2934
S"'# -*- coding: utf-8 -*-\\n# this file is released ...mments)\\n\\n\\n\\nresponse._vars=response._caller(lall)\\n'"
p2935
sS'layer'
p2936
S"'/home/jigar/web2py/applications/app1/controllers/default.py'"
p2937
sS'global compile2'
p2938
S'<function compile2>'
p2939
sS'ccode'
p2940
S'undefined'
p2941
ssS'lnum'
p2942
I203
sS'lines'
p2943
(dp2944
I198
S"    environment['__file__'] = layer"
p2945
sI199
S'    try:'
p2946
sI200
S'        if type(code) == types.CodeType:'
p2947
sI201
S'            ccode = code'
p2948
sI202
S'        else:'
p2949
sI203
S'            ccode = compile2(code,layer)'
p2950
sI204
S'        exec ccode in environment'
p2951
sI205
S'    except HTTP:'
p2952
sI206
S'        raise'
p2953
sI207
S'    except RestrictedError:'
p2954
ssS'call'
p2955
S"(code='# -*- coding: utf-8 -*-\\n# this file is released ...mments)\\n\\n\\n\\nresponse._vars=response._caller(lall)\\n', environment={'A': <class 'gluon.html.A'>, 'Auth': <class 'gluon.tools.Auth'>, 'B': <class 'gluon.html.B'>, 'BEAUTIFY': <class 'gluon.html.BEAUTIFY'>, 'BODY': <class 'gluon.html.BODY'>, 'BR': <class 'gluon.html.BR'>, 'BUTTON': <class 'gluon.html.BUTTON'>, 'CAT': <class 'gluon.html.CAT'>, 'CENTER': <class 'gluon.html.CENTER'>, 'CLEANUP': <class 'gluon.validators.CLEANUP'>, ...}, layer='/home/jigar/web2py/applications/app1/controllers/default.py')"
p2956
sS'func'
p2957
S'restricted'
p2958
sa(dp2959
g2930
S'/usr/lib/pymodules/python2.7/gluon/restricted.py'
p2960
sg2932
(dp2961
S'builtincompile'
p2962
S'<built-in function compile>'
p2963
sS'code'
p2964
S"'# -*- coding: utf-8 -*-\\n# this file is released ...mments)\\n\\n\\n\\nresponse._vars=response._caller(lall)\\n'"
p2965
sS'code.rstrip'
p2966
S'<built-in method rstrip of str object>'
p2967
sS').replace'
p2968
g2941
sS'layer'
p2969
S"'/home/jigar/web2py/applications/app1/controllers/default.py'"
p2970
ssg2942
I189
sg2943
(dp2971
I192
S'    """'
p2972
sI193
S'    runs code in environment and returns the output. if an exception occurs'
p2973
sI184
S''
sI185
S'def compile2(code,layer):'
p2974
sI186
S'    """'
p2975
sI187
S"    The +'\\n' is necessary else compile fails when code ends in a comment."
p2976
sI188
S'    """'
p2977
sI189
S"    return compile(code.rstrip().replace('\\r\\n','\\n')+'\\n', layer, 'exec')"
p2978
sI190
S''
sI191
S"def restricted(code, environment=None, layer='Unknown'):"
p2979
ssg2955
S"(code='# -*- coding: utf-8 -*-\\n# this file is released ...mments)\\n\\n\\n\\nresponse._vars=response._caller(lall)\\n', layer='/home/jigar/web2py/applications/app1/controllers/default.py')"
p2980
sg2957
S'compile2'
p2981
sasS'pyver'
p2982
S'Python 2.7.3: /usr/bin/python'
p2983
sS'session'
p2984
g69
(g70
g71
NtRp2985
(dp2986
g74
(dp2987
sg76
(lp2988
g69
(g78
g71
NtRp2989
(dp2990
g74
(dp2991
g82
I5
ssg83
Nsg76
(lp2992
g69
(g85
g71
NtRp2993
(dp2994
g74
(dp2995
sg83
g2989
sg76
(lp2996
g69
(g90
g71
NtRp2997
(dp2998
g74
(dp2999
g94
g95
ssg83
g2993
sg76
(lp3000
S'auth'
p3001
asbag69
(g90
g71
NtRp3002
(dp3003
g74
(dp3004
g101
g102
ssg83
g2993
sg76
(lp3005
S':'
asbag69
(g90
g71
NtRp3006
(dp3007
g74
(dp3008
sg83
g2993
sg76
(lp3009
g69
(g70
g71
NtRp3010
(dp3011
g74
(dp3012
g82
I5
ssg83
g3006
sg76
(lp3013
g69
(g78
g71
NtRp3014
(dp3015
g74
(dp3016
g82
I4
ssg83
Nsg76
(lp3017
g69
(g85
g71
NtRp3018
(dp3019
g74
(dp3020
sg83
g3014
sg76
(lp3021
g69
(g90
g71
NtRp3022
(dp3023
g74
(dp3024
g94
g95
ssg83
g3018
sg76
(lp3025
S'expiration'
p3026
asbag69
(g90
g71
NtRp3027
(dp3028
g74
(dp3029
g101
g102
ssg83
g3018
sg76
(lp3030
S':'
asbag69
(g90
g71
NtRp3031
(dp3032
g74
(dp3033
sg83
g3018
sg76
(lp3034
g69
(g70
g71
NtRp3035
(dp3036
g74
(dp3037
g82
I4
ssg83
g3031
sg76
(lp3038
S'3600'
p3039
asbasbasbag69
(g85
g71
NtRp3040
(dp3041
g74
(dp3042
sg83
g3014
sg76
(lp3043
g69
(g90
g71
NtRp3044
(dp3045
g74
(dp3046
g94
g95
ssg83
g3040
sg76
(lp3047
S'hmac_key'
p3048
asbag69
(g90
g71
NtRp3049
(dp3050
g74
(dp3051
g101
g102
ssg83
g3040
sg76
(lp3052
S':'
asbag69
(g90
g71
NtRp3053
(dp3054
g74
(dp3055
sg83
g3040
sg76
(lp3056
g69
(g70
g71
NtRp3057
(dp3058
g74
(dp3059
g82
I4
ssg83
g3053
sg76
(lp3060
S'0ddad532-70a2-43e6-8a4d-3444202d04d2'
p3061
asbasbasbag69
(g85
g71
NtRp3062
(dp3063
g74
(dp3064
sg83
g3014
sg76
(lp3065
g69
(g90
g71
NtRp3066
(dp3067
g74
(dp3068
g94
g95
ssg83
g3062
sg76
(lp3069
S'last_visit'
p3070
asbag69
(g90
g71
NtRp3071
(dp3072
g74
(dp3073
g101
g102
ssg83
g3062
sg76
(lp3074
S':'
asbag69
(g90
g71
NtRp3075
(dp3076
g74
(dp3077
sg83
g3062
sg76
(lp3078
g69
(g70
g71
NtRp3079
(dp3080
g74
(dp3081
g82
I4
ssg83
g3075
sg76
(lp3082
S'datetime.datetime(2013, 8, 30, 0, 57, 53, 928398)'
p3083
asbasbasbag69
(g85
g71
NtRp3084
(dp3085
g74
(dp3086
sg83
g3014
sg76
(lp3087
g69
(g90
g71
NtRp3088
(dp3089
g74
(dp3090
g94
g95
ssg83
g3084
sg76
(lp3091
S'user'
p3092
asbag69
(g90
g71
NtRp3093
(dp3094
g74
(dp3095
g101
g102
ssg83
g3084
sg76
(lp3096
S':'
asbag69
(g90
g71
NtRp3097
(dp3098
g74
(dp3099
sg83
g3084
sg76
(lp3100
g69
(g70
g71
NtRp3101
(dp3102
g74
(dp3103
g82
I4
ssg83
g3097
sg76
(lp3104
g69
(g78
g71
NtRp3105
(dp3106
g74
(dp3107
g82
I3
ssg83
Nsg76
(lp3108
g69
(g85
g71
NtRp3109
(dp3110
g74
(dp3111
sg83
g3105
sg76
(lp3112
g69
(g90
g71
NtRp3113
(dp3114
g74
(dp3115
g94
g95
ssg83
g3109
sg76
(lp3116
S'City'
p3117
asbag69
(g90
g71
NtRp3118
(dp3119
g74
(dp3120
g101
g102
ssg83
g3109
sg76
(lp3121
S':'
asbag69
(g90
g71
NtRp3122
(dp3123
g74
(dp3124
sg83
g3109
sg76
(lp3125
g69
(g70
g71
NtRp3126
(dp3127
g74
(dp3128
g82
I3
ssg83
g3122
sg76
(lp3129
S'Rajkot'
p3130
asbasbasbag69
(g85
g71
NtRp3131
(dp3132
g74
(dp3133
sg83
g3105
sg76
(lp3134
g69
(g90
g71
NtRp3135
(dp3136
g74
(dp3137
g94
g95
ssg83
g3131
sg76
(lp3138
S'Member_type'
p3139
asbag69
(g90
g71
NtRp3140
(dp3141
g74
(dp3142
g101
g102
ssg83
g3131
sg76
(lp3143
S':'
asbag69
(g90
g71
NtRp3144
(dp3145
g74
(dp3146
sg83
g3131
sg76
(lp3147
g69
(g70
g71
NtRp3148
(dp3149
g74
(dp3150
g82
I3
ssg83
g3144
sg76
(lp3151
S'User'
p3152
asbasbasbag69
(g85
g71
NtRp3153
(dp3154
g74
(dp3155
sg83
g3105
sg76
(lp3156
g69
(g90
g71
NtRp3157
(dp3158
g74
(dp3159
g94
g95
ssg83
g3153
sg76
(lp3160
S'Profile_Pic'
p3161
asbag69
(g90
g71
NtRp3162
(dp3163
g74
(dp3164
g101
g102
ssg83
g3153
sg76
(lp3165
S':'
asbag69
(g90
g71
NtRp3166
(dp3167
g74
(dp3168
sg83
g3153
sg76
(lp3169
g69
(g70
g71
NtRp3170
(dp3171
g74
(dp3172
g82
I3
ssg83
g3166
sg76
(lp3173
S''
asbasbasbag69
(g85
g71
NtRp3174
(dp3175
g74
(dp3176
sg83
g3105
sg76
(lp3177
g69
(g90
g71
NtRp3178
(dp3179
g74
(dp3180
g94
g95
ssg83
g3174
sg76
(lp3181
S'email'
p3182
asbag69
(g90
g71
NtRp3183
(dp3184
g74
(dp3185
g101
g102
ssg83
g3174
sg76
(lp3186
S':'
asbag69
(g90
g71
NtRp3187
(dp3188
g74
(dp3189
sg83
g3174
sg76
(lp3190
g69
(g70
g71
NtRp3191
(dp3192
g74
(dp3193
g82
I3
ssg83
g3187
sg76
(lp3194
S'kotak.ankit@gmail.com'
p3195
asbasbasbag69
(g85
g71
NtRp3196
(dp3197
g74
(dp3198
sg83
g3105
sg76
(lp3199
g69
(g90
g71
NtRp3200
(dp3201
g74
(dp3202
g94
g95
ssg83
g3196
sg76
(lp3203
S'first_name'
p3204
asbag69
(g90
g71
NtRp3205
(dp3206
g74
(dp3207
g101
g102
ssg83
g3196
sg76
(lp3208
S':'
asbag69
(g90
g71
NtRp3209
(dp3210
g74
(dp3211
sg83
g3196
sg76
(lp3212
g69
(g70
g71
NtRp3213
(dp3214
g74
(dp3215
g82
I3
ssg83
g3209
sg76
(lp3216
S'Kotak'
p3217
asbasbasbag69
(g85
g71
NtRp3218
(dp3219
g74
(dp3220
sg83
g3105
sg76
(lp3221
g69
(g90
g71
NtRp3222
(dp3223
g74
(dp3224
g94
g95
ssg83
g3218
sg76
(lp3225
S'id'
p3226
asbag69
(g90
g71
NtRp3227
(dp3228
g74
(dp3229
g101
g102
ssg83
g3218
sg76
(lp3230
S':'
asbag69
(g90
g71
NtRp3231
(dp3232
g74
(dp3233
sg83
g3218
sg76
(lp3234
g69
(g70
g71
NtRp3235
(dp3236
g74
(dp3237
g82
I3
ssg83
g3231
sg76
(lp3238
S'3'
asbasbasbag69
(g85
g71
NtRp3239
(dp3240
g74
(dp3241
sg83
g3105
sg76
(lp3242
g69
(g90
g71
NtRp3243
(dp3244
g74
(dp3245
g94
g95
ssg83
g3239
sg76
(lp3246
S'last_name'
p3247
asbag69
(g90
g71
NtRp3248
(dp3249
g74
(dp3250
g101
g102
ssg83
g3239
sg76
(lp3251
S':'
asbag69
(g90
g71
NtRp3252
(dp3253
g74
(dp3254
sg83
g3239
sg76
(lp3255
g69
(g70
g71
NtRp3256
(dp3257
g74
(dp3258
g82
I3
ssg83
g3252
sg76
(lp3259
S'Ankit'
p3260
asbasbasbag69
(g85
g71
NtRp3261
(dp3262
g74
(dp3263
sg83
g3105
sg76
(lp3264
g69
(g90
g71
NtRp3265
(dp3266
g74
(dp3267
g94
g95
ssg83
g3261
sg76
(lp3268
S'password'
p3269
asbag69
(g90
g71
NtRp3270
(dp3271
g74
(dp3272
g101
g102
ssg83
g3261
sg76
(lp3273
S':'
asbag69
(g90
g71
NtRp3274
(dp3275
g74
(dp3276
sg83
g3261
sg76
(lp3277
g69
(g70
g71
NtRp3278
(dp3279
g74
(dp3280
g82
I3
ssg83
g3274
sg76
(lp3281
S'322411aa1b7b437bab6c1ef957bd636d'
p3282
asbasbasbag69
(g85
g71
NtRp3283
(dp3284
g74
(dp3285
sg83
g3105
sg76
(lp3286
g69
(g90
g71
NtRp3287
(dp3288
g74
(dp3289
g94
g95
ssg83
g3283
sg76
(lp3290
S'registration_id'
p3291
asbag69
(g90
g71
NtRp3292
(dp3293
g74
(dp3294
g101
g102
ssg83
g3283
sg76
(lp3295
S':'
asbag69
(g90
g71
NtRp3296
(dp3297
g74
(dp3298
sg83
g3283
sg76
(lp3299
g69
(g70
g71
NtRp3300
(dp3301
g74
(dp3302
g82
I3
ssg83
g3296
sg76
(lp3303
S''
asbasbasbag69
(g85
g71
NtRp3304
(dp3305
g74
(dp3306
sg83
g3105
sg76
(lp3307
g69
(g90
g71
NtRp3308
(dp3309
g74
(dp3310
g94
g95
ssg83
g3304
sg76
(lp3311
S'registration_key'
p3312
asbag69
(g90
g71
NtRp3313
(dp3314
g74
(dp3315
g101
g102
ssg83
g3304
sg76
(lp3316
S':'
asbag69
(g90
g71
NtRp3317
(dp3318
g74
(dp3319
sg83
g3304
sg76
(lp3320
g69
(g70
g71
NtRp3321
(dp3322
g74
(dp3323
g82
I3
ssg83
g3317
sg76
(lp3324
S''
asbasbasbag69
(g85
g71
NtRp3325
(dp3326
g74
(dp3327
sg83
g3105
sg76
(lp3328
g69
(g90
g71
NtRp3329
(dp3330
g74
(dp3331
g94
g95
ssg83
g3325
sg76
(lp3332
S'reset_password_key'
p3333
asbag69
(g90
g71
NtRp3334
(dp3335
g74
(dp3336
g101
g102
ssg83
g3325
sg76
(lp3337
S':'
asbag69
(g90
g71
NtRp3338
(dp3339
g74
(dp3340
sg83
g3325
sg76
(lp3341
g69
(g70
g71
NtRp3342
(dp3343
g74
(dp3344
g82
I3
ssg83
g3338
sg76
(lp3345
S''
asbasbasbasbasbasbasbasbasbasbasbag69
(g85
g71
NtRp3346
(dp3347
g74
(dp3348
sg83
g2989
sg76
(lp3349
g69
(g90
g71
NtRp3350
(dp3351
g74
(dp3352
g94
g95
ssg83
g3346
sg76
(lp3353
S'last_query'
p3354
asbag69
(g90
g71
NtRp3355
(dp3356
g74
(dp3357
g101
g102
ssg83
g3346
sg76
(lp3358
S':'
asbag69
(g90
g71
NtRp3359
(dp3360
g74
(dp3361
sg83
g3346
sg76
(lp3362
g69
(g70
g71
NtRp3363
(dp3364
g74
(dp3365
g82
I5
ssg83
g3359
sg76
(lp3366
S'db.Post.id>0'
p3367
asbasbasbasbasbsS'etype'
p3368
S"<type 'exceptions.SyntaxError'>"
p3369
sS'date'
p3370
S'Fri Aug 30 00:57:53 2013'
p3371
sS'response'
p3372
g69
(g70
g71
NtRp3373
(dp3374
g74
(dp3375
sg76
(lp3376
g69
(g78
g71
NtRp3377
(dp3378
g74
(dp3379
g82
I5
ssg83
Nsg76
(lp3380
g69
(g85
g71
NtRp3381
(dp3382
g74
(dp3383
sg83
g3377
sg76
(lp3384
g69
(g90
g71
NtRp3385
(dp3386
g74
(dp3387
g94
g95
ssg83
g3381
sg76
(lp3388
g167
asbag69
(g90
g71
NtRp3389
(dp3390
g74
(dp3391
g101
g102
ssg83
g3381
sg76
(lp3392
S':'
asbag69
(g90
g71
NtRp3393
(dp3394
g74
(dp3395
sg83
g3381
sg76
(lp3396
g69
(g70
g71
NtRp3397
(dp3398
g74
(dp3399
g82
I5
ssg83
g3393
sg76
(lp3400
S'<cStringIO.StringO object at 0x7fc840316ca8>'
p3401
asbasbasbag69
(g85
g71
NtRp3402
(dp3403
g74
(dp3404
sg83
g3377
sg76
(lp3405
g69
(g90
g71
NtRp3406
(dp3407
g74
(dp3408
g94
g95
ssg83
g3402
sg76
(lp3409
g233
asbag69
(g90
g71
NtRp3410
(dp3411
g74
(dp3412
g101
g102
ssg83
g3402
sg76
(lp3413
S':'
asbag69
(g90
g71
NtRp3414
(dp3415
g74
(dp3416
sg83
g3402
sg76
(lp3417
g69
(g70
g71
NtRp3418
(dp3419
g74
(dp3420
g82
I5
ssg83
g3414
sg76
(lp3421
g69
(g78
g71
NtRp3422
(dp3423
g74
(dp3424
g82
I4
ssg83
Nsg76
(lp3425
g69
(g85
g71
NtRp3426
(dp3427
g74
(dp3428
sg83
g3422
sg76
(lp3429
g69
(g90
g71
NtRp3430
(dp3431
g74
(dp3432
g94
g95
ssg83
g3426
sg76
(lp3433
S'session_id_app1'
p3434
asbag69
(g90
g71
NtRp3435
(dp3436
g74
(dp3437
g101
g102
ssg83
g3426
sg76
(lp3438
S':'
asbag69
(g90
g71
NtRp3439
(dp3440
g74
(dp3441
sg83
g3426
sg76
(lp3442
g69
(g70
g71
NtRp3443
(dp3444
g74
(dp3445
g82
I4
ssg83
g3439
sg76
(lp3446
g69
(g78
g71
NtRp3447
(dp3448
g74
(dp3449
g82
I3
ssg83
Nsg76
(lp3450
g69
(g85
g71
NtRp3451
(dp3452
g74
(dp3453
sg83
g3447
sg76
(lp3454
g69
(g90
g71
NtRp3455
(dp3456
g74
(dp3457
g94
g95
ssg83
g3451
sg76
(lp3458
g283
asbag69
(g90
g71
NtRp3459
(dp3460
g74
(dp3461
g101
g102
ssg83
g3451
sg76
(lp3462
S':'
asbag69
(g90
g71
NtRp3463
(dp3464
g74
(dp3465
sg83
g3451
sg76
(lp3466
g69
(g70
g71
NtRp3467
(dp3468
g74
(dp3469
g82
I3
ssg83
g3463
sg76
(lp3470
S''
asbasbasbag69
(g85
g71
NtRp3471
(dp3472
g74
(dp3473
sg83
g3447
sg76
(lp3474
g69
(g90
g71
NtRp3475
(dp3476
g74
(dp3477
g94
g95
ssg83
g3471
sg76
(lp3478
g304
asbag69
(g90
g71
NtRp3479
(dp3480
g74
(dp3481
g101
g102
ssg83
g3471
sg76
(lp3482
S':'
asbag69
(g90
g71
NtRp3483
(dp3484
g74
(dp3485
sg83
g3471
sg76
(lp3486
g69
(g70
g71
NtRp3487
(dp3488
g74
(dp3489
g82
I3
ssg83
g3483
sg76
(lp3490
S''
asbasbasbag69
(g85
g71
NtRp3491
(dp3492
g74
(dp3493
sg83
g3447
sg76
(lp3494
g69
(g90
g71
NtRp3495
(dp3496
g74
(dp3497
g94
g95
ssg83
g3491
sg76
(lp3498
g325
asbag69
(g90
g71
NtRp3499
(dp3500
g74
(dp3501
g101
g102
ssg83
g3491
sg76
(lp3502
S':'
asbag69
(g90
g71
NtRp3503
(dp3504
g74
(dp3505
sg83
g3491
sg76
(lp3506
g69
(g70
g71
NtRp3507
(dp3508
g74
(dp3509
g82
I3
ssg83
g3503
sg76
(lp3510
S''
asbasbasbag69
(g85
g71
NtRp3511
(dp3512
g74
(dp3513
sg83
g3447
sg76
(lp3514
g69
(g90
g71
NtRp3515
(dp3516
g74
(dp3517
g94
g95
ssg83
g3511
sg76
(lp3518
g346
asbag69
(g90
g71
NtRp3519
(dp3520
g74
(dp3521
g101
g102
ssg83
g3511
sg76
(lp3522
S':'
asbag69
(g90
g71
NtRp3523
(dp3524
g74
(dp3525
sg83
g3511
sg76
(lp3526
g69
(g70
g71
NtRp3527
(dp3528
g74
(dp3529
g82
I3
ssg83
g3523
sg76
(lp3530
S''
asbasbasbag69
(g85
g71
NtRp3531
(dp3532
g74
(dp3533
sg83
g3447
sg76
(lp3534
g69
(g90
g71
NtRp3535
(dp3536
g74
(dp3537
g94
g95
ssg83
g3531
sg76
(lp3538
g367
asbag69
(g90
g71
NtRp3539
(dp3540
g74
(dp3541
g101
g102
ssg83
g3531
sg76
(lp3542
S':'
asbag69
(g90
g71
NtRp3543
(dp3544
g74
(dp3545
sg83
g3531
sg76
(lp3546
g69
(g70
g71
NtRp3547
(dp3548
g74
(dp3549
g82
I3
ssg83
g3543
sg76
(lp3550
S''
asbasbasbag69
(g85
g71
NtRp3551
(dp3552
g74
(dp3553
sg83
g3447
sg76
(lp3554
g69
(g90
g71
NtRp3555
(dp3556
g74
(dp3557
g94
g95
ssg83
g3551
sg76
(lp3558
g388
asbag69
(g90
g71
NtRp3559
(dp3560
g74
(dp3561
g101
g102
ssg83
g3551
sg76
(lp3562
S':'
asbag69
(g90
g71
NtRp3563
(dp3564
g74
(dp3565
sg83
g3551
sg76
(lp3566
g69
(g70
g71
NtRp3567
(dp3568
g74
(dp3569
g82
I3
ssg83
g3563
sg76
(lp3570
S'/'
asbasbasbag69
(g85
g71
NtRp3571
(dp3572
g74
(dp3573
sg83
g3447
sg76
(lp3574
g69
(g90
g71
NtRp3575
(dp3576
g74
(dp3577
g94
g95
ssg83
g3571
sg76
(lp3578
g409
asbag69
(g90
g71
NtRp3579
(dp3580
g74
(dp3581
g101
g102
ssg83
g3571
sg76
(lp3582
S':'
asbag69
(g90
g71
NtRp3583
(dp3584
g74
(dp3585
sg83
g3571
sg76
(lp3586
g69
(g70
g71
NtRp3587
(dp3588
g74
(dp3589
g82
I3
ssg83
g3583
sg76
(lp3590
S''
asbasbasbag69
(g85
g71
NtRp3591
(dp3592
g74
(dp3593
sg83
g3447
sg76
(lp3594
g69
(g90
g71
NtRp3595
(dp3596
g74
(dp3597
g94
g95
ssg83
g3591
sg76
(lp3598
g430
asbag69
(g90
g71
NtRp3599
(dp3600
g74
(dp3601
g101
g102
ssg83
g3591
sg76
(lp3602
S':'
asbag69
(g90
g71
NtRp3603
(dp3604
g74
(dp3605
sg83
g3591
sg76
(lp3606
g69
(g70
g71
NtRp3607
(dp3608
g74
(dp3609
g82
I3
ssg83
g3603
sg76
(lp3610
S''
asbasbasbasbasbasbasbasbasbasbasbag69
(g85
g71
NtRp3611
(dp3612
g74
(dp3613
sg83
g3377
sg76
(lp3614
g69
(g90
g71
NtRp3615
(dp3616
g74
(dp3617
g94
g95
ssg83
g3611
sg76
(lp3618
S'files'
p3619
asbag69
(g90
g71
NtRp3620
(dp3621
g74
(dp3622
g101
g102
ssg83
g3611
sg76
(lp3623
S':'
asbag69
(g90
g71
NtRp3624
(dp3625
g74
(dp3626
sg83
g3611
sg76
(lp3627
g69
(g70
g71
NtRp3628
(dp3629
g74
(dp3630
g82
I5
ssg83
g3624
sg76
(lp3631
g69
(g78
g71
NtRp3632
(dp3633
g74
(dp3634
g82
I4
ssg83
Nsg76
(lp3635
sbasbasbasbag69
(g85
g71
NtRp3636
(dp3637
g74
(dp3638
sg83
g3377
sg76
(lp3639
g69
(g90
g71
NtRp3640
(dp3641
g74
(dp3642
g94
g95
ssg83
g3636
sg76
(lp3643
S'flash'
p3644
asbag69
(g90
g71
NtRp3645
(dp3646
g74
(dp3647
g101
g102
ssg83
g3636
sg76
(lp3648
S':'
asbag69
(g90
g71
NtRp3649
(dp3650
g74
(dp3651
sg83
g3636
sg76
(lp3652
g69
(g70
g71
NtRp3653
(dp3654
g74
(dp3655
g82
I5
ssg83
g3649
sg76
(lp3656
S''
asbasbasbag69
(g85
g71
NtRp3657
(dp3658
g74
(dp3659
sg83
g3377
sg76
(lp3660
g69
(g90
g71
NtRp3661
(dp3662
g74
(dp3663
g94
g95
ssg83
g3657
sg76
(lp3664
S'generic_patterns'
p3665
asbag69
(g90
g71
NtRp3666
(dp3667
g74
(dp3668
g101
g102
ssg83
g3657
sg76
(lp3669
S':'
asbag69
(g90
g71
NtRp3670
(dp3671
g74
(dp3672
sg83
g3657
sg76
(lp3673
g69
(g70
g71
NtRp3674
(dp3675
g74
(dp3676
g82
I5
ssg83
g3670
sg76
(lp3677
g69
(g78
g71
NtRp3678
(dp3679
g74
(dp3680
g82
I4
ssg83
Nsg76
(lp3681
g69
(g85
g71
NtRp3682
(dp3683
g74
(dp3684
sg83
g3678
sg76
(lp3685
g69
(g90
g71
NtRp3686
(dp3687
g74
(dp3688
sg83
g3682
sg76
(lp3689
g69
(g70
g71
NtRp3690
(dp3691
g74
(dp3692
g82
I4
ssg83
g3686
sg76
(lp3693
S'*'
asbasbasbasbasbasbasbag69
(g85
g71
NtRp3694
(dp3695
g74
(dp3696
sg83
g3377
sg76
(lp3697
g69
(g90
g71
NtRp3698
(dp3699
g74
(dp3700
g94
g95
ssg83
g3694
sg76
(lp3701
S'headers'
p3702
asbag69
(g90
g71
NtRp3703
(dp3704
g74
(dp3705
g101
g102
ssg83
g3694
sg76
(lp3706
S':'
asbag69
(g90
g71
NtRp3707
(dp3708
g74
(dp3709
sg83
g3694
sg76
(lp3710
g69
(g70
g71
NtRp3711
(dp3712
g74
(dp3713
g82
I5
ssg83
g3707
sg76
(lp3714
g69
(g78
g71
NtRp3715
(dp3716
g74
(dp3717
g82
I4
ssg83
Nsg76
(lp3718
g69
(g85
g71
NtRp3719
(dp3720
g74
(dp3721
sg83
g3715
sg76
(lp3722
g69
(g90
g71
NtRp3723
(dp3724
g74
(dp3725
g94
g95
ssg83
g3719
sg76
(lp3726
S'Cache-Control'
p3727
asbag69
(g90
g71
NtRp3728
(dp3729
g74
(dp3730
g101
g102
ssg83
g3719
sg76
(lp3731
S':'
asbag69
(g90
g71
NtRp3732
(dp3733
g74
(dp3734
sg83
g3719
sg76
(lp3735
g69
(g70
g71
NtRp3736
(dp3737
g74
(dp3738
g82
I4
ssg83
g3732
sg76
(lp3739
S'no-store, no-cache, must-revalidate, post-check=0, pre-check=0'
p3740
asbasbasbag69
(g85
g71
NtRp3741
(dp3742
g74
(dp3743
sg83
g3715
sg76
(lp3744
g69
(g90
g71
NtRp3745
(dp3746
g74
(dp3747
g94
g95
ssg83
g3741
sg76
(lp3748
S'Content-Type'
p3749
asbag69
(g90
g71
NtRp3750
(dp3751
g74
(dp3752
g101
g102
ssg83
g3741
sg76
(lp3753
S':'
asbag69
(g90
g71
NtRp3754
(dp3755
g74
(dp3756
sg83
g3741
sg76
(lp3757
g69
(g70
g71
NtRp3758
(dp3759
g74
(dp3760
g82
I4
ssg83
g3754
sg76
(lp3761
S'text/html; charset=utf-8'
p3762
asbasbasbag69
(g85
g71
NtRp3763
(dp3764
g74
(dp3765
sg83
g3715
sg76
(lp3766
g69
(g90
g71
NtRp3767
(dp3768
g74
(dp3769
g94
g95
ssg83
g3763
sg76
(lp3770
S'Expires'
p3771
asbag69
(g90
g71
NtRp3772
(dp3773
g74
(dp3774
g101
g102
ssg83
g3763
sg76
(lp3775
S':'
asbag69
(g90
g71
NtRp3776
(dp3777
g74
(dp3778
sg83
g3763
sg76
(lp3779
g69
(g70
g71
NtRp3780
(dp3781
g74
(dp3782
g82
I4
ssg83
g3776
sg76
(lp3783
S'Thu, 29 Aug 2013 19:27:53 GMT'
p3784
asbasbasbag69
(g85
g71
NtRp3785
(dp3786
g74
(dp3787
sg83
g3715
sg76
(lp3788
g69
(g90
g71
NtRp3789
(dp3790
g74
(dp3791
g94
g95
ssg83
g3785
sg76
(lp3792
S'Pragma'
p3793
asbag69
(g90
g71
NtRp3794
(dp3795
g74
(dp3796
g101
g102
ssg83
g3785
sg76
(lp3797
S':'
asbag69
(g90
g71
NtRp3798
(dp3799
g74
(dp3800
sg83
g3785
sg76
(lp3801
g69
(g70
g71
NtRp3802
(dp3803
g74
(dp3804
g82
I4
ssg83
g3798
sg76
(lp3805
S'no-cache'
p3806
asbasbasbag69
(g85
g71
NtRp3807
(dp3808
g74
(dp3809
sg83
g3715
sg76
(lp3810
g69
(g90
g71
NtRp3811
(dp3812
g74
(dp3813
g94
g95
ssg83
g3807
sg76
(lp3814
S'X-Powered-By'
p3815
asbag69
(g90
g71
NtRp3816
(dp3817
g74
(dp3818
g101
g102
ssg83
g3807
sg76
(lp3819
S':'
asbag69
(g90
g71
NtRp3820
(dp3821
g74
(dp3822
sg83
g3807
sg76
(lp3823
g69
(g70
g71
NtRp3824
(dp3825
g74
(dp3826
g82
I4
ssg83
g3820
sg76
(lp3827
S'web2py'
p3828
asbasbasbasbasbasbasbag69
(g85
g71
NtRp3829
(dp3830
g74
(dp3831
sg83
g3377
sg76
(lp3832
g69
(g90
g71
NtRp3833
(dp3834
g74
(dp3835
g94
g95
ssg83
g3829
sg76
(lp3836
S'menu'
p3837
asbag69
(g90
g71
NtRp3838
(dp3839
g74
(dp3840
g101
g102
ssg83
g3829
sg76
(lp3841
S':'
asbag69
(g90
g71
NtRp3842
(dp3843
g74
(dp3844
sg83
g3829
sg76
(lp3845
g69
(g70
g71
NtRp3846
(dp3847
g74
(dp3848
g82
I5
ssg83
g3842
sg76
(lp3849
g69
(g78
g71
NtRp3850
(dp3851
g74
(dp3852
g82
I4
ssg83
Nsg76
(lp3853
g69
(g85
g71
NtRp3854
(dp3855
g74
(dp3856
sg83
g3850
sg76
(lp3857
g69
(g90
g71
NtRp3858
(dp3859
g74
(dp3860
sg83
g3854
sg76
(lp3861
g69
(g70
g71
NtRp3862
(dp3863
g74
(dp3864
g82
I4
ssg83
g3858
sg76
(lp3865
g69
(g78
g71
NtRp3866
(dp3867
g74
(dp3868
g82
I3
ssg83
Nsg76
(lp3869
g69
(g85
g71
NtRp3870
(dp3871
g74
(dp3872
sg83
g3866
sg76
(lp3873
g69
(g90
g71
NtRp3874
(dp3875
g74
(dp3876
sg83
g3870
sg76
(lp3877
g69
(g70
g71
NtRp3878
(dp3879
g74
(dp3880
g82
I3
ssg83
g3874
sg76
(lp3881
cgluon.languages
lazyT_unpickle
p3882
(S't\x04\x00\x00\x00Home'
tRp3883
asbasbasbag69
(g85
g71
NtRp3884
(dp3885
g74
(dp3886
sg83
g3866
sg76
(lp3887
g69
(g90
g71
NtRp3888
(dp3889
g74
(dp3890
sg83
g3884
sg76
(lp3891
g69
(g70
g71
NtRp3892
(dp3893
g74
(dp3894
g82
I3
ssg83
g3888
sg76
(lp3895
g112
asbasbasbag69
(g85
g71
NtRp3896
(dp3897
g74
(dp3898
sg83
g3866
sg76
(lp3899
g69
(g90
g71
NtRp3900
(dp3901
g74
(dp3902
sg83
g3896
sg76
(lp3903
g69
(g70
g71
NtRp3904
(dp3905
g74
(dp3906
g82
I3
ssg83
g3900
sg76
(lp3907
S'/app1/default/index'
p3908
asbasbasbag69
(g85
g71
NtRp3909
(dp3910
g74
(dp3911
sg83
g3866
sg76
(lp3912
g69
(g90
g71
NtRp3913
(dp3914
g74
(dp3915
sg83
g3909
sg76
(lp3916
g69
(g70
g71
NtRp3917
(dp3918
g74
(dp3919
g82
I3
ssg83
g3913
sg76
(lp3920
g69
(g78
g71
NtRp3921
(dp3922
g74
(dp3923
g82
I2
ssg83
Nsg76
(lp3924
sbasbasbasbasbasbasbasbag69
(g85
g71
NtRp3925
(dp3926
g74
(dp3927
sg83
g3850
sg76
(lp3928
g69
(g90
g71
NtRp3929
(dp3930
g74
(dp3931
sg83
g3925
sg76
(lp3932
g69
(g70
g71
NtRp3933
(dp3934
g74
(dp3935
g82
I4
ssg83
g3929
sg76
(lp3936
g69
(g78
g71
NtRp3937
(dp3938
g74
(dp3939
g82
I3
ssg83
Nsg76
(lp3940
g69
(g85
g71
NtRp3941
(dp3942
g74
(dp3943
sg83
g3937
sg76
(lp3944
g69
(g90
g71
NtRp3945
(dp3946
g74
(dp3947
sg83
g3941
sg76
(lp3948
g69
(g70
g71
NtRp3949
(dp3950
g74
(dp3951
g82
I3
ssg83
g3945
sg76
(lp3952
g69
(cgluon.html
SPAN
p3953
g71
NtRp3954
(dp3955
g74
(dp3956
g94
S'color:yellow'
p3957
ssg83
Nsg76
(lp3958
g3828
asbasbasbasbag69
(g85
g71
NtRp3959
(dp3960
g74
(dp3961
sg83
g3937
sg76
(lp3962
g69
(g90
g71
NtRp3963
(dp3964
g74
(dp3965
sg83
g3959
sg76
(lp3966
g69
(g70
g71
NtRp3967
(dp3968
g74
(dp3969
g82
I3
ssg83
g3963
sg76
(lp3970
g112
asbasbasbag69
(g85
g71
NtRp3971
(dp3972
g74
(dp3973
sg83
g3937
sg76
(lp3974
g69
(g90
g71
NtRp3975
(dp3976
g74
(dp3977
sg83
g3971
sg76
(lp3978
g69
(g70
g71
NtRp3979
(dp3980
g74
(dp3981
g82
I3
ssg83
g3975
sg76
(lp3982
S'None'
p3983
asbasbasbag69
(g85
g71
NtRp3984
(dp3985
g74
(dp3986
sg83
g3937
sg76
(lp3987
g69
(g90
g71
NtRp3988
(dp3989
g74
(dp3990
sg83
g3984
sg76
(lp3991
g69
(g70
g71
NtRp3992
(dp3993
g74
(dp3994
g82
I3
ssg83
g3988
sg76
(lp3995
g69
(g78
g71
NtRp3996
(dp3997
g74
(dp3998
g82
I2
ssg83
Nsg76
(lp3999
g69
(g85
g71
NtRp4000
(dp4001
g74
(dp4002
sg83
g3996
sg76
(lp4003
g69
(g90
g71
NtRp4004
(dp4005
g74
(dp4006
sg83
g4000
sg76
(lp4007
g69
(g70
g71
NtRp4008
(dp4009
g74
(dp4010
g82
I2
ssg83
g4004
sg76
(lp4011
g69
(g78
g71
NtRp4012
(dp4013
g74
(dp4014
g82
I1
ssg83
Nsg76
(lp4015
g69
(g85
g71
NtRp4016
(dp4017
g74
(dp4018
sg83
g4012
sg76
(lp4019
g69
(g90
g71
NtRp4020
(dp4021
g74
(dp4022
sg83
g4016
sg76
(lp4023
g69
(g70
g71
NtRp4024
(dp4025
g74
(dp4026
g82
I1
ssg83
g4020
sg76
(lp4027
g3882
(S's\x08\x00\x00\x00My Sites'
tRp4028
asbasbasbag69
(g85
g71
NtRp4029
(dp4030
g74
(dp4031
sg83
g4012
sg76
(lp4032
g69
(g90
g71
NtRp4033
(dp4034
g74
(dp4035
sg83
g4029
sg76
(lp4036
g69
(g70
g71
NtRp4037
(dp4038
g74
(dp4039
g82
I1
ssg83
g4033
sg76
(lp4040
I00
asbasbasbag69
(g85
g71
NtRp4041
(dp4042
g74
(dp4043
sg83
g4012
sg76
(lp4044
g69
(g90
g71
NtRp4045
(dp4046
g74
(dp4047
sg83
g4041
sg76
(lp4048
g69
(g70
g71
NtRp4049
(dp4050
g74
(dp4051
g82
I1
ssg83
g4045
sg76
(lp4052
S'/admin/default/site'
p4053
asbasbasbasbasbasbasbag69
(g85
g71
NtRp4054
(dp4055
g74
(dp4056
sg83
g3996
sg76
(lp4057
g69
(g90
g71
NtRp4058
(dp4059
g74
(dp4060
sg83
g4054
sg76
(lp4061
g69
(g70
g71
NtRp4062
(dp4063
g74
(dp4064
g82
I2
ssg83
g4058
sg76
(lp4065
g69
(g78
g71
NtRp4066
(dp4067
g74
(dp4068
g82
I1
ssg83
Nsg76
(lp4069
g69
(g85
g71
NtRp4070
(dp4071
g74
(dp4072
sg83
g4066
sg76
(lp4073
g69
(g90
g71
NtRp4074
(dp4075
g74
(dp4076
sg83
g4070
sg76
(lp4077
g69
(g70
g71
NtRp4078
(dp4079
g74
(dp4080
g82
I1
ssg83
g4074
sg76
(lp4081
g3882
(S's\x08\x00\x00\x00This App'
tRp4082
asbasbasbag69
(g85
g71
NtRp4083
(dp4084
g74
(dp4085
sg83
g4066
sg76
(lp4086
g69
(g90
g71
NtRp4087
(dp4088
g74
(dp4089
sg83
g4083
sg76
(lp4090
g69
(g70
g71
NtRp4091
(dp4092
g74
(dp4093
g82
I1
ssg83
g4087
sg76
(lp4094
I00
asbasbasbag69
(g85
g71
NtRp4095
(dp4096
g74
(dp4097
sg83
g4066
sg76
(lp4098
g69
(g90
g71
NtRp4099
(dp4100
g74
(dp4101
sg83
g4095
sg76
(lp4102
g69
(g70
g71
NtRp4103
(dp4104
g74
(dp4105
g82
I1
ssg83
g4099
sg76
(lp4106
S'/admin/default/design/app1'
p4107
asbasbasbag69
(g85
g71
NtRp4108
(dp4109
g74
(dp4110
sg83
g4066
sg76
(lp4111
g69
(g90
g71
NtRp4112
(dp4113
g74
(dp4114
sg83
g4108
sg76
(lp4115
g69
(g70
g71
NtRp4116
(dp4117
g74
(dp4118
g82
I1
ssg83
g4112
sg76
(lp4119
(lp4120
(g3882
(S't\n\x00\x00\x00Controller'
tRp4121
I00
S'/admin/default/edit/app1/controllers/default.py'
tp4122
a(g3882
(S't\x04\x00\x00\x00View'
tRp4123
I00
S'/admin/default/edit/app1/views/default/lall.html'
tp4124
a(g3882
(S't\x06\x00\x00\x00Layout'
tRp4125
I00
S'/admin/default/edit/app1/views/layout.html'
tp4126
a(g3882
(S't\n\x00\x00\x00Stylesheet'
tRp4127
I00
S'/admin/default/edit/app1/static/css/web2py.css'
tp4128
a(g3882
(S's\x08\x00\x00\x00DB Model'
tRp4129
I00
S'/admin/default/edit/app1/models/db.py'
tp4130
a(g3882
(S's\n\x00\x00\x00Menu Model'
tRp4131
I00
S'/admin/default/edit/app1/models/menu.py'
tp4132
a(g3882
(S't\x08\x00\x00\x00Database'
tRp4133
I00
S'/app1/appadmin/index'
tp4134
a(g3882
(S't\x06\x00\x00\x00Errors'
tRp4135
I00
S'/admin/default/errors/app1'
tp4136
a(g3882
(S't\x05\x00\x00\x00About'
tRp4137
I00
S'/admin/default/about/app1'
tp4138
aasbasbasbasbasbasbasbag69
(g85
g71
NtRp4139
(dp4140
g74
(dp4141
sg83
g3996
sg76
(lp4142
g69
(g90
g71
NtRp4143
(dp4144
g74
(dp4145
sg83
g4139
sg76
(lp4146
g69
(g70
g71
NtRp4147
(dp4148
g74
(dp4149
g82
I2
ssg83
g4143
sg76
(lp4150
g69
(g78
g71
NtRp4151
(dp4152
g74
(dp4153
g82
I1
ssg83
Nsg76
(lp4154
g69
(g85
g71
NtRp4155
(dp4156
g74
(dp4157
sg83
g4151
sg76
(lp4158
g69
(g90
g71
NtRp4159
(dp4160
g74
(dp4161
sg83
g4155
sg76
(lp4162
g69
(g70
g71
NtRp4163
(dp4164
g74
(dp4165
g82
I1
ssg83
g4159
sg76
(lp4166
S'web2py.com'
p4167
asbasbasbag69
(g85
g71
NtRp4168
(dp4169
g74
(dp4170
sg83
g4151
sg76
(lp4171
g69
(g90
g71
NtRp4172
(dp4173
g74
(dp4174
sg83
g4168
sg76
(lp4175
g69
(g70
g71
NtRp4176
(dp4177
g74
(dp4178
g82
I1
ssg83
g4172
sg76
(lp4179
I00
asbasbasbag69
(g85
g71
NtRp4180
(dp4181
g74
(dp4182
sg83
g4151
sg76
(lp4183
g69
(g90
g71
NtRp4184
(dp4185
g74
(dp4186
sg83
g4180
sg76
(lp4187
g69
(g70
g71
NtRp4188
(dp4189
g74
(dp4190
g82
I1
ssg83
g4184
sg76
(lp4191
S'http://www.web2py.com'
p4192
asbasbasbag69
(g85
g71
NtRp4193
(dp4194
g74
(dp4195
sg83
g4151
sg76
(lp4196
g69
(g90
g71
NtRp4197
(dp4198
g74
(dp4199
sg83
g4193
sg76
(lp4200
g69
(g70
g71
NtRp4201
(dp4202
g74
(dp4203
g82
I1
ssg83
g4197
sg76
(lp4204
(lp4205
(g3882
(S't\x08\x00\x00\x00Download'
tRp4206
I00
S'http://www.web2py.com/examples/default/download'
p4207
tp4208
a(g3882
(S't\x07\x00\x00\x00Support'
tRp4209
I00
S'http://www.web2py.com/examples/default/support'
p4210
tp4211
a(g3882
(S't\x04\x00\x00\x00Demo'
tRp4212
I00
S'http://web2py.com/demo_admin'
p4213
tp4214
a(g3882
(S's\x0e\x00\x00\x00Quick Examples'
tRp4215
I00
S'http://web2py.com/examples/default/examples'
p4216
tp4217
a(g3882
(S't\x03\x00\x00\x00FAQ'
tRp4218
I00
S'http://web2py.com/AlterEgo'
p4219
tp4220
a(g3882
(S't\x06\x00\x00\x00Videos'
tRp4221
I00
S'http://www.web2py.com/examples/default/videos/'
p4222
tp4223
a(g3882
(S's\x11\x00\x00\x00Free Applications'
tRp4224
I00
S'http://web2py.com/appliances'
p4225
tp4226
a(g3882
(S't\x07\x00\x00\x00Plugins'
tRp4227
I00
S'http://web2py.com/plugins'
p4228
tp4229
a(g3882
(S't\x07\x00\x00\x00Layouts'
tRp4230
I00
S'http://web2py.com/layouts'
p4231
tp4232
a(g3882
(S't\x07\x00\x00\x00Recipes'
tRp4233
I00
S'http://web2pyslices.com/'
p4234
tp4235
a(g3882
(S't\x08\x00\x00\x00Semantic'
tRp4236
I00
S'http://web2py.com/semantic'
p4237
tp4238
aasbasbasbasbasbasbasbag69
(g85
g71
NtRp4239
(dp4240
g74
(dp4241
sg83
g3996
sg76
(lp4242
g69
(g90
g71
NtRp4243
(dp4244
g74
(dp4245
sg83
g4239
sg76
(lp4246
g69
(g70
g71
NtRp4247
(dp4248
g74
(dp4249
g82
I2
ssg83
g4243
sg76
(lp4250
g69
(g78
g71
NtRp4251
(dp4252
g74
(dp4253
g82
I1
ssg83
Nsg76
(lp4254
g69
(g85
g71
NtRp4255
(dp4256
g74
(dp4257
sg83
g4251
sg76
(lp4258
g69
(g90
g71
NtRp4259
(dp4260
g74
(dp4261
sg83
g4255
sg76
(lp4262
g69
(g70
g71
NtRp4263
(dp4264
g74
(dp4265
g82
I1
ssg83
g4259
sg76
(lp4266
g3882
(S't\r\x00\x00\x00Documentation'
tRp4267
asbasbasbag69
(g85
g71
NtRp4268
(dp4269
g74
(dp4270
sg83
g4251
sg76
(lp4271
g69
(g90
g71
NtRp4272
(dp4273
g74
(dp4274
sg83
g4268
sg76
(lp4275
g69
(g70
g71
NtRp4276
(dp4277
g74
(dp4278
g82
I1
ssg83
g4272
sg76
(lp4279
I00
asbasbasbag69
(g85
g71
NtRp4280
(dp4281
g74
(dp4282
sg83
g4251
sg76
(lp4283
g69
(g90
g71
NtRp4284
(dp4285
g74
(dp4286
sg83
g4280
sg76
(lp4287
g69
(g70
g71
NtRp4288
(dp4289
g74
(dp4290
g82
I1
ssg83
g4284
sg76
(lp4291
S'http://www.web2py.com/book'
p4292
asbasbasbag69
(g85
g71
NtRp4293
(dp4294
g74
(dp4295
sg83
g4251
sg76
(lp4296
g69
(g90
g71
NtRp4297
(dp4298
g74
(dp4299
sg83
g4293
sg76
(lp4300
g69
(g70
g71
NtRp4301
(dp4302
g74
(dp4303
g82
I1
ssg83
g4297
sg76
(lp4304
(lp4305
(g3882
(S't\x07\x00\x00\x00Preface'
tRp4306
I00
S'http://www.web2py.com/book/default/chapter/00'
p4307
tp4308
a(g3882
(S't\x0c\x00\x00\x00Introduction'
tRp4309
I00
S'http://www.web2py.com/book/default/chapter/01'
p4310
tp4311
a(g3882
(S't\x06\x00\x00\x00Python'
tRp4312
I00
S'http://www.web2py.com/book/default/chapter/02'
p4313
tp4314
a(g3882
(S't\x08\x00\x00\x00Overview'
tRp4315
I00
S'http://www.web2py.com/book/default/chapter/03'
p4316
tp4317
a(g3882
(S's\x08\x00\x00\x00The Core'
tRp4318
I00
S'http://www.web2py.com/book/default/chapter/04'
p4319
tp4320
a(g3882
(S's\t\x00\x00\x00The Views'
tRp4321
I00
S'http://www.web2py.com/book/default/chapter/05'
p4322
tp4323
a(g3882
(S't\x08\x00\x00\x00Database'
tRp4324
I00
S'http://www.web2py.com/book/default/chapter/06'
p4325
tp4326
a(g3882
(S's\x14\x00\x00\x00Forms and Validators'
tRp4327
I00
S'http://www.web2py.com/book/default/chapter/07'
p4328
tp4329
a(g3882
(S's\r\x00\x00\x00Email and SMS'
tRp4330
I00
S'http://www.web2py.com/book/default/chapter/08'
p4331
tp4332
a(g3882
(S's\x0e\x00\x00\x00Access Control'
tRp4333
I00
S'http://www.web2py.com/book/default/chapter/09'
p4334
tp4335
a(g3882
(S't\x08\x00\x00\x00Services'
tRp4336
I00
S'http://www.web2py.com/book/default/chapter/10'
p4337
tp4338
a(g3882
(S's\x0c\x00\x00\x00Ajax Recipes'
tRp4339
I00
S'http://www.web2py.com/book/default/chapter/11'
p4340
tp4341
a(g3882
(S's\x16\x00\x00\x00Components and Plugins'
tRp4342
I00
S'http://www.web2py.com/book/default/chapter/12'
p4343
tp4344
a(g3882
(S's\x12\x00\x00\x00Deployment Recipes'
tRp4345
I00
S'http://www.web2py.com/book/default/chapter/13'
p4346
tp4347
a(g3882
(S's\r\x00\x00\x00Other Recipes'
tRp4348
I00
S'http://www.web2py.com/book/default/chapter/14'
p4349
tp4350
a(g3882
(S's\r\x00\x00\x00Buy this book'
tRp4351
I00
S'http://stores.lulu.com/web2py'
p4352
tp4353
aasbasbasbasbasbasbasbag69
(g85
g71
NtRp4354
(dp4355
g74
(dp4356
sg83
g3996
sg76
(lp4357
g69
(g90
g71
NtRp4358
(dp4359
g74
(dp4360
sg83
g4354
sg76
(lp4361
g69
(g70
g71
NtRp4362
(dp4363
g74
(dp4364
g82
I2
ssg83
g4358
sg76
(lp4365
g69
(g78
g71
NtRp4366
(dp4367
g74
(dp4368
g82
I1
ssg83
Nsg76
(lp4369
g69
(g85
g71
NtRp4370
(dp4371
g74
(dp4372
sg83
g4366
sg76
(lp4373
g69
(g90
g71
NtRp4374
(dp4375
g74
(dp4376
sg83
g4370
sg76
(lp4377
g69
(g70
g71
NtRp4378
(dp4379
g74
(dp4380
g82
I1
ssg83
g4374
sg76
(lp4381
g3882
(S't\t\x00\x00\x00Community'
tRp4382
asbasbasbag69
(g85
g71
NtRp4383
(dp4384
g74
(dp4385
sg83
g4366
sg76
(lp4386
g69
(g90
g71
NtRp4387
(dp4388
g74
(dp4389
sg83
g4383
sg76
(lp4390
g69
(g70
g71
NtRp4391
(dp4392
g74
(dp4393
g82
I1
ssg83
g4387
sg76
(lp4394
I00
asbasbasbag69
(g85
g71
NtRp4395
(dp4396
g74
(dp4397
sg83
g4366
sg76
(lp4398
g69
(g90
g71
NtRp4399
(dp4400
g74
(dp4401
sg83
g4395
sg76
(lp4402
g69
(g70
g71
NtRp4403
(dp4404
g74
(dp4405
g82
I1
ssg83
g4399
sg76
(lp4406
Nasbasbasbag69
(g85
g71
NtRp4407
(dp4408
g74
(dp4409
sg83
g4366
sg76
(lp4410
g69
(g90
g71
NtRp4411
(dp4412
g74
(dp4413
sg83
g4407
sg76
(lp4414
g69
(g70
g71
NtRp4415
(dp4416
g74
(dp4417
g82
I1
ssg83
g4411
sg76
(lp4418
(lp4419
(g3882
(S't\x06\x00\x00\x00Groups'
tRp4420
I00
S'http://www.web2py.com/examples/default/usergroups'
p4421
tp4422
a(g3882
(S't\x07\x00\x00\x00Twitter'
tRp4423
I00
S'http://twitter.com/web2py'
p4424
tp4425
a(g3882
(S's\t\x00\x00\x00Live Chat'
tRp4426
I00
S'http://webchat.freenode.net/?channels=web2py'
p4427
tp4428
aasbasbasbasbasbasbasbag69
(g85
g71
NtRp4429
(dp4430
g74
(dp4431
sg83
g3996
sg76
(lp4432
g69
(g90
g71
NtRp4433
(dp4434
g74
(dp4435
sg83
g4429
sg76
(lp4436
g69
(g70
g71
NtRp4437
(dp4438
g74
(dp4439
g82
I2
ssg83
g4433
sg76
(lp4440
g69
(g78
g71
NtRp4441
(dp4442
g74
(dp4443
g82
I1
ssg83
Nsg76
(lp4444
g69
(g85
g71
NtRp4445
(dp4446
g74
(dp4447
sg83
g4441
sg76
(lp4448
g69
(g90
g71
NtRp4449
(dp4450
g74
(dp4451
sg83
g4445
sg76
(lp4452
g69
(g70
g71
NtRp4453
(dp4454
g74
(dp4455
g82
I1
ssg83
g4449
sg76
(lp4456
g3882
(S't\x07\x00\x00\x00Plugins'
tRp4457
asbasbasbag69
(g85
g71
NtRp4458
(dp4459
g74
(dp4460
sg83
g4441
sg76
(lp4461
g69
(g90
g71
NtRp4462
(dp4463
g74
(dp4464
sg83
g4458
sg76
(lp4465
g69
(g70
g71
NtRp4466
(dp4467
g74
(dp4468
g82
I1
ssg83
g4462
sg76
(lp4469
I00
asbasbasbag69
(g85
g71
NtRp4470
(dp4471
g74
(dp4472
sg83
g4441
sg76
(lp4473
g69
(g90
g71
NtRp4474
(dp4475
g74
(dp4476
sg83
g4470
sg76
(lp4477
g69
(g70
g71
NtRp4478
(dp4479
g74
(dp4480
g82
I1
ssg83
g4474
sg76
(lp4481
Nasbasbasbag69
(g85
g71
NtRp4482
(dp4483
g74
(dp4484
sg83
g4441
sg76
(lp4485
g69
(g90
g71
NtRp4486
(dp4487
g74
(dp4488
sg83
g4482
sg76
(lp4489
g69
(g70
g71
NtRp4490
(dp4491
g74
(dp4492
g82
I1
ssg83
g4486
sg76
(lp4493
(lp4494
(S'plugin_wiki'
p4495
I00
S'http://web2py.com/examples/default/download'
p4496
tp4497
a(g3882
(S's\r\x00\x00\x00Other Plugins'
tRp4498
I00
g4228
tp4499
a(g3882
(S's\x0e\x00\x00\x00Layout Plugins'
tRp4500
I00
g4231
tp4501
aasbasbasbasbasbasbasbasbasbasbasbasbasbasbasbasbasbasbasbag69
(g85
g71
NtRp4502
(dp4503
g74
(dp4504
sg83
g3377
sg76
(lp4505
g69
(g90
g71
NtRp4506
(dp4507
g74
(dp4508
g94
g95
ssg83
g4502
sg76
(lp4509
S'meta'
p4510
asbag69
(g90
g71
NtRp4511
(dp4512
g74
(dp4513
g101
g102
ssg83
g4502
sg76
(lp4514
S':'
asbag69
(g90
g71
NtRp4515
(dp4516
g74
(dp4517
sg83
g4502
sg76
(lp4518
g69
(g70
g71
NtRp4519
(dp4520
g74
(dp4521
g82
I5
ssg83
g4515
sg76
(lp4522
g69
(g78
g71
NtRp4523
(dp4524
g74
(dp4525
g82
I4
ssg83
Nsg76
(lp4526
g69
(g85
g71
NtRp4527
(dp4528
g74
(dp4529
sg83
g4523
sg76
(lp4530
g69
(g90
g71
NtRp4531
(dp4532
g74
(dp4533
g94
g95
ssg83
g4527
sg76
(lp4534
S'author'
p4535
asbag69
(g90
g71
NtRp4536
(dp4537
g74
(dp4538
g101
g102
ssg83
g4527
sg76
(lp4539
S':'
asbag69
(g90
g71
NtRp4540
(dp4541
g74
(dp4542
sg83
g4527
sg76
(lp4543
g69
(g70
g71
NtRp4544
(dp4545
g74
(dp4546
g82
I4
ssg83
g4540
sg76
(lp4547
S'Your Name <you@example.com>'
p4548
asbasbasbag69
(g85
g71
NtRp4549
(dp4550
g74
(dp4551
sg83
g4523
sg76
(lp4552
g69
(g90
g71
NtRp4553
(dp4554
g74
(dp4555
g94
g95
ssg83
g4549
sg76
(lp4556
S'copyright'
p4557
asbag69
(g90
g71
NtRp4558
(dp4559
g74
(dp4560
g101
g102
ssg83
g4549
sg76
(lp4561
S':'
asbag69
(g90
g71
NtRp4562
(dp4563
g74
(dp4564
sg83
g4549
sg76
(lp4565
g69
(g70
g71
NtRp4566
(dp4567
g74
(dp4568
g82
I4
ssg83
g4562
sg76
(lp4569
S'Copyright 2011'
p4570
asbasbasbag69
(g85
g71
NtRp4571
(dp4572
g74
(dp4573
sg83
g4523
sg76
(lp4574
g69
(g90
g71
NtRp4575
(dp4576
g74
(dp4577
g94
g95
ssg83
g4571
sg76
(lp4578
S'description'
p4579
asbag69
(g90
g71
NtRp4580
(dp4581
g74
(dp4582
g101
g102
ssg83
g4571
sg76
(lp4583
S':'
asbag69
(g90
g71
NtRp4584
(dp4585
g74
(dp4586
sg83
g4571
sg76
(lp4587
g69
(g70
g71
NtRp4588
(dp4589
g74
(dp4590
g82
I4
ssg83
g4584
sg76
(lp4591
S'a cool new app'
p4592
asbasbasbag69
(g85
g71
NtRp4593
(dp4594
g74
(dp4595
sg83
g4523
sg76
(lp4596
g69
(g90
g71
NtRp4597
(dp4598
g74
(dp4599
g94
g95
ssg83
g4593
sg76
(lp4600
S'generator'
p4601
asbag69
(g90
g71
NtRp4602
(dp4603
g74
(dp4604
g101
g102
ssg83
g4593
sg76
(lp4605
S':'
asbag69
(g90
g71
NtRp4606
(dp4607
g74
(dp4608
sg83
g4593
sg76
(lp4609
g69
(g70
g71
NtRp4610
(dp4611
g74
(dp4612
g82
I4
ssg83
g4606
sg76
(lp4613
S'Web2py Web Framework'
p4614
asbasbasbag69
(g85
g71
NtRp4615
(dp4616
g74
(dp4617
sg83
g4523
sg76
(lp4618
g69
(g90
g71
NtRp4619
(dp4620
g74
(dp4621
g94
g95
ssg83
g4615
sg76
(lp4622
S'keywords'
p4623
asbag69
(g90
g71
NtRp4624
(dp4625
g74
(dp4626
g101
g102
ssg83
g4615
sg76
(lp4627
S':'
asbag69
(g90
g71
NtRp4628
(dp4629
g74
(dp4630
sg83
g4615
sg76
(lp4631
g69
(g70
g71
NtRp4632
(dp4633
g74
(dp4634
g82
I4
ssg83
g4628
sg76
(lp4635
S'web2py, python, framework'
p4636
asbasbasbasbasbasbasbag69
(g85
g71
NtRp4637
(dp4638
g74
(dp4639
sg83
g3377
sg76
(lp4640
g69
(g90
g71
NtRp4641
(dp4642
g74
(dp4643
g94
g95
ssg83
g4637
sg76
(lp4644
S'postprocessing'
p4645
asbag69
(g90
g71
NtRp4646
(dp4647
g74
(dp4648
g101
g102
ssg83
g4637
sg76
(lp4649
S':'
asbag69
(g90
g71
NtRp4650
(dp4651
g74
(dp4652
sg83
g4637
sg76
(lp4653
g69
(g70
g71
NtRp4654
(dp4655
g74
(dp4656
g82
I5
ssg83
g4650
sg76
(lp4657
g69
(g78
g71
NtRp4658
(dp4659
g74
(dp4660
g82
I4
ssg83
Nsg76
(lp4661
sbasbasbasbag69
(g85
g71
NtRp4662
(dp4663
g74
(dp4664
sg83
g3377
sg76
(lp4665
g69
(g90
g71
NtRp4666
(dp4667
g74
(dp4668
g94
g95
ssg83
g4662
sg76
(lp4669
S'session_file'
p4670
asbag69
(g90
g71
NtRp4671
(dp4672
g74
(dp4673
g101
g102
ssg83
g4662
sg76
(lp4674
S':'
asbag69
(g90
g71
NtRp4675
(dp4676
g74
(dp4677
sg83
g4662
sg76
(lp4678
g69
(g70
g71
NtRp4679
(dp4680
g74
(dp4681
g82
I5
ssg83
g4675
sg76
(lp4682
S"<open file '/home/jigar/web2py/applications/app1/sessions/127.0.0.1-15782adb-a404-4b3e-868f-e60d89b9be1b', mode 'rb+' at 0x7fc8403096f0>"
p4683
asbasbasbag69
(g85
g71
NtRp4684
(dp4685
g74
(dp4686
sg83
g3377
sg76
(lp4687
g69
(g90
g71
NtRp4688
(dp4689
g74
(dp4690
g94
g95
ssg83
g4684
sg76
(lp4691
S'session_filename'
p4692
asbag69
(g90
g71
NtRp4693
(dp4694
g74
(dp4695
g101
g102
ssg83
g4684
sg76
(lp4696
S':'
asbag69
(g90
g71
NtRp4697
(dp4698
g74
(dp4699
sg83
g4684
sg76
(lp4700
g69
(g70
g71
NtRp4701
(dp4702
g74
(dp4703
g82
I5
ssg83
g4697
sg76
(lp4704
S'/home/jigar/web2py/applications/app1/sessions/127.0.0.1-15782adb-a404-4b3e-868f-e60d89b9be1b'
p4705
asbasbasbag69
(g85
g71
NtRp4706
(dp4707
g74
(dp4708
sg83
g3377
sg76
(lp4709
g69
(g90
g71
NtRp4710
(dp4711
g74
(dp4712
g94
g95
ssg83
g4706
sg76
(lp4713
S'session_id'
p4714
asbag69
(g90
g71
NtRp4715
(dp4716
g74
(dp4717
g101
g102
ssg83
g4706
sg76
(lp4718
S':'
asbag69
(g90
g71
NtRp4719
(dp4720
g74
(dp4721
sg83
g4706
sg76
(lp4722
g69
(g70
g71
NtRp4723
(dp4724
g74
(dp4725
g82
I5
ssg83
g4719
sg76
(lp4726
S'127.0.0.1-15782adb-a404-4b3e-868f-e60d89b9be1b'
p4727
asbasbasbag69
(g85
g71
NtRp4728
(dp4729
g74
(dp4730
sg83
g3377
sg76
(lp4731
g69
(g90
g71
NtRp4732
(dp4733
g74
(dp4734
g94
g95
ssg83
g4728
sg76
(lp4735
S'session_id_name'
p4736
asbag69
(g90
g71
NtRp4737
(dp4738
g74
(dp4739
g101
g102
ssg83
g4728
sg76
(lp4740
S':'
asbag69
(g90
g71
NtRp4741
(dp4742
g74
(dp4743
sg83
g4728
sg76
(lp4744
g69
(g70
g71
NtRp4745
(dp4746
g74
(dp4747
g82
I5
ssg83
g4741
sg76
(lp4748
g3434
asbasbasbag69
(g85
g71
NtRp4749
(dp4750
g74
(dp4751
sg83
g3377
sg76
(lp4752
g69
(g90
g71
NtRp4753
(dp4754
g74
(dp4755
g94
g95
ssg83
g4749
sg76
(lp4756
S'session_locked'
p4757
asbag69
(g90
g71
NtRp4758
(dp4759
g74
(dp4760
g101
g102
ssg83
g4749
sg76
(lp4761
S':'
asbag69
(g90
g71
NtRp4762
(dp4763
g74
(dp4764
sg83
g4749
sg76
(lp4765
g69
(g70
g71
NtRp4766
(dp4767
g74
(dp4768
g82
I5
ssg83
g4762
sg76
(lp4769
g1646
asbasbasbag69
(g85
g71
NtRp4770
(dp4771
g74
(dp4772
sg83
g3377
sg76
(lp4773
g69
(g90
g71
NtRp4774
(dp4775
g74
(dp4776
g94
g95
ssg83
g4770
sg76
(lp4777
S'session_new'
p4778
asbag69
(g90
g71
NtRp4779
(dp4780
g74
(dp4781
g101
g102
ssg83
g4770
sg76
(lp4782
S':'
asbag69
(g90
g71
NtRp4783
(dp4784
g74
(dp4785
sg83
g4770
sg76
(lp4786
g69
(g70
g71
NtRp4787
(dp4788
g74
(dp4789
g82
I5
ssg83
g4783
sg76
(lp4790
g112
asbasbasbag69
(g85
g71
NtRp4791
(dp4792
g74
(dp4793
sg83
g3377
sg76
(lp4794
g69
(g90
g71
NtRp4795
(dp4796
g74
(dp4797
g94
g95
ssg83
g4791
sg76
(lp4798
S'status'
p4799
asbag69
(g90
g71
NtRp4800
(dp4801
g74
(dp4802
g101
g102
ssg83
g4791
sg76
(lp4803
S':'
asbag69
(g90
g71
NtRp4804
(dp4805
g74
(dp4806
sg83
g4791
sg76
(lp4807
g69
(g70
g71
NtRp4808
(dp4809
g74
(dp4810
g82
I5
ssg83
g4804
sg76
(lp4811
S'200'
p4812
asbasbasbag69
(g85
g71
NtRp4813
(dp4814
g74
(dp4815
sg83
g3377
sg76
(lp4816
g69
(g90
g71
NtRp4817
(dp4818
g74
(dp4819
g94
g95
ssg83
g4813
sg76
(lp4820
S'subtitle'
p4821
asbag69
(g90
g71
NtRp4822
(dp4823
g74
(dp4824
g101
g102
ssg83
g4813
sg76
(lp4825
S':'
asbag69
(g90
g71
NtRp4826
(dp4827
g74
(dp4828
sg83
g4813
sg76
(lp4829
g69
(g70
g71
NtRp4830
(dp4831
g74
(dp4832
g82
I5
ssg83
g4826
sg76
(lp4833
g3882
(S's\r\x00\x00\x00customize me!'
tRp4834
asbasbasbag69
(g85
g71
NtRp4835
(dp4836
g74
(dp4837
sg83
g3377
sg76
(lp4838
g69
(g90
g71
NtRp4839
(dp4840
g74
(dp4841
g94
g95
ssg83
g4835
sg76
(lp4842
S'title'
p4843
asbag69
(g90
g71
NtRp4844
(dp4845
g74
(dp4846
g101
g102
ssg83
g4835
sg76
(lp4847
S':'
asbag69
(g90
g71
NtRp4848
(dp4849
g74
(dp4850
sg83
g4835
sg76
(lp4851
g69
(g70
g71
NtRp4852
(dp4853
g74
(dp4854
g82
I5
ssg83
g4848
sg76
(lp4855
S'App1'
p4856
asbasbasbag69
(g85
g71
NtRp4857
(dp4858
g74
(dp4859
sg83
g3377
sg76
(lp4860
g69
(g90
g71
NtRp4861
(dp4862
g74
(dp4863
g94
g95
ssg83
g4857
sg76
(lp4864
g2310
asbag69
(g90
g71
NtRp4865
(dp4866
g74
(dp4867
g101
g102
ssg83
g4857
sg76
(lp4868
S':'
asbag69
(g90
g71
NtRp4869
(dp4870
g74
(dp4871
sg83
g4857
sg76
(lp4872
g69
(g70
g71
NtRp4873
(dp4874
g74
(dp4875
g82
I5
ssg83
g4869
sg76
(lp4876
g2323
asbasbasbag69
(g85
g71
NtRp4877
(dp4878
g74
(dp4879
sg83
g3377
sg76
(lp4880
g69
(g90
g71
NtRp4881
(dp4882
g74
(dp4883
g94
g95
ssg83
g4877
sg76
(lp4884
S'view'
p4885
asbag69
(g90
g71
NtRp4886
(dp4887
g74
(dp4888
g101
g102
ssg83
g4877
sg76
(lp4889
S':'
asbag69
(g90
g71
NtRp4890
(dp4891
g74
(dp4892
sg83
g4877
sg76
(lp4893
g69
(g70
g71
NtRp4894
(dp4895
g74
(dp4896
g82
I5
ssg83
g4890
sg76
(lp4897
S'default/lall.html'
p4898
asbasbasbasbasbsS'locals'
p4899
(dp4900
g4
S"'/home/jigar/web2py/applications/app1/controllers/default.py'"
p4901
sg6
S"'# -*- coding: utf-8 -*-\\n# this file is released ...mments)\\n\\n\\n\\nresponse._vars=response._caller(lall)\\n'"
p4902
sssS'traceback'
p4903
S'Traceback (most recent call last):\n  File "/usr/lib/pymodules/python2.7/gluon/restricted.py", line 203, in restricted\n    ccode = compile2(code,layer)\n  File "/usr/lib/pymodules/python2.7/gluon/restricted.py", line 189, in compile2\n    return compile(code.rstrip().replace(\'\\r\\n\',\'\\n\')+\'\\n\', layer, \'exec\')\n  File "/home/jigar/web2py/applications/app1/controllers/default.py", line 90\n    db(db.Post.id==(int(r)+1)).update(User_liked[len(User_liked)]=auth.user.id)\nSyntaxError: keyword can\'t be an expression\n'
p4904
s.