(dp1
S'output'
p2
S"<type 'exceptions.SyntaxError'> keyword can't be an expression (default.py, line 81)"
p3
sS'layer'
p4
S'/home/jigar/web2py/applications/app1/controllers/default.py'
p5
sS'code'
p6
S'# -*- coding: utf-8 -*-\n# this file is released under public domain and you can use without limitations\n\n#########################################################################\n## This is a samples controller\n## - index is the default action of any application\n## - user is required for authentication and authorization\n## - download is for downloading files uploaded in the db (does streaming)\n## - call exposes all registered services (none by default)\n#########################################################################\n\ndef index():\n    """\n    example action using the internationalization operator T and flash\n    rendered by views/default/index.html or views/generic.html\n    """\n    response.flash = "Welcome to web2py!"\n    return dict(message=T(\'Hello World\'))\n\ndef user():\n    """\n    exposes:\n    http://..../[app]/default/user/login\n    http://..../[app]/default/user/logout\n    http://..../[app]/default/user/register\n    http://..../[app]/default/user/profile\n    http://..../[app]/default/user/retrieve_password\n    http://..../[app]/default/user/change_password\n    use @auth.requires_login()\n        @auth.requires_membership(\'group name\')\n        @auth.requires_permission(\'read\',\'table name\',record_id)\n    to decorate functions that need access control\n    """\n    return dict(form=auth())\n\n\ndef download():\n    """\n    allows downloading of uploaded files\n    http://..../[app]/default/download/[filename]\n    """\n    return response.download(request,db)\n\n\ndef call():\n    """\n    exposes services. for example:\n    http://..../[app]/default/call/jsonrpc\n    decorate with @services.jsonrpc the functions to expose\n    supports xml, json, xmlrpc, jsonrpc, amfrpc, rss, csv\n    """\n    return service()\n\n\n@auth.requires_signature()\ndef data():\n    """\n    http://..../[app]/default/data/tables\n    http://..../[app]/default/data/create/[table]\n    http://..../[app]/default/data/read/[table]/[id]\n    http://..../[app]/default/data/update/[table]/[id]\n    http://..../[app]/default/data/delete/[table]/[id]\n    http://..../[app]/default/data/select/[table]\n    http://..../[app]/default/data/search/[table]\n    but URLs must be signed, i.e. linked with\n      A(\'table\',_href=URL(\'data/tables\',user_signature=True))\n    or with the signed load operator\n      LOAD(\'default\',\'data.load\',args=\'tables\',ajax=True,user_signature=True)\n    """\n    return dict(form=crud())\n\ndef lall():\n\tx=db(db.Post.id>0).select()\n\ty=db(db.Post.User==db.auth_user.id).select(db.auth_user.first_name)\n\tlike()\n\treturn dict(x=x,y=y)\n\ndef like():\n\tr=request.args[0]\n\tprint r\n\ta=db(db.Post.id==r).update(Post.Rating=Post.Rating+5)\n\treturn locals()\n\ndef postnews():\n\tform=SQLFORM(db.Post)\n\treturn locals()\n\ndef listcat():\n\tp=db(db.Post.id>0).select()\n\tq=db(db.Post.User==db.auth_user.id).select(db.auth_user.first_name)\n\ty=request.args[0]\n\tx=db(db.Post.Category==y).select()\n\tif (len(x)>0):\n\t\treturn locals()\n\t\n\telse :\n\t\treturn locals()\n\nresponse._vars=response._caller(lall)\n'
p7
sS'snapshot'
p8
(dp9
S'exception'
p10
(dp11
S'__getslice__'
p12
S"<method-wrapper '__getslice__' of exceptions.SyntaxError object>"
p13
sS'text'
p14
S"'a=db(db.Post.id==r).update(Post.Rating=Post.Rating+5)\\n'"
p15
sS'__str__'
p16
S"<method-wrapper '__str__' of exceptions.SyntaxError object>"
p17
sS'__reduce__'
p18
S'<built-in method __reduce__ of exceptions.SyntaxError object>'
p19
sS'__dict__'
p20
S'{}'
p21
sS'__sizeof__'
p22
S'<built-in method __sizeof__ of exceptions.SyntaxError object>'
p23
sS'__init__'
p24
S"<method-wrapper '__init__' of exceptions.SyntaxError object>"
p25
sS'__setattr__'
p26
S"<method-wrapper '__setattr__' of exceptions.SyntaxError object>"
p27
sS'__reduce_ex__'
p28
S'<built-in method __reduce_ex__ of exceptions.SyntaxError object>'
p29
sS'__new__'
p30
S'<built-in method __new__ of type object>'
p31
sS'__format__'
p32
S'<built-in method __format__ of exceptions.SyntaxError object>'
p33
sS'__class__'
p34
S"<type 'exceptions.SyntaxError'>"
p35
sS'filename'
p36
S"'/home/jigar/web2py/applications/app1/controllers/default.py'"
p37
sS'lineno'
p38
S'81'
p39
sS'msg'
p40
S'"keyword can\'t be an expression"'
p41
sS'__doc__'
p42
S"'Invalid syntax.'"
p43
sS'__getitem__'
p44
S"<method-wrapper '__getitem__' of exceptions.SyntaxError object>"
p45
sS'__setstate__'
p46
S'<built-in method __setstate__ of exceptions.SyntaxError object>'
p47
sS'__getattribute__'
p48
S"<method-wrapper '__getattribute__' of exceptions.SyntaxError object>"
p49
sS'print_file_and_line'
p50
S'None'
p51
sS'args'
p52
S'("keyword can\'t be an expression", (\'/home/jigar/web2py/applications/app1/controllers/default.py\', 81, None, \'a=db(db.Post.id==r).update(Post.Rating=Post.Rating+5)\\n\'))'
p53
sS'__subclasshook__'
p54
S'<built-in method __subclasshook__ of type object>'
p55
sS'offset'
p56
S'None'
p57
sS'__unicode__'
p58
S'<built-in method __unicode__ of exceptions.SyntaxError object>'
p59
sS'__delattr__'
p60
S"<method-wrapper '__delattr__' of exceptions.SyntaxError object>"
p61
sS'__repr__'
p62
S"<method-wrapper '__repr__' of exceptions.SyntaxError object>"
p63
sS'__hash__'
p64
S"<method-wrapper '__hash__' of exceptions.SyntaxError object>"
p65
ssS'evalue'
p66
S"keyword can't be an expression (default.py, line 81)"
p67
sS'request'
p68
ccopy_reg
_reconstructor
p69
(cgluon.html
BEAUTIFY
p70
c__builtin__
object
p71
NtRp72
(dp73
S'attributes'
p74
(dp75
sS'components'
p76
(lp77
g69
(cgluon.html
TABLE
p78
g71
NtRp79
(dp80
g74
(dp81
S'level'
p82
I5
ssS'parent'
p83
Nsg76
(lp84
g69
(cgluon.html
TR
p85
g71
NtRp86
(dp87
g74
(dp88
sg83
g79
sg76
(lp89
g69
(cgluon.html
TD
p90
g71
NtRp91
(dp92
g74
(dp93
S'_style'
p94
S'font-weight:bold;vertical-align:top'
p95
ssg83
g86
sg76
(lp96
S'ajax'
p97
asbag69
(g90
g71
NtRp98
(dp99
g74
(dp100
S'_valign'
p101
S'top'
p102
ssg83
g86
sg76
(lp103
S':'
asbag69
(g90
g71
NtRp104
(dp105
g74
(dp106
sg83
g86
sg76
(lp107
g69
(g70
g71
NtRp108
(dp109
g74
(dp110
g82
I5
ssg83
g104
sg76
(lp111
S'False'
p112
asbasbasbag69
(g85
g71
NtRp113
(dp114
g74
(dp115
sg83
g79
sg76
(lp116
g69
(g90
g71
NtRp117
(dp118
g74
(dp119
g94
g95
ssg83
g113
sg76
(lp120
S'application'
p121
asbag69
(g90
g71
NtRp122
(dp123
g74
(dp124
g101
g102
ssg83
g113
sg76
(lp125
S':'
asbag69
(g90
g71
NtRp126
(dp127
g74
(dp128
sg83
g113
sg76
(lp129
g69
(g70
g71
NtRp130
(dp131
g74
(dp132
g82
I5
ssg83
g126
sg76
(lp133
S'app1'
p134
asbasbasbag69
(g85
g71
NtRp135
(dp136
g74
(dp137
sg83
g79
sg76
(lp138
g69
(g90
g71
NtRp139
(dp140
g74
(dp141
g94
g95
ssg83
g135
sg76
(lp142
g52
asbag69
(g90
g71
NtRp143
(dp144
g74
(dp145
g101
g102
ssg83
g135
sg76
(lp146
S':'
asbag69
(g90
g71
NtRp147
(dp148
g74
(dp149
sg83
g135
sg76
(lp150
g69
(g70
g71
NtRp151
(dp152
g74
(dp153
g82
I5
ssg83
g147
sg76
(lp154
g69
(g78
g71
NtRp155
(dp156
g74
(dp157
g82
I4
ssg83
Nsg76
(lp158
g69
(g85
g71
NtRp159
(dp160
g74
(dp161
sg83
g155
sg76
(lp162
g69
(g90
g71
NtRp163
(dp164
g74
(dp165
sg83
g159
sg76
(lp166
g69
(g70
g71
NtRp167
(dp168
g74
(dp169
g82
I4
ssg83
g163
sg76
(lp170
S'0'
asbasbasbasbasbasbasbag69
(g85
g71
NtRp171
(dp172
g74
(dp173
sg83
g79
sg76
(lp174
g69
(g90
g71
NtRp175
(dp176
g74
(dp177
g94
g95
ssg83
g171
sg76
(lp178
S'body'
p179
asbag69
(g90
g71
NtRp180
(dp181
g74
(dp182
g101
g102
ssg83
g171
sg76
(lp183
S':'
asbag69
(g90
g71
NtRp184
(dp185
g74
(dp186
sg83
g171
sg76
(lp187
g69
(g70
g71
NtRp188
(dp189
g74
(dp190
g82
I5
ssg83
g184
sg76
(lp191
S'<cStringIO.StringO object at 0x7f53a8262c00>'
p192
asbasbasbag69
(g85
g71
NtRp193
(dp194
g74
(dp195
sg83
g79
sg76
(lp196
g69
(g90
g71
NtRp197
(dp198
g74
(dp199
g94
g95
ssg83
g193
sg76
(lp200
S'client'
p201
asbag69
(g90
g71
NtRp202
(dp203
g74
(dp204
g101
g102
ssg83
g193
sg76
(lp205
S':'
asbag69
(g90
g71
NtRp206
(dp207
g74
(dp208
sg83
g193
sg76
(lp209
g69
(g70
g71
NtRp210
(dp211
g74
(dp212
g82
I5
ssg83
g206
sg76
(lp213
S'127.0.0.1'
p214
asbasbasbag69
(g85
g71
NtRp215
(dp216
g74
(dp217
sg83
g79
sg76
(lp218
g69
(g90
g71
NtRp219
(dp220
g74
(dp221
g94
g95
ssg83
g215
sg76
(lp222
S'controller'
p223
asbag69
(g90
g71
NtRp224
(dp225
g74
(dp226
g101
g102
ssg83
g215
sg76
(lp227
S':'
asbag69
(g90
g71
NtRp228
(dp229
g74
(dp230
sg83
g215
sg76
(lp231
g69
(g70
g71
NtRp232
(dp233
g74
(dp234
g82
I5
ssg83
g228
sg76
(lp235
S'default'
p236
asbasbasbag69
(g85
g71
NtRp237
(dp238
g74
(dp239
sg83
g79
sg76
(lp240
g69
(g90
g71
NtRp241
(dp242
g74
(dp243
g94
g95
ssg83
g237
sg76
(lp244
S'cookies'
p245
asbag69
(g90
g71
NtRp246
(dp247
g74
(dp248
g101
g102
ssg83
g237
sg76
(lp249
S':'
asbag69
(g90
g71
NtRp250
(dp251
g74
(dp252
sg83
g237
sg76
(lp253
g69
(g70
g71
NtRp254
(dp255
g74
(dp256
g82
I5
ssg83
g250
sg76
(lp257
g69
(g78
g71
NtRp258
(dp259
g74
(dp260
g82
I4
ssg83
Nsg76
(lp261
g69
(g85
g71
NtRp262
(dp263
g74
(dp264
sg83
g258
sg76
(lp265
g69
(g90
g71
NtRp266
(dp267
g74
(dp268
g94
g95
ssg83
g262
sg76
(lp269
S'session_id_admin'
p270
asbag69
(g90
g71
NtRp271
(dp272
g74
(dp273
g101
g102
ssg83
g262
sg76
(lp274
S':'
asbag69
(g90
g71
NtRp275
(dp276
g74
(dp277
sg83
g262
sg76
(lp278
g69
(g70
g71
NtRp279
(dp280
g74
(dp281
g82
I4
ssg83
g275
sg76
(lp282
g69
(g78
g71
NtRp283
(dp284
g74
(dp285
g82
I3
ssg83
Nsg76
(lp286
g69
(g85
g71
NtRp287
(dp288
g74
(dp289
sg83
g283
sg76
(lp290
g69
(g90
g71
NtRp291
(dp292
g74
(dp293
g94
g95
ssg83
g287
sg76
(lp294
S'comment'
p295
asbag69
(g90
g71
NtRp296
(dp297
g74
(dp298
g101
g102
ssg83
g287
sg76
(lp299
S':'
asbag69
(g90
g71
NtRp300
(dp301
g74
(dp302
sg83
g287
sg76
(lp303
g69
(g70
g71
NtRp304
(dp305
g74
(dp306
g82
I3
ssg83
g300
sg76
(lp307
S''
asbasbasbag69
(g85
g71
NtRp308
(dp309
g74
(dp310
sg83
g283
sg76
(lp311
g69
(g90
g71
NtRp312
(dp313
g74
(dp314
g94
g95
ssg83
g308
sg76
(lp315
S'domain'
p316
asbag69
(g90
g71
NtRp317
(dp318
g74
(dp319
g101
g102
ssg83
g308
sg76
(lp320
S':'
asbag69
(g90
g71
NtRp321
(dp322
g74
(dp323
sg83
g308
sg76
(lp324
g69
(g70
g71
NtRp325
(dp326
g74
(dp327
g82
I3
ssg83
g321
sg76
(lp328
S''
asbasbasbag69
(g85
g71
NtRp329
(dp330
g74
(dp331
sg83
g283
sg76
(lp332
g69
(g90
g71
NtRp333
(dp334
g74
(dp335
g94
g95
ssg83
g329
sg76
(lp336
S'expires'
p337
asbag69
(g90
g71
NtRp338
(dp339
g74
(dp340
g101
g102
ssg83
g329
sg76
(lp341
S':'
asbag69
(g90
g71
NtRp342
(dp343
g74
(dp344
sg83
g329
sg76
(lp345
g69
(g70
g71
NtRp346
(dp347
g74
(dp348
g82
I3
ssg83
g342
sg76
(lp349
S''
asbasbasbag69
(g85
g71
NtRp350
(dp351
g74
(dp352
sg83
g283
sg76
(lp353
g69
(g90
g71
NtRp354
(dp355
g74
(dp356
g94
g95
ssg83
g350
sg76
(lp357
S'httponly'
p358
asbag69
(g90
g71
NtRp359
(dp360
g74
(dp361
g101
g102
ssg83
g350
sg76
(lp362
S':'
asbag69
(g90
g71
NtRp363
(dp364
g74
(dp365
sg83
g350
sg76
(lp366
g69
(g70
g71
NtRp367
(dp368
g74
(dp369
g82
I3
ssg83
g363
sg76
(lp370
S''
asbasbasbag69
(g85
g71
NtRp371
(dp372
g74
(dp373
sg83
g283
sg76
(lp374
g69
(g90
g71
NtRp375
(dp376
g74
(dp377
g94
g95
ssg83
g371
sg76
(lp378
S'max-age'
p379
asbag69
(g90
g71
NtRp380
(dp381
g74
(dp382
g101
g102
ssg83
g371
sg76
(lp383
S':'
asbag69
(g90
g71
NtRp384
(dp385
g74
(dp386
sg83
g371
sg76
(lp387
g69
(g70
g71
NtRp388
(dp389
g74
(dp390
g82
I3
ssg83
g384
sg76
(lp391
S''
asbasbasbag69
(g85
g71
NtRp392
(dp393
g74
(dp394
sg83
g283
sg76
(lp395
g69
(g90
g71
NtRp396
(dp397
g74
(dp398
g94
g95
ssg83
g392
sg76
(lp399
S'path'
p400
asbag69
(g90
g71
NtRp401
(dp402
g74
(dp403
g101
g102
ssg83
g392
sg76
(lp404
S':'
asbag69
(g90
g71
NtRp405
(dp406
g74
(dp407
sg83
g392
sg76
(lp408
g69
(g70
g71
NtRp409
(dp410
g74
(dp411
g82
I3
ssg83
g405
sg76
(lp412
S''
asbasbasbag69
(g85
g71
NtRp413
(dp414
g74
(dp415
sg83
g283
sg76
(lp416
g69
(g90
g71
NtRp417
(dp418
g74
(dp419
g94
g95
ssg83
g413
sg76
(lp420
S'secure'
p421
asbag69
(g90
g71
NtRp422
(dp423
g74
(dp424
g101
g102
ssg83
g413
sg76
(lp425
S':'
asbag69
(g90
g71
NtRp426
(dp427
g74
(dp428
sg83
g413
sg76
(lp429
g69
(g70
g71
NtRp430
(dp431
g74
(dp432
g82
I3
ssg83
g426
sg76
(lp433
S''
asbasbasbag69
(g85
g71
NtRp434
(dp435
g74
(dp436
sg83
g283
sg76
(lp437
g69
(g90
g71
NtRp438
(dp439
g74
(dp440
g94
g95
ssg83
g434
sg76
(lp441
S'version'
p442
asbag69
(g90
g71
NtRp443
(dp444
g74
(dp445
g101
g102
ssg83
g434
sg76
(lp446
S':'
asbag69
(g90
g71
NtRp447
(dp448
g74
(dp449
sg83
g434
sg76
(lp450
g69
(g70
g71
NtRp451
(dp452
g74
(dp453
g82
I3
ssg83
g447
sg76
(lp454
S''
asbasbasbasbasbasbasbag69
(g85
g71
NtRp455
(dp456
g74
(dp457
sg83
g258
sg76
(lp458
g69
(g90
g71
NtRp459
(dp460
g74
(dp461
g94
g95
ssg83
g455
sg76
(lp462
S'session_id_app1'
p463
asbag69
(g90
g71
NtRp464
(dp465
g74
(dp466
g101
g102
ssg83
g455
sg76
(lp467
S':'
asbag69
(g90
g71
NtRp468
(dp469
g74
(dp470
sg83
g455
sg76
(lp471
g69
(g70
g71
NtRp472
(dp473
g74
(dp474
g82
I4
ssg83
g468
sg76
(lp475
g69
(g78
g71
NtRp476
(dp477
g74
(dp478
g82
I3
ssg83
Nsg76
(lp479
g69
(g85
g71
NtRp480
(dp481
g74
(dp482
sg83
g476
sg76
(lp483
g69
(g90
g71
NtRp484
(dp485
g74
(dp486
g94
g95
ssg83
g480
sg76
(lp487
g295
asbag69
(g90
g71
NtRp488
(dp489
g74
(dp490
g101
g102
ssg83
g480
sg76
(lp491
S':'
asbag69
(g90
g71
NtRp492
(dp493
g74
(dp494
sg83
g480
sg76
(lp495
g69
(g70
g71
NtRp496
(dp497
g74
(dp498
g82
I3
ssg83
g492
sg76
(lp499
S''
asbasbasbag69
(g85
g71
NtRp500
(dp501
g74
(dp502
sg83
g476
sg76
(lp503
g69
(g90
g71
NtRp504
(dp505
g74
(dp506
g94
g95
ssg83
g500
sg76
(lp507
g316
asbag69
(g90
g71
NtRp508
(dp509
g74
(dp510
g101
g102
ssg83
g500
sg76
(lp511
S':'
asbag69
(g90
g71
NtRp512
(dp513
g74
(dp514
sg83
g500
sg76
(lp515
g69
(g70
g71
NtRp516
(dp517
g74
(dp518
g82
I3
ssg83
g512
sg76
(lp519
S''
asbasbasbag69
(g85
g71
NtRp520
(dp521
g74
(dp522
sg83
g476
sg76
(lp523
g69
(g90
g71
NtRp524
(dp525
g74
(dp526
g94
g95
ssg83
g520
sg76
(lp527
g337
asbag69
(g90
g71
NtRp528
(dp529
g74
(dp530
g101
g102
ssg83
g520
sg76
(lp531
S':'
asbag69
(g90
g71
NtRp532
(dp533
g74
(dp534
sg83
g520
sg76
(lp535
g69
(g70
g71
NtRp536
(dp537
g74
(dp538
g82
I3
ssg83
g532
sg76
(lp539
S''
asbasbasbag69
(g85
g71
NtRp540
(dp541
g74
(dp542
sg83
g476
sg76
(lp543
g69
(g90
g71
NtRp544
(dp545
g74
(dp546
g94
g95
ssg83
g540
sg76
(lp547
g358
asbag69
(g90
g71
NtRp548
(dp549
g74
(dp550
g101
g102
ssg83
g540
sg76
(lp551
S':'
asbag69
(g90
g71
NtRp552
(dp553
g74
(dp554
sg83
g540
sg76
(lp555
g69
(g70
g71
NtRp556
(dp557
g74
(dp558
g82
I3
ssg83
g552
sg76
(lp559
S''
asbasbasbag69
(g85
g71
NtRp560
(dp561
g74
(dp562
sg83
g476
sg76
(lp563
g69
(g90
g71
NtRp564
(dp565
g74
(dp566
g94
g95
ssg83
g560
sg76
(lp567
g379
asbag69
(g90
g71
NtRp568
(dp569
g74
(dp570
g101
g102
ssg83
g560
sg76
(lp571
S':'
asbag69
(g90
g71
NtRp572
(dp573
g74
(dp574
sg83
g560
sg76
(lp575
g69
(g70
g71
NtRp576
(dp577
g74
(dp578
g82
I3
ssg83
g572
sg76
(lp579
S''
asbasbasbag69
(g85
g71
NtRp580
(dp581
g74
(dp582
sg83
g476
sg76
(lp583
g69
(g90
g71
NtRp584
(dp585
g74
(dp586
g94
g95
ssg83
g580
sg76
(lp587
g400
asbag69
(g90
g71
NtRp588
(dp589
g74
(dp590
g101
g102
ssg83
g580
sg76
(lp591
S':'
asbag69
(g90
g71
NtRp592
(dp593
g74
(dp594
sg83
g580
sg76
(lp595
g69
(g70
g71
NtRp596
(dp597
g74
(dp598
g82
I3
ssg83
g592
sg76
(lp599
S''
asbasbasbag69
(g85
g71
NtRp600
(dp601
g74
(dp602
sg83
g476
sg76
(lp603
g69
(g90
g71
NtRp604
(dp605
g74
(dp606
g94
g95
ssg83
g600
sg76
(lp607
g421
asbag69
(g90
g71
NtRp608
(dp609
g74
(dp610
g101
g102
ssg83
g600
sg76
(lp611
S':'
asbag69
(g90
g71
NtRp612
(dp613
g74
(dp614
sg83
g600
sg76
(lp615
g69
(g70
g71
NtRp616
(dp617
g74
(dp618
g82
I3
ssg83
g612
sg76
(lp619
S''
asbasbasbag69
(g85
g71
NtRp620
(dp621
g74
(dp622
sg83
g476
sg76
(lp623
g69
(g90
g71
NtRp624
(dp625
g74
(dp626
g94
g95
ssg83
g620
sg76
(lp627
g442
asbag69
(g90
g71
NtRp628
(dp629
g74
(dp630
g101
g102
ssg83
g620
sg76
(lp631
S':'
asbag69
(g90
g71
NtRp632
(dp633
g74
(dp634
sg83
g620
sg76
(lp635
g69
(g70
g71
NtRp636
(dp637
g74
(dp638
g82
I3
ssg83
g632
sg76
(lp639
S''
asbasbasbasbasbasbasbag69
(g85
g71
NtRp640
(dp641
g74
(dp642
sg83
g258
sg76
(lp643
g69
(g90
g71
NtRp644
(dp645
g74
(dp646
g94
g95
ssg83
g640
sg76
(lp647
S'session_id_welcome'
p648
asbag69
(g90
g71
NtRp649
(dp650
g74
(dp651
g101
g102
ssg83
g640
sg76
(lp652
S':'
asbag69
(g90
g71
NtRp653
(dp654
g74
(dp655
sg83
g640
sg76
(lp656
g69
(g70
g71
NtRp657
(dp658
g74
(dp659
g82
I4
ssg83
g653
sg76
(lp660
g69
(g78
g71
NtRp661
(dp662
g74
(dp663
g82
I3
ssg83
Nsg76
(lp664
g69
(g85
g71
NtRp665
(dp666
g74
(dp667
sg83
g661
sg76
(lp668
g69
(g90
g71
NtRp669
(dp670
g74
(dp671
g94
g95
ssg83
g665
sg76
(lp672
g295
asbag69
(g90
g71
NtRp673
(dp674
g74
(dp675
g101
g102
ssg83
g665
sg76
(lp676
S':'
asbag69
(g90
g71
NtRp677
(dp678
g74
(dp679
sg83
g665
sg76
(lp680
g69
(g70
g71
NtRp681
(dp682
g74
(dp683
g82
I3
ssg83
g677
sg76
(lp684
S''
asbasbasbag69
(g85
g71
NtRp685
(dp686
g74
(dp687
sg83
g661
sg76
(lp688
g69
(g90
g71
NtRp689
(dp690
g74
(dp691
g94
g95
ssg83
g685
sg76
(lp692
g316
asbag69
(g90
g71
NtRp693
(dp694
g74
(dp695
g101
g102
ssg83
g685
sg76
(lp696
S':'
asbag69
(g90
g71
NtRp697
(dp698
g74
(dp699
sg83
g685
sg76
(lp700
g69
(g70
g71
NtRp701
(dp702
g74
(dp703
g82
I3
ssg83
g697
sg76
(lp704
S''
asbasbasbag69
(g85
g71
NtRp705
(dp706
g74
(dp707
sg83
g661
sg76
(lp708
g69
(g90
g71
NtRp709
(dp710
g74
(dp711
g94
g95
ssg83
g705
sg76
(lp712
g337
asbag69
(g90
g71
NtRp713
(dp714
g74
(dp715
g101
g102
ssg83
g705
sg76
(lp716
S':'
asbag69
(g90
g71
NtRp717
(dp718
g74
(dp719
sg83
g705
sg76
(lp720
g69
(g70
g71
NtRp721
(dp722
g74
(dp723
g82
I3
ssg83
g717
sg76
(lp724
S''
asbasbasbag69
(g85
g71
NtRp725
(dp726
g74
(dp727
sg83
g661
sg76
(lp728
g69
(g90
g71
NtRp729
(dp730
g74
(dp731
g94
g95
ssg83
g725
sg76
(lp732
g358
asbag69
(g90
g71
NtRp733
(dp734
g74
(dp735
g101
g102
ssg83
g725
sg76
(lp736
S':'
asbag69
(g90
g71
NtRp737
(dp738
g74
(dp739
sg83
g725
sg76
(lp740
g69
(g70
g71
NtRp741
(dp742
g74
(dp743
g82
I3
ssg83
g737
sg76
(lp744
S''
asbasbasbag69
(g85
g71
NtRp745
(dp746
g74
(dp747
sg83
g661
sg76
(lp748
g69
(g90
g71
NtRp749
(dp750
g74
(dp751
g94
g95
ssg83
g745
sg76
(lp752
g379
asbag69
(g90
g71
NtRp753
(dp754
g74
(dp755
g101
g102
ssg83
g745
sg76
(lp756
S':'
asbag69
(g90
g71
NtRp757
(dp758
g74
(dp759
sg83
g745
sg76
(lp760
g69
(g70
g71
NtRp761
(dp762
g74
(dp763
g82
I3
ssg83
g757
sg76
(lp764
S''
asbasbasbag69
(g85
g71
NtRp765
(dp766
g74
(dp767
sg83
g661
sg76
(lp768
g69
(g90
g71
NtRp769
(dp770
g74
(dp771
g94
g95
ssg83
g765
sg76
(lp772
g400
asbag69
(g90
g71
NtRp773
(dp774
g74
(dp775
g101
g102
ssg83
g765
sg76
(lp776
S':'
asbag69
(g90
g71
NtRp777
(dp778
g74
(dp779
sg83
g765
sg76
(lp780
g69
(g70
g71
NtRp781
(dp782
g74
(dp783
g82
I3
ssg83
g777
sg76
(lp784
S''
asbasbasbag69
(g85
g71
NtRp785
(dp786
g74
(dp787
sg83
g661
sg76
(lp788
g69
(g90
g71
NtRp789
(dp790
g74
(dp791
g94
g95
ssg83
g785
sg76
(lp792
g421
asbag69
(g90
g71
NtRp793
(dp794
g74
(dp795
g101
g102
ssg83
g785
sg76
(lp796
S':'
asbag69
(g90
g71
NtRp797
(dp798
g74
(dp799
sg83
g785
sg76
(lp800
g69
(g70
g71
NtRp801
(dp802
g74
(dp803
g82
I3
ssg83
g797
sg76
(lp804
S''
asbasbasbag69
(g85
g71
NtRp805
(dp806
g74
(dp807
sg83
g661
sg76
(lp808
g69
(g90
g71
NtRp809
(dp810
g74
(dp811
g94
g95
ssg83
g805
sg76
(lp812
g442
asbag69
(g90
g71
NtRp813
(dp814
g74
(dp815
g101
g102
ssg83
g805
sg76
(lp816
S':'
asbag69
(g90
g71
NtRp817
(dp818
g74
(dp819
sg83
g805
sg76
(lp820
g69
(g70
g71
NtRp821
(dp822
g74
(dp823
g82
I3
ssg83
g817
sg76
(lp824
S''
asbasbasbasbasbasbasbasbasbasbasbag69
(g85
g71
NtRp825
(dp826
g74
(dp827
sg83
g79
sg76
(lp828
g69
(g90
g71
NtRp829
(dp830
g74
(dp831
g94
g95
ssg83
g825
sg76
(lp832
S'env'
p833
asbag69
(g90
g71
NtRp834
(dp835
g74
(dp836
g101
g102
ssg83
g825
sg76
(lp837
S':'
asbag69
(g90
g71
NtRp838
(dp839
g74
(dp840
sg83
g825
sg76
(lp841
g69
(g70
g71
NtRp842
(dp843
g74
(dp844
g82
I5
ssg83
g838
sg76
(lp845
g69
(g78
g71
NtRp846
(dp847
g74
(dp848
g82
I4
ssg83
Nsg76
(lp849
g69
(g85
g71
NtRp850
(dp851
g74
(dp852
sg83
g846
sg76
(lp853
g69
(g90
g71
NtRp854
(dp855
g74
(dp856
g94
g95
ssg83
g850
sg76
(lp857
S'app_folders'
p858
asbag69
(g90
g71
NtRp859
(dp860
g74
(dp861
g101
g102
ssg83
g850
sg76
(lp862
S':'
asbag69
(g90
g71
NtRp863
(dp864
g74
(dp865
sg83
g850
sg76
(lp866
g69
(g70
g71
NtRp867
(dp868
g74
(dp869
g82
I4
ssg83
g863
sg76
(lp870
S"set(['/home/jigar/web2py/applications/welcome/', '/home/jigar/web2py/applications/admin/', '/home/jigar/web2py/applications/app1/'])"
p871
asbasbasbag69
(g85
g71
NtRp872
(dp873
g74
(dp874
sg83
g846
sg76
(lp875
g69
(g90
g71
NtRp876
(dp877
g74
(dp878
g94
g95
ssg83
g872
sg76
(lp879
S'applications_parent'
p880
asbag69
(g90
g71
NtRp881
(dp882
g74
(dp883
g101
g102
ssg83
g872
sg76
(lp884
S':'
asbag69
(g90
g71
NtRp885
(dp886
g74
(dp887
sg83
g872
sg76
(lp888
g69
(g70
g71
NtRp889
(dp890
g74
(dp891
g82
I4
ssg83
g885
sg76
(lp892
S'/home/jigar/web2py'
p893
asbasbasbag69
(g85
g71
NtRp894
(dp895
g74
(dp896
sg83
g846
sg76
(lp897
g69
(g90
g71
NtRp898
(dp899
g74
(dp900
g94
g95
ssg83
g894
sg76
(lp901
S'cmd_args'
p902
asbag69
(g90
g71
NtRp903
(dp904
g74
(dp905
g101
g102
ssg83
g894
sg76
(lp906
S':'
asbag69
(g90
g71
NtRp907
(dp908
g74
(dp909
sg83
g894
sg76
(lp910
g69
(g70
g71
NtRp911
(dp912
g74
(dp913
g82
I4
ssg83
g907
sg76
(lp914
g69
(g78
g71
NtRp915
(dp916
g74
(dp917
g82
I3
ssg83
Nsg76
(lp918
sbasbasbasbag69
(g85
g71
NtRp919
(dp920
g74
(dp921
sg83
g846
sg76
(lp922
g69
(g90
g71
NtRp923
(dp924
g74
(dp925
g94
g95
ssg83
g919
sg76
(lp926
S'cmd_options'
p927
asbag69
(g90
g71
NtRp928
(dp929
g74
(dp930
g101
g102
ssg83
g919
sg76
(lp931
S':'
asbag69
(g90
g71
NtRp932
(dp933
g74
(dp934
sg83
g919
sg76
(lp935
g69
(g70
g71
NtRp936
(dp937
g74
(dp938
g82
I4
ssg83
g932
sg76
(lp939
S"<Values at 0x238cbd8: {'verbose': False, 'ip': '127.0.0.1', 'shutdown_timeout': 5, 'taskbar': False, 'port': 8000, 'maxthreads': None, 'softcron': False, 'server_name': 'jigar-Lenovo-Z580', 'bpython': False, 'nogui': False, 'nocron': False, 'extcron': False, 'debuglevel': 30, 'test': None, 'folder': '/home/jigar/web2py', 'config': '', 'import_models': False, 'winservice': '', 'shell': None, 'run': '', 'log_filename': 'httpserver.log', 'args': [''], 'socket_timeout': 1, 'profiler_filename': None, 'ssl_private_key': '', 'password': '<ask>', 'request_queue_size': 5, 'ssl_certificate': '', 'cronjob': False, 'plain': False, 'quiet': False, 'interfaces': None, 'minthreads': None, 'timeout': 10, 'numthreads': None, 'nobanner': False, 'pid_filename': 'httpserver.pid'}>"
p940
asbasbasbag69
(g85
g71
NtRp941
(dp942
g74
(dp943
sg83
g846
sg76
(lp944
g69
(g90
g71
NtRp945
(dp946
g74
(dp947
g94
g95
ssg83
g941
sg76
(lp948
S'db_sessions'
p949
asbag69
(g90
g71
NtRp950
(dp951
g74
(dp952
g101
g102
ssg83
g941
sg76
(lp953
S':'
asbag69
(g90
g71
NtRp954
(dp955
g74
(dp956
sg83
g941
sg76
(lp957
g69
(g70
g71
NtRp958
(dp959
g74
(dp960
g82
I4
ssg83
g954
sg76
(lp961
S'set([])'
p962
asbasbasbag69
(g85
g71
NtRp963
(dp964
g74
(dp965
sg83
g846
sg76
(lp966
g69
(g90
g71
NtRp967
(dp968
g74
(dp969
g94
g95
ssg83
g963
sg76
(lp970
S'debugging'
p971
asbag69
(g90
g71
NtRp972
(dp973
g74
(dp974
g101
g102
ssg83
g963
sg76
(lp975
S':'
asbag69
(g90
g71
NtRp976
(dp977
g74
(dp978
sg83
g963
sg76
(lp979
g69
(g70
g71
NtRp980
(dp981
g74
(dp982
g82
I4
ssg83
g976
sg76
(lp983
g112
asbasbasbag69
(g85
g71
NtRp984
(dp985
g74
(dp986
sg83
g846
sg76
(lp987
g69
(g90
g71
NtRp988
(dp989
g74
(dp990
g94
g95
ssg83
g984
sg76
(lp991
S'gluon_parent'
p992
asbag69
(g90
g71
NtRp993
(dp994
g74
(dp995
g101
g102
ssg83
g984
sg76
(lp996
S':'
asbag69
(g90
g71
NtRp997
(dp998
g74
(dp999
sg83
g984
sg76
(lp1000
g69
(g70
g71
NtRp1001
(dp1002
g74
(dp1003
g82
I4
ssg83
g997
sg76
(lp1004
S'/usr/share/web2py'
p1005
asbasbasbag69
(g85
g71
NtRp1006
(dp1007
g74
(dp1008
sg83
g846
sg76
(lp1009
g69
(g90
g71
NtRp1010
(dp1011
g74
(dp1012
g94
g95
ssg83
g1006
sg76
(lp1013
S'http_accept'
p1014
asbag69
(g90
g71
NtRp1015
(dp1016
g74
(dp1017
g101
g102
ssg83
g1006
sg76
(lp1018
S':'
asbag69
(g90
g71
NtRp1019
(dp1020
g74
(dp1021
sg83
g1006
sg76
(lp1022
g69
(g70
g71
NtRp1023
(dp1024
g74
(dp1025
g82
I4
ssg83
g1019
sg76
(lp1026
S'text/html,application/xhtml+xml,application/xml;q=0.9,*/*;q=0.8'
p1027
asbasbasbag69
(g85
g71
NtRp1028
(dp1029
g74
(dp1030
sg83
g846
sg76
(lp1031
g69
(g90
g71
NtRp1032
(dp1033
g74
(dp1034
g94
g95
ssg83
g1028
sg76
(lp1035
S'http_accept_encoding'
p1036
asbag69
(g90
g71
NtRp1037
(dp1038
g74
(dp1039
g101
g102
ssg83
g1028
sg76
(lp1040
S':'
asbag69
(g90
g71
NtRp1041
(dp1042
g74
(dp1043
sg83
g1028
sg76
(lp1044
g69
(g70
g71
NtRp1045
(dp1046
g74
(dp1047
g82
I4
ssg83
g1041
sg76
(lp1048
S'gzip, deflate'
p1049
asbasbasbag69
(g85
g71
NtRp1050
(dp1051
g74
(dp1052
sg83
g846
sg76
(lp1053
g69
(g90
g71
NtRp1054
(dp1055
g74
(dp1056
g94
g95
ssg83
g1050
sg76
(lp1057
S'http_accept_language'
p1058
asbag69
(g90
g71
NtRp1059
(dp1060
g74
(dp1061
g101
g102
ssg83
g1050
sg76
(lp1062
S':'
asbag69
(g90
g71
NtRp1063
(dp1064
g74
(dp1065
sg83
g1050
sg76
(lp1066
g69
(g70
g71
NtRp1067
(dp1068
g74
(dp1069
g82
I4
ssg83
g1063
sg76
(lp1070
S'en-US,en;q=0.5'
p1071
asbasbasbag69
(g85
g71
NtRp1072
(dp1073
g74
(dp1074
sg83
g846
sg76
(lp1075
g69
(g90
g71
NtRp1076
(dp1077
g74
(dp1078
g94
g95
ssg83
g1072
sg76
(lp1079
S'http_cache_control'
p1080
asbag69
(g90
g71
NtRp1081
(dp1082
g74
(dp1083
g101
g102
ssg83
g1072
sg76
(lp1084
S':'
asbag69
(g90
g71
NtRp1085
(dp1086
g74
(dp1087
sg83
g1072
sg76
(lp1088
g69
(g70
g71
NtRp1089
(dp1090
g74
(dp1091
g82
I4
ssg83
g1085
sg76
(lp1092
S'max-age=0'
p1093
asbasbasbag69
(g85
g71
NtRp1094
(dp1095
g74
(dp1096
sg83
g846
sg76
(lp1097
g69
(g90
g71
NtRp1098
(dp1099
g74
(dp1100
g94
g95
ssg83
g1094
sg76
(lp1101
S'http_connection'
p1102
asbag69
(g90
g71
NtRp1103
(dp1104
g74
(dp1105
g101
g102
ssg83
g1094
sg76
(lp1106
S':'
asbag69
(g90
g71
NtRp1107
(dp1108
g74
(dp1109
sg83
g1094
sg76
(lp1110
g69
(g70
g71
NtRp1111
(dp1112
g74
(dp1113
g82
I4
ssg83
g1107
sg76
(lp1114
S'keep-alive'
p1115
asbasbasbag69
(g85
g71
NtRp1116
(dp1117
g74
(dp1118
sg83
g846
sg76
(lp1119
g69
(g90
g71
NtRp1120
(dp1121
g74
(dp1122
g94
g95
ssg83
g1116
sg76
(lp1123
S'http_cookie'
p1124
asbag69
(g90
g71
NtRp1125
(dp1126
g74
(dp1127
g101
g102
ssg83
g1116
sg76
(lp1128
S':'
asbag69
(g90
g71
NtRp1129
(dp1130
g74
(dp1131
sg83
g1116
sg76
(lp1132
g69
(g70
g71
NtRp1133
(dp1134
g74
(dp1135
g82
I4
ssg83
g1129
sg76
(lp1136
S'session_id_welcome=127.0.0.1-b6f0729f-1b7b-417f-a0c4-729ef9448dca; session_id_admin=127.0.0.1-932cca65-c849-4cc4-aeab-720ab1480de6; session_id_app1=127.0.0.1-15782adb-a404-4b3e-868f-e60d89b9be1b'
p1137
asbasbasbag69
(g85
g71
NtRp1138
(dp1139
g74
(dp1140
sg83
g846
sg76
(lp1141
g69
(g90
g71
NtRp1142
(dp1143
g74
(dp1144
g94
g95
ssg83
g1138
sg76
(lp1145
S'http_host'
p1146
asbag69
(g90
g71
NtRp1147
(dp1148
g74
(dp1149
g101
g102
ssg83
g1138
sg76
(lp1150
S':'
asbag69
(g90
g71
NtRp1151
(dp1152
g74
(dp1153
sg83
g1138
sg76
(lp1154
g69
(g70
g71
NtRp1155
(dp1156
g74
(dp1157
g82
I4
ssg83
g1151
sg76
(lp1158
S'127.0.0.1:8000'
p1159
asbasbasbag69
(g85
g71
NtRp1160
(dp1161
g74
(dp1162
sg83
g846
sg76
(lp1163
g69
(g90
g71
NtRp1164
(dp1165
g74
(dp1166
g94
g95
ssg83
g1160
sg76
(lp1167
S'http_user_agent'
p1168
asbag69
(g90
g71
NtRp1169
(dp1170
g74
(dp1171
g101
g102
ssg83
g1160
sg76
(lp1172
S':'
asbag69
(g90
g71
NtRp1173
(dp1174
g74
(dp1175
sg83
g1160
sg76
(lp1176
g69
(g70
g71
NtRp1177
(dp1178
g74
(dp1179
g82
I4
ssg83
g1173
sg76
(lp1180
S'Mozilla/5.0 (X11; Ubuntu; Linux x86_64; rv:23.0) Gecko/20100101 Firefox/23.0'
p1181
asbasbasbag69
(g85
g71
NtRp1182
(dp1183
g74
(dp1184
sg83
g846
sg76
(lp1185
g69
(g90
g71
NtRp1186
(dp1187
g74
(dp1188
g94
g95
ssg83
g1182
sg76
(lp1189
S'is_jython'
p1190
asbag69
(g90
g71
NtRp1191
(dp1192
g74
(dp1193
g101
g102
ssg83
g1182
sg76
(lp1194
S':'
asbag69
(g90
g71
NtRp1195
(dp1196
g74
(dp1197
sg83
g1182
sg76
(lp1198
g69
(g70
g71
NtRp1199
(dp1200
g74
(dp1201
g82
I4
ssg83
g1195
sg76
(lp1202
g112
asbasbasbag69
(g85
g71
NtRp1203
(dp1204
g74
(dp1205
sg83
g846
sg76
(lp1206
g69
(g90
g71
NtRp1207
(dp1208
g74
(dp1209
g94
g95
ssg83
g1203
sg76
(lp1210
S'is_pypy'
p1211
asbag69
(g90
g71
NtRp1212
(dp1213
g74
(dp1214
g101
g102
ssg83
g1203
sg76
(lp1215
S':'
asbag69
(g90
g71
NtRp1216
(dp1217
g74
(dp1218
sg83
g1203
sg76
(lp1219
g69
(g70
g71
NtRp1220
(dp1221
g74
(dp1222
g82
I4
ssg83
g1216
sg76
(lp1223
g112
asbasbasbag69
(g85
g71
NtRp1224
(dp1225
g74
(dp1226
sg83
g846
sg76
(lp1227
g69
(g90
g71
NtRp1228
(dp1229
g74
(dp1230
g94
g95
ssg83
g1224
sg76
(lp1231
S'path_info'
p1232
asbag69
(g90
g71
NtRp1233
(dp1234
g74
(dp1235
g101
g102
ssg83
g1224
sg76
(lp1236
S':'
asbag69
(g90
g71
NtRp1237
(dp1238
g74
(dp1239
sg83
g1224
sg76
(lp1240
g69
(g70
g71
NtRp1241
(dp1242
g74
(dp1243
g82
I4
ssg83
g1237
sg76
(lp1244
S'/app1/default/lall/0'
p1245
asbasbasbag69
(g85
g71
NtRp1246
(dp1247
g74
(dp1248
sg83
g846
sg76
(lp1249
g69
(g90
g71
NtRp1250
(dp1251
g74
(dp1252
g94
g95
ssg83
g1246
sg76
(lp1253
S'query_string'
p1254
asbag69
(g90
g71
NtRp1255
(dp1256
g74
(dp1257
g101
g102
ssg83
g1246
sg76
(lp1258
S':'
asbag69
(g90
g71
NtRp1259
(dp1260
g74
(dp1261
sg83
g1246
sg76
(lp1262
g69
(g70
g71
NtRp1263
(dp1264
g74
(dp1265
g82
I4
ssg83
g1259
sg76
(lp1266
S''
asbasbasbag69
(g85
g71
NtRp1267
(dp1268
g74
(dp1269
sg83
g846
sg76
(lp1270
g69
(g90
g71
NtRp1271
(dp1272
g74
(dp1273
g94
g95
ssg83
g1267
sg76
(lp1274
S'remote_addr'
p1275
asbag69
(g90
g71
NtRp1276
(dp1277
g74
(dp1278
g101
g102
ssg83
g1267
sg76
(lp1279
S':'
asbag69
(g90
g71
NtRp1280
(dp1281
g74
(dp1282
sg83
g1267
sg76
(lp1283
g69
(g70
g71
NtRp1284
(dp1285
g74
(dp1286
g82
I4
ssg83
g1280
sg76
(lp1287
g214
asbasbasbag69
(g85
g71
NtRp1288
(dp1289
g74
(dp1290
sg83
g846
sg76
(lp1291
g69
(g90
g71
NtRp1292
(dp1293
g74
(dp1294
g94
g95
ssg83
g1288
sg76
(lp1295
S'remote_port'
p1296
asbag69
(g90
g71
NtRp1297
(dp1298
g74
(dp1299
g101
g102
ssg83
g1288
sg76
(lp1300
S':'
asbag69
(g90
g71
NtRp1301
(dp1302
g74
(dp1303
sg83
g1288
sg76
(lp1304
g69
(g70
g71
NtRp1305
(dp1306
g74
(dp1307
g82
I4
ssg83
g1301
sg76
(lp1308
S'56058'
p1309
asbasbasbag69
(g85
g71
NtRp1310
(dp1311
g74
(dp1312
sg83
g846
sg76
(lp1313
g69
(g90
g71
NtRp1314
(dp1315
g74
(dp1316
g94
g95
ssg83
g1310
sg76
(lp1317
S'request_method'
p1318
asbag69
(g90
g71
NtRp1319
(dp1320
g74
(dp1321
g101
g102
ssg83
g1310
sg76
(lp1322
S':'
asbag69
(g90
g71
NtRp1323
(dp1324
g74
(dp1325
sg83
g1310
sg76
(lp1326
g69
(g70
g71
NtRp1327
(dp1328
g74
(dp1329
g82
I4
ssg83
g1323
sg76
(lp1330
S'GET'
p1331
asbasbasbag69
(g85
g71
NtRp1332
(dp1333
g74
(dp1334
sg83
g846
sg76
(lp1335
g69
(g90
g71
NtRp1336
(dp1337
g74
(dp1338
g94
g95
ssg83
g1332
sg76
(lp1339
S'script_name'
p1340
asbag69
(g90
g71
NtRp1341
(dp1342
g74
(dp1343
g101
g102
ssg83
g1332
sg76
(lp1344
S':'
asbag69
(g90
g71
NtRp1345
(dp1346
g74
(dp1347
sg83
g1332
sg76
(lp1348
g69
(g70
g71
NtRp1349
(dp1350
g74
(dp1351
g82
I4
ssg83
g1345
sg76
(lp1352
S''
asbasbasbag69
(g85
g71
NtRp1353
(dp1354
g74
(dp1355
sg83
g846
sg76
(lp1356
g69
(g90
g71
NtRp1357
(dp1358
g74
(dp1359
g94
g95
ssg83
g1353
sg76
(lp1360
S'server_name'
p1361
asbag69
(g90
g71
NtRp1362
(dp1363
g74
(dp1364
g101
g102
ssg83
g1353
sg76
(lp1365
S':'
asbag69
(g90
g71
NtRp1366
(dp1367
g74
(dp1368
sg83
g1353
sg76
(lp1369
g69
(g70
g71
NtRp1370
(dp1371
g74
(dp1372
g82
I4
ssg83
g1366
sg76
(lp1373
S'jigar-Lenovo-Z580'
p1374
asbasbasbag69
(g85
g71
NtRp1375
(dp1376
g74
(dp1377
sg83
g846
sg76
(lp1378
g69
(g90
g71
NtRp1379
(dp1380
g74
(dp1381
g94
g95
ssg83
g1375
sg76
(lp1382
S'server_port'
p1383
asbag69
(g90
g71
NtRp1384
(dp1385
g74
(dp1386
g101
g102
ssg83
g1375
sg76
(lp1387
S':'
asbag69
(g90
g71
NtRp1388
(dp1389
g74
(dp1390
sg83
g1375
sg76
(lp1391
g69
(g70
g71
NtRp1392
(dp1393
g74
(dp1394
g82
I4
ssg83
g1388
sg76
(lp1395
S'8000'
p1396
asbasbasbag69
(g85
g71
NtRp1397
(dp1398
g74
(dp1399
sg83
g846
sg76
(lp1400
g69
(g90
g71
NtRp1401
(dp1402
g74
(dp1403
g94
g95
ssg83
g1397
sg76
(lp1404
S'server_protocol'
p1405
asbag69
(g90
g71
NtRp1406
(dp1407
g74
(dp1408
g101
g102
ssg83
g1397
sg76
(lp1409
S':'
asbag69
(g90
g71
NtRp1410
(dp1411
g74
(dp1412
sg83
g1397
sg76
(lp1413
g69
(g70
g71
NtRp1414
(dp1415
g74
(dp1416
g82
I4
ssg83
g1410
sg76
(lp1417
S'HTTP/1.1'
p1418
asbasbasbag69
(g85
g71
NtRp1419
(dp1420
g74
(dp1421
sg83
g846
sg76
(lp1422
g69
(g90
g71
NtRp1423
(dp1424
g74
(dp1425
g94
g95
ssg83
g1419
sg76
(lp1426
S'server_software'
p1427
asbag69
(g90
g71
NtRp1428
(dp1429
g74
(dp1430
g101
g102
ssg83
g1419
sg76
(lp1431
S':'
asbag69
(g90
g71
NtRp1432
(dp1433
g74
(dp1434
sg83
g1419
sg76
(lp1435
g69
(g70
g71
NtRp1436
(dp1437
g74
(dp1438
g82
I4
ssg83
g1432
sg76
(lp1439
S'Rocket 1.2.4'
p1440
asbasbasbag69
(g85
g71
NtRp1441
(dp1442
g74
(dp1443
sg83
g846
sg76
(lp1444
g69
(g90
g71
NtRp1445
(dp1446
g74
(dp1447
g94
g95
ssg83
g1441
sg76
(lp1448
S'web2py_crontype'
p1449
asbag69
(g90
g71
NtRp1450
(dp1451
g74
(dp1452
g101
g102
ssg83
g1441
sg76
(lp1453
S':'
asbag69
(g90
g71
NtRp1454
(dp1455
g74
(dp1456
sg83
g1441
sg76
(lp1457
g69
(g70
g71
NtRp1458
(dp1459
g74
(dp1460
g82
I4
ssg83
g1454
sg76
(lp1461
S'hard'
p1462
asbasbasbag69
(g85
g71
NtRp1463
(dp1464
g74
(dp1465
sg83
g846
sg76
(lp1466
g69
(g90
g71
NtRp1467
(dp1468
g74
(dp1469
g94
g95
ssg83
g1463
sg76
(lp1470
S'web2py_path'
p1471
asbag69
(g90
g71
NtRp1472
(dp1473
g74
(dp1474
g101
g102
ssg83
g1463
sg76
(lp1475
S':'
asbag69
(g90
g71
NtRp1476
(dp1477
g74
(dp1478
sg83
g1463
sg76
(lp1479
g69
(g70
g71
NtRp1480
(dp1481
g74
(dp1482
g82
I4
ssg83
g1476
sg76
(lp1483
g893
asbasbasbag69
(g85
g71
NtRp1484
(dp1485
g74
(dp1486
sg83
g846
sg76
(lp1487
g69
(g90
g71
NtRp1488
(dp1489
g74
(dp1490
g94
g95
ssg83
g1484
sg76
(lp1491
S'web2py_version'
p1492
asbag69
(g90
g71
NtRp1493
(dp1494
g74
(dp1495
g101
g102
ssg83
g1484
sg76
(lp1496
S':'
asbag69
(g90
g71
NtRp1497
(dp1498
g74
(dp1499
sg83
g1484
sg76
(lp1500
g69
(g70
g71
NtRp1501
(dp1502
g74
(dp1503
g82
I4
ssg83
g1497
sg76
(lp1504
g69
(g78
g71
NtRp1505
(dp1506
g74
(dp1507
g82
I3
ssg83
Nsg76
(lp1508
g69
(g85
g71
NtRp1509
(dp1510
g74
(dp1511
sg83
g1505
sg76
(lp1512
g69
(g90
g71
NtRp1513
(dp1514
g74
(dp1515
sg83
g1509
sg76
(lp1516
g69
(g70
g71
NtRp1517
(dp1518
g74
(dp1519
g82
I3
ssg83
g1513
sg76
(lp1520
S'1'
asbasbasbag69
(g85
g71
NtRp1521
(dp1522
g74
(dp1523
sg83
g1505
sg76
(lp1524
g69
(g90
g71
NtRp1525
(dp1526
g74
(dp1527
sg83
g1521
sg76
(lp1528
g69
(g70
g71
NtRp1529
(dp1530
g74
(dp1531
g82
I3
ssg83
g1525
sg76
(lp1532
S'99'
p1533
asbasbasbag69
(g85
g71
NtRp1534
(dp1535
g74
(dp1536
sg83
g1505
sg76
(lp1537
g69
(g90
g71
NtRp1538
(dp1539
g74
(dp1540
sg83
g1534
sg76
(lp1541
g69
(g70
g71
NtRp1542
(dp1543
g74
(dp1544
g82
I3
ssg83
g1538
sg76
(lp1545
S'4'
asbasbasbag69
(g85
g71
NtRp1546
(dp1547
g74
(dp1548
sg83
g1505
sg76
(lp1549
g69
(g90
g71
NtRp1550
(dp1551
g74
(dp1552
sg83
g1546
sg76
(lp1553
g69
(g70
g71
NtRp1554
(dp1555
g74
(dp1556
g82
I3
ssg83
g1550
sg76
(lp1557
S'datetime.datetime(2011, 12, 14, 14, 46, 14)'
p1558
asbasbasbag69
(g85
g71
NtRp1559
(dp1560
g74
(dp1561
sg83
g1505
sg76
(lp1562
g69
(g90
g71
NtRp1563
(dp1564
g74
(dp1565
sg83
g1559
sg76
(lp1566
g69
(g70
g71
NtRp1567
(dp1568
g74
(dp1569
g82
I3
ssg83
g1563
sg76
(lp1570
S'stable'
p1571
asbasbasbasbasbasbasbag69
(g85
g71
NtRp1572
(dp1573
g74
(dp1574
sg83
g846
sg76
(lp1575
g69
(g90
g71
NtRp1576
(dp1577
g74
(dp1578
g94
g95
ssg83
g1572
sg76
(lp1579
S'wsgi_errors'
p1580
asbag69
(g90
g71
NtRp1581
(dp1582
g74
(dp1583
g101
g102
ssg83
g1572
sg76
(lp1584
S':'
asbag69
(g90
g71
NtRp1585
(dp1586
g74
(dp1587
sg83
g1572
sg76
(lp1588
g69
(g70
g71
NtRp1589
(dp1590
g74
(dp1591
g82
I4
ssg83
g1585
sg76
(lp1592
S"<open file '<stderr>', mode 'w' at 0x7f53d832b270>"
p1593
asbasbasbag69
(g85
g71
NtRp1594
(dp1595
g74
(dp1596
sg83
g846
sg76
(lp1597
g69
(g90
g71
NtRp1598
(dp1599
g74
(dp1600
g94
g95
ssg83
g1594
sg76
(lp1601
S'wsgi_file_wrapper'
p1602
asbag69
(g90
g71
NtRp1603
(dp1604
g74
(dp1605
g101
g102
ssg83
g1594
sg76
(lp1606
S':'
asbag69
(g90
g71
NtRp1607
(dp1608
g74
(dp1609
sg83
g1594
sg76
(lp1610
g69
(g70
g71
NtRp1611
(dp1612
g74
(dp1613
g82
I4
ssg83
g1607
sg76
(lp1614
S'<class wsgiref.util.FileWrapper at 0x22c7328>'
p1615
asbasbasbag69
(g85
g71
NtRp1616
(dp1617
g74
(dp1618
sg83
g846
sg76
(lp1619
g69
(g90
g71
NtRp1620
(dp1621
g74
(dp1622
g94
g95
ssg83
g1616
sg76
(lp1623
S'wsgi_input'
p1624
asbag69
(g90
g71
NtRp1625
(dp1626
g74
(dp1627
g101
g102
ssg83
g1616
sg76
(lp1628
S':'
asbag69
(g90
g71
NtRp1629
(dp1630
g74
(dp1631
sg83
g1616
sg76
(lp1632
g69
(g70
g71
NtRp1633
(dp1634
g74
(dp1635
g82
I4
ssg83
g1629
sg76
(lp1636
S'<socket._fileobject object at 0x7f53a826ead0>'
p1637
asbasbasbag69
(g85
g71
NtRp1638
(dp1639
g74
(dp1640
sg83
g846
sg76
(lp1641
g69
(g90
g71
NtRp1642
(dp1643
g74
(dp1644
g94
g95
ssg83
g1638
sg76
(lp1645
S'wsgi_multiprocess'
p1646
asbag69
(g90
g71
NtRp1647
(dp1648
g74
(dp1649
g101
g102
ssg83
g1638
sg76
(lp1650
S':'
asbag69
(g90
g71
NtRp1651
(dp1652
g74
(dp1653
sg83
g1638
sg76
(lp1654
g69
(g70
g71
NtRp1655
(dp1656
g74
(dp1657
g82
I4
ssg83
g1651
sg76
(lp1658
g112
asbasbasbag69
(g85
g71
NtRp1659
(dp1660
g74
(dp1661
sg83
g846
sg76
(lp1662
g69
(g90
g71
NtRp1663
(dp1664
g74
(dp1665
g94
g95
ssg83
g1659
sg76
(lp1666
S'wsgi_multithread'
p1667
asbag69
(g90
g71
NtRp1668
(dp1669
g74
(dp1670
g101
g102
ssg83
g1659
sg76
(lp1671
S':'
asbag69
(g90
g71
NtRp1672
(dp1673
g74
(dp1674
sg83
g1659
sg76
(lp1675
g69
(g70
g71
NtRp1676
(dp1677
g74
(dp1678
g82
I4
ssg83
g1672
sg76
(lp1679
S'True'
p1680
asbasbasbag69
(g85
g71
NtRp1681
(dp1682
g74
(dp1683
sg83
g846
sg76
(lp1684
g69
(g90
g71
NtRp1685
(dp1686
g74
(dp1687
g94
g95
ssg83
g1681
sg76
(lp1688
S'wsgi_run_once'
p1689
asbag69
(g90
g71
NtRp1690
(dp1691
g74
(dp1692
g101
g102
ssg83
g1681
sg76
(lp1693
S':'
asbag69
(g90
g71
NtRp1694
(dp1695
g74
(dp1696
sg83
g1681
sg76
(lp1697
g69
(g70
g71
NtRp1698
(dp1699
g74
(dp1700
g82
I4
ssg83
g1694
sg76
(lp1701
g112
asbasbasbag69
(g85
g71
NtRp1702
(dp1703
g74
(dp1704
sg83
g846
sg76
(lp1705
g69
(g90
g71
NtRp1706
(dp1707
g74
(dp1708
g94
g95
ssg83
g1702
sg76
(lp1709
S'wsgi_url_scheme'
p1710
asbag69
(g90
g71
NtRp1711
(dp1712
g74
(dp1713
g101
g102
ssg83
g1702
sg76
(lp1714
S':'
asbag69
(g90
g71
NtRp1715
(dp1716
g74
(dp1717
sg83
g1702
sg76
(lp1718
g69
(g70
g71
NtRp1719
(dp1720
g74
(dp1721
g82
I4
ssg83
g1715
sg76
(lp1722
S'http'
p1723
asbasbasbag69
(g85
g71
NtRp1724
(dp1725
g74
(dp1726
sg83
g846
sg76
(lp1727
g69
(g90
g71
NtRp1728
(dp1729
g74
(dp1730
g94
g95
ssg83
g1724
sg76
(lp1731
S'wsgi_version'
p1732
asbag69
(g90
g71
NtRp1733
(dp1734
g74
(dp1735
g101
g102
ssg83
g1724
sg76
(lp1736
S':'
asbag69
(g90
g71
NtRp1737
(dp1738
g74
(dp1739
sg83
g1724
sg76
(lp1740
g69
(g70
g71
NtRp1741
(dp1742
g74
(dp1743
g82
I4
ssg83
g1737
sg76
(lp1744
g69
(g78
g71
NtRp1745
(dp1746
g74
(dp1747
g82
I3
ssg83
Nsg76
(lp1748
g69
(g85
g71
NtRp1749
(dp1750
g74
(dp1751
sg83
g1745
sg76
(lp1752
g69
(g90
g71
NtRp1753
(dp1754
g74
(dp1755
sg83
g1749
sg76
(lp1756
g69
(g70
g71
NtRp1757
(dp1758
g74
(dp1759
g82
I3
ssg83
g1753
sg76
(lp1760
S'1'
asbasbasbag69
(g85
g71
NtRp1761
(dp1762
g74
(dp1763
sg83
g1745
sg76
(lp1764
g69
(g90
g71
NtRp1765
(dp1766
g74
(dp1767
sg83
g1761
sg76
(lp1768
g69
(g70
g71
NtRp1769
(dp1770
g74
(dp1771
g82
I3
ssg83
g1765
sg76
(lp1772
S'0'
asbasbasbasbasbasbasbasbasbasbasbag69
(g85
g71
NtRp1773
(dp1774
g74
(dp1775
sg83
g79
sg76
(lp1776
g69
(g90
g71
NtRp1777
(dp1778
g74
(dp1779
g94
g95
ssg83
g1773
sg76
(lp1780
S'extension'
p1781
asbag69
(g90
g71
NtRp1782
(dp1783
g74
(dp1784
g101
g102
ssg83
g1773
sg76
(lp1785
S':'
asbag69
(g90
g71
NtRp1786
(dp1787
g74
(dp1788
sg83
g1773
sg76
(lp1789
g69
(g70
g71
NtRp1790
(dp1791
g74
(dp1792
g82
I5
ssg83
g1786
sg76
(lp1793
S'html'
p1794
asbasbasbag69
(g85
g71
NtRp1795
(dp1796
g74
(dp1797
sg83
g79
sg76
(lp1798
g69
(g90
g71
NtRp1799
(dp1800
g74
(dp1801
g94
g95
ssg83
g1795
sg76
(lp1802
S'folder'
p1803
asbag69
(g90
g71
NtRp1804
(dp1805
g74
(dp1806
g101
g102
ssg83
g1795
sg76
(lp1807
S':'
asbag69
(g90
g71
NtRp1808
(dp1809
g74
(dp1810
sg83
g1795
sg76
(lp1811
g69
(g70
g71
NtRp1812
(dp1813
g74
(dp1814
g82
I5
ssg83
g1808
sg76
(lp1815
S'/home/jigar/web2py/applications/app1/'
p1816
asbasbasbag69
(g85
g71
NtRp1817
(dp1818
g74
(dp1819
sg83
g79
sg76
(lp1820
g69
(g90
g71
NtRp1821
(dp1822
g74
(dp1823
g94
g95
ssg83
g1817
sg76
(lp1824
S'function'
p1825
asbag69
(g90
g71
NtRp1826
(dp1827
g74
(dp1828
g101
g102
ssg83
g1817
sg76
(lp1829
S':'
asbag69
(g90
g71
NtRp1830
(dp1831
g74
(dp1832
sg83
g1817
sg76
(lp1833
g69
(g70
g71
NtRp1834
(dp1835
g74
(dp1836
g82
I5
ssg83
g1830
sg76
(lp1837
S'lall'
p1838
asbasbasbag69
(g85
g71
NtRp1839
(dp1840
g74
(dp1841
sg83
g79
sg76
(lp1842
g69
(g90
g71
NtRp1843
(dp1844
g74
(dp1845
g94
g95
ssg83
g1839
sg76
(lp1846
S'get_vars'
p1847
asbag69
(g90
g71
NtRp1848
(dp1849
g74
(dp1850
g101
g102
ssg83
g1839
sg76
(lp1851
S':'
asbag69
(g90
g71
NtRp1852
(dp1853
g74
(dp1854
sg83
g1839
sg76
(lp1855
g69
(g70
g71
NtRp1856
(dp1857
g74
(dp1858
g82
I5
ssg83
g1852
sg76
(lp1859
g69
(g78
g71
NtRp1860
(dp1861
g74
(dp1862
g82
I4
ssg83
Nsg76
(lp1863
sbasbasbasbag69
(g85
g71
NtRp1864
(dp1865
g74
(dp1866
sg83
g79
sg76
(lp1867
g69
(g90
g71
NtRp1868
(dp1869
g74
(dp1870
g94
g95
ssg83
g1864
sg76
(lp1871
S'global_settings'
p1872
asbag69
(g90
g71
NtRp1873
(dp1874
g74
(dp1875
g101
g102
ssg83
g1864
sg76
(lp1876
S':'
asbag69
(g90
g71
NtRp1877
(dp1878
g74
(dp1879
sg83
g1864
sg76
(lp1880
g69
(g70
g71
NtRp1881
(dp1882
g74
(dp1883
g82
I5
ssg83
g1877
sg76
(lp1884
g69
(g78
g71
NtRp1885
(dp1886
g74
(dp1887
g82
I4
ssg83
Nsg76
(lp1888
g69
(g85
g71
NtRp1889
(dp1890
g74
(dp1891
sg83
g1885
sg76
(lp1892
g69
(g90
g71
NtRp1893
(dp1894
g74
(dp1895
g94
g95
ssg83
g1889
sg76
(lp1896
g858
asbag69
(g90
g71
NtRp1897
(dp1898
g74
(dp1899
g101
g102
ssg83
g1889
sg76
(lp1900
S':'
asbag69
(g90
g71
NtRp1901
(dp1902
g74
(dp1903
sg83
g1889
sg76
(lp1904
g69
(g70
g71
NtRp1905
(dp1906
g74
(dp1907
g82
I4
ssg83
g1901
sg76
(lp1908
S"set(['/home/jigar/web2py/applications/welcome/', '/home/jigar/web2py/applications/admin/', '/home/jigar/web2py/applications/app1/'])"
p1909
asbasbasbag69
(g85
g71
NtRp1910
(dp1911
g74
(dp1912
sg83
g1885
sg76
(lp1913
g69
(g90
g71
NtRp1914
(dp1915
g74
(dp1916
g94
g95
ssg83
g1910
sg76
(lp1917
g880
asbag69
(g90
g71
NtRp1918
(dp1919
g74
(dp1920
g101
g102
ssg83
g1910
sg76
(lp1921
S':'
asbag69
(g90
g71
NtRp1922
(dp1923
g74
(dp1924
sg83
g1910
sg76
(lp1925
g69
(g70
g71
NtRp1926
(dp1927
g74
(dp1928
g82
I4
ssg83
g1922
sg76
(lp1929
g893
asbasbasbag69
(g85
g71
NtRp1930
(dp1931
g74
(dp1932
sg83
g1885
sg76
(lp1933
g69
(g90
g71
NtRp1934
(dp1935
g74
(dp1936
g94
g95
ssg83
g1930
sg76
(lp1937
g902
asbag69
(g90
g71
NtRp1938
(dp1939
g74
(dp1940
g101
g102
ssg83
g1930
sg76
(lp1941
S':'
asbag69
(g90
g71
NtRp1942
(dp1943
g74
(dp1944
sg83
g1930
sg76
(lp1945
g69
(g70
g71
NtRp1946
(dp1947
g74
(dp1948
g82
I4
ssg83
g1942
sg76
(lp1949
g69
(g78
g71
NtRp1950
(dp1951
g74
(dp1952
g82
I3
ssg83
Nsg76
(lp1953
sbasbasbasbag69
(g85
g71
NtRp1954
(dp1955
g74
(dp1956
sg83
g1885
sg76
(lp1957
g69
(g90
g71
NtRp1958
(dp1959
g74
(dp1960
g94
g95
ssg83
g1954
sg76
(lp1961
g927
asbag69
(g90
g71
NtRp1962
(dp1963
g74
(dp1964
g101
g102
ssg83
g1954
sg76
(lp1965
S':'
asbag69
(g90
g71
NtRp1966
(dp1967
g74
(dp1968
sg83
g1954
sg76
(lp1969
g69
(g70
g71
NtRp1970
(dp1971
g74
(dp1972
g82
I4
ssg83
g1966
sg76
(lp1973
S"<Values at 0x238cbd8: {'verbose': False, 'ip': '127.0.0.1', 'shutdown_timeout': 5, 'taskbar': False, 'port': 8000, 'maxthreads': None, 'softcron': False, 'server_name': 'jigar-Lenovo-Z580', 'bpython': False, 'nogui': False, 'nocron': False, 'extcron': False, 'debuglevel': 30, 'test': None, 'folder': '/home/jigar/web2py', 'config': '', 'import_models': False, 'winservice': '', 'shell': None, 'run': '', 'log_filename': 'httpserver.log', 'args': [''], 'socket_timeout': 1, 'profiler_filename': None, 'ssl_private_key': '', 'password': '<ask>', 'request_queue_size': 5, 'ssl_certificate': '', 'cronjob': False, 'plain': False, 'quiet': False, 'interfaces': None, 'minthreads': None, 'timeout': 10, 'numthreads': None, 'nobanner': False, 'pid_filename': 'httpserver.pid'}>"
p1974
asbasbasbag69
(g85
g71
NtRp1975
(dp1976
g74
(dp1977
sg83
g1885
sg76
(lp1978
g69
(g90
g71
NtRp1979
(dp1980
g74
(dp1981
g94
g95
ssg83
g1975
sg76
(lp1982
g949
asbag69
(g90
g71
NtRp1983
(dp1984
g74
(dp1985
g101
g102
ssg83
g1975
sg76
(lp1986
S':'
asbag69
(g90
g71
NtRp1987
(dp1988
g74
(dp1989
sg83
g1975
sg76
(lp1990
g69
(g70
g71
NtRp1991
(dp1992
g74
(dp1993
g82
I4
ssg83
g1987
sg76
(lp1994
S'set([])'
p1995
asbasbasbag69
(g85
g71
NtRp1996
(dp1997
g74
(dp1998
sg83
g1885
sg76
(lp1999
g69
(g90
g71
NtRp2000
(dp2001
g74
(dp2002
g94
g95
ssg83
g1996
sg76
(lp2003
g971
asbag69
(g90
g71
NtRp2004
(dp2005
g74
(dp2006
g101
g102
ssg83
g1996
sg76
(lp2007
S':'
asbag69
(g90
g71
NtRp2008
(dp2009
g74
(dp2010
sg83
g1996
sg76
(lp2011
g69
(g70
g71
NtRp2012
(dp2013
g74
(dp2014
g82
I4
ssg83
g2008
sg76
(lp2015
g112
asbasbasbag69
(g85
g71
NtRp2016
(dp2017
g74
(dp2018
sg83
g1885
sg76
(lp2019
g69
(g90
g71
NtRp2020
(dp2021
g74
(dp2022
g94
g95
ssg83
g2016
sg76
(lp2023
g992
asbag69
(g90
g71
NtRp2024
(dp2025
g74
(dp2026
g101
g102
ssg83
g2016
sg76
(lp2027
S':'
asbag69
(g90
g71
NtRp2028
(dp2029
g74
(dp2030
sg83
g2016
sg76
(lp2031
g69
(g70
g71
NtRp2032
(dp2033
g74
(dp2034
g82
I4
ssg83
g2028
sg76
(lp2035
g1005
asbasbasbag69
(g85
g71
NtRp2036
(dp2037
g74
(dp2038
sg83
g1885
sg76
(lp2039
g69
(g90
g71
NtRp2040
(dp2041
g74
(dp2042
g94
g95
ssg83
g2036
sg76
(lp2043
g1190
asbag69
(g90
g71
NtRp2044
(dp2045
g74
(dp2046
g101
g102
ssg83
g2036
sg76
(lp2047
S':'
asbag69
(g90
g71
NtRp2048
(dp2049
g74
(dp2050
sg83
g2036
sg76
(lp2051
g69
(g70
g71
NtRp2052
(dp2053
g74
(dp2054
g82
I4
ssg83
g2048
sg76
(lp2055
g112
asbasbasbag69
(g85
g71
NtRp2056
(dp2057
g74
(dp2058
sg83
g1885
sg76
(lp2059
g69
(g90
g71
NtRp2060
(dp2061
g74
(dp2062
g94
g95
ssg83
g2056
sg76
(lp2063
g1211
asbag69
(g90
g71
NtRp2064
(dp2065
g74
(dp2066
g101
g102
ssg83
g2056
sg76
(lp2067
S':'
asbag69
(g90
g71
NtRp2068
(dp2069
g74
(dp2070
sg83
g2056
sg76
(lp2071
g69
(g70
g71
NtRp2072
(dp2073
g74
(dp2074
g82
I4
ssg83
g2068
sg76
(lp2075
g112
asbasbasbag69
(g85
g71
NtRp2076
(dp2077
g74
(dp2078
sg83
g1885
sg76
(lp2079
g69
(g90
g71
NtRp2080
(dp2081
g74
(dp2082
g94
g95
ssg83
g2076
sg76
(lp2083
g1449
asbag69
(g90
g71
NtRp2084
(dp2085
g74
(dp2086
g101
g102
ssg83
g2076
sg76
(lp2087
S':'
asbag69
(g90
g71
NtRp2088
(dp2089
g74
(dp2090
sg83
g2076
sg76
(lp2091
g69
(g70
g71
NtRp2092
(dp2093
g74
(dp2094
g82
I4
ssg83
g2088
sg76
(lp2095
g1462
asbasbasbag69
(g85
g71
NtRp2096
(dp2097
g74
(dp2098
sg83
g1885
sg76
(lp2099
g69
(g90
g71
NtRp2100
(dp2101
g74
(dp2102
g94
g95
ssg83
g2096
sg76
(lp2103
g1492
asbag69
(g90
g71
NtRp2104
(dp2105
g74
(dp2106
g101
g102
ssg83
g2096
sg76
(lp2107
S':'
asbag69
(g90
g71
NtRp2108
(dp2109
g74
(dp2110
sg83
g2096
sg76
(lp2111
g69
(g70
g71
NtRp2112
(dp2113
g74
(dp2114
g82
I4
ssg83
g2108
sg76
(lp2115
g69
(g78
g71
NtRp2116
(dp2117
g74
(dp2118
g82
I3
ssg83
Nsg76
(lp2119
g69
(g85
g71
NtRp2120
(dp2121
g74
(dp2122
sg83
g2116
sg76
(lp2123
g69
(g90
g71
NtRp2124
(dp2125
g74
(dp2126
sg83
g2120
sg76
(lp2127
g69
(g70
g71
NtRp2128
(dp2129
g74
(dp2130
g82
I3
ssg83
g2124
sg76
(lp2131
S'1'
asbasbasbag69
(g85
g71
NtRp2132
(dp2133
g74
(dp2134
sg83
g2116
sg76
(lp2135
g69
(g90
g71
NtRp2136
(dp2137
g74
(dp2138
sg83
g2132
sg76
(lp2139
g69
(g70
g71
NtRp2140
(dp2141
g74
(dp2142
g82
I3
ssg83
g2136
sg76
(lp2143
S'99'
p2144
asbasbasbag69
(g85
g71
NtRp2145
(dp2146
g74
(dp2147
sg83
g2116
sg76
(lp2148
g69
(g90
g71
NtRp2149
(dp2150
g74
(dp2151
sg83
g2145
sg76
(lp2152
g69
(g70
g71
NtRp2153
(dp2154
g74
(dp2155
g82
I3
ssg83
g2149
sg76
(lp2156
S'4'
asbasbasbag69
(g85
g71
NtRp2157
(dp2158
g74
(dp2159
sg83
g2116
sg76
(lp2160
g69
(g90
g71
NtRp2161
(dp2162
g74
(dp2163
sg83
g2157
sg76
(lp2164
g69
(g70
g71
NtRp2165
(dp2166
g74
(dp2167
g82
I3
ssg83
g2161
sg76
(lp2168
S'datetime.datetime(2011, 12, 14, 14, 46, 14)'
p2169
asbasbasbag69
(g85
g71
NtRp2170
(dp2171
g74
(dp2172
sg83
g2116
sg76
(lp2173
g69
(g90
g71
NtRp2174
(dp2175
g74
(dp2176
sg83
g2170
sg76
(lp2177
g69
(g70
g71
NtRp2178
(dp2179
g74
(dp2180
g82
I3
ssg83
g2174
sg76
(lp2181
g1571
asbasbasbasbasbasbasbasbasbasbasbag69
(g85
g71
NtRp2182
(dp2183
g74
(dp2184
sg83
g79
sg76
(lp2185
g69
(g90
g71
NtRp2186
(dp2187
g74
(dp2188
g94
g95
ssg83
g2182
sg76
(lp2189
S'is_https'
p2190
asbag69
(g90
g71
NtRp2191
(dp2192
g74
(dp2193
g101
g102
ssg83
g2182
sg76
(lp2194
S':'
asbag69
(g90
g71
NtRp2195
(dp2196
g74
(dp2197
sg83
g2182
sg76
(lp2198
g69
(g70
g71
NtRp2199
(dp2200
g74
(dp2201
g82
I5
ssg83
g2195
sg76
(lp2202
g112
asbasbasbag69
(g85
g71
NtRp2203
(dp2204
g74
(dp2205
sg83
g79
sg76
(lp2206
g69
(g90
g71
NtRp2207
(dp2208
g74
(dp2209
g94
g95
ssg83
g2203
sg76
(lp2210
S'is_local'
p2211
asbag69
(g90
g71
NtRp2212
(dp2213
g74
(dp2214
g101
g102
ssg83
g2203
sg76
(lp2215
S':'
asbag69
(g90
g71
NtRp2216
(dp2217
g74
(dp2218
sg83
g2203
sg76
(lp2219
g69
(g70
g71
NtRp2220
(dp2221
g74
(dp2222
g82
I5
ssg83
g2216
sg76
(lp2223
g1680
asbasbasbag69
(g85
g71
NtRp2224
(dp2225
g74
(dp2226
sg83
g79
sg76
(lp2227
g69
(g90
g71
NtRp2228
(dp2229
g74
(dp2230
g94
g95
ssg83
g2224
sg76
(lp2231
S'is_restful'
p2232
asbag69
(g90
g71
NtRp2233
(dp2234
g74
(dp2235
g101
g102
ssg83
g2224
sg76
(lp2236
S':'
asbag69
(g90
g71
NtRp2237
(dp2238
g74
(dp2239
sg83
g2224
sg76
(lp2240
g69
(g70
g71
NtRp2241
(dp2242
g74
(dp2243
g82
I5
ssg83
g2237
sg76
(lp2244
g112
asbasbasbag69
(g85
g71
NtRp2245
(dp2246
g74
(dp2247
sg83
g79
sg76
(lp2248
g69
(g90
g71
NtRp2249
(dp2250
g74
(dp2251
g94
g95
ssg83
g2245
sg76
(lp2252
S'now'
p2253
asbag69
(g90
g71
NtRp2254
(dp2255
g74
(dp2256
g101
g102
ssg83
g2245
sg76
(lp2257
S':'
asbag69
(g90
g71
NtRp2258
(dp2259
g74
(dp2260
sg83
g2245
sg76
(lp2261
g69
(g70
g71
NtRp2262
(dp2263
g74
(dp2264
g82
I5
ssg83
g2258
sg76
(lp2265
S'datetime.datetime(2013, 8, 29, 2, 28, 25, 26463)'
p2266
asbasbasbag69
(g85
g71
NtRp2267
(dp2268
g74
(dp2269
sg83
g79
sg76
(lp2270
g69
(g90
g71
NtRp2271
(dp2272
g74
(dp2273
g94
g95
ssg83
g2267
sg76
(lp2274
S'post_vars'
p2275
asbag69
(g90
g71
NtRp2276
(dp2277
g74
(dp2278
g101
g102
ssg83
g2267
sg76
(lp2279
S':'
asbag69
(g90
g71
NtRp2280
(dp2281
g74
(dp2282
sg83
g2267
sg76
(lp2283
g69
(g70
g71
NtRp2284
(dp2285
g74
(dp2286
g82
I5
ssg83
g2280
sg76
(lp2287
g69
(g78
g71
NtRp2288
(dp2289
g74
(dp2290
g82
I4
ssg83
Nsg76
(lp2291
sbasbasbasbag69
(g85
g71
NtRp2292
(dp2293
g74
(dp2294
sg83
g79
sg76
(lp2295
g69
(g90
g71
NtRp2296
(dp2297
g74
(dp2298
g94
g95
ssg83
g2292
sg76
(lp2299
S'raw_args'
p2300
asbag69
(g90
g71
NtRp2301
(dp2302
g74
(dp2303
g101
g102
ssg83
g2292
sg76
(lp2304
S':'
asbag69
(g90
g71
NtRp2305
(dp2306
g74
(dp2307
sg83
g2292
sg76
(lp2308
g69
(g70
g71
NtRp2309
(dp2310
g74
(dp2311
g82
I5
ssg83
g2305
sg76
(lp2312
S'0'
asbasbasbag69
(g85
g71
NtRp2313
(dp2314
g74
(dp2315
sg83
g79
sg76
(lp2316
g69
(g90
g71
NtRp2317
(dp2318
g74
(dp2319
g94
g95
ssg83
g2313
sg76
(lp2320
S'url'
p2321
asbag69
(g90
g71
NtRp2322
(dp2323
g74
(dp2324
g101
g102
ssg83
g2313
sg76
(lp2325
S':'
asbag69
(g90
g71
NtRp2326
(dp2327
g74
(dp2328
sg83
g2313
sg76
(lp2329
g69
(g70
g71
NtRp2330
(dp2331
g74
(dp2332
g82
I5
ssg83
g2326
sg76
(lp2333
S'/app1/default/lall/0'
p2334
asbasbasbag69
(g85
g71
NtRp2335
(dp2336
g74
(dp2337
sg83
g79
sg76
(lp2338
g69
(g90
g71
NtRp2339
(dp2340
g74
(dp2341
g94
g95
ssg83
g2335
sg76
(lp2342
S'utcnow'
p2343
asbag69
(g90
g71
NtRp2344
(dp2345
g74
(dp2346
g101
g102
ssg83
g2335
sg76
(lp2347
S':'
asbag69
(g90
g71
NtRp2348
(dp2349
g74
(dp2350
sg83
g2335
sg76
(lp2351
g69
(g70
g71
NtRp2352
(dp2353
g74
(dp2354
g82
I5
ssg83
g2348
sg76
(lp2355
S'datetime.datetime(2013, 8, 28, 20, 58, 25, 26519)'
p2356
asbasbasbag69
(g85
g71
NtRp2357
(dp2358
g74
(dp2359
sg83
g79
sg76
(lp2360
g69
(g90
g71
NtRp2361
(dp2362
g74
(dp2363
g94
g95
ssg83
g2357
sg76
(lp2364
S'uuid'
p2365
asbag69
(g90
g71
NtRp2366
(dp2367
g74
(dp2368
g101
g102
ssg83
g2357
sg76
(lp2369
S':'
asbag69
(g90
g71
NtRp2370
(dp2371
g74
(dp2372
sg83
g2357
sg76
(lp2373
g69
(g70
g71
NtRp2374
(dp2375
g74
(dp2376
g82
I5
ssg83
g2370
sg76
(lp2377
S'app1/127.0.0.1.2013-08-29.02-28-25.5bb73baa-5b77-40e0-9257-c5b9618f4955'
p2378
asbasbasbag69
(g85
g71
NtRp2379
(dp2380
g74
(dp2381
sg83
g79
sg76
(lp2382
g69
(g90
g71
NtRp2383
(dp2384
g74
(dp2385
g94
g95
ssg83
g2379
sg76
(lp2386
S'vars'
p2387
asbag69
(g90
g71
NtRp2388
(dp2389
g74
(dp2390
g101
g102
ssg83
g2379
sg76
(lp2391
S':'
asbag69
(g90
g71
NtRp2392
(dp2393
g74
(dp2394
sg83
g2379
sg76
(lp2395
g69
(g70
g71
NtRp2396
(dp2397
g74
(dp2398
g82
I5
ssg83
g2392
sg76
(lp2399
g69
(g78
g71
NtRp2400
(dp2401
g74
(dp2402
g82
I4
ssg83
Nsg76
(lp2403
sbasbasbasbag69
(g85
g71
NtRp2404
(dp2405
g74
(dp2406
sg83
g79
sg76
(lp2407
g69
(g90
g71
NtRp2408
(dp2409
g74
(dp2410
g94
g95
ssg83
g2404
sg76
(lp2411
S'wsgi'
p2412
asbag69
(g90
g71
NtRp2413
(dp2414
g74
(dp2415
g101
g102
ssg83
g2404
sg76
(lp2416
S':'
asbag69
(g90
g71
NtRp2417
(dp2418
g74
(dp2419
sg83
g2404
sg76
(lp2420
g69
(g70
g71
NtRp2421
(dp2422
g74
(dp2423
g82
I5
ssg83
g2417
sg76
(lp2424
g69
(g78
g71
NtRp2425
(dp2426
g74
(dp2427
g82
I4
ssg83
Nsg76
(lp2428
g69
(g85
g71
NtRp2429
(dp2430
g74
(dp2431
sg83
g2425
sg76
(lp2432
g69
(g90
g71
NtRp2433
(dp2434
g74
(dp2435
g94
g95
ssg83
g2429
sg76
(lp2436
S'environ'
p2437
asbag69
(g90
g71
NtRp2438
(dp2439
g74
(dp2440
g101
g102
ssg83
g2429
sg76
(lp2441
S':'
asbag69
(g90
g71
NtRp2442
(dp2443
g74
(dp2444
sg83
g2429
sg76
(lp2445
g69
(g70
g71
NtRp2446
(dp2447
g74
(dp2448
g82
I4
ssg83
g2442
sg76
(lp2449
g69
(g78
g71
NtRp2450
(dp2451
g74
(dp2452
g82
I3
ssg83
Nsg76
(lp2453
g69
(g85
g71
NtRp2454
(dp2455
g74
(dp2456
sg83
g2450
sg76
(lp2457
g69
(g90
g71
NtRp2458
(dp2459
g74
(dp2460
g94
g95
ssg83
g2454
sg76
(lp2461
S'HTTP_ACCEPT'
p2462
asbag69
(g90
g71
NtRp2463
(dp2464
g74
(dp2465
g101
g102
ssg83
g2454
sg76
(lp2466
S':'
asbag69
(g90
g71
NtRp2467
(dp2468
g74
(dp2469
sg83
g2454
sg76
(lp2470
g69
(g70
g71
NtRp2471
(dp2472
g74
(dp2473
g82
I3
ssg83
g2467
sg76
(lp2474
g1027
asbasbasbag69
(g85
g71
NtRp2475
(dp2476
g74
(dp2477
sg83
g2450
sg76
(lp2478
g69
(g90
g71
NtRp2479
(dp2480
g74
(dp2481
g94
g95
ssg83
g2475
sg76
(lp2482
S'HTTP_ACCEPT_ENCODING'
p2483
asbag69
(g90
g71
NtRp2484
(dp2485
g74
(dp2486
g101
g102
ssg83
g2475
sg76
(lp2487
S':'
asbag69
(g90
g71
NtRp2488
(dp2489
g74
(dp2490
sg83
g2475
sg76
(lp2491
g69
(g70
g71
NtRp2492
(dp2493
g74
(dp2494
g82
I3
ssg83
g2488
sg76
(lp2495
g1049
asbasbasbag69
(g85
g71
NtRp2496
(dp2497
g74
(dp2498
sg83
g2450
sg76
(lp2499
g69
(g90
g71
NtRp2500
(dp2501
g74
(dp2502
g94
g95
ssg83
g2496
sg76
(lp2503
S'HTTP_ACCEPT_LANGUAGE'
p2504
asbag69
(g90
g71
NtRp2505
(dp2506
g74
(dp2507
g101
g102
ssg83
g2496
sg76
(lp2508
S':'
asbag69
(g90
g71
NtRp2509
(dp2510
g74
(dp2511
sg83
g2496
sg76
(lp2512
g69
(g70
g71
NtRp2513
(dp2514
g74
(dp2515
g82
I3
ssg83
g2509
sg76
(lp2516
g1071
asbasbasbag69
(g85
g71
NtRp2517
(dp2518
g74
(dp2519
sg83
g2450
sg76
(lp2520
g69
(g90
g71
NtRp2521
(dp2522
g74
(dp2523
g94
g95
ssg83
g2517
sg76
(lp2524
S'HTTP_CACHE_CONTROL'
p2525
asbag69
(g90
g71
NtRp2526
(dp2527
g74
(dp2528
g101
g102
ssg83
g2517
sg76
(lp2529
S':'
asbag69
(g90
g71
NtRp2530
(dp2531
g74
(dp2532
sg83
g2517
sg76
(lp2533
g69
(g70
g71
NtRp2534
(dp2535
g74
(dp2536
g82
I3
ssg83
g2530
sg76
(lp2537
g1093
asbasbasbag69
(g85
g71
NtRp2538
(dp2539
g74
(dp2540
sg83
g2450
sg76
(lp2541
g69
(g90
g71
NtRp2542
(dp2543
g74
(dp2544
g94
g95
ssg83
g2538
sg76
(lp2545
S'HTTP_CONNECTION'
p2546
asbag69
(g90
g71
NtRp2547
(dp2548
g74
(dp2549
g101
g102
ssg83
g2538
sg76
(lp2550
S':'
asbag69
(g90
g71
NtRp2551
(dp2552
g74
(dp2553
sg83
g2538
sg76
(lp2554
g69
(g70
g71
NtRp2555
(dp2556
g74
(dp2557
g82
I3
ssg83
g2551
sg76
(lp2558
g1115
asbasbasbag69
(g85
g71
NtRp2559
(dp2560
g74
(dp2561
sg83
g2450
sg76
(lp2562
g69
(g90
g71
NtRp2563
(dp2564
g74
(dp2565
g94
g95
ssg83
g2559
sg76
(lp2566
S'HTTP_COOKIE'
p2567
asbag69
(g90
g71
NtRp2568
(dp2569
g74
(dp2570
g101
g102
ssg83
g2559
sg76
(lp2571
S':'
asbag69
(g90
g71
NtRp2572
(dp2573
g74
(dp2574
sg83
g2559
sg76
(lp2575
g69
(g70
g71
NtRp2576
(dp2577
g74
(dp2578
g82
I3
ssg83
g2572
sg76
(lp2579
g1137
asbasbasbag69
(g85
g71
NtRp2580
(dp2581
g74
(dp2582
sg83
g2450
sg76
(lp2583
g69
(g90
g71
NtRp2584
(dp2585
g74
(dp2586
g94
g95
ssg83
g2580
sg76
(lp2587
S'HTTP_HOST'
p2588
asbag69
(g90
g71
NtRp2589
(dp2590
g74
(dp2591
g101
g102
ssg83
g2580
sg76
(lp2592
S':'
asbag69
(g90
g71
NtRp2593
(dp2594
g74
(dp2595
sg83
g2580
sg76
(lp2596
g69
(g70
g71
NtRp2597
(dp2598
g74
(dp2599
g82
I3
ssg83
g2593
sg76
(lp2600
g1159
asbasbasbag69
(g85
g71
NtRp2601
(dp2602
g74
(dp2603
sg83
g2450
sg76
(lp2604
g69
(g90
g71
NtRp2605
(dp2606
g74
(dp2607
g94
g95
ssg83
g2601
sg76
(lp2608
S'HTTP_USER_AGENT'
p2609
asbag69
(g90
g71
NtRp2610
(dp2611
g74
(dp2612
g101
g102
ssg83
g2601
sg76
(lp2613
S':'
asbag69
(g90
g71
NtRp2614
(dp2615
g74
(dp2616
sg83
g2601
sg76
(lp2617
g69
(g70
g71
NtRp2618
(dp2619
g74
(dp2620
g82
I3
ssg83
g2614
sg76
(lp2621
g1181
asbasbasbag69
(g85
g71
NtRp2622
(dp2623
g74
(dp2624
sg83
g2450
sg76
(lp2625
g69
(g90
g71
NtRp2626
(dp2627
g74
(dp2628
g94
g95
ssg83
g2622
sg76
(lp2629
S'PATH_INFO'
p2630
asbag69
(g90
g71
NtRp2631
(dp2632
g74
(dp2633
g101
g102
ssg83
g2622
sg76
(lp2634
S':'
asbag69
(g90
g71
NtRp2635
(dp2636
g74
(dp2637
sg83
g2622
sg76
(lp2638
g69
(g70
g71
NtRp2639
(dp2640
g74
(dp2641
g82
I3
ssg83
g2635
sg76
(lp2642
g1245
asbasbasbag69
(g85
g71
NtRp2643
(dp2644
g74
(dp2645
sg83
g2450
sg76
(lp2646
g69
(g90
g71
NtRp2647
(dp2648
g74
(dp2649
g94
g95
ssg83
g2643
sg76
(lp2650
S'QUERY_STRING'
p2651
asbag69
(g90
g71
NtRp2652
(dp2653
g74
(dp2654
g101
g102
ssg83
g2643
sg76
(lp2655
S':'
asbag69
(g90
g71
NtRp2656
(dp2657
g74
(dp2658
sg83
g2643
sg76
(lp2659
g69
(g70
g71
NtRp2660
(dp2661
g74
(dp2662
g82
I3
ssg83
g2656
sg76
(lp2663
S''
asbasbasbag69
(g85
g71
NtRp2664
(dp2665
g74
(dp2666
sg83
g2450
sg76
(lp2667
g69
(g90
g71
NtRp2668
(dp2669
g74
(dp2670
g94
g95
ssg83
g2664
sg76
(lp2671
S'REMOTE_ADDR'
p2672
asbag69
(g90
g71
NtRp2673
(dp2674
g74
(dp2675
g101
g102
ssg83
g2664
sg76
(lp2676
S':'
asbag69
(g90
g71
NtRp2677
(dp2678
g74
(dp2679
sg83
g2664
sg76
(lp2680
g69
(g70
g71
NtRp2681
(dp2682
g74
(dp2683
g82
I3
ssg83
g2677
sg76
(lp2684
g214
asbasbasbag69
(g85
g71
NtRp2685
(dp2686
g74
(dp2687
sg83
g2450
sg76
(lp2688
g69
(g90
g71
NtRp2689
(dp2690
g74
(dp2691
g94
g95
ssg83
g2685
sg76
(lp2692
S'REMOTE_PORT'
p2693
asbag69
(g90
g71
NtRp2694
(dp2695
g74
(dp2696
g101
g102
ssg83
g2685
sg76
(lp2697
S':'
asbag69
(g90
g71
NtRp2698
(dp2699
g74
(dp2700
sg83
g2685
sg76
(lp2701
g69
(g70
g71
NtRp2702
(dp2703
g74
(dp2704
g82
I3
ssg83
g2698
sg76
(lp2705
g1309
asbasbasbag69
(g85
g71
NtRp2706
(dp2707
g74
(dp2708
sg83
g2450
sg76
(lp2709
g69
(g90
g71
NtRp2710
(dp2711
g74
(dp2712
g94
g95
ssg83
g2706
sg76
(lp2713
S'REQUEST_METHOD'
p2714
asbag69
(g90
g71
NtRp2715
(dp2716
g74
(dp2717
g101
g102
ssg83
g2706
sg76
(lp2718
S':'
asbag69
(g90
g71
NtRp2719
(dp2720
g74
(dp2721
sg83
g2706
sg76
(lp2722
g69
(g70
g71
NtRp2723
(dp2724
g74
(dp2725
g82
I3
ssg83
g2719
sg76
(lp2726
g1331
asbasbasbag69
(g85
g71
NtRp2727
(dp2728
g74
(dp2729
sg83
g2450
sg76
(lp2730
g69
(g90
g71
NtRp2731
(dp2732
g74
(dp2733
g94
g95
ssg83
g2727
sg76
(lp2734
S'SCRIPT_NAME'
p2735
asbag69
(g90
g71
NtRp2736
(dp2737
g74
(dp2738
g101
g102
ssg83
g2727
sg76
(lp2739
S':'
asbag69
(g90
g71
NtRp2740
(dp2741
g74
(dp2742
sg83
g2727
sg76
(lp2743
g69
(g70
g71
NtRp2744
(dp2745
g74
(dp2746
g82
I3
ssg83
g2740
sg76
(lp2747
S''
asbasbasbag69
(g85
g71
NtRp2748
(dp2749
g74
(dp2750
sg83
g2450
sg76
(lp2751
g69
(g90
g71
NtRp2752
(dp2753
g74
(dp2754
g94
g95
ssg83
g2748
sg76
(lp2755
S'SERVER_NAME'
p2756
asbag69
(g90
g71
NtRp2757
(dp2758
g74
(dp2759
g101
g102
ssg83
g2748
sg76
(lp2760
S':'
asbag69
(g90
g71
NtRp2761
(dp2762
g74
(dp2763
sg83
g2748
sg76
(lp2764
g69
(g70
g71
NtRp2765
(dp2766
g74
(dp2767
g82
I3
ssg83
g2761
sg76
(lp2768
g1374
asbasbasbag69
(g85
g71
NtRp2769
(dp2770
g74
(dp2771
sg83
g2450
sg76
(lp2772
g69
(g90
g71
NtRp2773
(dp2774
g74
(dp2775
g94
g95
ssg83
g2769
sg76
(lp2776
S'SERVER_PORT'
p2777
asbag69
(g90
g71
NtRp2778
(dp2779
g74
(dp2780
g101
g102
ssg83
g2769
sg76
(lp2781
S':'
asbag69
(g90
g71
NtRp2782
(dp2783
g74
(dp2784
sg83
g2769
sg76
(lp2785
g69
(g70
g71
NtRp2786
(dp2787
g74
(dp2788
g82
I3
ssg83
g2782
sg76
(lp2789
g1396
asbasbasbag69
(g85
g71
NtRp2790
(dp2791
g74
(dp2792
sg83
g2450
sg76
(lp2793
g69
(g90
g71
NtRp2794
(dp2795
g74
(dp2796
g94
g95
ssg83
g2790
sg76
(lp2797
S'SERVER_PROTOCOL'
p2798
asbag69
(g90
g71
NtRp2799
(dp2800
g74
(dp2801
g101
g102
ssg83
g2790
sg76
(lp2802
S':'
asbag69
(g90
g71
NtRp2803
(dp2804
g74
(dp2805
sg83
g2790
sg76
(lp2806
g69
(g70
g71
NtRp2807
(dp2808
g74
(dp2809
g82
I3
ssg83
g2803
sg76
(lp2810
g1418
asbasbasbag69
(g85
g71
NtRp2811
(dp2812
g74
(dp2813
sg83
g2450
sg76
(lp2814
g69
(g90
g71
NtRp2815
(dp2816
g74
(dp2817
g94
g95
ssg83
g2811
sg76
(lp2818
S'SERVER_SOFTWARE'
p2819
asbag69
(g90
g71
NtRp2820
(dp2821
g74
(dp2822
g101
g102
ssg83
g2811
sg76
(lp2823
S':'
asbag69
(g90
g71
NtRp2824
(dp2825
g74
(dp2826
sg83
g2811
sg76
(lp2827
g69
(g70
g71
NtRp2828
(dp2829
g74
(dp2830
g82
I3
ssg83
g2824
sg76
(lp2831
g1440
asbasbasbag69
(g85
g71
NtRp2832
(dp2833
g74
(dp2834
sg83
g2450
sg76
(lp2835
g69
(g90
g71
NtRp2836
(dp2837
g74
(dp2838
g94
g95
ssg83
g2832
sg76
(lp2839
S'wsgi.errors'
p2840
asbag69
(g90
g71
NtRp2841
(dp2842
g74
(dp2843
g101
g102
ssg83
g2832
sg76
(lp2844
S':'
asbag69
(g90
g71
NtRp2845
(dp2846
g74
(dp2847
sg83
g2832
sg76
(lp2848
g69
(g70
g71
NtRp2849
(dp2850
g74
(dp2851
g82
I3
ssg83
g2845
sg76
(lp2852
S"<open file '<stderr>', mode 'w' at 0x7f53d832b270>"
p2853
asbasbasbag69
(g85
g71
NtRp2854
(dp2855
g74
(dp2856
sg83
g2450
sg76
(lp2857
g69
(g90
g71
NtRp2858
(dp2859
g74
(dp2860
g94
g95
ssg83
g2854
sg76
(lp2861
S'wsgi.file_wrapper'
p2862
asbag69
(g90
g71
NtRp2863
(dp2864
g74
(dp2865
g101
g102
ssg83
g2854
sg76
(lp2866
S':'
asbag69
(g90
g71
NtRp2867
(dp2868
g74
(dp2869
sg83
g2854
sg76
(lp2870
g69
(g70
g71
NtRp2871
(dp2872
g74
(dp2873
g82
I3
ssg83
g2867
sg76
(lp2874
S'<class wsgiref.util.FileWrapper at 0x22c7328>'
p2875
asbasbasbag69
(g85
g71
NtRp2876
(dp2877
g74
(dp2878
sg83
g2450
sg76
(lp2879
g69
(g90
g71
NtRp2880
(dp2881
g74
(dp2882
g94
g95
ssg83
g2876
sg76
(lp2883
S'wsgi.input'
p2884
asbag69
(g90
g71
NtRp2885
(dp2886
g74
(dp2887
g101
g102
ssg83
g2876
sg76
(lp2888
S':'
asbag69
(g90
g71
NtRp2889
(dp2890
g74
(dp2891
sg83
g2876
sg76
(lp2892
g69
(g70
g71
NtRp2893
(dp2894
g74
(dp2895
g82
I3
ssg83
g2889
sg76
(lp2896
S'<cStringIO.StringO object at 0x7f53a8262c00>'
p2897
asbasbasbag69
(g85
g71
NtRp2898
(dp2899
g74
(dp2900
sg83
g2450
sg76
(lp2901
g69
(g90
g71
NtRp2902
(dp2903
g74
(dp2904
g94
g95
ssg83
g2898
sg76
(lp2905
S'wsgi.multiprocess'
p2906
asbag69
(g90
g71
NtRp2907
(dp2908
g74
(dp2909
g101
g102
ssg83
g2898
sg76
(lp2910
S':'
asbag69
(g90
g71
NtRp2911
(dp2912
g74
(dp2913
sg83
g2898
sg76
(lp2914
g69
(g70
g71
NtRp2915
(dp2916
g74
(dp2917
g82
I3
ssg83
g2911
sg76
(lp2918
g112
asbasbasbag69
(g85
g71
NtRp2919
(dp2920
g74
(dp2921
sg83
g2450
sg76
(lp2922
g69
(g90
g71
NtRp2923
(dp2924
g74
(dp2925
g94
g95
ssg83
g2919
sg76
(lp2926
S'wsgi.multithread'
p2927
asbag69
(g90
g71
NtRp2928
(dp2929
g74
(dp2930
g101
g102
ssg83
g2919
sg76
(lp2931
S':'
asbag69
(g90
g71
NtRp2932
(dp2933
g74
(dp2934
sg83
g2919
sg76
(lp2935
g69
(g70
g71
NtRp2936
(dp2937
g74
(dp2938
g82
I3
ssg83
g2932
sg76
(lp2939
g1680
asbasbasbag69
(g85
g71
NtRp2940
(dp2941
g74
(dp2942
sg83
g2450
sg76
(lp2943
g69
(g90
g71
NtRp2944
(dp2945
g74
(dp2946
g94
g95
ssg83
g2940
sg76
(lp2947
S'wsgi.run_once'
p2948
asbag69
(g90
g71
NtRp2949
(dp2950
g74
(dp2951
g101
g102
ssg83
g2940
sg76
(lp2952
S':'
asbag69
(g90
g71
NtRp2953
(dp2954
g74
(dp2955
sg83
g2940
sg76
(lp2956
g69
(g70
g71
NtRp2957
(dp2958
g74
(dp2959
g82
I3
ssg83
g2953
sg76
(lp2960
g112
asbasbasbag69
(g85
g71
NtRp2961
(dp2962
g74
(dp2963
sg83
g2450
sg76
(lp2964
g69
(g90
g71
NtRp2965
(dp2966
g74
(dp2967
g94
g95
ssg83
g2961
sg76
(lp2968
S'wsgi.url_scheme'
p2969
asbag69
(g90
g71
NtRp2970
(dp2971
g74
(dp2972
g101
g102
ssg83
g2961
sg76
(lp2973
S':'
asbag69
(g90
g71
NtRp2974
(dp2975
g74
(dp2976
sg83
g2961
sg76
(lp2977
g69
(g70
g71
NtRp2978
(dp2979
g74
(dp2980
g82
I3
ssg83
g2974
sg76
(lp2981
g1723
asbasbasbag69
(g85
g71
NtRp2982
(dp2983
g74
(dp2984
sg83
g2450
sg76
(lp2985
g69
(g90
g71
NtRp2986
(dp2987
g74
(dp2988
g94
g95
ssg83
g2982
sg76
(lp2989
S'wsgi.version'
p2990
asbag69
(g90
g71
NtRp2991
(dp2992
g74
(dp2993
g101
g102
ssg83
g2982
sg76
(lp2994
S':'
asbag69
(g90
g71
NtRp2995
(dp2996
g74
(dp2997
sg83
g2982
sg76
(lp2998
g69
(g70
g71
NtRp2999
(dp3000
g74
(dp3001
g82
I3
ssg83
g2995
sg76
(lp3002
S'1'
asbasbasbasbasbasbasbasbasbasbasbasbasbsS'frames'
p3003
(lp3004
(dp3005
S'file'
p3006
S'/usr/lib/pymodules/python2.7/gluon/restricted.py'
p3007
sS'dump'
p3008
(dp3009
S'code'
p3010
S"'# -*- coding: utf-8 -*-\\n# this file is released ... locals()\\n\\nresponse._vars=response._caller(lall)\\n'"
p3011
sS'layer'
p3012
S"'/home/jigar/web2py/applications/app1/controllers/default.py'"
p3013
sS'global compile2'
p3014
S'<function compile2>'
p3015
sS'ccode'
p3016
S'undefined'
p3017
ssS'lnum'
p3018
I203
sS'lines'
p3019
(dp3020
I198
S"    environment['__file__'] = layer"
p3021
sI199
S'    try:'
p3022
sI200
S'        if type(code) == types.CodeType:'
p3023
sI201
S'            ccode = code'
p3024
sI202
S'        else:'
p3025
sI203
S'            ccode = compile2(code,layer)'
p3026
sI204
S'        exec ccode in environment'
p3027
sI205
S'    except HTTP:'
p3028
sI206
S'        raise'
p3029
sI207
S'    except RestrictedError:'
p3030
ssS'call'
p3031
S"(code='# -*- coding: utf-8 -*-\\n# this file is released ... locals()\\n\\nresponse._vars=response._caller(lall)\\n', environment={'A': <class 'gluon.html.A'>, 'Auth': <class 'gluon.tools.Auth'>, 'B': <class 'gluon.html.B'>, 'BEAUTIFY': <class 'gluon.html.BEAUTIFY'>, 'BODY': <class 'gluon.html.BODY'>, 'BR': <class 'gluon.html.BR'>, 'BUTTON': <class 'gluon.html.BUTTON'>, 'CAT': <class 'gluon.html.CAT'>, 'CENTER': <class 'gluon.html.CENTER'>, 'CLEANUP': <class 'gluon.validators.CLEANUP'>, ...}, layer='/home/jigar/web2py/applications/app1/controllers/default.py')"
p3032
sS'func'
p3033
S'restricted'
p3034
sa(dp3035
g3006
S'/usr/lib/pymodules/python2.7/gluon/restricted.py'
p3036
sg3008
(dp3037
S'builtincompile'
p3038
S'<built-in function compile>'
p3039
sS'code'
p3040
S"'# -*- coding: utf-8 -*-\\n# this file is released ... locals()\\n\\nresponse._vars=response._caller(lall)\\n'"
p3041
sS'code.rstrip'
p3042
S'<built-in method rstrip of str object>'
p3043
sS').replace'
p3044
g3017
sS'layer'
p3045
S"'/home/jigar/web2py/applications/app1/controllers/default.py'"
p3046
ssg3018
I189
sg3019
(dp3047
I192
S'    """'
p3048
sI193
S'    runs code in environment and returns the output. if an exception occurs'
p3049
sI184
S''
sI185
S'def compile2(code,layer):'
p3050
sI186
S'    """'
p3051
sI187
S"    The +'\\n' is necessary else compile fails when code ends in a comment."
p3052
sI188
S'    """'
p3053
sI189
S"    return compile(code.rstrip().replace('\\r\\n','\\n')+'\\n', layer, 'exec')"
p3054
sI190
S''
sI191
S"def restricted(code, environment=None, layer='Unknown'):"
p3055
ssg3031
S"(code='# -*- coding: utf-8 -*-\\n# this file is released ... locals()\\n\\nresponse._vars=response._caller(lall)\\n', layer='/home/jigar/web2py/applications/app1/controllers/default.py')"
p3056
sg3033
S'compile2'
p3057
sasS'pyver'
p3058
S'Python 2.7.3: /usr/bin/python'
p3059
sS'session'
p3060
g69
(g70
g71
NtRp3061
(dp3062
g74
(dp3063
sg76
(lp3064
g69
(g78
g71
NtRp3065
(dp3066
g74
(dp3067
g82
I5
ssg83
Nsg76
(lp3068
g69
(g85
g71
NtRp3069
(dp3070
g74
(dp3071
sg83
g3065
sg76
(lp3072
g69
(g90
g71
NtRp3073
(dp3074
g74
(dp3075
g94
g95
ssg83
g3069
sg76
(lp3076
S'last_query'
p3077
asbag69
(g90
g71
NtRp3078
(dp3079
g74
(dp3080
g101
g102
ssg83
g3069
sg76
(lp3081
S':'
asbag69
(g90
g71
NtRp3082
(dp3083
g74
(dp3084
sg83
g3069
sg76
(lp3085
g69
(g70
g71
NtRp3086
(dp3087
g74
(dp3088
g82
I5
ssg83
g3082
sg76
(lp3089
S'db.auth_user.id>0'
p3090
asbasbasbasbasbsS'etype'
p3091
S"<type 'exceptions.SyntaxError'>"
p3092
sS'date'
p3093
S'Thu Aug 29 02:28:25 2013'
p3094
sS'response'
p3095
g69
(g70
g71
NtRp3096
(dp3097
g74
(dp3098
sg76
(lp3099
g69
(g78
g71
NtRp3100
(dp3101
g74
(dp3102
g82
I5
ssg83
Nsg76
(lp3103
g69
(g85
g71
NtRp3104
(dp3105
g74
(dp3106
sg83
g3100
sg76
(lp3107
g69
(g90
g71
NtRp3108
(dp3109
g74
(dp3110
g94
g95
ssg83
g3104
sg76
(lp3111
g179
asbag69
(g90
g71
NtRp3112
(dp3113
g74
(dp3114
g101
g102
ssg83
g3104
sg76
(lp3115
S':'
asbag69
(g90
g71
NtRp3116
(dp3117
g74
(dp3118
sg83
g3104
sg76
(lp3119
g69
(g70
g71
NtRp3120
(dp3121
g74
(dp3122
g82
I5
ssg83
g3116
sg76
(lp3123
S'<cStringIO.StringO object at 0x7f53a8262378>'
p3124
asbasbasbag69
(g85
g71
NtRp3125
(dp3126
g74
(dp3127
sg83
g3100
sg76
(lp3128
g69
(g90
g71
NtRp3129
(dp3130
g74
(dp3131
g94
g95
ssg83
g3125
sg76
(lp3132
g245
asbag69
(g90
g71
NtRp3133
(dp3134
g74
(dp3135
g101
g102
ssg83
g3125
sg76
(lp3136
S':'
asbag69
(g90
g71
NtRp3137
(dp3138
g74
(dp3139
sg83
g3125
sg76
(lp3140
g69
(g70
g71
NtRp3141
(dp3142
g74
(dp3143
g82
I5
ssg83
g3137
sg76
(lp3144
g69
(g78
g71
NtRp3145
(dp3146
g74
(dp3147
g82
I4
ssg83
Nsg76
(lp3148
g69
(g85
g71
NtRp3149
(dp3150
g74
(dp3151
sg83
g3145
sg76
(lp3152
g69
(g90
g71
NtRp3153
(dp3154
g74
(dp3155
g94
g95
ssg83
g3149
sg76
(lp3156
S'session_id_app1'
p3157
asbag69
(g90
g71
NtRp3158
(dp3159
g74
(dp3160
g101
g102
ssg83
g3149
sg76
(lp3161
S':'
asbag69
(g90
g71
NtRp3162
(dp3163
g74
(dp3164
sg83
g3149
sg76
(lp3165
g69
(g70
g71
NtRp3166
(dp3167
g74
(dp3168
g82
I4
ssg83
g3162
sg76
(lp3169
g69
(g78
g71
NtRp3170
(dp3171
g74
(dp3172
g82
I3
ssg83
Nsg76
(lp3173
g69
(g85
g71
NtRp3174
(dp3175
g74
(dp3176
sg83
g3170
sg76
(lp3177
g69
(g90
g71
NtRp3178
(dp3179
g74
(dp3180
g94
g95
ssg83
g3174
sg76
(lp3181
g295
asbag69
(g90
g71
NtRp3182
(dp3183
g74
(dp3184
g101
g102
ssg83
g3174
sg76
(lp3185
S':'
asbag69
(g90
g71
NtRp3186
(dp3187
g74
(dp3188
sg83
g3174
sg76
(lp3189
g69
(g70
g71
NtRp3190
(dp3191
g74
(dp3192
g82
I3
ssg83
g3186
sg76
(lp3193
S''
asbasbasbag69
(g85
g71
NtRp3194
(dp3195
g74
(dp3196
sg83
g3170
sg76
(lp3197
g69
(g90
g71
NtRp3198
(dp3199
g74
(dp3200
g94
g95
ssg83
g3194
sg76
(lp3201
g316
asbag69
(g90
g71
NtRp3202
(dp3203
g74
(dp3204
g101
g102
ssg83
g3194
sg76
(lp3205
S':'
asbag69
(g90
g71
NtRp3206
(dp3207
g74
(dp3208
sg83
g3194
sg76
(lp3209
g69
(g70
g71
NtRp3210
(dp3211
g74
(dp3212
g82
I3
ssg83
g3206
sg76
(lp3213
S''
asbasbasbag69
(g85
g71
NtRp3214
(dp3215
g74
(dp3216
sg83
g3170
sg76
(lp3217
g69
(g90
g71
NtRp3218
(dp3219
g74
(dp3220
g94
g95
ssg83
g3214
sg76
(lp3221
g337
asbag69
(g90
g71
NtRp3222
(dp3223
g74
(dp3224
g101
g102
ssg83
g3214
sg76
(lp3225
S':'
asbag69
(g90
g71
NtRp3226
(dp3227
g74
(dp3228
sg83
g3214
sg76
(lp3229
g69
(g70
g71
NtRp3230
(dp3231
g74
(dp3232
g82
I3
ssg83
g3226
sg76
(lp3233
S''
asbasbasbag69
(g85
g71
NtRp3234
(dp3235
g74
(dp3236
sg83
g3170
sg76
(lp3237
g69
(g90
g71
NtRp3238
(dp3239
g74
(dp3240
g94
g95
ssg83
g3234
sg76
(lp3241
g358
asbag69
(g90
g71
NtRp3242
(dp3243
g74
(dp3244
g101
g102
ssg83
g3234
sg76
(lp3245
S':'
asbag69
(g90
g71
NtRp3246
(dp3247
g74
(dp3248
sg83
g3234
sg76
(lp3249
g69
(g70
g71
NtRp3250
(dp3251
g74
(dp3252
g82
I3
ssg83
g3246
sg76
(lp3253
S''
asbasbasbag69
(g85
g71
NtRp3254
(dp3255
g74
(dp3256
sg83
g3170
sg76
(lp3257
g69
(g90
g71
NtRp3258
(dp3259
g74
(dp3260
g94
g95
ssg83
g3254
sg76
(lp3261
g379
asbag69
(g90
g71
NtRp3262
(dp3263
g74
(dp3264
g101
g102
ssg83
g3254
sg76
(lp3265
S':'
asbag69
(g90
g71
NtRp3266
(dp3267
g74
(dp3268
sg83
g3254
sg76
(lp3269
g69
(g70
g71
NtRp3270
(dp3271
g74
(dp3272
g82
I3
ssg83
g3266
sg76
(lp3273
S''
asbasbasbag69
(g85
g71
NtRp3274
(dp3275
g74
(dp3276
sg83
g3170
sg76
(lp3277
g69
(g90
g71
NtRp3278
(dp3279
g74
(dp3280
g94
g95
ssg83
g3274
sg76
(lp3281
g400
asbag69
(g90
g71
NtRp3282
(dp3283
g74
(dp3284
g101
g102
ssg83
g3274
sg76
(lp3285
S':'
asbag69
(g90
g71
NtRp3286
(dp3287
g74
(dp3288
sg83
g3274
sg76
(lp3289
g69
(g70
g71
NtRp3290
(dp3291
g74
(dp3292
g82
I3
ssg83
g3286
sg76
(lp3293
S'/'
asbasbasbag69
(g85
g71
NtRp3294
(dp3295
g74
(dp3296
sg83
g3170
sg76
(lp3297
g69
(g90
g71
NtRp3298
(dp3299
g74
(dp3300
g94
g95
ssg83
g3294
sg76
(lp3301
g421
asbag69
(g90
g71
NtRp3302
(dp3303
g74
(dp3304
g101
g102
ssg83
g3294
sg76
(lp3305
S':'
asbag69
(g90
g71
NtRp3306
(dp3307
g74
(dp3308
sg83
g3294
sg76
(lp3309
g69
(g70
g71
NtRp3310
(dp3311
g74
(dp3312
g82
I3
ssg83
g3306
sg76
(lp3313
S''
asbasbasbag69
(g85
g71
NtRp3314
(dp3315
g74
(dp3316
sg83
g3170
sg76
(lp3317
g69
(g90
g71
NtRp3318
(dp3319
g74
(dp3320
g94
g95
ssg83
g3314
sg76
(lp3321
g442
asbag69
(g90
g71
NtRp3322
(dp3323
g74
(dp3324
g101
g102
ssg83
g3314
sg76
(lp3325
S':'
asbag69
(g90
g71
NtRp3326
(dp3327
g74
(dp3328
sg83
g3314
sg76
(lp3329
g69
(g70
g71
NtRp3330
(dp3331
g74
(dp3332
g82
I3
ssg83
g3326
sg76
(lp3333
S''
asbasbasbasbasbasbasbasbasbasbasbag69
(g85
g71
NtRp3334
(dp3335
g74
(dp3336
sg83
g3100
sg76
(lp3337
g69
(g90
g71
NtRp3338
(dp3339
g74
(dp3340
g94
g95
ssg83
g3334
sg76
(lp3341
S'files'
p3342
asbag69
(g90
g71
NtRp3343
(dp3344
g74
(dp3345
g101
g102
ssg83
g3334
sg76
(lp3346
S':'
asbag69
(g90
g71
NtRp3347
(dp3348
g74
(dp3349
sg83
g3334
sg76
(lp3350
g69
(g70
g71
NtRp3351
(dp3352
g74
(dp3353
g82
I5
ssg83
g3347
sg76
(lp3354
g69
(g78
g71
NtRp3355
(dp3356
g74
(dp3357
g82
I4
ssg83
Nsg76
(lp3358
sbasbasbasbag69
(g85
g71
NtRp3359
(dp3360
g74
(dp3361
sg83
g3100
sg76
(lp3362
g69
(g90
g71
NtRp3363
(dp3364
g74
(dp3365
g94
g95
ssg83
g3359
sg76
(lp3366
S'flash'
p3367
asbag69
(g90
g71
NtRp3368
(dp3369
g74
(dp3370
g101
g102
ssg83
g3359
sg76
(lp3371
S':'
asbag69
(g90
g71
NtRp3372
(dp3373
g74
(dp3374
sg83
g3359
sg76
(lp3375
g69
(g70
g71
NtRp3376
(dp3377
g74
(dp3378
g82
I5
ssg83
g3372
sg76
(lp3379
S''
asbasbasbag69
(g85
g71
NtRp3380
(dp3381
g74
(dp3382
sg83
g3100
sg76
(lp3383
g69
(g90
g71
NtRp3384
(dp3385
g74
(dp3386
g94
g95
ssg83
g3380
sg76
(lp3387
S'generic_patterns'
p3388
asbag69
(g90
g71
NtRp3389
(dp3390
g74
(dp3391
g101
g102
ssg83
g3380
sg76
(lp3392
S':'
asbag69
(g90
g71
NtRp3393
(dp3394
g74
(dp3395
sg83
g3380
sg76
(lp3396
g69
(g70
g71
NtRp3397
(dp3398
g74
(dp3399
g82
I5
ssg83
g3393
sg76
(lp3400
g69
(g78
g71
NtRp3401
(dp3402
g74
(dp3403
g82
I4
ssg83
Nsg76
(lp3404
g69
(g85
g71
NtRp3405
(dp3406
g74
(dp3407
sg83
g3401
sg76
(lp3408
g69
(g90
g71
NtRp3409
(dp3410
g74
(dp3411
sg83
g3405
sg76
(lp3412
g69
(g70
g71
NtRp3413
(dp3414
g74
(dp3415
g82
I4
ssg83
g3409
sg76
(lp3416
S'*'
asbasbasbasbasbasbasbag69
(g85
g71
NtRp3417
(dp3418
g74
(dp3419
sg83
g3100
sg76
(lp3420
g69
(g90
g71
NtRp3421
(dp3422
g74
(dp3423
g94
g95
ssg83
g3417
sg76
(lp3424
S'headers'
p3425
asbag69
(g90
g71
NtRp3426
(dp3427
g74
(dp3428
g101
g102
ssg83
g3417
sg76
(lp3429
S':'
asbag69
(g90
g71
NtRp3430
(dp3431
g74
(dp3432
sg83
g3417
sg76
(lp3433
g69
(g70
g71
NtRp3434
(dp3435
g74
(dp3436
g82
I5
ssg83
g3430
sg76
(lp3437
g69
(g78
g71
NtRp3438
(dp3439
g74
(dp3440
g82
I4
ssg83
Nsg76
(lp3441
g69
(g85
g71
NtRp3442
(dp3443
g74
(dp3444
sg83
g3438
sg76
(lp3445
g69
(g90
g71
NtRp3446
(dp3447
g74
(dp3448
g94
g95
ssg83
g3442
sg76
(lp3449
S'Cache-Control'
p3450
asbag69
(g90
g71
NtRp3451
(dp3452
g74
(dp3453
g101
g102
ssg83
g3442
sg76
(lp3454
S':'
asbag69
(g90
g71
NtRp3455
(dp3456
g74
(dp3457
sg83
g3442
sg76
(lp3458
g69
(g70
g71
NtRp3459
(dp3460
g74
(dp3461
g82
I4
ssg83
g3455
sg76
(lp3462
S'no-store, no-cache, must-revalidate, post-check=0, pre-check=0'
p3463
asbasbasbag69
(g85
g71
NtRp3464
(dp3465
g74
(dp3466
sg83
g3438
sg76
(lp3467
g69
(g90
g71
NtRp3468
(dp3469
g74
(dp3470
g94
g95
ssg83
g3464
sg76
(lp3471
S'Content-Type'
p3472
asbag69
(g90
g71
NtRp3473
(dp3474
g74
(dp3475
g101
g102
ssg83
g3464
sg76
(lp3476
S':'
asbag69
(g90
g71
NtRp3477
(dp3478
g74
(dp3479
sg83
g3464
sg76
(lp3480
g69
(g70
g71
NtRp3481
(dp3482
g74
(dp3483
g82
I4
ssg83
g3477
sg76
(lp3484
S'text/html; charset=utf-8'
p3485
asbasbasbag69
(g85
g71
NtRp3486
(dp3487
g74
(dp3488
sg83
g3438
sg76
(lp3489
g69
(g90
g71
NtRp3490
(dp3491
g74
(dp3492
g94
g95
ssg83
g3486
sg76
(lp3493
S'Expires'
p3494
asbag69
(g90
g71
NtRp3495
(dp3496
g74
(dp3497
g101
g102
ssg83
g3486
sg76
(lp3498
S':'
asbag69
(g90
g71
NtRp3499
(dp3500
g74
(dp3501
sg83
g3486
sg76
(lp3502
g69
(g70
g71
NtRp3503
(dp3504
g74
(dp3505
g82
I4
ssg83
g3499
sg76
(lp3506
S'Wed, 28 Aug 2013 20:58:25 GMT'
p3507
asbasbasbag69
(g85
g71
NtRp3508
(dp3509
g74
(dp3510
sg83
g3438
sg76
(lp3511
g69
(g90
g71
NtRp3512
(dp3513
g74
(dp3514
g94
g95
ssg83
g3508
sg76
(lp3515
S'Pragma'
p3516
asbag69
(g90
g71
NtRp3517
(dp3518
g74
(dp3519
g101
g102
ssg83
g3508
sg76
(lp3520
S':'
asbag69
(g90
g71
NtRp3521
(dp3522
g74
(dp3523
sg83
g3508
sg76
(lp3524
g69
(g70
g71
NtRp3525
(dp3526
g74
(dp3527
g82
I4
ssg83
g3521
sg76
(lp3528
S'no-cache'
p3529
asbasbasbag69
(g85
g71
NtRp3530
(dp3531
g74
(dp3532
sg83
g3438
sg76
(lp3533
g69
(g90
g71
NtRp3534
(dp3535
g74
(dp3536
g94
g95
ssg83
g3530
sg76
(lp3537
S'X-Powered-By'
p3538
asbag69
(g90
g71
NtRp3539
(dp3540
g74
(dp3541
g101
g102
ssg83
g3530
sg76
(lp3542
S':'
asbag69
(g90
g71
NtRp3543
(dp3544
g74
(dp3545
sg83
g3530
sg76
(lp3546
g69
(g70
g71
NtRp3547
(dp3548
g74
(dp3549
g82
I4
ssg83
g3543
sg76
(lp3550
S'web2py'
p3551
asbasbasbasbasbasbasbag69
(g85
g71
NtRp3552
(dp3553
g74
(dp3554
sg83
g3100
sg76
(lp3555
g69
(g90
g71
NtRp3556
(dp3557
g74
(dp3558
g94
g95
ssg83
g3552
sg76
(lp3559
S'menu'
p3560
asbag69
(g90
g71
NtRp3561
(dp3562
g74
(dp3563
g101
g102
ssg83
g3552
sg76
(lp3564
S':'
asbag69
(g90
g71
NtRp3565
(dp3566
g74
(dp3567
sg83
g3552
sg76
(lp3568
g69
(g70
g71
NtRp3569
(dp3570
g74
(dp3571
g82
I5
ssg83
g3565
sg76
(lp3572
g69
(g78
g71
NtRp3573
(dp3574
g74
(dp3575
g82
I4
ssg83
Nsg76
(lp3576
g69
(g85
g71
NtRp3577
(dp3578
g74
(dp3579
sg83
g3573
sg76
(lp3580
g69
(g90
g71
NtRp3581
(dp3582
g74
(dp3583
sg83
g3577
sg76
(lp3584
g69
(g70
g71
NtRp3585
(dp3586
g74
(dp3587
g82
I4
ssg83
g3581
sg76
(lp3588
g69
(g78
g71
NtRp3589
(dp3590
g74
(dp3591
g82
I3
ssg83
Nsg76
(lp3592
g69
(g85
g71
NtRp3593
(dp3594
g74
(dp3595
sg83
g3589
sg76
(lp3596
g69
(g90
g71
NtRp3597
(dp3598
g74
(dp3599
sg83
g3593
sg76
(lp3600
g69
(g70
g71
NtRp3601
(dp3602
g74
(dp3603
g82
I3
ssg83
g3597
sg76
(lp3604
cgluon.languages
lazyT_unpickle
p3605
(S't\x04\x00\x00\x00Home'
tRp3606
asbasbasbag69
(g85
g71
NtRp3607
(dp3608
g74
(dp3609
sg83
g3589
sg76
(lp3610
g69
(g90
g71
NtRp3611
(dp3612
g74
(dp3613
sg83
g3607
sg76
(lp3614
g69
(g70
g71
NtRp3615
(dp3616
g74
(dp3617
g82
I3
ssg83
g3611
sg76
(lp3618
g112
asbasbasbag69
(g85
g71
NtRp3619
(dp3620
g74
(dp3621
sg83
g3589
sg76
(lp3622
g69
(g90
g71
NtRp3623
(dp3624
g74
(dp3625
sg83
g3619
sg76
(lp3626
g69
(g70
g71
NtRp3627
(dp3628
g74
(dp3629
g82
I3
ssg83
g3623
sg76
(lp3630
S'/app1/default/index'
p3631
asbasbasbag69
(g85
g71
NtRp3632
(dp3633
g74
(dp3634
sg83
g3589
sg76
(lp3635
g69
(g90
g71
NtRp3636
(dp3637
g74
(dp3638
sg83
g3632
sg76
(lp3639
g69
(g70
g71
NtRp3640
(dp3641
g74
(dp3642
g82
I3
ssg83
g3636
sg76
(lp3643
g69
(g78
g71
NtRp3644
(dp3645
g74
(dp3646
g82
I2
ssg83
Nsg76
(lp3647
sbasbasbasbasbasbasbasbag69
(g85
g71
NtRp3648
(dp3649
g74
(dp3650
sg83
g3573
sg76
(lp3651
g69
(g90
g71
NtRp3652
(dp3653
g74
(dp3654
sg83
g3648
sg76
(lp3655
g69
(g70
g71
NtRp3656
(dp3657
g74
(dp3658
g82
I4
ssg83
g3652
sg76
(lp3659
g69
(g78
g71
NtRp3660
(dp3661
g74
(dp3662
g82
I3
ssg83
Nsg76
(lp3663
g69
(g85
g71
NtRp3664
(dp3665
g74
(dp3666
sg83
g3660
sg76
(lp3667
g69
(g90
g71
NtRp3668
(dp3669
g74
(dp3670
sg83
g3664
sg76
(lp3671
g69
(g70
g71
NtRp3672
(dp3673
g74
(dp3674
g82
I3
ssg83
g3668
sg76
(lp3675
g69
(cgluon.html
SPAN
p3676
g71
NtRp3677
(dp3678
g74
(dp3679
g94
S'color:yellow'
p3680
ssg83
Nsg76
(lp3681
g3551
asbasbasbasbag69
(g85
g71
NtRp3682
(dp3683
g74
(dp3684
sg83
g3660
sg76
(lp3685
g69
(g90
g71
NtRp3686
(dp3687
g74
(dp3688
sg83
g3682
sg76
(lp3689
g69
(g70
g71
NtRp3690
(dp3691
g74
(dp3692
g82
I3
ssg83
g3686
sg76
(lp3693
g112
asbasbasbag69
(g85
g71
NtRp3694
(dp3695
g74
(dp3696
sg83
g3660
sg76
(lp3697
g69
(g90
g71
NtRp3698
(dp3699
g74
(dp3700
sg83
g3694
sg76
(lp3701
g69
(g70
g71
NtRp3702
(dp3703
g74
(dp3704
g82
I3
ssg83
g3698
sg76
(lp3705
S'None'
p3706
asbasbasbag69
(g85
g71
NtRp3707
(dp3708
g74
(dp3709
sg83
g3660
sg76
(lp3710
g69
(g90
g71
NtRp3711
(dp3712
g74
(dp3713
sg83
g3707
sg76
(lp3714
g69
(g70
g71
NtRp3715
(dp3716
g74
(dp3717
g82
I3
ssg83
g3711
sg76
(lp3718
g69
(g78
g71
NtRp3719
(dp3720
g74
(dp3721
g82
I2
ssg83
Nsg76
(lp3722
g69
(g85
g71
NtRp3723
(dp3724
g74
(dp3725
sg83
g3719
sg76
(lp3726
g69
(g90
g71
NtRp3727
(dp3728
g74
(dp3729
sg83
g3723
sg76
(lp3730
g69
(g70
g71
NtRp3731
(dp3732
g74
(dp3733
g82
I2
ssg83
g3727
sg76
(lp3734
g69
(g78
g71
NtRp3735
(dp3736
g74
(dp3737
g82
I1
ssg83
Nsg76
(lp3738
g69
(g85
g71
NtRp3739
(dp3740
g74
(dp3741
sg83
g3735
sg76
(lp3742
g69
(g90
g71
NtRp3743
(dp3744
g74
(dp3745
sg83
g3739
sg76
(lp3746
g69
(g70
g71
NtRp3747
(dp3748
g74
(dp3749
g82
I1
ssg83
g3743
sg76
(lp3750
g3605
(S's\x08\x00\x00\x00My Sites'
tRp3751
asbasbasbag69
(g85
g71
NtRp3752
(dp3753
g74
(dp3754
sg83
g3735
sg76
(lp3755
g69
(g90
g71
NtRp3756
(dp3757
g74
(dp3758
sg83
g3752
sg76
(lp3759
g69
(g70
g71
NtRp3760
(dp3761
g74
(dp3762
g82
I1
ssg83
g3756
sg76
(lp3763
I00
asbasbasbag69
(g85
g71
NtRp3764
(dp3765
g74
(dp3766
sg83
g3735
sg76
(lp3767
g69
(g90
g71
NtRp3768
(dp3769
g74
(dp3770
sg83
g3764
sg76
(lp3771
g69
(g70
g71
NtRp3772
(dp3773
g74
(dp3774
g82
I1
ssg83
g3768
sg76
(lp3775
S'/admin/default/site'
p3776
asbasbasbasbasbasbasbag69
(g85
g71
NtRp3777
(dp3778
g74
(dp3779
sg83
g3719
sg76
(lp3780
g69
(g90
g71
NtRp3781
(dp3782
g74
(dp3783
sg83
g3777
sg76
(lp3784
g69
(g70
g71
NtRp3785
(dp3786
g74
(dp3787
g82
I2
ssg83
g3781
sg76
(lp3788
g69
(g78
g71
NtRp3789
(dp3790
g74
(dp3791
g82
I1
ssg83
Nsg76
(lp3792
g69
(g85
g71
NtRp3793
(dp3794
g74
(dp3795
sg83
g3789
sg76
(lp3796
g69
(g90
g71
NtRp3797
(dp3798
g74
(dp3799
sg83
g3793
sg76
(lp3800
g69
(g70
g71
NtRp3801
(dp3802
g74
(dp3803
g82
I1
ssg83
g3797
sg76
(lp3804
g3605
(S's\x08\x00\x00\x00This App'
tRp3805
asbasbasbag69
(g85
g71
NtRp3806
(dp3807
g74
(dp3808
sg83
g3789
sg76
(lp3809
g69
(g90
g71
NtRp3810
(dp3811
g74
(dp3812
sg83
g3806
sg76
(lp3813
g69
(g70
g71
NtRp3814
(dp3815
g74
(dp3816
g82
I1
ssg83
g3810
sg76
(lp3817
I00
asbasbasbag69
(g85
g71
NtRp3818
(dp3819
g74
(dp3820
sg83
g3789
sg76
(lp3821
g69
(g90
g71
NtRp3822
(dp3823
g74
(dp3824
sg83
g3818
sg76
(lp3825
g69
(g70
g71
NtRp3826
(dp3827
g74
(dp3828
g82
I1
ssg83
g3822
sg76
(lp3829
S'/admin/default/design/app1'
p3830
asbasbasbag69
(g85
g71
NtRp3831
(dp3832
g74
(dp3833
sg83
g3789
sg76
(lp3834
g69
(g90
g71
NtRp3835
(dp3836
g74
(dp3837
sg83
g3831
sg76
(lp3838
g69
(g70
g71
NtRp3839
(dp3840
g74
(dp3841
g82
I1
ssg83
g3835
sg76
(lp3842
(lp3843
(g3605
(S't\n\x00\x00\x00Controller'
tRp3844
I00
S'/admin/default/edit/app1/controllers/default.py'
tp3845
a(g3605
(S't\x04\x00\x00\x00View'
tRp3846
I00
S'/admin/default/edit/app1/views/default/lall.html'
tp3847
a(g3605
(S't\x06\x00\x00\x00Layout'
tRp3848
I00
S'/admin/default/edit/app1/views/layout.html'
tp3849
a(g3605
(S't\n\x00\x00\x00Stylesheet'
tRp3850
I00
S'/admin/default/edit/app1/static/css/web2py.css'
tp3851
a(g3605
(S's\x08\x00\x00\x00DB Model'
tRp3852
I00
S'/admin/default/edit/app1/models/db.py'
tp3853
a(g3605
(S's\n\x00\x00\x00Menu Model'
tRp3854
I00
S'/admin/default/edit/app1/models/menu.py'
tp3855
a(g3605
(S't\x08\x00\x00\x00Database'
tRp3856
I00
S'/app1/appadmin/index'
tp3857
a(g3605
(S't\x06\x00\x00\x00Errors'
tRp3858
I00
S'/admin/default/errors/app1'
tp3859
a(g3605
(S't\x05\x00\x00\x00About'
tRp3860
I00
S'/admin/default/about/app1'
tp3861
aasbasbasbasbasbasbasbag69
(g85
g71
NtRp3862
(dp3863
g74
(dp3864
sg83
g3719
sg76
(lp3865
g69
(g90
g71
NtRp3866
(dp3867
g74
(dp3868
sg83
g3862
sg76
(lp3869
g69
(g70
g71
NtRp3870
(dp3871
g74
(dp3872
g82
I2
ssg83
g3866
sg76
(lp3873
g69
(g78
g71
NtRp3874
(dp3875
g74
(dp3876
g82
I1
ssg83
Nsg76
(lp3877
g69
(g85
g71
NtRp3878
(dp3879
g74
(dp3880
sg83
g3874
sg76
(lp3881
g69
(g90
g71
NtRp3882
(dp3883
g74
(dp3884
sg83
g3878
sg76
(lp3885
g69
(g70
g71
NtRp3886
(dp3887
g74
(dp3888
g82
I1
ssg83
g3882
sg76
(lp3889
S'web2py.com'
p3890
asbasbasbag69
(g85
g71
NtRp3891
(dp3892
g74
(dp3893
sg83
g3874
sg76
(lp3894
g69
(g90
g71
NtRp3895
(dp3896
g74
(dp3897
sg83
g3891
sg76
(lp3898
g69
(g70
g71
NtRp3899
(dp3900
g74
(dp3901
g82
I1
ssg83
g3895
sg76
(lp3902
I00
asbasbasbag69
(g85
g71
NtRp3903
(dp3904
g74
(dp3905
sg83
g3874
sg76
(lp3906
g69
(g90
g71
NtRp3907
(dp3908
g74
(dp3909
sg83
g3903
sg76
(lp3910
g69
(g70
g71
NtRp3911
(dp3912
g74
(dp3913
g82
I1
ssg83
g3907
sg76
(lp3914
S'http://www.web2py.com'
p3915
asbasbasbag69
(g85
g71
NtRp3916
(dp3917
g74
(dp3918
sg83
g3874
sg76
(lp3919
g69
(g90
g71
NtRp3920
(dp3921
g74
(dp3922
sg83
g3916
sg76
(lp3923
g69
(g70
g71
NtRp3924
(dp3925
g74
(dp3926
g82
I1
ssg83
g3920
sg76
(lp3927
(lp3928
(g3605
(S't\x08\x00\x00\x00Download'
tRp3929
I00
S'http://www.web2py.com/examples/default/download'
p3930
tp3931
a(g3605
(S't\x07\x00\x00\x00Support'
tRp3932
I00
S'http://www.web2py.com/examples/default/support'
p3933
tp3934
a(g3605
(S't\x04\x00\x00\x00Demo'
tRp3935
I00
S'http://web2py.com/demo_admin'
p3936
tp3937
a(g3605
(S's\x0e\x00\x00\x00Quick Examples'
tRp3938
I00
S'http://web2py.com/examples/default/examples'
p3939
tp3940
a(g3605
(S't\x03\x00\x00\x00FAQ'
tRp3941
I00
S'http://web2py.com/AlterEgo'
p3942
tp3943
a(g3605
(S't\x06\x00\x00\x00Videos'
tRp3944
I00
S'http://www.web2py.com/examples/default/videos/'
p3945
tp3946
a(g3605
(S's\x11\x00\x00\x00Free Applications'
tRp3947
I00
S'http://web2py.com/appliances'
p3948
tp3949
a(g3605
(S't\x07\x00\x00\x00Plugins'
tRp3950
I00
S'http://web2py.com/plugins'
p3951
tp3952
a(g3605
(S't\x07\x00\x00\x00Layouts'
tRp3953
I00
S'http://web2py.com/layouts'
p3954
tp3955
a(g3605
(S't\x07\x00\x00\x00Recipes'
tRp3956
I00
S'http://web2pyslices.com/'
p3957
tp3958
a(g3605
(S't\x08\x00\x00\x00Semantic'
tRp3959
I00
S'http://web2py.com/semantic'
p3960
tp3961
aasbasbasbasbasbasbasbag69
(g85
g71
NtRp3962
(dp3963
g74
(dp3964
sg83
g3719
sg76
(lp3965
g69
(g90
g71
NtRp3966
(dp3967
g74
(dp3968
sg83
g3962
sg76
(lp3969
g69
(g70
g71
NtRp3970
(dp3971
g74
(dp3972
g82
I2
ssg83
g3966
sg76
(lp3973
g69
(g78
g71
NtRp3974
(dp3975
g74
(dp3976
g82
I1
ssg83
Nsg76
(lp3977
g69
(g85
g71
NtRp3978
(dp3979
g74
(dp3980
sg83
g3974
sg76
(lp3981
g69
(g90
g71
NtRp3982
(dp3983
g74
(dp3984
sg83
g3978
sg76
(lp3985
g69
(g70
g71
NtRp3986
(dp3987
g74
(dp3988
g82
I1
ssg83
g3982
sg76
(lp3989
g3605
(S't\r\x00\x00\x00Documentation'
tRp3990
asbasbasbag69
(g85
g71
NtRp3991
(dp3992
g74
(dp3993
sg83
g3974
sg76
(lp3994
g69
(g90
g71
NtRp3995
(dp3996
g74
(dp3997
sg83
g3991
sg76
(lp3998
g69
(g70
g71
NtRp3999
(dp4000
g74
(dp4001
g82
I1
ssg83
g3995
sg76
(lp4002
I00
asbasbasbag69
(g85
g71
NtRp4003
(dp4004
g74
(dp4005
sg83
g3974
sg76
(lp4006
g69
(g90
g71
NtRp4007
(dp4008
g74
(dp4009
sg83
g4003
sg76
(lp4010
g69
(g70
g71
NtRp4011
(dp4012
g74
(dp4013
g82
I1
ssg83
g4007
sg76
(lp4014
S'http://www.web2py.com/book'
p4015
asbasbasbag69
(g85
g71
NtRp4016
(dp4017
g74
(dp4018
sg83
g3974
sg76
(lp4019
g69
(g90
g71
NtRp4020
(dp4021
g74
(dp4022
sg83
g4016
sg76
(lp4023
g69
(g70
g71
NtRp4024
(dp4025
g74
(dp4026
g82
I1
ssg83
g4020
sg76
(lp4027
(lp4028
(g3605
(S't\x07\x00\x00\x00Preface'
tRp4029
I00
S'http://www.web2py.com/book/default/chapter/00'
p4030
tp4031
a(g3605
(S't\x0c\x00\x00\x00Introduction'
tRp4032
I00
S'http://www.web2py.com/book/default/chapter/01'
p4033
tp4034
a(g3605
(S't\x06\x00\x00\x00Python'
tRp4035
I00
S'http://www.web2py.com/book/default/chapter/02'
p4036
tp4037
a(g3605
(S't\x08\x00\x00\x00Overview'
tRp4038
I00
S'http://www.web2py.com/book/default/chapter/03'
p4039
tp4040
a(g3605
(S's\x08\x00\x00\x00The Core'
tRp4041
I00
S'http://www.web2py.com/book/default/chapter/04'
p4042
tp4043
a(g3605
(S's\t\x00\x00\x00The Views'
tRp4044
I00
S'http://www.web2py.com/book/default/chapter/05'
p4045
tp4046
a(g3605
(S't\x08\x00\x00\x00Database'
tRp4047
I00
S'http://www.web2py.com/book/default/chapter/06'
p4048
tp4049
a(g3605
(S's\x14\x00\x00\x00Forms and Validators'
tRp4050
I00
S'http://www.web2py.com/book/default/chapter/07'
p4051
tp4052
a(g3605
(S's\r\x00\x00\x00Email and SMS'
tRp4053
I00
S'http://www.web2py.com/book/default/chapter/08'
p4054
tp4055
a(g3605
(S's\x0e\x00\x00\x00Access Control'
tRp4056
I00
S'http://www.web2py.com/book/default/chapter/09'
p4057
tp4058
a(g3605
(S't\x08\x00\x00\x00Services'
tRp4059
I00
S'http://www.web2py.com/book/default/chapter/10'
p4060
tp4061
a(g3605
(S's\x0c\x00\x00\x00Ajax Recipes'
tRp4062
I00
S'http://www.web2py.com/book/default/chapter/11'
p4063
tp4064
a(g3605
(S's\x16\x00\x00\x00Components and Plugins'
tRp4065
I00
S'http://www.web2py.com/book/default/chapter/12'
p4066
tp4067
a(g3605
(S's\x12\x00\x00\x00Deployment Recipes'
tRp4068
I00
S'http://www.web2py.com/book/default/chapter/13'
p4069
tp4070
a(g3605
(S's\r\x00\x00\x00Other Recipes'
tRp4071
I00
S'http://www.web2py.com/book/default/chapter/14'
p4072
tp4073
a(g3605
(S's\r\x00\x00\x00Buy this book'
tRp4074
I00
S'http://stores.lulu.com/web2py'
p4075
tp4076
aasbasbasbasbasbasbasbag69
(g85
g71
NtRp4077
(dp4078
g74
(dp4079
sg83
g3719
sg76
(lp4080
g69
(g90
g71
NtRp4081
(dp4082
g74
(dp4083
sg83
g4077
sg76
(lp4084
g69
(g70
g71
NtRp4085
(dp4086
g74
(dp4087
g82
I2
ssg83
g4081
sg76
(lp4088
g69
(g78
g71
NtRp4089
(dp4090
g74
(dp4091
g82
I1
ssg83
Nsg76
(lp4092
g69
(g85
g71
NtRp4093
(dp4094
g74
(dp4095
sg83
g4089
sg76
(lp4096
g69
(g90
g71
NtRp4097
(dp4098
g74
(dp4099
sg83
g4093
sg76
(lp4100
g69
(g70
g71
NtRp4101
(dp4102
g74
(dp4103
g82
I1
ssg83
g4097
sg76
(lp4104
g3605
(S't\t\x00\x00\x00Community'
tRp4105
asbasbasbag69
(g85
g71
NtRp4106
(dp4107
g74
(dp4108
sg83
g4089
sg76
(lp4109
g69
(g90
g71
NtRp4110
(dp4111
g74
(dp4112
sg83
g4106
sg76
(lp4113
g69
(g70
g71
NtRp4114
(dp4115
g74
(dp4116
g82
I1
ssg83
g4110
sg76
(lp4117
I00
asbasbasbag69
(g85
g71
NtRp4118
(dp4119
g74
(dp4120
sg83
g4089
sg76
(lp4121
g69
(g90
g71
NtRp4122
(dp4123
g74
(dp4124
sg83
g4118
sg76
(lp4125
g69
(g70
g71
NtRp4126
(dp4127
g74
(dp4128
g82
I1
ssg83
g4122
sg76
(lp4129
Nasbasbasbag69
(g85
g71
NtRp4130
(dp4131
g74
(dp4132
sg83
g4089
sg76
(lp4133
g69
(g90
g71
NtRp4134
(dp4135
g74
(dp4136
sg83
g4130
sg76
(lp4137
g69
(g70
g71
NtRp4138
(dp4139
g74
(dp4140
g82
I1
ssg83
g4134
sg76
(lp4141
(lp4142
(g3605
(S't\x06\x00\x00\x00Groups'
tRp4143
I00
S'http://www.web2py.com/examples/default/usergroups'
p4144
tp4145
a(g3605
(S't\x07\x00\x00\x00Twitter'
tRp4146
I00
S'http://twitter.com/web2py'
p4147
tp4148
a(g3605
(S's\t\x00\x00\x00Live Chat'
tRp4149
I00
S'http://webchat.freenode.net/?channels=web2py'
p4150
tp4151
aasbasbasbasbasbasbasbag69
(g85
g71
NtRp4152
(dp4153
g74
(dp4154
sg83
g3719
sg76
(lp4155
g69
(g90
g71
NtRp4156
(dp4157
g74
(dp4158
sg83
g4152
sg76
(lp4159
g69
(g70
g71
NtRp4160
(dp4161
g74
(dp4162
g82
I2
ssg83
g4156
sg76
(lp4163
g69
(g78
g71
NtRp4164
(dp4165
g74
(dp4166
g82
I1
ssg83
Nsg76
(lp4167
g69
(g85
g71
NtRp4168
(dp4169
g74
(dp4170
sg83
g4164
sg76
(lp4171
g69
(g90
g71
NtRp4172
(dp4173
g74
(dp4174
sg83
g4168
sg76
(lp4175
g69
(g70
g71
NtRp4176
(dp4177
g74
(dp4178
g82
I1
ssg83
g4172
sg76
(lp4179
g3605
(S't\x07\x00\x00\x00Plugins'
tRp4180
asbasbasbag69
(g85
g71
NtRp4181
(dp4182
g74
(dp4183
sg83
g4164
sg76
(lp4184
g69
(g90
g71
NtRp4185
(dp4186
g74
(dp4187
sg83
g4181
sg76
(lp4188
g69
(g70
g71
NtRp4189
(dp4190
g74
(dp4191
g82
I1
ssg83
g4185
sg76
(lp4192
I00
asbasbasbag69
(g85
g71
NtRp4193
(dp4194
g74
(dp4195
sg83
g4164
sg76
(lp4196
g69
(g90
g71
NtRp4197
(dp4198
g74
(dp4199
sg83
g4193
sg76
(lp4200
g69
(g70
g71
NtRp4201
(dp4202
g74
(dp4203
g82
I1
ssg83
g4197
sg76
(lp4204
Nasbasbasbag69
(g85
g71
NtRp4205
(dp4206
g74
(dp4207
sg83
g4164
sg76
(lp4208
g69
(g90
g71
NtRp4209
(dp4210
g74
(dp4211
sg83
g4205
sg76
(lp4212
g69
(g70
g71
NtRp4213
(dp4214
g74
(dp4215
g82
I1
ssg83
g4209
sg76
(lp4216
(lp4217
(S'plugin_wiki'
p4218
I00
S'http://web2py.com/examples/default/download'
p4219
tp4220
a(g3605
(S's\r\x00\x00\x00Other Plugins'
tRp4221
I00
g3951
tp4222
a(g3605
(S's\x0e\x00\x00\x00Layout Plugins'
tRp4223
I00
g3954
tp4224
aasbasbasbasbasbasbasbasbasbasbasbasbasbasbasbasbasbasbasbag69
(g85
g71
NtRp4225
(dp4226
g74
(dp4227
sg83
g3100
sg76
(lp4228
g69
(g90
g71
NtRp4229
(dp4230
g74
(dp4231
g94
g95
ssg83
g4225
sg76
(lp4232
S'meta'
p4233
asbag69
(g90
g71
NtRp4234
(dp4235
g74
(dp4236
g101
g102
ssg83
g4225
sg76
(lp4237
S':'
asbag69
(g90
g71
NtRp4238
(dp4239
g74
(dp4240
sg83
g4225
sg76
(lp4241
g69
(g70
g71
NtRp4242
(dp4243
g74
(dp4244
g82
I5
ssg83
g4238
sg76
(lp4245
g69
(g78
g71
NtRp4246
(dp4247
g74
(dp4248
g82
I4
ssg83
Nsg76
(lp4249
g69
(g85
g71
NtRp4250
(dp4251
g74
(dp4252
sg83
g4246
sg76
(lp4253
g69
(g90
g71
NtRp4254
(dp4255
g74
(dp4256
g94
g95
ssg83
g4250
sg76
(lp4257
S'author'
p4258
asbag69
(g90
g71
NtRp4259
(dp4260
g74
(dp4261
g101
g102
ssg83
g4250
sg76
(lp4262
S':'
asbag69
(g90
g71
NtRp4263
(dp4264
g74
(dp4265
sg83
g4250
sg76
(lp4266
g69
(g70
g71
NtRp4267
(dp4268
g74
(dp4269
g82
I4
ssg83
g4263
sg76
(lp4270
S'Your Name <you@example.com>'
p4271
asbasbasbag69
(g85
g71
NtRp4272
(dp4273
g74
(dp4274
sg83
g4246
sg76
(lp4275
g69
(g90
g71
NtRp4276
(dp4277
g74
(dp4278
g94
g95
ssg83
g4272
sg76
(lp4279
S'copyright'
p4280
asbag69
(g90
g71
NtRp4281
(dp4282
g74
(dp4283
g101
g102
ssg83
g4272
sg76
(lp4284
S':'
asbag69
(g90
g71
NtRp4285
(dp4286
g74
(dp4287
sg83
g4272
sg76
(lp4288
g69
(g70
g71
NtRp4289
(dp4290
g74
(dp4291
g82
I4
ssg83
g4285
sg76
(lp4292
S'Copyright 2011'
p4293
asbasbasbag69
(g85
g71
NtRp4294
(dp4295
g74
(dp4296
sg83
g4246
sg76
(lp4297
g69
(g90
g71
NtRp4298
(dp4299
g74
(dp4300
g94
g95
ssg83
g4294
sg76
(lp4301
S'description'
p4302
asbag69
(g90
g71
NtRp4303
(dp4304
g74
(dp4305
g101
g102
ssg83
g4294
sg76
(lp4306
S':'
asbag69
(g90
g71
NtRp4307
(dp4308
g74
(dp4309
sg83
g4294
sg76
(lp4310
g69
(g70
g71
NtRp4311
(dp4312
g74
(dp4313
g82
I4
ssg83
g4307
sg76
(lp4314
S'a cool new app'
p4315
asbasbasbag69
(g85
g71
NtRp4316
(dp4317
g74
(dp4318
sg83
g4246
sg76
(lp4319
g69
(g90
g71
NtRp4320
(dp4321
g74
(dp4322
g94
g95
ssg83
g4316
sg76
(lp4323
S'generator'
p4324
asbag69
(g90
g71
NtRp4325
(dp4326
g74
(dp4327
g101
g102
ssg83
g4316
sg76
(lp4328
S':'
asbag69
(g90
g71
NtRp4329
(dp4330
g74
(dp4331
sg83
g4316
sg76
(lp4332
g69
(g70
g71
NtRp4333
(dp4334
g74
(dp4335
g82
I4
ssg83
g4329
sg76
(lp4336
S'Web2py Web Framework'
p4337
asbasbasbag69
(g85
g71
NtRp4338
(dp4339
g74
(dp4340
sg83
g4246
sg76
(lp4341
g69
(g90
g71
NtRp4342
(dp4343
g74
(dp4344
g94
g95
ssg83
g4338
sg76
(lp4345
S'keywords'
p4346
asbag69
(g90
g71
NtRp4347
(dp4348
g74
(dp4349
g101
g102
ssg83
g4338
sg76
(lp4350
S':'
asbag69
(g90
g71
NtRp4351
(dp4352
g74
(dp4353
sg83
g4338
sg76
(lp4354
g69
(g70
g71
NtRp4355
(dp4356
g74
(dp4357
g82
I4
ssg83
g4351
sg76
(lp4358
S'web2py, python, framework'
p4359
asbasbasbasbasbasbasbag69
(g85
g71
NtRp4360
(dp4361
g74
(dp4362
sg83
g3100
sg76
(lp4363
g69
(g90
g71
NtRp4364
(dp4365
g74
(dp4366
g94
g95
ssg83
g4360
sg76
(lp4367
S'postprocessing'
p4368
asbag69
(g90
g71
NtRp4369
(dp4370
g74
(dp4371
g101
g102
ssg83
g4360
sg76
(lp4372
S':'
asbag69
(g90
g71
NtRp4373
(dp4374
g74
(dp4375
sg83
g4360
sg76
(lp4376
g69
(g70
g71
NtRp4377
(dp4378
g74
(dp4379
g82
I5
ssg83
g4373
sg76
(lp4380
g69
(g78
g71
NtRp4381
(dp4382
g74
(dp4383
g82
I4
ssg83
Nsg76
(lp4384
sbasbasbasbag69
(g85
g71
NtRp4385
(dp4386
g74
(dp4387
sg83
g3100
sg76
(lp4388
g69
(g90
g71
NtRp4389
(dp4390
g74
(dp4391
g94
g95
ssg83
g4385
sg76
(lp4392
S'session_file'
p4393
asbag69
(g90
g71
NtRp4394
(dp4395
g74
(dp4396
g101
g102
ssg83
g4385
sg76
(lp4397
S':'
asbag69
(g90
g71
NtRp4398
(dp4399
g74
(dp4400
sg83
g4385
sg76
(lp4401
g69
(g70
g71
NtRp4402
(dp4403
g74
(dp4404
g82
I5
ssg83
g4398
sg76
(lp4405
S"<open file '/home/jigar/web2py/applications/app1/sessions/127.0.0.1-15782adb-a404-4b3e-868f-e60d89b9be1b', mode 'rb+' at 0x7f53803aeae0>"
p4406
asbasbasbag69
(g85
g71
NtRp4407
(dp4408
g74
(dp4409
sg83
g3100
sg76
(lp4410
g69
(g90
g71
NtRp4411
(dp4412
g74
(dp4413
g94
g95
ssg83
g4407
sg76
(lp4414
S'session_filename'
p4415
asbag69
(g90
g71
NtRp4416
(dp4417
g74
(dp4418
g101
g102
ssg83
g4407
sg76
(lp4419
S':'
asbag69
(g90
g71
NtRp4420
(dp4421
g74
(dp4422
sg83
g4407
sg76
(lp4423
g69
(g70
g71
NtRp4424
(dp4425
g74
(dp4426
g82
I5
ssg83
g4420
sg76
(lp4427
S'/home/jigar/web2py/applications/app1/sessions/127.0.0.1-15782adb-a404-4b3e-868f-e60d89b9be1b'
p4428
asbasbasbag69
(g85
g71
NtRp4429
(dp4430
g74
(dp4431
sg83
g3100
sg76
(lp4432
g69
(g90
g71
NtRp4433
(dp4434
g74
(dp4435
g94
g95
ssg83
g4429
sg76
(lp4436
S'session_id'
p4437
asbag69
(g90
g71
NtRp4438
(dp4439
g74
(dp4440
g101
g102
ssg83
g4429
sg76
(lp4441
S':'
asbag69
(g90
g71
NtRp4442
(dp4443
g74
(dp4444
sg83
g4429
sg76
(lp4445
g69
(g70
g71
NtRp4446
(dp4447
g74
(dp4448
g82
I5
ssg83
g4442
sg76
(lp4449
S'127.0.0.1-15782adb-a404-4b3e-868f-e60d89b9be1b'
p4450
asbasbasbag69
(g85
g71
NtRp4451
(dp4452
g74
(dp4453
sg83
g3100
sg76
(lp4454
g69
(g90
g71
NtRp4455
(dp4456
g74
(dp4457
g94
g95
ssg83
g4451
sg76
(lp4458
S'session_id_name'
p4459
asbag69
(g90
g71
NtRp4460
(dp4461
g74
(dp4462
g101
g102
ssg83
g4451
sg76
(lp4463
S':'
asbag69
(g90
g71
NtRp4464
(dp4465
g74
(dp4466
sg83
g4451
sg76
(lp4467
g69
(g70
g71
NtRp4468
(dp4469
g74
(dp4470
g82
I5
ssg83
g4464
sg76
(lp4471
g3157
asbasbasbag69
(g85
g71
NtRp4472
(dp4473
g74
(dp4474
sg83
g3100
sg76
(lp4475
g69
(g90
g71
NtRp4476
(dp4477
g74
(dp4478
g94
g95
ssg83
g4472
sg76
(lp4479
S'session_locked'
p4480
asbag69
(g90
g71
NtRp4481
(dp4482
g74
(dp4483
g101
g102
ssg83
g4472
sg76
(lp4484
S':'
asbag69
(g90
g71
NtRp4485
(dp4486
g74
(dp4487
sg83
g4472
sg76
(lp4488
g69
(g70
g71
NtRp4489
(dp4490
g74
(dp4491
g82
I5
ssg83
g4485
sg76
(lp4492
g1680
asbasbasbag69
(g85
g71
NtRp4493
(dp4494
g74
(dp4495
sg83
g3100
sg76
(lp4496
g69
(g90
g71
NtRp4497
(dp4498
g74
(dp4499
g94
g95
ssg83
g4493
sg76
(lp4500
S'session_new'
p4501
asbag69
(g90
g71
NtRp4502
(dp4503
g74
(dp4504
g101
g102
ssg83
g4493
sg76
(lp4505
S':'
asbag69
(g90
g71
NtRp4506
(dp4507
g74
(dp4508
sg83
g4493
sg76
(lp4509
g69
(g70
g71
NtRp4510
(dp4511
g74
(dp4512
g82
I5
ssg83
g4506
sg76
(lp4513
g112
asbasbasbag69
(g85
g71
NtRp4514
(dp4515
g74
(dp4516
sg83
g3100
sg76
(lp4517
g69
(g90
g71
NtRp4518
(dp4519
g74
(dp4520
g94
g95
ssg83
g4514
sg76
(lp4521
S'status'
p4522
asbag69
(g90
g71
NtRp4523
(dp4524
g74
(dp4525
g101
g102
ssg83
g4514
sg76
(lp4526
S':'
asbag69
(g90
g71
NtRp4527
(dp4528
g74
(dp4529
sg83
g4514
sg76
(lp4530
g69
(g70
g71
NtRp4531
(dp4532
g74
(dp4533
g82
I5
ssg83
g4527
sg76
(lp4534
S'200'
p4535
asbasbasbag69
(g85
g71
NtRp4536
(dp4537
g74
(dp4538
sg83
g3100
sg76
(lp4539
g69
(g90
g71
NtRp4540
(dp4541
g74
(dp4542
g94
g95
ssg83
g4536
sg76
(lp4543
S'subtitle'
p4544
asbag69
(g90
g71
NtRp4545
(dp4546
g74
(dp4547
g101
g102
ssg83
g4536
sg76
(lp4548
S':'
asbag69
(g90
g71
NtRp4549
(dp4550
g74
(dp4551
sg83
g4536
sg76
(lp4552
g69
(g70
g71
NtRp4553
(dp4554
g74
(dp4555
g82
I5
ssg83
g4549
sg76
(lp4556
g3605
(S's\r\x00\x00\x00customize me!'
tRp4557
asbasbasbag69
(g85
g71
NtRp4558
(dp4559
g74
(dp4560
sg83
g3100
sg76
(lp4561
g69
(g90
g71
NtRp4562
(dp4563
g74
(dp4564
g94
g95
ssg83
g4558
sg76
(lp4565
S'title'
p4566
asbag69
(g90
g71
NtRp4567
(dp4568
g74
(dp4569
g101
g102
ssg83
g4558
sg76
(lp4570
S':'
asbag69
(g90
g71
NtRp4571
(dp4572
g74
(dp4573
sg83
g4558
sg76
(lp4574
g69
(g70
g71
NtRp4575
(dp4576
g74
(dp4577
g82
I5
ssg83
g4571
sg76
(lp4578
S'App1'
p4579
asbasbasbag69
(g85
g71
NtRp4580
(dp4581
g74
(dp4582
sg83
g3100
sg76
(lp4583
g69
(g90
g71
NtRp4584
(dp4585
g74
(dp4586
g94
g95
ssg83
g4580
sg76
(lp4587
g2365
asbag69
(g90
g71
NtRp4588
(dp4589
g74
(dp4590
g101
g102
ssg83
g4580
sg76
(lp4591
S':'
asbag69
(g90
g71
NtRp4592
(dp4593
g74
(dp4594
sg83
g4580
sg76
(lp4595
g69
(g70
g71
NtRp4596
(dp4597
g74
(dp4598
g82
I5
ssg83
g4592
sg76
(lp4599
g2378
asbasbasbag69
(g85
g71
NtRp4600
(dp4601
g74
(dp4602
sg83
g3100
sg76
(lp4603
g69
(g90
g71
NtRp4604
(dp4605
g74
(dp4606
g94
g95
ssg83
g4600
sg76
(lp4607
S'view'
p4608
asbag69
(g90
g71
NtRp4609
(dp4610
g74
(dp4611
g101
g102
ssg83
g4600
sg76
(lp4612
S':'
asbag69
(g90
g71
NtRp4613
(dp4614
g74
(dp4615
sg83
g4600
sg76
(lp4616
g69
(g70
g71
NtRp4617
(dp4618
g74
(dp4619
g82
I5
ssg83
g4613
sg76
(lp4620
S'default/lall.html'
p4621
asbasbasbasbasbsS'locals'
p4622
(dp4623
g4
S"'/home/jigar/web2py/applications/app1/controllers/default.py'"
p4624
sg6
S"'# -*- coding: utf-8 -*-\\n# this file is released ... locals()\\n\\nresponse._vars=response._caller(lall)\\n'"
p4625
sssS'traceback'
p4626
S'Traceback (most recent call last):\n  File "/usr/lib/pymodules/python2.7/gluon/restricted.py", line 203, in restricted\n    ccode = compile2(code,layer)\n  File "/usr/lib/pymodules/python2.7/gluon/restricted.py", line 189, in compile2\n    return compile(code.rstrip().replace(\'\\r\\n\',\'\\n\')+\'\\n\', layer, \'exec\')\n  File "/home/jigar/web2py/applications/app1/controllers/default.py", line 81\n    a=db(db.Post.id==r).update(Post.Rating=Post.Rating+5)\nSyntaxError: keyword can\'t be an expression\n'
p4627
s.