(dp1
S'output'
p2
S"<type 'exceptions.NameError'> name 'ca' is not defined"
p3
sS'layer'
p4
S'/home/jigar/web2py/applications/app1/views/default/index.html'
p5
sS'code'
p6
S'response.write(\'<!DOCTYPE html>\\n<!-- paulirish.com/2008/conditional-stylesheets-vs-css-hacks-answer-neither/ -->\\n<!--[if lt IE 7]><html class="ie ie6 ie-lte9 ie-lte8 ie-lte7 no-js" lang="\', escape=False)\nresponse.write(T.accepted_language or \'en\')\nresponse.write(\'"> <![endif]-->\\n<!--[if IE 7]><html class="ie ie7 ie-lte9 ie-lte8 ie-lte7 no-js" lang="\', escape=False)\nresponse.write(T.accepted_language or \'en\')\nresponse.write(\'"> <![endif]-->\\n<!--[if IE 8]><html class="ie ie8 ie-lte9 ie-lte8 no-js" lang="\', escape=False)\nresponse.write(T.accepted_language or \'en\')\nresponse.write(\'"> <![endif]-->\\n<!--[if IE 9]><html class="ie9 ie-lte9 no-js" lang="\', escape=False)\nresponse.write(T.accepted_language or \'en\')\nresponse.write(\'"> <![endif]-->\\n<!--[if (gt IE 9)|!(IE)]><!--> <html class="no-js" lang="\', escape=False)\nresponse.write(T.accepted_language or \'en\')\nresponse.write(\'"> <!--<![endif]-->\\n<head>\\n  <meta charset="utf-8" />\\n  <!-- www.phpied.com/conditional-comments-block-downloads/ -->\\n  <!-- Always force latest IE rendering engine\\n\\t   (even in intranet) & Chrome Frame\\n\\t   Remove this if you use the .htaccess -->\\n  <!--[if IE]>\\n    <meta http-equiv="X-UA-Compatible" content="IE=edge\', escape=False)\nresponse.write(not request.is_local and \',chrome=1\' or \'\')\nresponse.write(\'">\\n  <![endif]-->\\n  \\n  <title>\', escape=False)\nresponse.write(response.title or request.application)\nresponse.write(\'</title>\\n  \\n  <!-- http://dev.w3.org/html5/markup/meta.name.html -->\\n  <meta name="application-name" content="\', escape=False)\nresponse.write(request.application)\nresponse.write(\'" />\\n  \\n  <!-- Speaking of Google, don\\\'t forget to set your site up:\\n\\t   http://google.com/webmasters -->\\n  <meta name="google-site-verification" content="" />\\n\\n  <!--  Mobile Viewport Fix\\n\\t  j.mp/mobileviewport & davidbcalhoun.com/2010/viewport-metatag\\n\\t  device-width: Occupy full width of the screen in its current orientation\\n\\t  initial-scale = 1.0 retains dimensions instead of zooming out if page height > device height\\n\\t  user-scalable = yes allows the user to zoom in -->\\n  <meta name="viewport" content="width=device-width, initial-scale=1.0, user-scalable=yes">\\n  \\n  <!-- Place favicon.ico and apple-touch-icon.png in the root of your domain and delete these references -->\\n  <link rel="shortcut icon" href="\', escape=False)\nresponse.write(URL(\'static\',\'favicon.ico\'))\nresponse.write(\'" type="image/x-icon">\\n  <link rel="apple-touch-icon" href="\', escape=False)\nresponse.write(URL(\'static\',\'favicon.png\'))\nresponse.write(\'">\\n\\n  <!-- All JavaScript at the bottom, except for Modernizr which enables \\n\\t   HTML5 elements & feature detects -->\\n  <script src="\', escape=False)\nresponse.write(URL(\'static\',\'js/modernizr.custom.js\'))\nresponse.write(\'"></script>  \\n\\n  <!-- include stylesheets -->\\n  \', escape=False)\nresponse.files.append(URL(\'static\',\'css/skeleton.css\'))\nresponse.files.append(URL(\'static\',\'css/web2py.css\'))\nresponse.files.append(URL(\'static\',\'css/superfish.css\'))\nresponse.files.append(URL(\'static\',\'js/superfish.js\'))\nresponse.write(\'\\n\\n  \', escape=False)\nresponse.write(\'<script type="text/javascript"><!--\\n    // These variables are used by the web2py_ajax_init function in web2py_ajax.js (which is loaded below).\\n    var w2p_ajax_confirm_message = "\', escape=False)\nresponse.write(T(\'Are you sure you want to delete this object?\'))\nresponse.write(\'";\\n    var w2p_ajax_date_format = "\', escape=False)\nresponse.write(T(\'%Y-%m-%d\'))\nresponse.write(\'";\\n    var w2p_ajax_datetime_format = "\', escape=False)\nresponse.write(T(\'%Y-%m-%d %H:%M:%S\'))\nresponse.write(\'";\\n    //--></script>\\n\', escape=False)\nresponse.files.insert(0,URL(\'static\',\'js/jquery.js\'))\nresponse.files.insert(1,URL(\'static\',\'css/calendar.css\'))\nresponse.files.insert(2,URL(\'static\',\'js/calendar.js\'))\nresponse.files.insert(3,URL(\'static\',\'js/web2py.js\'))\nresponse.include_meta()\nresponse.include_files()\nresponse.write(\'\\n\', escape=False)\nresponse.write(\'\\n\\n  <script type="text/javascript">\\n    jQuery(function(){ jQuery(\\\'ul.sf-menu\\\').supersubs({minWidth:12,maxWidth:30,extraWidth:3}).superfish(); });\\n  </script>\\n\\n  \', escape=False)\n# using sidebars need to know what sidebar you want to use\nleft_sidebar_enabled = globals().get(\'left_sidebar_enabled\',False)\nright_sidebar_enabled = globals().get(\'right_sidebar_enabled\',False)\nmiddle_columns = {0:\'sixteen\',1:\'twelve\',2:\'eight\'}[\n(left_sidebar_enabled and 1 or 0)+(right_sidebar_enabled and 1 or 0)]\nresponse.write(\'\\n\\n  <!-- uncomment here to load jquery-ui\\n  <link rel="stylesheet" href="http://ajax.googleapis.com/ajax/libs/jqueryui/1.8.16/themes/base/jquery-ui.css" type="text/css" media="all" />\\n  <script src="http://ajax.googleapis.com/ajax/libs/jqueryui/1.8.16/jquery-ui.min.js" type="text/javascript"></script>\\n  uncomment to load jquery-ui //-->\\n</head>\\n<body>\\n  <div class="wrapper"><!-- for sticky footer -->\\n  \\n    <div class="topbar">\\n      <div class="container">    \\n        <div class="sixteen columns">\\n          <div id="navbar">\', escape=False)\nresponse.write(\'auth\' in globals() and auth.navbar(separators=(\' \',\' | \',\'\')))\nresponse.write(\'</div>\\n          \', escape=False)\nis_mobile=request.user_agent().is_mobile\nresponse.write(\'\\n          <div id="menu">\', escape=False)\nresponse.write(MENU(response.menu, _class=\'mobile-menu\' if is_mobile else \'sf-menu\',mobile=is_mobile))\nresponse.write(\'\\n          </div>\\n        </div>\\n      </div>\\n    </div><!-- topbar -->\\n    \\n    <div class="flash">\', escape=False)\nresponse.write(response.flash or \'\')\nresponse.write(\'</div>\\n    \\n    <div class="header">\\n      <div class="container">         \\n        <div class="sixteen columns">\\n          <h1 class="remove-bottom" style="margin-top: .5em;">\\n          \', escape=False)\nresponse.write(response.title or request.application)\nresponse.write(\'\\n          </h1>\\n          <h5>\', escape=False)\nresponse.write(response.subtitle or \'\')\nresponse.write(\'</h5>\\n        </div>\\n        <div class="sixteen columns">\\n          <div class="statusbar clearfix">\\n            \', escape=False)\nresponse.write(\'\\n            <div class="breadcrumbs">\', escape=False)\nresponse.write(request.function.replace(\'_\', \' \').title())\nresponse.write(\'</div>\\n            \', escape=False)\nresponse.write(\'\\n            <!-- AddToAny BEGIN -->\\n            <div style="float:right; padding-top: .25em;" class="a2a_kit a2a_default_style">\\n            <a class="a2a_dd" href="http://www.addtoany.com/share_save">Share</a></div>\\n            <script type="text/javascript" src="http://static.addtoany.com/menu/page.js"></script>\\n            <!-- AddToAny END -->\\n          </div>\\n        </div>\\n      </div>\\n    </div>\\n\\n    <div class="main">\\n      <div class="container">                 \\n        \', escape=False)\nif left_sidebar_enabled:\n    response.write(\'\\n        <div class="four columns left-sidebar">\\n          \', escape=False)\n    response.write(\'\\n          <h3>Left Sidebar</h3>\\n          <p></p>\\n          \', escape=False)\n    response.write(\'\\n        </div>\\n        \', escape=False)\n    pass\nresponse.write(\'\\n        \\n        <div class="\', escape=False)\nresponse.write(middle_columns)\nresponse.write(\' columns center">\\n          \', escape=False)\nresponse.write(\'\\n          \', escape=False)\nresponse.write(\'\\n<table>\\n<tr>\\n<th>CATEGORIES :</th>\\n\', escape=False)\nfor j in range(len(ca)):\n    response.write("\\n<td><a href=\'/app1/default/listcat/", escape=False)\n    response.write(ca[j][\'id\'])\n    response.write("\'>", escape=False)\n    response.write(ca[j][\'Name\'])\n    response.write(\'</a></td>\\n\', escape=False)\n    pass\nresponse.write("\\n</tr>\\n</table>\\n<br>\\n<img src=\'", escape=False)\nresponse.write(URL(\'download\', args=auth.user.Profile_Pic))\nresponse.write("\' style=\'float:right\' width=\'175px\' height=\'175px\'>\\n<h3 style=\'color:darkblue\'>WELCOME ", escape=False)\nresponse.write(auth.user.first_name)\nresponse.write(\'</h3>\\n<br><br><br><br>\\n<br>\\n<br>\\n<center><h4>\\nHERE IS THE LIST OF NEWS!</h4></center>\\n<hr>\\n\', escape=False)\ni=(len(x)-1)\nresponse.write(\'\\n\', escape=False)\nwhile (i>=0):\n    response.write("\\n<a href=\'/app1/default/l/", escape=False)\n    response.write(x[i][\'id\'])\n    response.write(\'/5\\\'>\\n<img src="http://chrisblattman.com/files/2011/07/facebook_like_button_big1.jpg" height=5% width=10% style="float:right"></a>\\n<a href=\\\'/app1/default/l/\', escape=False)\n    response.write(x[i][\'id\'])\n    response.write(\'/-3\\\'>\\n<img src="http://alexcalic.files.wordpress.com/2011/06/facebook-dislike-button.png" height=5% width=10% style="float:right"></a>\\n<div style=\\\'font-weight:bold\\\'><font size=\\\'5\\\'><a href=\\\'\', escape=False)\n    response.write(x[i][\'URL\'])\n    response.write("\' color=\'red\'>", escape=False)\n    response.write(x[i][\'Heading\'])\n    response.write("</a></font></div>\\n<div style=\'font-weight:bold\'><img src=\'", escape=False)\n    response.write(URL(\'download\', args=y[i][\'Profile_Pic\']))\n    response.write("\' style=\'float:left\' width=\'150px\' height=\'105px\'>Post Points:", escape=False)\n    response.write(x[i][\'Rating\'])\n    response.write("</div>\\n<br><br><br><br>\\n<p style=\'background-color:grey;color:black\'>\\n<marquee>\\n", escape=False)\n    response.write(x[i][\'Post_details\'])\n    response.write(\'\\n</marquee>\\n<br>\\t\\n</p>\\n\', escape=False)\n    if (x[i][\'Video\']!=None):\n        response.write(\'\\n<center>\\n<iframe width="560" height="315" src=\\\'\', escape=False)\n        response.write(x[i][\'Video\'])\n        response.write(\'\\\' frameborder="0" allowfullscreen></iframe>\\n</center>\\n\', escape=False)\n        pass\n    response.write("\\n<table>\\n<tr>\\n<td><a href=\'/app1/default/addcomment/", escape=False)\n    response.write(x[i][\'id\'])\n    response.write("\'>Add Comments</a></td>\\n<td></td>\\n<td><a href=\'/app1/default/showcomments/", escape=False)\n    response.write(x[i][\'id\'])\n    response.write("\'>See the previous comments</a></td>\\n</tr>\\n</table>\\n<ul>\\n<li><a href=\'/app1/default/deletepost/", escape=False)\n    response.write(x[i][\'id\'])\n    response.write("/lall\'>Delete This Post</li></a>\\n<li><a href=\'/app1/default/updatepost/", escape=False)\n    response.write(x[i][\'id\'])\n    response.write("/lall\'>Update This Post</li></a>\\n</ul>\\n<div style=\'text-align:right\'><i>Uploaded by:- ", escape=False)\n    response.write(y[i][\'first_name\'])\n    response.write(\' at \', escape=False)\n    response.write(x[i][\'Time\'])\n    response.write(\'</i></div>\\n<hr>\\n\', escape=False)\n    i=i-1\n    response.write(\'\\n\', escape=False)\n    pass\nresponse.write("\\n<em>HEADLINES:</em>\\n<p style=\'background-color:grey;color:black\'>\\n<marquee>\\n", escape=False)\nfor i in range(len(x)):\n    response.write(\'\\n\', escape=False)\n    response.write(x[i][\'Post_details\'])\n    response.write(\'.&nbsp &nbsp&nbsp&nbsp&nbsp&nbsp&nbsp\\n\', escape=False)\n    pass\nresponse.write(\'\\n</marquee>\\n\', escape=False)\nresponse.write(\'\\n          \', escape=False)\nresponse.write(\'\\n        </div>\\n        \\n        \', escape=False)\nif right_sidebar_enabled:\n    response.write(\'\\n        <div class="four columns">\\n          \', escape=False)\n    response.write(\'\\n          <h3>Right Sidebar</h3>\\n          <p></p>\\n          \', escape=False)\n    response.write(\'\\n        </div>    \\n        \', escape=False)\n    pass\nresponse.write(\'\\n        \\n      </div><!-- container -->\\n    </div><!-- main -->\\n    \\n    <div class="push"></div>\\n  </div><!-- wrapper -->\\n\\n  <div class="footer">\\n    <div class="container">    \\n      <div class="sixteen columns">\\n        \', escape=False)\nresponse.write(\' <!-- this is default footer -->\\n        <div class="footer-content clearfix">\\n          <div class="copyright">\', escape=False)\nresponse.write(T(\'Copyright\'))\nresponse.write(\' &#169; 2011</div>\\n          <div style="float: right;">\\n            <a href="http://www.web2py.com/">\\n            <img style="padding-bottom: 0;" src="\', escape=False)\nresponse.write(URL(\'static\',\'images/poweredby.png\'))\nresponse.write(\'"/>\\n            </a>\\n          </div>\\n        </div>\\n        \', escape=False)\nresponse.write(\'\\t\\n      </div>\\n    </div><!-- container -->\\n  </div><!-- footer -->\\n  \\n  <!--[if lt IE 7 ]>\\n\\t<script src="\', escape=False)\nresponse.write(URL(\'static\',\'js/dd_belatedpng.js\'))\nresponse.write(\'"></script>\\n\\t<script> DD_belatedPNG.fix(\\\'img, .png_bg\\\'); //fix any <img> or .png_bg background-images </script>\\n\\t<![endif]-->\\n  \', escape=False)\nif response.google_analytics_id:\n    response.write(\'<script type="text/javascript"> var _gaq = _gaq || []; _gaq.push([\\\'_setAccount\\\', \\\'\', escape=False)\n    response.write(response.google_analytics_id)\n    response.write("\']); _gaq.push([\'_trackPageview\']); (function() { var ga = document.createElement(\'script\'); ga.type = \'text/javascript\'; ga.async = true; ga.src = (\'https:\' == document.location.protocol ? \'https://ssl\' : \'http://www\') + \'.google-analytics.com/ga.js\'; var s = document.getElementsByTagName(\'script\')[0]; s.parentNode.insertBefore(ga, s); })(); </script> ", escape=False)\n    pass\nresponse.write(\'\\n</body>\\n</html>\\n\', escape=False)'
p7
sS'snapshot'
p8
(dp9
S'exception'
p10
(dp11
S'__hash__'
p12
S"<method-wrapper '__hash__' of exceptions.NameError object>"
p13
sS'__setattr__'
p14
S"<method-wrapper '__setattr__' of exceptions.NameError object>"
p15
sS'__reduce_ex__'
p16
S'<built-in method __reduce_ex__ of exceptions.NameError object>'
p17
sS'__getslice__'
p18
S"<method-wrapper '__getslice__' of exceptions.NameError object>"
p19
sS'__getitem__'
p20
S"<method-wrapper '__getitem__' of exceptions.NameError object>"
p21
sS'__setstate__'
p22
S'<built-in method __setstate__ of exceptions.NameError object>'
p23
sS'args'
p24
S'("name \'ca\' is not defined",)'
p25
sS'__reduce__'
p26
S'<built-in method __reduce__ of exceptions.NameError object>'
p27
sS'__str__'
p28
S"<method-wrapper '__str__' of exceptions.NameError object>"
p29
sS'__format__'
p30
S'<built-in method __format__ of exceptions.NameError object>'
p31
sS'__getattribute__'
p32
S"<method-wrapper '__getattribute__' of exceptions.NameError object>"
p33
sS'__class__'
p34
S"<type 'exceptions.NameError'>"
p35
sS'__unicode__'
p36
S'<built-in method __unicode__ of exceptions.NameError object>'
p37
sS'__delattr__'
p38
S"<method-wrapper '__delattr__' of exceptions.NameError object>"
p39
sS'__subclasshook__'
p40
S'<built-in method __subclasshook__ of type object>'
p41
sS'__repr__'
p42
S"<method-wrapper '__repr__' of exceptions.NameError object>"
p43
sS'__dict__'
p44
S'{}'
p45
sS'__sizeof__'
p46
S'<built-in method __sizeof__ of exceptions.NameError object>'
p47
sS'__doc__'
p48
S"'Name not found globally.'"
p49
sS'__init__'
p50
S"<method-wrapper '__init__' of exceptions.NameError object>"
p51
sS'__new__'
p52
S'<built-in method __new__ of type object>'
p53
ssS'evalue'
p54
S"name 'ca' is not defined"
p55
sS'request'
p56
ccopy_reg
_reconstructor
p57
(cgluon.html
BEAUTIFY
p58
c__builtin__
object
p59
NtRp60
(dp61
S'attributes'
p62
(dp63
sS'components'
p64
(lp65
g57
(cgluon.html
TABLE
p66
g59
NtRp67
(dp68
g62
(dp69
S'level'
p70
I5
ssS'parent'
p71
Nsg64
(lp72
g57
(cgluon.html
TR
p73
g59
NtRp74
(dp75
g62
(dp76
sg71
g67
sg64
(lp77
g57
(cgluon.html
TD
p78
g59
NtRp79
(dp80
g62
(dp81
S'_style'
p82
S'font-weight:bold;vertical-align:top'
p83
ssg71
g74
sg64
(lp84
S'ajax'
p85
asbag57
(g78
g59
NtRp86
(dp87
g62
(dp88
S'_valign'
p89
S'top'
p90
ssg71
g74
sg64
(lp91
S':'
asbag57
(g78
g59
NtRp92
(dp93
g62
(dp94
sg71
g74
sg64
(lp95
g57
(g58
g59
NtRp96
(dp97
g62
(dp98
g70
I5
ssg71
g92
sg64
(lp99
S'False'
p100
asbasbasbag57
(g73
g59
NtRp101
(dp102
g62
(dp103
sg71
g67
sg64
(lp104
g57
(g78
g59
NtRp105
(dp106
g62
(dp107
g82
g83
ssg71
g101
sg64
(lp108
S'application'
p109
asbag57
(g78
g59
NtRp110
(dp111
g62
(dp112
g89
g90
ssg71
g101
sg64
(lp113
S':'
asbag57
(g78
g59
NtRp114
(dp115
g62
(dp116
sg71
g101
sg64
(lp117
g57
(g58
g59
NtRp118
(dp119
g62
(dp120
g70
I5
ssg71
g114
sg64
(lp121
S'app1'
p122
asbasbasbag57
(g73
g59
NtRp123
(dp124
g62
(dp125
sg71
g67
sg64
(lp126
g57
(g78
g59
NtRp127
(dp128
g62
(dp129
g82
g83
ssg71
g123
sg64
(lp130
g24
asbag57
(g78
g59
NtRp131
(dp132
g62
(dp133
g89
g90
ssg71
g123
sg64
(lp134
S':'
asbag57
(g78
g59
NtRp135
(dp136
g62
(dp137
sg71
g123
sg64
(lp138
g57
(g58
g59
NtRp139
(dp140
g62
(dp141
g70
I5
ssg71
g135
sg64
(lp142
g57
(g66
g59
NtRp143
(dp144
g62
(dp145
g70
I4
ssg71
Nsg64
(lp146
sbasbasbasbag57
(g73
g59
NtRp147
(dp148
g62
(dp149
sg71
g67
sg64
(lp150
g57
(g78
g59
NtRp151
(dp152
g62
(dp153
g82
g83
ssg71
g147
sg64
(lp154
S'body'
p155
asbag57
(g78
g59
NtRp156
(dp157
g62
(dp158
g89
g90
ssg71
g147
sg64
(lp159
S':'
asbag57
(g78
g59
NtRp160
(dp161
g62
(dp162
sg71
g147
sg64
(lp163
g57
(g58
g59
NtRp164
(dp165
g62
(dp166
g70
I5
ssg71
g160
sg64
(lp167
S'<cStringIO.StringO object at 0x7fb4645ae538>'
p168
asbasbasbag57
(g73
g59
NtRp169
(dp170
g62
(dp171
sg71
g67
sg64
(lp172
g57
(g78
g59
NtRp173
(dp174
g62
(dp175
g82
g83
ssg71
g169
sg64
(lp176
S'client'
p177
asbag57
(g78
g59
NtRp178
(dp179
g62
(dp180
g89
g90
ssg71
g169
sg64
(lp181
S':'
asbag57
(g78
g59
NtRp182
(dp183
g62
(dp184
sg71
g169
sg64
(lp185
g57
(g58
g59
NtRp186
(dp187
g62
(dp188
g70
I5
ssg71
g182
sg64
(lp189
S'127.0.0.1'
p190
asbasbasbag57
(g73
g59
NtRp191
(dp192
g62
(dp193
sg71
g67
sg64
(lp194
g57
(g78
g59
NtRp195
(dp196
g62
(dp197
g82
g83
ssg71
g191
sg64
(lp198
S'controller'
p199
asbag57
(g78
g59
NtRp200
(dp201
g62
(dp202
g89
g90
ssg71
g191
sg64
(lp203
S':'
asbag57
(g78
g59
NtRp204
(dp205
g62
(dp206
sg71
g191
sg64
(lp207
g57
(g58
g59
NtRp208
(dp209
g62
(dp210
g70
I5
ssg71
g204
sg64
(lp211
S'default'
p212
asbasbasbag57
(g73
g59
NtRp213
(dp214
g62
(dp215
sg71
g67
sg64
(lp216
g57
(g78
g59
NtRp217
(dp218
g62
(dp219
g82
g83
ssg71
g213
sg64
(lp220
S'cookies'
p221
asbag57
(g78
g59
NtRp222
(dp223
g62
(dp224
g89
g90
ssg71
g213
sg64
(lp225
S':'
asbag57
(g78
g59
NtRp226
(dp227
g62
(dp228
sg71
g213
sg64
(lp229
g57
(g58
g59
NtRp230
(dp231
g62
(dp232
g70
I5
ssg71
g226
sg64
(lp233
g57
(g66
g59
NtRp234
(dp235
g62
(dp236
g70
I4
ssg71
Nsg64
(lp237
g57
(g73
g59
NtRp238
(dp239
g62
(dp240
sg71
g234
sg64
(lp241
g57
(g78
g59
NtRp242
(dp243
g62
(dp244
g82
g83
ssg71
g238
sg64
(lp245
S'session_id_admin'
p246
asbag57
(g78
g59
NtRp247
(dp248
g62
(dp249
g89
g90
ssg71
g238
sg64
(lp250
S':'
asbag57
(g78
g59
NtRp251
(dp252
g62
(dp253
sg71
g238
sg64
(lp254
g57
(g58
g59
NtRp255
(dp256
g62
(dp257
g70
I4
ssg71
g251
sg64
(lp258
g57
(g66
g59
NtRp259
(dp260
g62
(dp261
g70
I3
ssg71
Nsg64
(lp262
g57
(g73
g59
NtRp263
(dp264
g62
(dp265
sg71
g259
sg64
(lp266
g57
(g78
g59
NtRp267
(dp268
g62
(dp269
g82
g83
ssg71
g263
sg64
(lp270
S'comment'
p271
asbag57
(g78
g59
NtRp272
(dp273
g62
(dp274
g89
g90
ssg71
g263
sg64
(lp275
S':'
asbag57
(g78
g59
NtRp276
(dp277
g62
(dp278
sg71
g263
sg64
(lp279
g57
(g58
g59
NtRp280
(dp281
g62
(dp282
g70
I3
ssg71
g276
sg64
(lp283
S''
asbasbasbag57
(g73
g59
NtRp284
(dp285
g62
(dp286
sg71
g259
sg64
(lp287
g57
(g78
g59
NtRp288
(dp289
g62
(dp290
g82
g83
ssg71
g284
sg64
(lp291
S'domain'
p292
asbag57
(g78
g59
NtRp293
(dp294
g62
(dp295
g89
g90
ssg71
g284
sg64
(lp296
S':'
asbag57
(g78
g59
NtRp297
(dp298
g62
(dp299
sg71
g284
sg64
(lp300
g57
(g58
g59
NtRp301
(dp302
g62
(dp303
g70
I3
ssg71
g297
sg64
(lp304
S''
asbasbasbag57
(g73
g59
NtRp305
(dp306
g62
(dp307
sg71
g259
sg64
(lp308
g57
(g78
g59
NtRp309
(dp310
g62
(dp311
g82
g83
ssg71
g305
sg64
(lp312
S'expires'
p313
asbag57
(g78
g59
NtRp314
(dp315
g62
(dp316
g89
g90
ssg71
g305
sg64
(lp317
S':'
asbag57
(g78
g59
NtRp318
(dp319
g62
(dp320
sg71
g305
sg64
(lp321
g57
(g58
g59
NtRp322
(dp323
g62
(dp324
g70
I3
ssg71
g318
sg64
(lp325
S''
asbasbasbag57
(g73
g59
NtRp326
(dp327
g62
(dp328
sg71
g259
sg64
(lp329
g57
(g78
g59
NtRp330
(dp331
g62
(dp332
g82
g83
ssg71
g326
sg64
(lp333
S'httponly'
p334
asbag57
(g78
g59
NtRp335
(dp336
g62
(dp337
g89
g90
ssg71
g326
sg64
(lp338
S':'
asbag57
(g78
g59
NtRp339
(dp340
g62
(dp341
sg71
g326
sg64
(lp342
g57
(g58
g59
NtRp343
(dp344
g62
(dp345
g70
I3
ssg71
g339
sg64
(lp346
S''
asbasbasbag57
(g73
g59
NtRp347
(dp348
g62
(dp349
sg71
g259
sg64
(lp350
g57
(g78
g59
NtRp351
(dp352
g62
(dp353
g82
g83
ssg71
g347
sg64
(lp354
S'max-age'
p355
asbag57
(g78
g59
NtRp356
(dp357
g62
(dp358
g89
g90
ssg71
g347
sg64
(lp359
S':'
asbag57
(g78
g59
NtRp360
(dp361
g62
(dp362
sg71
g347
sg64
(lp363
g57
(g58
g59
NtRp364
(dp365
g62
(dp366
g70
I3
ssg71
g360
sg64
(lp367
S''
asbasbasbag57
(g73
g59
NtRp368
(dp369
g62
(dp370
sg71
g259
sg64
(lp371
g57
(g78
g59
NtRp372
(dp373
g62
(dp374
g82
g83
ssg71
g368
sg64
(lp375
S'path'
p376
asbag57
(g78
g59
NtRp377
(dp378
g62
(dp379
g89
g90
ssg71
g368
sg64
(lp380
S':'
asbag57
(g78
g59
NtRp381
(dp382
g62
(dp383
sg71
g368
sg64
(lp384
g57
(g58
g59
NtRp385
(dp386
g62
(dp387
g70
I3
ssg71
g381
sg64
(lp388
S''
asbasbasbag57
(g73
g59
NtRp389
(dp390
g62
(dp391
sg71
g259
sg64
(lp392
g57
(g78
g59
NtRp393
(dp394
g62
(dp395
g82
g83
ssg71
g389
sg64
(lp396
S'secure'
p397
asbag57
(g78
g59
NtRp398
(dp399
g62
(dp400
g89
g90
ssg71
g389
sg64
(lp401
S':'
asbag57
(g78
g59
NtRp402
(dp403
g62
(dp404
sg71
g389
sg64
(lp405
g57
(g58
g59
NtRp406
(dp407
g62
(dp408
g70
I3
ssg71
g402
sg64
(lp409
S''
asbasbasbag57
(g73
g59
NtRp410
(dp411
g62
(dp412
sg71
g259
sg64
(lp413
g57
(g78
g59
NtRp414
(dp415
g62
(dp416
g82
g83
ssg71
g410
sg64
(lp417
S'version'
p418
asbag57
(g78
g59
NtRp419
(dp420
g62
(dp421
g89
g90
ssg71
g410
sg64
(lp422
S':'
asbag57
(g78
g59
NtRp423
(dp424
g62
(dp425
sg71
g410
sg64
(lp426
g57
(g58
g59
NtRp427
(dp428
g62
(dp429
g70
I3
ssg71
g423
sg64
(lp430
S''
asbasbasbasbasbasbasbag57
(g73
g59
NtRp431
(dp432
g62
(dp433
sg71
g234
sg64
(lp434
g57
(g78
g59
NtRp435
(dp436
g62
(dp437
g82
g83
ssg71
g431
sg64
(lp438
S'session_id_app1'
p439
asbag57
(g78
g59
NtRp440
(dp441
g62
(dp442
g89
g90
ssg71
g431
sg64
(lp443
S':'
asbag57
(g78
g59
NtRp444
(dp445
g62
(dp446
sg71
g431
sg64
(lp447
g57
(g58
g59
NtRp448
(dp449
g62
(dp450
g70
I4
ssg71
g444
sg64
(lp451
g57
(g66
g59
NtRp452
(dp453
g62
(dp454
g70
I3
ssg71
Nsg64
(lp455
g57
(g73
g59
NtRp456
(dp457
g62
(dp458
sg71
g452
sg64
(lp459
g57
(g78
g59
NtRp460
(dp461
g62
(dp462
g82
g83
ssg71
g456
sg64
(lp463
g271
asbag57
(g78
g59
NtRp464
(dp465
g62
(dp466
g89
g90
ssg71
g456
sg64
(lp467
S':'
asbag57
(g78
g59
NtRp468
(dp469
g62
(dp470
sg71
g456
sg64
(lp471
g57
(g58
g59
NtRp472
(dp473
g62
(dp474
g70
I3
ssg71
g468
sg64
(lp475
S''
asbasbasbag57
(g73
g59
NtRp476
(dp477
g62
(dp478
sg71
g452
sg64
(lp479
g57
(g78
g59
NtRp480
(dp481
g62
(dp482
g82
g83
ssg71
g476
sg64
(lp483
g292
asbag57
(g78
g59
NtRp484
(dp485
g62
(dp486
g89
g90
ssg71
g476
sg64
(lp487
S':'
asbag57
(g78
g59
NtRp488
(dp489
g62
(dp490
sg71
g476
sg64
(lp491
g57
(g58
g59
NtRp492
(dp493
g62
(dp494
g70
I3
ssg71
g488
sg64
(lp495
S''
asbasbasbag57
(g73
g59
NtRp496
(dp497
g62
(dp498
sg71
g452
sg64
(lp499
g57
(g78
g59
NtRp500
(dp501
g62
(dp502
g82
g83
ssg71
g496
sg64
(lp503
g313
asbag57
(g78
g59
NtRp504
(dp505
g62
(dp506
g89
g90
ssg71
g496
sg64
(lp507
S':'
asbag57
(g78
g59
NtRp508
(dp509
g62
(dp510
sg71
g496
sg64
(lp511
g57
(g58
g59
NtRp512
(dp513
g62
(dp514
g70
I3
ssg71
g508
sg64
(lp515
S''
asbasbasbag57
(g73
g59
NtRp516
(dp517
g62
(dp518
sg71
g452
sg64
(lp519
g57
(g78
g59
NtRp520
(dp521
g62
(dp522
g82
g83
ssg71
g516
sg64
(lp523
g334
asbag57
(g78
g59
NtRp524
(dp525
g62
(dp526
g89
g90
ssg71
g516
sg64
(lp527
S':'
asbag57
(g78
g59
NtRp528
(dp529
g62
(dp530
sg71
g516
sg64
(lp531
g57
(g58
g59
NtRp532
(dp533
g62
(dp534
g70
I3
ssg71
g528
sg64
(lp535
S''
asbasbasbag57
(g73
g59
NtRp536
(dp537
g62
(dp538
sg71
g452
sg64
(lp539
g57
(g78
g59
NtRp540
(dp541
g62
(dp542
g82
g83
ssg71
g536
sg64
(lp543
g355
asbag57
(g78
g59
NtRp544
(dp545
g62
(dp546
g89
g90
ssg71
g536
sg64
(lp547
S':'
asbag57
(g78
g59
NtRp548
(dp549
g62
(dp550
sg71
g536
sg64
(lp551
g57
(g58
g59
NtRp552
(dp553
g62
(dp554
g70
I3
ssg71
g548
sg64
(lp555
S''
asbasbasbag57
(g73
g59
NtRp556
(dp557
g62
(dp558
sg71
g452
sg64
(lp559
g57
(g78
g59
NtRp560
(dp561
g62
(dp562
g82
g83
ssg71
g556
sg64
(lp563
g376
asbag57
(g78
g59
NtRp564
(dp565
g62
(dp566
g89
g90
ssg71
g556
sg64
(lp567
S':'
asbag57
(g78
g59
NtRp568
(dp569
g62
(dp570
sg71
g556
sg64
(lp571
g57
(g58
g59
NtRp572
(dp573
g62
(dp574
g70
I3
ssg71
g568
sg64
(lp575
S''
asbasbasbag57
(g73
g59
NtRp576
(dp577
g62
(dp578
sg71
g452
sg64
(lp579
g57
(g78
g59
NtRp580
(dp581
g62
(dp582
g82
g83
ssg71
g576
sg64
(lp583
g397
asbag57
(g78
g59
NtRp584
(dp585
g62
(dp586
g89
g90
ssg71
g576
sg64
(lp587
S':'
asbag57
(g78
g59
NtRp588
(dp589
g62
(dp590
sg71
g576
sg64
(lp591
g57
(g58
g59
NtRp592
(dp593
g62
(dp594
g70
I3
ssg71
g588
sg64
(lp595
S''
asbasbasbag57
(g73
g59
NtRp596
(dp597
g62
(dp598
sg71
g452
sg64
(lp599
g57
(g78
g59
NtRp600
(dp601
g62
(dp602
g82
g83
ssg71
g596
sg64
(lp603
g418
asbag57
(g78
g59
NtRp604
(dp605
g62
(dp606
g89
g90
ssg71
g596
sg64
(lp607
S':'
asbag57
(g78
g59
NtRp608
(dp609
g62
(dp610
sg71
g596
sg64
(lp611
g57
(g58
g59
NtRp612
(dp613
g62
(dp614
g70
I3
ssg71
g608
sg64
(lp615
S''
asbasbasbasbasbasbasbag57
(g73
g59
NtRp616
(dp617
g62
(dp618
sg71
g234
sg64
(lp619
g57
(g78
g59
NtRp620
(dp621
g62
(dp622
g82
g83
ssg71
g616
sg64
(lp623
S'session_id_welcome'
p624
asbag57
(g78
g59
NtRp625
(dp626
g62
(dp627
g89
g90
ssg71
g616
sg64
(lp628
S':'
asbag57
(g78
g59
NtRp629
(dp630
g62
(dp631
sg71
g616
sg64
(lp632
g57
(g58
g59
NtRp633
(dp634
g62
(dp635
g70
I4
ssg71
g629
sg64
(lp636
g57
(g66
g59
NtRp637
(dp638
g62
(dp639
g70
I3
ssg71
Nsg64
(lp640
g57
(g73
g59
NtRp641
(dp642
g62
(dp643
sg71
g637
sg64
(lp644
g57
(g78
g59
NtRp645
(dp646
g62
(dp647
g82
g83
ssg71
g641
sg64
(lp648
g271
asbag57
(g78
g59
NtRp649
(dp650
g62
(dp651
g89
g90
ssg71
g641
sg64
(lp652
S':'
asbag57
(g78
g59
NtRp653
(dp654
g62
(dp655
sg71
g641
sg64
(lp656
g57
(g58
g59
NtRp657
(dp658
g62
(dp659
g70
I3
ssg71
g653
sg64
(lp660
S''
asbasbasbag57
(g73
g59
NtRp661
(dp662
g62
(dp663
sg71
g637
sg64
(lp664
g57
(g78
g59
NtRp665
(dp666
g62
(dp667
g82
g83
ssg71
g661
sg64
(lp668
g292
asbag57
(g78
g59
NtRp669
(dp670
g62
(dp671
g89
g90
ssg71
g661
sg64
(lp672
S':'
asbag57
(g78
g59
NtRp673
(dp674
g62
(dp675
sg71
g661
sg64
(lp676
g57
(g58
g59
NtRp677
(dp678
g62
(dp679
g70
I3
ssg71
g673
sg64
(lp680
S''
asbasbasbag57
(g73
g59
NtRp681
(dp682
g62
(dp683
sg71
g637
sg64
(lp684
g57
(g78
g59
NtRp685
(dp686
g62
(dp687
g82
g83
ssg71
g681
sg64
(lp688
g313
asbag57
(g78
g59
NtRp689
(dp690
g62
(dp691
g89
g90
ssg71
g681
sg64
(lp692
S':'
asbag57
(g78
g59
NtRp693
(dp694
g62
(dp695
sg71
g681
sg64
(lp696
g57
(g58
g59
NtRp697
(dp698
g62
(dp699
g70
I3
ssg71
g693
sg64
(lp700
S''
asbasbasbag57
(g73
g59
NtRp701
(dp702
g62
(dp703
sg71
g637
sg64
(lp704
g57
(g78
g59
NtRp705
(dp706
g62
(dp707
g82
g83
ssg71
g701
sg64
(lp708
g334
asbag57
(g78
g59
NtRp709
(dp710
g62
(dp711
g89
g90
ssg71
g701
sg64
(lp712
S':'
asbag57
(g78
g59
NtRp713
(dp714
g62
(dp715
sg71
g701
sg64
(lp716
g57
(g58
g59
NtRp717
(dp718
g62
(dp719
g70
I3
ssg71
g713
sg64
(lp720
S''
asbasbasbag57
(g73
g59
NtRp721
(dp722
g62
(dp723
sg71
g637
sg64
(lp724
g57
(g78
g59
NtRp725
(dp726
g62
(dp727
g82
g83
ssg71
g721
sg64
(lp728
g355
asbag57
(g78
g59
NtRp729
(dp730
g62
(dp731
g89
g90
ssg71
g721
sg64
(lp732
S':'
asbag57
(g78
g59
NtRp733
(dp734
g62
(dp735
sg71
g721
sg64
(lp736
g57
(g58
g59
NtRp737
(dp738
g62
(dp739
g70
I3
ssg71
g733
sg64
(lp740
S''
asbasbasbag57
(g73
g59
NtRp741
(dp742
g62
(dp743
sg71
g637
sg64
(lp744
g57
(g78
g59
NtRp745
(dp746
g62
(dp747
g82
g83
ssg71
g741
sg64
(lp748
g376
asbag57
(g78
g59
NtRp749
(dp750
g62
(dp751
g89
g90
ssg71
g741
sg64
(lp752
S':'
asbag57
(g78
g59
NtRp753
(dp754
g62
(dp755
sg71
g741
sg64
(lp756
g57
(g58
g59
NtRp757
(dp758
g62
(dp759
g70
I3
ssg71
g753
sg64
(lp760
S''
asbasbasbag57
(g73
g59
NtRp761
(dp762
g62
(dp763
sg71
g637
sg64
(lp764
g57
(g78
g59
NtRp765
(dp766
g62
(dp767
g82
g83
ssg71
g761
sg64
(lp768
g397
asbag57
(g78
g59
NtRp769
(dp770
g62
(dp771
g89
g90
ssg71
g761
sg64
(lp772
S':'
asbag57
(g78
g59
NtRp773
(dp774
g62
(dp775
sg71
g761
sg64
(lp776
g57
(g58
g59
NtRp777
(dp778
g62
(dp779
g70
I3
ssg71
g773
sg64
(lp780
S''
asbasbasbag57
(g73
g59
NtRp781
(dp782
g62
(dp783
sg71
g637
sg64
(lp784
g57
(g78
g59
NtRp785
(dp786
g62
(dp787
g82
g83
ssg71
g781
sg64
(lp788
g418
asbag57
(g78
g59
NtRp789
(dp790
g62
(dp791
g89
g90
ssg71
g781
sg64
(lp792
S':'
asbag57
(g78
g59
NtRp793
(dp794
g62
(dp795
sg71
g781
sg64
(lp796
g57
(g58
g59
NtRp797
(dp798
g62
(dp799
g70
I3
ssg71
g793
sg64
(lp800
S''
asbasbasbasbasbasbasbasbasbasbasbag57
(g73
g59
NtRp801
(dp802
g62
(dp803
sg71
g67
sg64
(lp804
g57
(g78
g59
NtRp805
(dp806
g62
(dp807
g82
g83
ssg71
g801
sg64
(lp808
S'env'
p809
asbag57
(g78
g59
NtRp810
(dp811
g62
(dp812
g89
g90
ssg71
g801
sg64
(lp813
S':'
asbag57
(g78
g59
NtRp814
(dp815
g62
(dp816
sg71
g801
sg64
(lp817
g57
(g58
g59
NtRp818
(dp819
g62
(dp820
g70
I5
ssg71
g814
sg64
(lp821
g57
(g66
g59
NtRp822
(dp823
g62
(dp824
g70
I4
ssg71
Nsg64
(lp825
g57
(g73
g59
NtRp826
(dp827
g62
(dp828
sg71
g822
sg64
(lp829
g57
(g78
g59
NtRp830
(dp831
g62
(dp832
g82
g83
ssg71
g826
sg64
(lp833
S'app_folders'
p834
asbag57
(g78
g59
NtRp835
(dp836
g62
(dp837
g89
g90
ssg71
g826
sg64
(lp838
S':'
asbag57
(g78
g59
NtRp839
(dp840
g62
(dp841
sg71
g826
sg64
(lp842
g57
(g58
g59
NtRp843
(dp844
g62
(dp845
g70
I4
ssg71
g839
sg64
(lp846
S"set(['/home/jigar/web2py/applications/welcome/', '/home/jigar/web2py/applications/admin/', '/home/jigar/web2py/applications/app1/'])"
p847
asbasbasbag57
(g73
g59
NtRp848
(dp849
g62
(dp850
sg71
g822
sg64
(lp851
g57
(g78
g59
NtRp852
(dp853
g62
(dp854
g82
g83
ssg71
g848
sg64
(lp855
S'applications_parent'
p856
asbag57
(g78
g59
NtRp857
(dp858
g62
(dp859
g89
g90
ssg71
g848
sg64
(lp860
S':'
asbag57
(g78
g59
NtRp861
(dp862
g62
(dp863
sg71
g848
sg64
(lp864
g57
(g58
g59
NtRp865
(dp866
g62
(dp867
g70
I4
ssg71
g861
sg64
(lp868
S'/home/jigar/web2py'
p869
asbasbasbag57
(g73
g59
NtRp870
(dp871
g62
(dp872
sg71
g822
sg64
(lp873
g57
(g78
g59
NtRp874
(dp875
g62
(dp876
g82
g83
ssg71
g870
sg64
(lp877
S'cmd_args'
p878
asbag57
(g78
g59
NtRp879
(dp880
g62
(dp881
g89
g90
ssg71
g870
sg64
(lp882
S':'
asbag57
(g78
g59
NtRp883
(dp884
g62
(dp885
sg71
g870
sg64
(lp886
g57
(g58
g59
NtRp887
(dp888
g62
(dp889
g70
I4
ssg71
g883
sg64
(lp890
g57
(g66
g59
NtRp891
(dp892
g62
(dp893
g70
I3
ssg71
Nsg64
(lp894
sbasbasbasbag57
(g73
g59
NtRp895
(dp896
g62
(dp897
sg71
g822
sg64
(lp898
g57
(g78
g59
NtRp899
(dp900
g62
(dp901
g82
g83
ssg71
g895
sg64
(lp902
S'cmd_options'
p903
asbag57
(g78
g59
NtRp904
(dp905
g62
(dp906
g89
g90
ssg71
g895
sg64
(lp907
S':'
asbag57
(g78
g59
NtRp908
(dp909
g62
(dp910
sg71
g895
sg64
(lp911
g57
(g58
g59
NtRp912
(dp913
g62
(dp914
g70
I4
ssg71
g908
sg64
(lp915
S"<Values at 0x2fd1c20: {'verbose': False, 'ip': '127.0.0.1', 'shutdown_timeout': 5, 'taskbar': False, 'port': 8000, 'maxthreads': None, 'softcron': False, 'server_name': 'jigar-Lenovo-Z580', 'bpython': False, 'nogui': False, 'nocron': False, 'extcron': False, 'debuglevel': 30, 'test': None, 'folder': '/home/jigar/web2py', 'config': '', 'import_models': False, 'winservice': '', 'shell': None, 'run': '', 'log_filename': 'httpserver.log', 'args': [''], 'socket_timeout': 1, 'profiler_filename': None, 'ssl_private_key': '', 'password': '<ask>', 'request_queue_size': 5, 'ssl_certificate': '', 'cronjob': False, 'plain': False, 'quiet': False, 'interfaces': None, 'minthreads': None, 'timeout': 10, 'numthreads': None, 'nobanner': False, 'pid_filename': 'httpserver.pid'}>"
p916
asbasbasbag57
(g73
g59
NtRp917
(dp918
g62
(dp919
sg71
g822
sg64
(lp920
g57
(g78
g59
NtRp921
(dp922
g62
(dp923
g82
g83
ssg71
g917
sg64
(lp924
S'db_sessions'
p925
asbag57
(g78
g59
NtRp926
(dp927
g62
(dp928
g89
g90
ssg71
g917
sg64
(lp929
S':'
asbag57
(g78
g59
NtRp930
(dp931
g62
(dp932
sg71
g917
sg64
(lp933
g57
(g58
g59
NtRp934
(dp935
g62
(dp936
g70
I4
ssg71
g930
sg64
(lp937
S'set([])'
p938
asbasbasbag57
(g73
g59
NtRp939
(dp940
g62
(dp941
sg71
g822
sg64
(lp942
g57
(g78
g59
NtRp943
(dp944
g62
(dp945
g82
g83
ssg71
g939
sg64
(lp946
S'debugging'
p947
asbag57
(g78
g59
NtRp948
(dp949
g62
(dp950
g89
g90
ssg71
g939
sg64
(lp951
S':'
asbag57
(g78
g59
NtRp952
(dp953
g62
(dp954
sg71
g939
sg64
(lp955
g57
(g58
g59
NtRp956
(dp957
g62
(dp958
g70
I4
ssg71
g952
sg64
(lp959
g100
asbasbasbag57
(g73
g59
NtRp960
(dp961
g62
(dp962
sg71
g822
sg64
(lp963
g57
(g78
g59
NtRp964
(dp965
g62
(dp966
g82
g83
ssg71
g960
sg64
(lp967
S'gluon_parent'
p968
asbag57
(g78
g59
NtRp969
(dp970
g62
(dp971
g89
g90
ssg71
g960
sg64
(lp972
S':'
asbag57
(g78
g59
NtRp973
(dp974
g62
(dp975
sg71
g960
sg64
(lp976
g57
(g58
g59
NtRp977
(dp978
g62
(dp979
g70
I4
ssg71
g973
sg64
(lp980
S'/usr/share/web2py'
p981
asbasbasbag57
(g73
g59
NtRp982
(dp983
g62
(dp984
sg71
g822
sg64
(lp985
g57
(g78
g59
NtRp986
(dp987
g62
(dp988
g82
g83
ssg71
g982
sg64
(lp989
S'http_accept'
p990
asbag57
(g78
g59
NtRp991
(dp992
g62
(dp993
g89
g90
ssg71
g982
sg64
(lp994
S':'
asbag57
(g78
g59
NtRp995
(dp996
g62
(dp997
sg71
g982
sg64
(lp998
g57
(g58
g59
NtRp999
(dp1000
g62
(dp1001
g70
I4
ssg71
g995
sg64
(lp1002
S'text/html,application/xhtml+xml,application/xml;q=0.9,*/*;q=0.8'
p1003
asbasbasbag57
(g73
g59
NtRp1004
(dp1005
g62
(dp1006
sg71
g822
sg64
(lp1007
g57
(g78
g59
NtRp1008
(dp1009
g62
(dp1010
g82
g83
ssg71
g1004
sg64
(lp1011
S'http_accept_encoding'
p1012
asbag57
(g78
g59
NtRp1013
(dp1014
g62
(dp1015
g89
g90
ssg71
g1004
sg64
(lp1016
S':'
asbag57
(g78
g59
NtRp1017
(dp1018
g62
(dp1019
sg71
g1004
sg64
(lp1020
g57
(g58
g59
NtRp1021
(dp1022
g62
(dp1023
g70
I4
ssg71
g1017
sg64
(lp1024
S'gzip, deflate'
p1025
asbasbasbag57
(g73
g59
NtRp1026
(dp1027
g62
(dp1028
sg71
g822
sg64
(lp1029
g57
(g78
g59
NtRp1030
(dp1031
g62
(dp1032
g82
g83
ssg71
g1026
sg64
(lp1033
S'http_accept_language'
p1034
asbag57
(g78
g59
NtRp1035
(dp1036
g62
(dp1037
g89
g90
ssg71
g1026
sg64
(lp1038
S':'
asbag57
(g78
g59
NtRp1039
(dp1040
g62
(dp1041
sg71
g1026
sg64
(lp1042
g57
(g58
g59
NtRp1043
(dp1044
g62
(dp1045
g70
I4
ssg71
g1039
sg64
(lp1046
S'en-US,en;q=0.5'
p1047
asbasbasbag57
(g73
g59
NtRp1048
(dp1049
g62
(dp1050
sg71
g822
sg64
(lp1051
g57
(g78
g59
NtRp1052
(dp1053
g62
(dp1054
g82
g83
ssg71
g1048
sg64
(lp1055
S'http_cache_control'
p1056
asbag57
(g78
g59
NtRp1057
(dp1058
g62
(dp1059
g89
g90
ssg71
g1048
sg64
(lp1060
S':'
asbag57
(g78
g59
NtRp1061
(dp1062
g62
(dp1063
sg71
g1048
sg64
(lp1064
g57
(g58
g59
NtRp1065
(dp1066
g62
(dp1067
g70
I4
ssg71
g1061
sg64
(lp1068
S'max-age=0'
p1069
asbasbasbag57
(g73
g59
NtRp1070
(dp1071
g62
(dp1072
sg71
g822
sg64
(lp1073
g57
(g78
g59
NtRp1074
(dp1075
g62
(dp1076
g82
g83
ssg71
g1070
sg64
(lp1077
S'http_connection'
p1078
asbag57
(g78
g59
NtRp1079
(dp1080
g62
(dp1081
g89
g90
ssg71
g1070
sg64
(lp1082
S':'
asbag57
(g78
g59
NtRp1083
(dp1084
g62
(dp1085
sg71
g1070
sg64
(lp1086
g57
(g58
g59
NtRp1087
(dp1088
g62
(dp1089
g70
I4
ssg71
g1083
sg64
(lp1090
S'keep-alive'
p1091
asbasbasbag57
(g73
g59
NtRp1092
(dp1093
g62
(dp1094
sg71
g822
sg64
(lp1095
g57
(g78
g59
NtRp1096
(dp1097
g62
(dp1098
g82
g83
ssg71
g1092
sg64
(lp1099
S'http_cookie'
p1100
asbag57
(g78
g59
NtRp1101
(dp1102
g62
(dp1103
g89
g90
ssg71
g1092
sg64
(lp1104
S':'
asbag57
(g78
g59
NtRp1105
(dp1106
g62
(dp1107
sg71
g1092
sg64
(lp1108
g57
(g58
g59
NtRp1109
(dp1110
g62
(dp1111
g70
I4
ssg71
g1105
sg64
(lp1112
S'session_id_welcome=127.0.0.1-0f223b6f-37a0-4134-96f9-344b5b82abf2; session_id_admin=127.0.0.1-9d94419c-3c0e-43d2-aae5-f86b38fccfce; session_id_app1=127.0.0.1-a7d133f4-acec-437f-a963-db7b5b722c49'
p1113
asbasbasbag57
(g73
g59
NtRp1114
(dp1115
g62
(dp1116
sg71
g822
sg64
(lp1117
g57
(g78
g59
NtRp1118
(dp1119
g62
(dp1120
g82
g83
ssg71
g1114
sg64
(lp1121
S'http_host'
p1122
asbag57
(g78
g59
NtRp1123
(dp1124
g62
(dp1125
g89
g90
ssg71
g1114
sg64
(lp1126
S':'
asbag57
(g78
g59
NtRp1127
(dp1128
g62
(dp1129
sg71
g1114
sg64
(lp1130
g57
(g58
g59
NtRp1131
(dp1132
g62
(dp1133
g70
I4
ssg71
g1127
sg64
(lp1134
S'127.0.0.1:8000'
p1135
asbasbasbag57
(g73
g59
NtRp1136
(dp1137
g62
(dp1138
sg71
g822
sg64
(lp1139
g57
(g78
g59
NtRp1140
(dp1141
g62
(dp1142
g82
g83
ssg71
g1136
sg64
(lp1143
S'http_referer'
p1144
asbag57
(g78
g59
NtRp1145
(dp1146
g62
(dp1147
g89
g90
ssg71
g1136
sg64
(lp1148
S':'
asbag57
(g78
g59
NtRp1149
(dp1150
g62
(dp1151
sg71
g1136
sg64
(lp1152
g57
(g58
g59
NtRp1153
(dp1154
g62
(dp1155
g70
I4
ssg71
g1149
sg64
(lp1156
S'http://127.0.0.1:8000/app1/default/lall'
p1157
asbasbasbag57
(g73
g59
NtRp1158
(dp1159
g62
(dp1160
sg71
g822
sg64
(lp1161
g57
(g78
g59
NtRp1162
(dp1163
g62
(dp1164
g82
g83
ssg71
g1158
sg64
(lp1165
S'http_user_agent'
p1166
asbag57
(g78
g59
NtRp1167
(dp1168
g62
(dp1169
g89
g90
ssg71
g1158
sg64
(lp1170
S':'
asbag57
(g78
g59
NtRp1171
(dp1172
g62
(dp1173
sg71
g1158
sg64
(lp1174
g57
(g58
g59
NtRp1175
(dp1176
g62
(dp1177
g70
I4
ssg71
g1171
sg64
(lp1178
S'Mozilla/5.0 (X11; Ubuntu; Linux x86_64; rv:23.0) Gecko/20100101 Firefox/23.0'
p1179
asbasbasbag57
(g73
g59
NtRp1180
(dp1181
g62
(dp1182
sg71
g822
sg64
(lp1183
g57
(g78
g59
NtRp1184
(dp1185
g62
(dp1186
g82
g83
ssg71
g1180
sg64
(lp1187
S'is_jython'
p1188
asbag57
(g78
g59
NtRp1189
(dp1190
g62
(dp1191
g89
g90
ssg71
g1180
sg64
(lp1192
S':'
asbag57
(g78
g59
NtRp1193
(dp1194
g62
(dp1195
sg71
g1180
sg64
(lp1196
g57
(g58
g59
NtRp1197
(dp1198
g62
(dp1199
g70
I4
ssg71
g1193
sg64
(lp1200
g100
asbasbasbag57
(g73
g59
NtRp1201
(dp1202
g62
(dp1203
sg71
g822
sg64
(lp1204
g57
(g78
g59
NtRp1205
(dp1206
g62
(dp1207
g82
g83
ssg71
g1201
sg64
(lp1208
S'is_pypy'
p1209
asbag57
(g78
g59
NtRp1210
(dp1211
g62
(dp1212
g89
g90
ssg71
g1201
sg64
(lp1213
S':'
asbag57
(g78
g59
NtRp1214
(dp1215
g62
(dp1216
sg71
g1201
sg64
(lp1217
g57
(g58
g59
NtRp1218
(dp1219
g62
(dp1220
g70
I4
ssg71
g1214
sg64
(lp1221
g100
asbasbasbag57
(g73
g59
NtRp1222
(dp1223
g62
(dp1224
sg71
g822
sg64
(lp1225
g57
(g78
g59
NtRp1226
(dp1227
g62
(dp1228
g82
g83
ssg71
g1222
sg64
(lp1229
S'path_info'
p1230
asbag57
(g78
g59
NtRp1231
(dp1232
g62
(dp1233
g89
g90
ssg71
g1222
sg64
(lp1234
S':'
asbag57
(g78
g59
NtRp1235
(dp1236
g62
(dp1237
sg71
g1222
sg64
(lp1238
g57
(g58
g59
NtRp1239
(dp1240
g62
(dp1241
g70
I4
ssg71
g1235
sg64
(lp1242
S'/app1/default/index'
p1243
asbasbasbag57
(g73
g59
NtRp1244
(dp1245
g62
(dp1246
sg71
g822
sg64
(lp1247
g57
(g78
g59
NtRp1248
(dp1249
g62
(dp1250
g82
g83
ssg71
g1244
sg64
(lp1251
S'query_string'
p1252
asbag57
(g78
g59
NtRp1253
(dp1254
g62
(dp1255
g89
g90
ssg71
g1244
sg64
(lp1256
S':'
asbag57
(g78
g59
NtRp1257
(dp1258
g62
(dp1259
sg71
g1244
sg64
(lp1260
g57
(g58
g59
NtRp1261
(dp1262
g62
(dp1263
g70
I4
ssg71
g1257
sg64
(lp1264
S''
asbasbasbag57
(g73
g59
NtRp1265
(dp1266
g62
(dp1267
sg71
g822
sg64
(lp1268
g57
(g78
g59
NtRp1269
(dp1270
g62
(dp1271
g82
g83
ssg71
g1265
sg64
(lp1272
S'remote_addr'
p1273
asbag57
(g78
g59
NtRp1274
(dp1275
g62
(dp1276
g89
g90
ssg71
g1265
sg64
(lp1277
S':'
asbag57
(g78
g59
NtRp1278
(dp1279
g62
(dp1280
sg71
g1265
sg64
(lp1281
g57
(g58
g59
NtRp1282
(dp1283
g62
(dp1284
g70
I4
ssg71
g1278
sg64
(lp1285
g190
asbasbasbag57
(g73
g59
NtRp1286
(dp1287
g62
(dp1288
sg71
g822
sg64
(lp1289
g57
(g78
g59
NtRp1290
(dp1291
g62
(dp1292
g82
g83
ssg71
g1286
sg64
(lp1293
S'remote_port'
p1294
asbag57
(g78
g59
NtRp1295
(dp1296
g62
(dp1297
g89
g90
ssg71
g1286
sg64
(lp1298
S':'
asbag57
(g78
g59
NtRp1299
(dp1300
g62
(dp1301
sg71
g1286
sg64
(lp1302
g57
(g58
g59
NtRp1303
(dp1304
g62
(dp1305
g70
I4
ssg71
g1299
sg64
(lp1306
S'38032'
p1307
asbasbasbag57
(g73
g59
NtRp1308
(dp1309
g62
(dp1310
sg71
g822
sg64
(lp1311
g57
(g78
g59
NtRp1312
(dp1313
g62
(dp1314
g82
g83
ssg71
g1308
sg64
(lp1315
S'request_method'
p1316
asbag57
(g78
g59
NtRp1317
(dp1318
g62
(dp1319
g89
g90
ssg71
g1308
sg64
(lp1320
S':'
asbag57
(g78
g59
NtRp1321
(dp1322
g62
(dp1323
sg71
g1308
sg64
(lp1324
g57
(g58
g59
NtRp1325
(dp1326
g62
(dp1327
g70
I4
ssg71
g1321
sg64
(lp1328
S'GET'
p1329
asbasbasbag57
(g73
g59
NtRp1330
(dp1331
g62
(dp1332
sg71
g822
sg64
(lp1333
g57
(g78
g59
NtRp1334
(dp1335
g62
(dp1336
g82
g83
ssg71
g1330
sg64
(lp1337
S'script_name'
p1338
asbag57
(g78
g59
NtRp1339
(dp1340
g62
(dp1341
g89
g90
ssg71
g1330
sg64
(lp1342
S':'
asbag57
(g78
g59
NtRp1343
(dp1344
g62
(dp1345
sg71
g1330
sg64
(lp1346
g57
(g58
g59
NtRp1347
(dp1348
g62
(dp1349
g70
I4
ssg71
g1343
sg64
(lp1350
S''
asbasbasbag57
(g73
g59
NtRp1351
(dp1352
g62
(dp1353
sg71
g822
sg64
(lp1354
g57
(g78
g59
NtRp1355
(dp1356
g62
(dp1357
g82
g83
ssg71
g1351
sg64
(lp1358
S'server_name'
p1359
asbag57
(g78
g59
NtRp1360
(dp1361
g62
(dp1362
g89
g90
ssg71
g1351
sg64
(lp1363
S':'
asbag57
(g78
g59
NtRp1364
(dp1365
g62
(dp1366
sg71
g1351
sg64
(lp1367
g57
(g58
g59
NtRp1368
(dp1369
g62
(dp1370
g70
I4
ssg71
g1364
sg64
(lp1371
S'jigar-Lenovo-Z580'
p1372
asbasbasbag57
(g73
g59
NtRp1373
(dp1374
g62
(dp1375
sg71
g822
sg64
(lp1376
g57
(g78
g59
NtRp1377
(dp1378
g62
(dp1379
g82
g83
ssg71
g1373
sg64
(lp1380
S'server_port'
p1381
asbag57
(g78
g59
NtRp1382
(dp1383
g62
(dp1384
g89
g90
ssg71
g1373
sg64
(lp1385
S':'
asbag57
(g78
g59
NtRp1386
(dp1387
g62
(dp1388
sg71
g1373
sg64
(lp1389
g57
(g58
g59
NtRp1390
(dp1391
g62
(dp1392
g70
I4
ssg71
g1386
sg64
(lp1393
S'8000'
p1394
asbasbasbag57
(g73
g59
NtRp1395
(dp1396
g62
(dp1397
sg71
g822
sg64
(lp1398
g57
(g78
g59
NtRp1399
(dp1400
g62
(dp1401
g82
g83
ssg71
g1395
sg64
(lp1402
S'server_protocol'
p1403
asbag57
(g78
g59
NtRp1404
(dp1405
g62
(dp1406
g89
g90
ssg71
g1395
sg64
(lp1407
S':'
asbag57
(g78
g59
NtRp1408
(dp1409
g62
(dp1410
sg71
g1395
sg64
(lp1411
g57
(g58
g59
NtRp1412
(dp1413
g62
(dp1414
g70
I4
ssg71
g1408
sg64
(lp1415
S'HTTP/1.1'
p1416
asbasbasbag57
(g73
g59
NtRp1417
(dp1418
g62
(dp1419
sg71
g822
sg64
(lp1420
g57
(g78
g59
NtRp1421
(dp1422
g62
(dp1423
g82
g83
ssg71
g1417
sg64
(lp1424
S'server_software'
p1425
asbag57
(g78
g59
NtRp1426
(dp1427
g62
(dp1428
g89
g90
ssg71
g1417
sg64
(lp1429
S':'
asbag57
(g78
g59
NtRp1430
(dp1431
g62
(dp1432
sg71
g1417
sg64
(lp1433
g57
(g58
g59
NtRp1434
(dp1435
g62
(dp1436
g70
I4
ssg71
g1430
sg64
(lp1437
S'Rocket 1.2.4'
p1438
asbasbasbag57
(g73
g59
NtRp1439
(dp1440
g62
(dp1441
sg71
g822
sg64
(lp1442
g57
(g78
g59
NtRp1443
(dp1444
g62
(dp1445
g82
g83
ssg71
g1439
sg64
(lp1446
S'web2py_crontype'
p1447
asbag57
(g78
g59
NtRp1448
(dp1449
g62
(dp1450
g89
g90
ssg71
g1439
sg64
(lp1451
S':'
asbag57
(g78
g59
NtRp1452
(dp1453
g62
(dp1454
sg71
g1439
sg64
(lp1455
g57
(g58
g59
NtRp1456
(dp1457
g62
(dp1458
g70
I4
ssg71
g1452
sg64
(lp1459
S'hard'
p1460
asbasbasbag57
(g73
g59
NtRp1461
(dp1462
g62
(dp1463
sg71
g822
sg64
(lp1464
g57
(g78
g59
NtRp1465
(dp1466
g62
(dp1467
g82
g83
ssg71
g1461
sg64
(lp1468
S'web2py_path'
p1469
asbag57
(g78
g59
NtRp1470
(dp1471
g62
(dp1472
g89
g90
ssg71
g1461
sg64
(lp1473
S':'
asbag57
(g78
g59
NtRp1474
(dp1475
g62
(dp1476
sg71
g1461
sg64
(lp1477
g57
(g58
g59
NtRp1478
(dp1479
g62
(dp1480
g70
I4
ssg71
g1474
sg64
(lp1481
g869
asbasbasbag57
(g73
g59
NtRp1482
(dp1483
g62
(dp1484
sg71
g822
sg64
(lp1485
g57
(g78
g59
NtRp1486
(dp1487
g62
(dp1488
g82
g83
ssg71
g1482
sg64
(lp1489
S'web2py_version'
p1490
asbag57
(g78
g59
NtRp1491
(dp1492
g62
(dp1493
g89
g90
ssg71
g1482
sg64
(lp1494
S':'
asbag57
(g78
g59
NtRp1495
(dp1496
g62
(dp1497
sg71
g1482
sg64
(lp1498
g57
(g58
g59
NtRp1499
(dp1500
g62
(dp1501
g70
I4
ssg71
g1495
sg64
(lp1502
g57
(g66
g59
NtRp1503
(dp1504
g62
(dp1505
g70
I3
ssg71
Nsg64
(lp1506
g57
(g73
g59
NtRp1507
(dp1508
g62
(dp1509
sg71
g1503
sg64
(lp1510
g57
(g78
g59
NtRp1511
(dp1512
g62
(dp1513
sg71
g1507
sg64
(lp1514
g57
(g58
g59
NtRp1515
(dp1516
g62
(dp1517
g70
I3
ssg71
g1511
sg64
(lp1518
S'1'
asbasbasbag57
(g73
g59
NtRp1519
(dp1520
g62
(dp1521
sg71
g1503
sg64
(lp1522
g57
(g78
g59
NtRp1523
(dp1524
g62
(dp1525
sg71
g1519
sg64
(lp1526
g57
(g58
g59
NtRp1527
(dp1528
g62
(dp1529
g70
I3
ssg71
g1523
sg64
(lp1530
S'99'
p1531
asbasbasbag57
(g73
g59
NtRp1532
(dp1533
g62
(dp1534
sg71
g1503
sg64
(lp1535
g57
(g78
g59
NtRp1536
(dp1537
g62
(dp1538
sg71
g1532
sg64
(lp1539
g57
(g58
g59
NtRp1540
(dp1541
g62
(dp1542
g70
I3
ssg71
g1536
sg64
(lp1543
S'4'
asbasbasbag57
(g73
g59
NtRp1544
(dp1545
g62
(dp1546
sg71
g1503
sg64
(lp1547
g57
(g78
g59
NtRp1548
(dp1549
g62
(dp1550
sg71
g1544
sg64
(lp1551
g57
(g58
g59
NtRp1552
(dp1553
g62
(dp1554
g70
I3
ssg71
g1548
sg64
(lp1555
S'datetime.datetime(2011, 12, 14, 14, 46, 14)'
p1556
asbasbasbag57
(g73
g59
NtRp1557
(dp1558
g62
(dp1559
sg71
g1503
sg64
(lp1560
g57
(g78
g59
NtRp1561
(dp1562
g62
(dp1563
sg71
g1557
sg64
(lp1564
g57
(g58
g59
NtRp1565
(dp1566
g62
(dp1567
g70
I3
ssg71
g1561
sg64
(lp1568
S'stable'
p1569
asbasbasbasbasbasbasbag57
(g73
g59
NtRp1570
(dp1571
g62
(dp1572
sg71
g822
sg64
(lp1573
g57
(g78
g59
NtRp1574
(dp1575
g62
(dp1576
g82
g83
ssg71
g1570
sg64
(lp1577
S'wsgi_errors'
p1578
asbag57
(g78
g59
NtRp1579
(dp1580
g62
(dp1581
g89
g90
ssg71
g1570
sg64
(lp1582
S':'
asbag57
(g78
g59
NtRp1583
(dp1584
g62
(dp1585
sg71
g1570
sg64
(lp1586
g57
(g58
g59
NtRp1587
(dp1588
g62
(dp1589
g70
I4
ssg71
g1583
sg64
(lp1590
S"<open file '<stderr>', mode 'w' at 0x7fb48f9e6270>"
p1591
asbasbasbag57
(g73
g59
NtRp1592
(dp1593
g62
(dp1594
sg71
g822
sg64
(lp1595
g57
(g78
g59
NtRp1596
(dp1597
g62
(dp1598
g82
g83
ssg71
g1592
sg64
(lp1599
S'wsgi_file_wrapper'
p1600
asbag57
(g78
g59
NtRp1601
(dp1602
g62
(dp1603
g89
g90
ssg71
g1592
sg64
(lp1604
S':'
asbag57
(g78
g59
NtRp1605
(dp1606
g62
(dp1607
sg71
g1592
sg64
(lp1608
g57
(g58
g59
NtRp1609
(dp1610
g62
(dp1611
g70
I4
ssg71
g1605
sg64
(lp1612
S'<class wsgiref.util.FileWrapper at 0x2f52328>'
p1613
asbasbasbag57
(g73
g59
NtRp1614
(dp1615
g62
(dp1616
sg71
g822
sg64
(lp1617
g57
(g78
g59
NtRp1618
(dp1619
g62
(dp1620
g82
g83
ssg71
g1614
sg64
(lp1621
S'wsgi_input'
p1622
asbag57
(g78
g59
NtRp1623
(dp1624
g62
(dp1625
g89
g90
ssg71
g1614
sg64
(lp1626
S':'
asbag57
(g78
g59
NtRp1627
(dp1628
g62
(dp1629
sg71
g1614
sg64
(lp1630
g57
(g58
g59
NtRp1631
(dp1632
g62
(dp1633
g70
I4
ssg71
g1627
sg64
(lp1634
S'<socket._fileobject object at 0x7fb43413be50>'
p1635
asbasbasbag57
(g73
g59
NtRp1636
(dp1637
g62
(dp1638
sg71
g822
sg64
(lp1639
g57
(g78
g59
NtRp1640
(dp1641
g62
(dp1642
g82
g83
ssg71
g1636
sg64
(lp1643
S'wsgi_multiprocess'
p1644
asbag57
(g78
g59
NtRp1645
(dp1646
g62
(dp1647
g89
g90
ssg71
g1636
sg64
(lp1648
S':'
asbag57
(g78
g59
NtRp1649
(dp1650
g62
(dp1651
sg71
g1636
sg64
(lp1652
g57
(g58
g59
NtRp1653
(dp1654
g62
(dp1655
g70
I4
ssg71
g1649
sg64
(lp1656
g100
asbasbasbag57
(g73
g59
NtRp1657
(dp1658
g62
(dp1659
sg71
g822
sg64
(lp1660
g57
(g78
g59
NtRp1661
(dp1662
g62
(dp1663
g82
g83
ssg71
g1657
sg64
(lp1664
S'wsgi_multithread'
p1665
asbag57
(g78
g59
NtRp1666
(dp1667
g62
(dp1668
g89
g90
ssg71
g1657
sg64
(lp1669
S':'
asbag57
(g78
g59
NtRp1670
(dp1671
g62
(dp1672
sg71
g1657
sg64
(lp1673
g57
(g58
g59
NtRp1674
(dp1675
g62
(dp1676
g70
I4
ssg71
g1670
sg64
(lp1677
S'True'
p1678
asbasbasbag57
(g73
g59
NtRp1679
(dp1680
g62
(dp1681
sg71
g822
sg64
(lp1682
g57
(g78
g59
NtRp1683
(dp1684
g62
(dp1685
g82
g83
ssg71
g1679
sg64
(lp1686
S'wsgi_run_once'
p1687
asbag57
(g78
g59
NtRp1688
(dp1689
g62
(dp1690
g89
g90
ssg71
g1679
sg64
(lp1691
S':'
asbag57
(g78
g59
NtRp1692
(dp1693
g62
(dp1694
sg71
g1679
sg64
(lp1695
g57
(g58
g59
NtRp1696
(dp1697
g62
(dp1698
g70
I4
ssg71
g1692
sg64
(lp1699
g100
asbasbasbag57
(g73
g59
NtRp1700
(dp1701
g62
(dp1702
sg71
g822
sg64
(lp1703
g57
(g78
g59
NtRp1704
(dp1705
g62
(dp1706
g82
g83
ssg71
g1700
sg64
(lp1707
S'wsgi_url_scheme'
p1708
asbag57
(g78
g59
NtRp1709
(dp1710
g62
(dp1711
g89
g90
ssg71
g1700
sg64
(lp1712
S':'
asbag57
(g78
g59
NtRp1713
(dp1714
g62
(dp1715
sg71
g1700
sg64
(lp1716
g57
(g58
g59
NtRp1717
(dp1718
g62
(dp1719
g70
I4
ssg71
g1713
sg64
(lp1720
S'http'
p1721
asbasbasbag57
(g73
g59
NtRp1722
(dp1723
g62
(dp1724
sg71
g822
sg64
(lp1725
g57
(g78
g59
NtRp1726
(dp1727
g62
(dp1728
g82
g83
ssg71
g1722
sg64
(lp1729
S'wsgi_version'
p1730
asbag57
(g78
g59
NtRp1731
(dp1732
g62
(dp1733
g89
g90
ssg71
g1722
sg64
(lp1734
S':'
asbag57
(g78
g59
NtRp1735
(dp1736
g62
(dp1737
sg71
g1722
sg64
(lp1738
g57
(g58
g59
NtRp1739
(dp1740
g62
(dp1741
g70
I4
ssg71
g1735
sg64
(lp1742
g57
(g66
g59
NtRp1743
(dp1744
g62
(dp1745
g70
I3
ssg71
Nsg64
(lp1746
g57
(g73
g59
NtRp1747
(dp1748
g62
(dp1749
sg71
g1743
sg64
(lp1750
g57
(g78
g59
NtRp1751
(dp1752
g62
(dp1753
sg71
g1747
sg64
(lp1754
g57
(g58
g59
NtRp1755
(dp1756
g62
(dp1757
g70
I3
ssg71
g1751
sg64
(lp1758
S'1'
asbasbasbag57
(g73
g59
NtRp1759
(dp1760
g62
(dp1761
sg71
g1743
sg64
(lp1762
g57
(g78
g59
NtRp1763
(dp1764
g62
(dp1765
sg71
g1759
sg64
(lp1766
g57
(g58
g59
NtRp1767
(dp1768
g62
(dp1769
g70
I3
ssg71
g1763
sg64
(lp1770
S'0'
asbasbasbasbasbasbasbasbasbasbasbag57
(g73
g59
NtRp1771
(dp1772
g62
(dp1773
sg71
g67
sg64
(lp1774
g57
(g78
g59
NtRp1775
(dp1776
g62
(dp1777
g82
g83
ssg71
g1771
sg64
(lp1778
S'extension'
p1779
asbag57
(g78
g59
NtRp1780
(dp1781
g62
(dp1782
g89
g90
ssg71
g1771
sg64
(lp1783
S':'
asbag57
(g78
g59
NtRp1784
(dp1785
g62
(dp1786
sg71
g1771
sg64
(lp1787
g57
(g58
g59
NtRp1788
(dp1789
g62
(dp1790
g70
I5
ssg71
g1784
sg64
(lp1791
S'html'
p1792
asbasbasbag57
(g73
g59
NtRp1793
(dp1794
g62
(dp1795
sg71
g67
sg64
(lp1796
g57
(g78
g59
NtRp1797
(dp1798
g62
(dp1799
g82
g83
ssg71
g1793
sg64
(lp1800
S'folder'
p1801
asbag57
(g78
g59
NtRp1802
(dp1803
g62
(dp1804
g89
g90
ssg71
g1793
sg64
(lp1805
S':'
asbag57
(g78
g59
NtRp1806
(dp1807
g62
(dp1808
sg71
g1793
sg64
(lp1809
g57
(g58
g59
NtRp1810
(dp1811
g62
(dp1812
g70
I5
ssg71
g1806
sg64
(lp1813
S'/home/jigar/web2py/applications/app1/'
p1814
asbasbasbag57
(g73
g59
NtRp1815
(dp1816
g62
(dp1817
sg71
g67
sg64
(lp1818
g57
(g78
g59
NtRp1819
(dp1820
g62
(dp1821
g82
g83
ssg71
g1815
sg64
(lp1822
S'function'
p1823
asbag57
(g78
g59
NtRp1824
(dp1825
g62
(dp1826
g89
g90
ssg71
g1815
sg64
(lp1827
S':'
asbag57
(g78
g59
NtRp1828
(dp1829
g62
(dp1830
sg71
g1815
sg64
(lp1831
g57
(g58
g59
NtRp1832
(dp1833
g62
(dp1834
g70
I5
ssg71
g1828
sg64
(lp1835
S'index'
p1836
asbasbasbag57
(g73
g59
NtRp1837
(dp1838
g62
(dp1839
sg71
g67
sg64
(lp1840
g57
(g78
g59
NtRp1841
(dp1842
g62
(dp1843
g82
g83
ssg71
g1837
sg64
(lp1844
S'get_vars'
p1845
asbag57
(g78
g59
NtRp1846
(dp1847
g62
(dp1848
g89
g90
ssg71
g1837
sg64
(lp1849
S':'
asbag57
(g78
g59
NtRp1850
(dp1851
g62
(dp1852
sg71
g1837
sg64
(lp1853
g57
(g58
g59
NtRp1854
(dp1855
g62
(dp1856
g70
I5
ssg71
g1850
sg64
(lp1857
g57
(g66
g59
NtRp1858
(dp1859
g62
(dp1860
g70
I4
ssg71
Nsg64
(lp1861
sbasbasbasbag57
(g73
g59
NtRp1862
(dp1863
g62
(dp1864
sg71
g67
sg64
(lp1865
g57
(g78
g59
NtRp1866
(dp1867
g62
(dp1868
g82
g83
ssg71
g1862
sg64
(lp1869
S'global_settings'
p1870
asbag57
(g78
g59
NtRp1871
(dp1872
g62
(dp1873
g89
g90
ssg71
g1862
sg64
(lp1874
S':'
asbag57
(g78
g59
NtRp1875
(dp1876
g62
(dp1877
sg71
g1862
sg64
(lp1878
g57
(g58
g59
NtRp1879
(dp1880
g62
(dp1881
g70
I5
ssg71
g1875
sg64
(lp1882
g57
(g66
g59
NtRp1883
(dp1884
g62
(dp1885
g70
I4
ssg71
Nsg64
(lp1886
g57
(g73
g59
NtRp1887
(dp1888
g62
(dp1889
sg71
g1883
sg64
(lp1890
g57
(g78
g59
NtRp1891
(dp1892
g62
(dp1893
g82
g83
ssg71
g1887
sg64
(lp1894
g834
asbag57
(g78
g59
NtRp1895
(dp1896
g62
(dp1897
g89
g90
ssg71
g1887
sg64
(lp1898
S':'
asbag57
(g78
g59
NtRp1899
(dp1900
g62
(dp1901
sg71
g1887
sg64
(lp1902
g57
(g58
g59
NtRp1903
(dp1904
g62
(dp1905
g70
I4
ssg71
g1899
sg64
(lp1906
S"set(['/home/jigar/web2py/applications/welcome/', '/home/jigar/web2py/applications/admin/', '/home/jigar/web2py/applications/app1/'])"
p1907
asbasbasbag57
(g73
g59
NtRp1908
(dp1909
g62
(dp1910
sg71
g1883
sg64
(lp1911
g57
(g78
g59
NtRp1912
(dp1913
g62
(dp1914
g82
g83
ssg71
g1908
sg64
(lp1915
g856
asbag57
(g78
g59
NtRp1916
(dp1917
g62
(dp1918
g89
g90
ssg71
g1908
sg64
(lp1919
S':'
asbag57
(g78
g59
NtRp1920
(dp1921
g62
(dp1922
sg71
g1908
sg64
(lp1923
g57
(g58
g59
NtRp1924
(dp1925
g62
(dp1926
g70
I4
ssg71
g1920
sg64
(lp1927
g869
asbasbasbag57
(g73
g59
NtRp1928
(dp1929
g62
(dp1930
sg71
g1883
sg64
(lp1931
g57
(g78
g59
NtRp1932
(dp1933
g62
(dp1934
g82
g83
ssg71
g1928
sg64
(lp1935
g878
asbag57
(g78
g59
NtRp1936
(dp1937
g62
(dp1938
g89
g90
ssg71
g1928
sg64
(lp1939
S':'
asbag57
(g78
g59
NtRp1940
(dp1941
g62
(dp1942
sg71
g1928
sg64
(lp1943
g57
(g58
g59
NtRp1944
(dp1945
g62
(dp1946
g70
I4
ssg71
g1940
sg64
(lp1947
g57
(g66
g59
NtRp1948
(dp1949
g62
(dp1950
g70
I3
ssg71
Nsg64
(lp1951
sbasbasbasbag57
(g73
g59
NtRp1952
(dp1953
g62
(dp1954
sg71
g1883
sg64
(lp1955
g57
(g78
g59
NtRp1956
(dp1957
g62
(dp1958
g82
g83
ssg71
g1952
sg64
(lp1959
g903
asbag57
(g78
g59
NtRp1960
(dp1961
g62
(dp1962
g89
g90
ssg71
g1952
sg64
(lp1963
S':'
asbag57
(g78
g59
NtRp1964
(dp1965
g62
(dp1966
sg71
g1952
sg64
(lp1967
g57
(g58
g59
NtRp1968
(dp1969
g62
(dp1970
g70
I4
ssg71
g1964
sg64
(lp1971
S"<Values at 0x2fd1c20: {'verbose': False, 'ip': '127.0.0.1', 'shutdown_timeout': 5, 'taskbar': False, 'port': 8000, 'maxthreads': None, 'softcron': False, 'server_name': 'jigar-Lenovo-Z580', 'bpython': False, 'nogui': False, 'nocron': False, 'extcron': False, 'debuglevel': 30, 'test': None, 'folder': '/home/jigar/web2py', 'config': '', 'import_models': False, 'winservice': '', 'shell': None, 'run': '', 'log_filename': 'httpserver.log', 'args': [''], 'socket_timeout': 1, 'profiler_filename': None, 'ssl_private_key': '', 'password': '<ask>', 'request_queue_size': 5, 'ssl_certificate': '', 'cronjob': False, 'plain': False, 'quiet': False, 'interfaces': None, 'minthreads': None, 'timeout': 10, 'numthreads': None, 'nobanner': False, 'pid_filename': 'httpserver.pid'}>"
p1972
asbasbasbag57
(g73
g59
NtRp1973
(dp1974
g62
(dp1975
sg71
g1883
sg64
(lp1976
g57
(g78
g59
NtRp1977
(dp1978
g62
(dp1979
g82
g83
ssg71
g1973
sg64
(lp1980
g925
asbag57
(g78
g59
NtRp1981
(dp1982
g62
(dp1983
g89
g90
ssg71
g1973
sg64
(lp1984
S':'
asbag57
(g78
g59
NtRp1985
(dp1986
g62
(dp1987
sg71
g1973
sg64
(lp1988
g57
(g58
g59
NtRp1989
(dp1990
g62
(dp1991
g70
I4
ssg71
g1985
sg64
(lp1992
S'set([])'
p1993
asbasbasbag57
(g73
g59
NtRp1994
(dp1995
g62
(dp1996
sg71
g1883
sg64
(lp1997
g57
(g78
g59
NtRp1998
(dp1999
g62
(dp2000
g82
g83
ssg71
g1994
sg64
(lp2001
g947
asbag57
(g78
g59
NtRp2002
(dp2003
g62
(dp2004
g89
g90
ssg71
g1994
sg64
(lp2005
S':'
asbag57
(g78
g59
NtRp2006
(dp2007
g62
(dp2008
sg71
g1994
sg64
(lp2009
g57
(g58
g59
NtRp2010
(dp2011
g62
(dp2012
g70
I4
ssg71
g2006
sg64
(lp2013
g100
asbasbasbag57
(g73
g59
NtRp2014
(dp2015
g62
(dp2016
sg71
g1883
sg64
(lp2017
g57
(g78
g59
NtRp2018
(dp2019
g62
(dp2020
g82
g83
ssg71
g2014
sg64
(lp2021
g968
asbag57
(g78
g59
NtRp2022
(dp2023
g62
(dp2024
g89
g90
ssg71
g2014
sg64
(lp2025
S':'
asbag57
(g78
g59
NtRp2026
(dp2027
g62
(dp2028
sg71
g2014
sg64
(lp2029
g57
(g58
g59
NtRp2030
(dp2031
g62
(dp2032
g70
I4
ssg71
g2026
sg64
(lp2033
g981
asbasbasbag57
(g73
g59
NtRp2034
(dp2035
g62
(dp2036
sg71
g1883
sg64
(lp2037
g57
(g78
g59
NtRp2038
(dp2039
g62
(dp2040
g82
g83
ssg71
g2034
sg64
(lp2041
g1188
asbag57
(g78
g59
NtRp2042
(dp2043
g62
(dp2044
g89
g90
ssg71
g2034
sg64
(lp2045
S':'
asbag57
(g78
g59
NtRp2046
(dp2047
g62
(dp2048
sg71
g2034
sg64
(lp2049
g57
(g58
g59
NtRp2050
(dp2051
g62
(dp2052
g70
I4
ssg71
g2046
sg64
(lp2053
g100
asbasbasbag57
(g73
g59
NtRp2054
(dp2055
g62
(dp2056
sg71
g1883
sg64
(lp2057
g57
(g78
g59
NtRp2058
(dp2059
g62
(dp2060
g82
g83
ssg71
g2054
sg64
(lp2061
g1209
asbag57
(g78
g59
NtRp2062
(dp2063
g62
(dp2064
g89
g90
ssg71
g2054
sg64
(lp2065
S':'
asbag57
(g78
g59
NtRp2066
(dp2067
g62
(dp2068
sg71
g2054
sg64
(lp2069
g57
(g58
g59
NtRp2070
(dp2071
g62
(dp2072
g70
I4
ssg71
g2066
sg64
(lp2073
g100
asbasbasbag57
(g73
g59
NtRp2074
(dp2075
g62
(dp2076
sg71
g1883
sg64
(lp2077
g57
(g78
g59
NtRp2078
(dp2079
g62
(dp2080
g82
g83
ssg71
g2074
sg64
(lp2081
g1447
asbag57
(g78
g59
NtRp2082
(dp2083
g62
(dp2084
g89
g90
ssg71
g2074
sg64
(lp2085
S':'
asbag57
(g78
g59
NtRp2086
(dp2087
g62
(dp2088
sg71
g2074
sg64
(lp2089
g57
(g58
g59
NtRp2090
(dp2091
g62
(dp2092
g70
I4
ssg71
g2086
sg64
(lp2093
g1460
asbasbasbag57
(g73
g59
NtRp2094
(dp2095
g62
(dp2096
sg71
g1883
sg64
(lp2097
g57
(g78
g59
NtRp2098
(dp2099
g62
(dp2100
g82
g83
ssg71
g2094
sg64
(lp2101
g1490
asbag57
(g78
g59
NtRp2102
(dp2103
g62
(dp2104
g89
g90
ssg71
g2094
sg64
(lp2105
S':'
asbag57
(g78
g59
NtRp2106
(dp2107
g62
(dp2108
sg71
g2094
sg64
(lp2109
g57
(g58
g59
NtRp2110
(dp2111
g62
(dp2112
g70
I4
ssg71
g2106
sg64
(lp2113
g57
(g66
g59
NtRp2114
(dp2115
g62
(dp2116
g70
I3
ssg71
Nsg64
(lp2117
g57
(g73
g59
NtRp2118
(dp2119
g62
(dp2120
sg71
g2114
sg64
(lp2121
g57
(g78
g59
NtRp2122
(dp2123
g62
(dp2124
sg71
g2118
sg64
(lp2125
g57
(g58
g59
NtRp2126
(dp2127
g62
(dp2128
g70
I3
ssg71
g2122
sg64
(lp2129
S'1'
asbasbasbag57
(g73
g59
NtRp2130
(dp2131
g62
(dp2132
sg71
g2114
sg64
(lp2133
g57
(g78
g59
NtRp2134
(dp2135
g62
(dp2136
sg71
g2130
sg64
(lp2137
g57
(g58
g59
NtRp2138
(dp2139
g62
(dp2140
g70
I3
ssg71
g2134
sg64
(lp2141
S'99'
p2142
asbasbasbag57
(g73
g59
NtRp2143
(dp2144
g62
(dp2145
sg71
g2114
sg64
(lp2146
g57
(g78
g59
NtRp2147
(dp2148
g62
(dp2149
sg71
g2143
sg64
(lp2150
g57
(g58
g59
NtRp2151
(dp2152
g62
(dp2153
g70
I3
ssg71
g2147
sg64
(lp2154
S'4'
asbasbasbag57
(g73
g59
NtRp2155
(dp2156
g62
(dp2157
sg71
g2114
sg64
(lp2158
g57
(g78
g59
NtRp2159
(dp2160
g62
(dp2161
sg71
g2155
sg64
(lp2162
g57
(g58
g59
NtRp2163
(dp2164
g62
(dp2165
g70
I3
ssg71
g2159
sg64
(lp2166
S'datetime.datetime(2011, 12, 14, 14, 46, 14)'
p2167
asbasbasbag57
(g73
g59
NtRp2168
(dp2169
g62
(dp2170
sg71
g2114
sg64
(lp2171
g57
(g78
g59
NtRp2172
(dp2173
g62
(dp2174
sg71
g2168
sg64
(lp2175
g57
(g58
g59
NtRp2176
(dp2177
g62
(dp2178
g70
I3
ssg71
g2172
sg64
(lp2179
g1569
asbasbasbasbasbasbasbasbasbasbasbag57
(g73
g59
NtRp2180
(dp2181
g62
(dp2182
sg71
g67
sg64
(lp2183
g57
(g78
g59
NtRp2184
(dp2185
g62
(dp2186
g82
g83
ssg71
g2180
sg64
(lp2187
S'is_https'
p2188
asbag57
(g78
g59
NtRp2189
(dp2190
g62
(dp2191
g89
g90
ssg71
g2180
sg64
(lp2192
S':'
asbag57
(g78
g59
NtRp2193
(dp2194
g62
(dp2195
sg71
g2180
sg64
(lp2196
g57
(g58
g59
NtRp2197
(dp2198
g62
(dp2199
g70
I5
ssg71
g2193
sg64
(lp2200
g100
asbasbasbag57
(g73
g59
NtRp2201
(dp2202
g62
(dp2203
sg71
g67
sg64
(lp2204
g57
(g78
g59
NtRp2205
(dp2206
g62
(dp2207
g82
g83
ssg71
g2201
sg64
(lp2208
S'is_local'
p2209
asbag57
(g78
g59
NtRp2210
(dp2211
g62
(dp2212
g89
g90
ssg71
g2201
sg64
(lp2213
S':'
asbag57
(g78
g59
NtRp2214
(dp2215
g62
(dp2216
sg71
g2201
sg64
(lp2217
g57
(g58
g59
NtRp2218
(dp2219
g62
(dp2220
g70
I5
ssg71
g2214
sg64
(lp2221
g1678
asbasbasbag57
(g73
g59
NtRp2222
(dp2223
g62
(dp2224
sg71
g67
sg64
(lp2225
g57
(g78
g59
NtRp2226
(dp2227
g62
(dp2228
g82
g83
ssg71
g2222
sg64
(lp2229
S'is_restful'
p2230
asbag57
(g78
g59
NtRp2231
(dp2232
g62
(dp2233
g89
g90
ssg71
g2222
sg64
(lp2234
S':'
asbag57
(g78
g59
NtRp2235
(dp2236
g62
(dp2237
sg71
g2222
sg64
(lp2238
g57
(g58
g59
NtRp2239
(dp2240
g62
(dp2241
g70
I5
ssg71
g2235
sg64
(lp2242
g100
asbasbasbag57
(g73
g59
NtRp2243
(dp2244
g62
(dp2245
sg71
g67
sg64
(lp2246
g57
(g78
g59
NtRp2247
(dp2248
g62
(dp2249
g82
g83
ssg71
g2243
sg64
(lp2250
S'now'
p2251
asbag57
(g78
g59
NtRp2252
(dp2253
g62
(dp2254
g89
g90
ssg71
g2243
sg64
(lp2255
S':'
asbag57
(g78
g59
NtRp2256
(dp2257
g62
(dp2258
sg71
g2243
sg64
(lp2259
g57
(g58
g59
NtRp2260
(dp2261
g62
(dp2262
g70
I5
ssg71
g2256
sg64
(lp2263
S'datetime.datetime(2013, 9, 2, 20, 32, 49, 800685)'
p2264
asbasbasbag57
(g73
g59
NtRp2265
(dp2266
g62
(dp2267
sg71
g67
sg64
(lp2268
g57
(g78
g59
NtRp2269
(dp2270
g62
(dp2271
g82
g83
ssg71
g2265
sg64
(lp2272
S'post_vars'
p2273
asbag57
(g78
g59
NtRp2274
(dp2275
g62
(dp2276
g89
g90
ssg71
g2265
sg64
(lp2277
S':'
asbag57
(g78
g59
NtRp2278
(dp2279
g62
(dp2280
sg71
g2265
sg64
(lp2281
g57
(g58
g59
NtRp2282
(dp2283
g62
(dp2284
g70
I5
ssg71
g2278
sg64
(lp2285
g57
(g66
g59
NtRp2286
(dp2287
g62
(dp2288
g70
I4
ssg71
Nsg64
(lp2289
sbasbasbasbag57
(g73
g59
NtRp2290
(dp2291
g62
(dp2292
sg71
g67
sg64
(lp2293
g57
(g78
g59
NtRp2294
(dp2295
g62
(dp2296
g82
g83
ssg71
g2290
sg64
(lp2297
S'url'
p2298
asbag57
(g78
g59
NtRp2299
(dp2300
g62
(dp2301
g89
g90
ssg71
g2290
sg64
(lp2302
S':'
asbag57
(g78
g59
NtRp2303
(dp2304
g62
(dp2305
sg71
g2290
sg64
(lp2306
g57
(g58
g59
NtRp2307
(dp2308
g62
(dp2309
g70
I5
ssg71
g2303
sg64
(lp2310
S'/app1/default/index'
p2311
asbasbasbag57
(g73
g59
NtRp2312
(dp2313
g62
(dp2314
sg71
g67
sg64
(lp2315
g57
(g78
g59
NtRp2316
(dp2317
g62
(dp2318
g82
g83
ssg71
g2312
sg64
(lp2319
S'utcnow'
p2320
asbag57
(g78
g59
NtRp2321
(dp2322
g62
(dp2323
g89
g90
ssg71
g2312
sg64
(lp2324
S':'
asbag57
(g78
g59
NtRp2325
(dp2326
g62
(dp2327
sg71
g2312
sg64
(lp2328
g57
(g58
g59
NtRp2329
(dp2330
g62
(dp2331
g70
I5
ssg71
g2325
sg64
(lp2332
S'datetime.datetime(2013, 9, 2, 15, 2, 49, 800711)'
p2333
asbasbasbag57
(g73
g59
NtRp2334
(dp2335
g62
(dp2336
sg71
g67
sg64
(lp2337
g57
(g78
g59
NtRp2338
(dp2339
g62
(dp2340
g82
g83
ssg71
g2334
sg64
(lp2341
S'uuid'
p2342
asbag57
(g78
g59
NtRp2343
(dp2344
g62
(dp2345
g89
g90
ssg71
g2334
sg64
(lp2346
S':'
asbag57
(g78
g59
NtRp2347
(dp2348
g62
(dp2349
sg71
g2334
sg64
(lp2350
g57
(g58
g59
NtRp2351
(dp2352
g62
(dp2353
g70
I5
ssg71
g2347
sg64
(lp2354
S'app1/127.0.0.1.2013-09-02.20-32-49.58d1658c-338a-4bf8-b6d7-1ed5959af471'
p2355
asbasbasbag57
(g73
g59
NtRp2356
(dp2357
g62
(dp2358
sg71
g67
sg64
(lp2359
g57
(g78
g59
NtRp2360
(dp2361
g62
(dp2362
g82
g83
ssg71
g2356
sg64
(lp2363
S'vars'
p2364
asbag57
(g78
g59
NtRp2365
(dp2366
g62
(dp2367
g89
g90
ssg71
g2356
sg64
(lp2368
S':'
asbag57
(g78
g59
NtRp2369
(dp2370
g62
(dp2371
sg71
g2356
sg64
(lp2372
g57
(g58
g59
NtRp2373
(dp2374
g62
(dp2375
g70
I5
ssg71
g2369
sg64
(lp2376
g57
(g66
g59
NtRp2377
(dp2378
g62
(dp2379
g70
I4
ssg71
Nsg64
(lp2380
sbasbasbasbag57
(g73
g59
NtRp2381
(dp2382
g62
(dp2383
sg71
g67
sg64
(lp2384
g57
(g78
g59
NtRp2385
(dp2386
g62
(dp2387
g82
g83
ssg71
g2381
sg64
(lp2388
S'wsgi'
p2389
asbag57
(g78
g59
NtRp2390
(dp2391
g62
(dp2392
g89
g90
ssg71
g2381
sg64
(lp2393
S':'
asbag57
(g78
g59
NtRp2394
(dp2395
g62
(dp2396
sg71
g2381
sg64
(lp2397
g57
(g58
g59
NtRp2398
(dp2399
g62
(dp2400
g70
I5
ssg71
g2394
sg64
(lp2401
g57
(g66
g59
NtRp2402
(dp2403
g62
(dp2404
g70
I4
ssg71
Nsg64
(lp2405
g57
(g73
g59
NtRp2406
(dp2407
g62
(dp2408
sg71
g2402
sg64
(lp2409
g57
(g78
g59
NtRp2410
(dp2411
g62
(dp2412
g82
g83
ssg71
g2406
sg64
(lp2413
S'environ'
p2414
asbag57
(g78
g59
NtRp2415
(dp2416
g62
(dp2417
g89
g90
ssg71
g2406
sg64
(lp2418
S':'
asbag57
(g78
g59
NtRp2419
(dp2420
g62
(dp2421
sg71
g2406
sg64
(lp2422
g57
(g58
g59
NtRp2423
(dp2424
g62
(dp2425
g70
I4
ssg71
g2419
sg64
(lp2426
g57
(g66
g59
NtRp2427
(dp2428
g62
(dp2429
g70
I3
ssg71
Nsg64
(lp2430
g57
(g73
g59
NtRp2431
(dp2432
g62
(dp2433
sg71
g2427
sg64
(lp2434
g57
(g78
g59
NtRp2435
(dp2436
g62
(dp2437
g82
g83
ssg71
g2431
sg64
(lp2438
S'HTTP_ACCEPT'
p2439
asbag57
(g78
g59
NtRp2440
(dp2441
g62
(dp2442
g89
g90
ssg71
g2431
sg64
(lp2443
S':'
asbag57
(g78
g59
NtRp2444
(dp2445
g62
(dp2446
sg71
g2431
sg64
(lp2447
g57
(g58
g59
NtRp2448
(dp2449
g62
(dp2450
g70
I3
ssg71
g2444
sg64
(lp2451
g1003
asbasbasbag57
(g73
g59
NtRp2452
(dp2453
g62
(dp2454
sg71
g2427
sg64
(lp2455
g57
(g78
g59
NtRp2456
(dp2457
g62
(dp2458
g82
g83
ssg71
g2452
sg64
(lp2459
S'HTTP_ACCEPT_ENCODING'
p2460
asbag57
(g78
g59
NtRp2461
(dp2462
g62
(dp2463
g89
g90
ssg71
g2452
sg64
(lp2464
S':'
asbag57
(g78
g59
NtRp2465
(dp2466
g62
(dp2467
sg71
g2452
sg64
(lp2468
g57
(g58
g59
NtRp2469
(dp2470
g62
(dp2471
g70
I3
ssg71
g2465
sg64
(lp2472
g1025
asbasbasbag57
(g73
g59
NtRp2473
(dp2474
g62
(dp2475
sg71
g2427
sg64
(lp2476
g57
(g78
g59
NtRp2477
(dp2478
g62
(dp2479
g82
g83
ssg71
g2473
sg64
(lp2480
S'HTTP_ACCEPT_LANGUAGE'
p2481
asbag57
(g78
g59
NtRp2482
(dp2483
g62
(dp2484
g89
g90
ssg71
g2473
sg64
(lp2485
S':'
asbag57
(g78
g59
NtRp2486
(dp2487
g62
(dp2488
sg71
g2473
sg64
(lp2489
g57
(g58
g59
NtRp2490
(dp2491
g62
(dp2492
g70
I3
ssg71
g2486
sg64
(lp2493
g1047
asbasbasbag57
(g73
g59
NtRp2494
(dp2495
g62
(dp2496
sg71
g2427
sg64
(lp2497
g57
(g78
g59
NtRp2498
(dp2499
g62
(dp2500
g82
g83
ssg71
g2494
sg64
(lp2501
S'HTTP_CACHE_CONTROL'
p2502
asbag57
(g78
g59
NtRp2503
(dp2504
g62
(dp2505
g89
g90
ssg71
g2494
sg64
(lp2506
S':'
asbag57
(g78
g59
NtRp2507
(dp2508
g62
(dp2509
sg71
g2494
sg64
(lp2510
g57
(g58
g59
NtRp2511
(dp2512
g62
(dp2513
g70
I3
ssg71
g2507
sg64
(lp2514
g1069
asbasbasbag57
(g73
g59
NtRp2515
(dp2516
g62
(dp2517
sg71
g2427
sg64
(lp2518
g57
(g78
g59
NtRp2519
(dp2520
g62
(dp2521
g82
g83
ssg71
g2515
sg64
(lp2522
S'HTTP_CONNECTION'
p2523
asbag57
(g78
g59
NtRp2524
(dp2525
g62
(dp2526
g89
g90
ssg71
g2515
sg64
(lp2527
S':'
asbag57
(g78
g59
NtRp2528
(dp2529
g62
(dp2530
sg71
g2515
sg64
(lp2531
g57
(g58
g59
NtRp2532
(dp2533
g62
(dp2534
g70
I3
ssg71
g2528
sg64
(lp2535
g1091
asbasbasbag57
(g73
g59
NtRp2536
(dp2537
g62
(dp2538
sg71
g2427
sg64
(lp2539
g57
(g78
g59
NtRp2540
(dp2541
g62
(dp2542
g82
g83
ssg71
g2536
sg64
(lp2543
S'HTTP_COOKIE'
p2544
asbag57
(g78
g59
NtRp2545
(dp2546
g62
(dp2547
g89
g90
ssg71
g2536
sg64
(lp2548
S':'
asbag57
(g78
g59
NtRp2549
(dp2550
g62
(dp2551
sg71
g2536
sg64
(lp2552
g57
(g58
g59
NtRp2553
(dp2554
g62
(dp2555
g70
I3
ssg71
g2549
sg64
(lp2556
g1113
asbasbasbag57
(g73
g59
NtRp2557
(dp2558
g62
(dp2559
sg71
g2427
sg64
(lp2560
g57
(g78
g59
NtRp2561
(dp2562
g62
(dp2563
g82
g83
ssg71
g2557
sg64
(lp2564
S'HTTP_HOST'
p2565
asbag57
(g78
g59
NtRp2566
(dp2567
g62
(dp2568
g89
g90
ssg71
g2557
sg64
(lp2569
S':'
asbag57
(g78
g59
NtRp2570
(dp2571
g62
(dp2572
sg71
g2557
sg64
(lp2573
g57
(g58
g59
NtRp2574
(dp2575
g62
(dp2576
g70
I3
ssg71
g2570
sg64
(lp2577
g1135
asbasbasbag57
(g73
g59
NtRp2578
(dp2579
g62
(dp2580
sg71
g2427
sg64
(lp2581
g57
(g78
g59
NtRp2582
(dp2583
g62
(dp2584
g82
g83
ssg71
g2578
sg64
(lp2585
S'HTTP_REFERER'
p2586
asbag57
(g78
g59
NtRp2587
(dp2588
g62
(dp2589
g89
g90
ssg71
g2578
sg64
(lp2590
S':'
asbag57
(g78
g59
NtRp2591
(dp2592
g62
(dp2593
sg71
g2578
sg64
(lp2594
g57
(g58
g59
NtRp2595
(dp2596
g62
(dp2597
g70
I3
ssg71
g2591
sg64
(lp2598
g1157
asbasbasbag57
(g73
g59
NtRp2599
(dp2600
g62
(dp2601
sg71
g2427
sg64
(lp2602
g57
(g78
g59
NtRp2603
(dp2604
g62
(dp2605
g82
g83
ssg71
g2599
sg64
(lp2606
S'HTTP_USER_AGENT'
p2607
asbag57
(g78
g59
NtRp2608
(dp2609
g62
(dp2610
g89
g90
ssg71
g2599
sg64
(lp2611
S':'
asbag57
(g78
g59
NtRp2612
(dp2613
g62
(dp2614
sg71
g2599
sg64
(lp2615
g57
(g58
g59
NtRp2616
(dp2617
g62
(dp2618
g70
I3
ssg71
g2612
sg64
(lp2619
g1179
asbasbasbag57
(g73
g59
NtRp2620
(dp2621
g62
(dp2622
sg71
g2427
sg64
(lp2623
g57
(g78
g59
NtRp2624
(dp2625
g62
(dp2626
g82
g83
ssg71
g2620
sg64
(lp2627
S'PATH_INFO'
p2628
asbag57
(g78
g59
NtRp2629
(dp2630
g62
(dp2631
g89
g90
ssg71
g2620
sg64
(lp2632
S':'
asbag57
(g78
g59
NtRp2633
(dp2634
g62
(dp2635
sg71
g2620
sg64
(lp2636
g57
(g58
g59
NtRp2637
(dp2638
g62
(dp2639
g70
I3
ssg71
g2633
sg64
(lp2640
g1243
asbasbasbag57
(g73
g59
NtRp2641
(dp2642
g62
(dp2643
sg71
g2427
sg64
(lp2644
g57
(g78
g59
NtRp2645
(dp2646
g62
(dp2647
g82
g83
ssg71
g2641
sg64
(lp2648
S'QUERY_STRING'
p2649
asbag57
(g78
g59
NtRp2650
(dp2651
g62
(dp2652
g89
g90
ssg71
g2641
sg64
(lp2653
S':'
asbag57
(g78
g59
NtRp2654
(dp2655
g62
(dp2656
sg71
g2641
sg64
(lp2657
g57
(g58
g59
NtRp2658
(dp2659
g62
(dp2660
g70
I3
ssg71
g2654
sg64
(lp2661
S''
asbasbasbag57
(g73
g59
NtRp2662
(dp2663
g62
(dp2664
sg71
g2427
sg64
(lp2665
g57
(g78
g59
NtRp2666
(dp2667
g62
(dp2668
g82
g83
ssg71
g2662
sg64
(lp2669
S'REMOTE_ADDR'
p2670
asbag57
(g78
g59
NtRp2671
(dp2672
g62
(dp2673
g89
g90
ssg71
g2662
sg64
(lp2674
S':'
asbag57
(g78
g59
NtRp2675
(dp2676
g62
(dp2677
sg71
g2662
sg64
(lp2678
g57
(g58
g59
NtRp2679
(dp2680
g62
(dp2681
g70
I3
ssg71
g2675
sg64
(lp2682
g190
asbasbasbag57
(g73
g59
NtRp2683
(dp2684
g62
(dp2685
sg71
g2427
sg64
(lp2686
g57
(g78
g59
NtRp2687
(dp2688
g62
(dp2689
g82
g83
ssg71
g2683
sg64
(lp2690
S'REMOTE_PORT'
p2691
asbag57
(g78
g59
NtRp2692
(dp2693
g62
(dp2694
g89
g90
ssg71
g2683
sg64
(lp2695
S':'
asbag57
(g78
g59
NtRp2696
(dp2697
g62
(dp2698
sg71
g2683
sg64
(lp2699
g57
(g58
g59
NtRp2700
(dp2701
g62
(dp2702
g70
I3
ssg71
g2696
sg64
(lp2703
g1307
asbasbasbag57
(g73
g59
NtRp2704
(dp2705
g62
(dp2706
sg71
g2427
sg64
(lp2707
g57
(g78
g59
NtRp2708
(dp2709
g62
(dp2710
g82
g83
ssg71
g2704
sg64
(lp2711
S'REQUEST_METHOD'
p2712
asbag57
(g78
g59
NtRp2713
(dp2714
g62
(dp2715
g89
g90
ssg71
g2704
sg64
(lp2716
S':'
asbag57
(g78
g59
NtRp2717
(dp2718
g62
(dp2719
sg71
g2704
sg64
(lp2720
g57
(g58
g59
NtRp2721
(dp2722
g62
(dp2723
g70
I3
ssg71
g2717
sg64
(lp2724
g1329
asbasbasbag57
(g73
g59
NtRp2725
(dp2726
g62
(dp2727
sg71
g2427
sg64
(lp2728
g57
(g78
g59
NtRp2729
(dp2730
g62
(dp2731
g82
g83
ssg71
g2725
sg64
(lp2732
S'SCRIPT_NAME'
p2733
asbag57
(g78
g59
NtRp2734
(dp2735
g62
(dp2736
g89
g90
ssg71
g2725
sg64
(lp2737
S':'
asbag57
(g78
g59
NtRp2738
(dp2739
g62
(dp2740
sg71
g2725
sg64
(lp2741
g57
(g58
g59
NtRp2742
(dp2743
g62
(dp2744
g70
I3
ssg71
g2738
sg64
(lp2745
S''
asbasbasbag57
(g73
g59
NtRp2746
(dp2747
g62
(dp2748
sg71
g2427
sg64
(lp2749
g57
(g78
g59
NtRp2750
(dp2751
g62
(dp2752
g82
g83
ssg71
g2746
sg64
(lp2753
S'SERVER_NAME'
p2754
asbag57
(g78
g59
NtRp2755
(dp2756
g62
(dp2757
g89
g90
ssg71
g2746
sg64
(lp2758
S':'
asbag57
(g78
g59
NtRp2759
(dp2760
g62
(dp2761
sg71
g2746
sg64
(lp2762
g57
(g58
g59
NtRp2763
(dp2764
g62
(dp2765
g70
I3
ssg71
g2759
sg64
(lp2766
g1372
asbasbasbag57
(g73
g59
NtRp2767
(dp2768
g62
(dp2769
sg71
g2427
sg64
(lp2770
g57
(g78
g59
NtRp2771
(dp2772
g62
(dp2773
g82
g83
ssg71
g2767
sg64
(lp2774
S'SERVER_PORT'
p2775
asbag57
(g78
g59
NtRp2776
(dp2777
g62
(dp2778
g89
g90
ssg71
g2767
sg64
(lp2779
S':'
asbag57
(g78
g59
NtRp2780
(dp2781
g62
(dp2782
sg71
g2767
sg64
(lp2783
g57
(g58
g59
NtRp2784
(dp2785
g62
(dp2786
g70
I3
ssg71
g2780
sg64
(lp2787
g1394
asbasbasbag57
(g73
g59
NtRp2788
(dp2789
g62
(dp2790
sg71
g2427
sg64
(lp2791
g57
(g78
g59
NtRp2792
(dp2793
g62
(dp2794
g82
g83
ssg71
g2788
sg64
(lp2795
S'SERVER_PROTOCOL'
p2796
asbag57
(g78
g59
NtRp2797
(dp2798
g62
(dp2799
g89
g90
ssg71
g2788
sg64
(lp2800
S':'
asbag57
(g78
g59
NtRp2801
(dp2802
g62
(dp2803
sg71
g2788
sg64
(lp2804
g57
(g58
g59
NtRp2805
(dp2806
g62
(dp2807
g70
I3
ssg71
g2801
sg64
(lp2808
g1416
asbasbasbag57
(g73
g59
NtRp2809
(dp2810
g62
(dp2811
sg71
g2427
sg64
(lp2812
g57
(g78
g59
NtRp2813
(dp2814
g62
(dp2815
g82
g83
ssg71
g2809
sg64
(lp2816
S'SERVER_SOFTWARE'
p2817
asbag57
(g78
g59
NtRp2818
(dp2819
g62
(dp2820
g89
g90
ssg71
g2809
sg64
(lp2821
S':'
asbag57
(g78
g59
NtRp2822
(dp2823
g62
(dp2824
sg71
g2809
sg64
(lp2825
g57
(g58
g59
NtRp2826
(dp2827
g62
(dp2828
g70
I3
ssg71
g2822
sg64
(lp2829
g1438
asbasbasbag57
(g73
g59
NtRp2830
(dp2831
g62
(dp2832
sg71
g2427
sg64
(lp2833
g57
(g78
g59
NtRp2834
(dp2835
g62
(dp2836
g82
g83
ssg71
g2830
sg64
(lp2837
S'wsgi.errors'
p2838
asbag57
(g78
g59
NtRp2839
(dp2840
g62
(dp2841
g89
g90
ssg71
g2830
sg64
(lp2842
S':'
asbag57
(g78
g59
NtRp2843
(dp2844
g62
(dp2845
sg71
g2830
sg64
(lp2846
g57
(g58
g59
NtRp2847
(dp2848
g62
(dp2849
g70
I3
ssg71
g2843
sg64
(lp2850
S"<open file '<stderr>', mode 'w' at 0x7fb48f9e6270>"
p2851
asbasbasbag57
(g73
g59
NtRp2852
(dp2853
g62
(dp2854
sg71
g2427
sg64
(lp2855
g57
(g78
g59
NtRp2856
(dp2857
g62
(dp2858
g82
g83
ssg71
g2852
sg64
(lp2859
S'wsgi.file_wrapper'
p2860
asbag57
(g78
g59
NtRp2861
(dp2862
g62
(dp2863
g89
g90
ssg71
g2852
sg64
(lp2864
S':'
asbag57
(g78
g59
NtRp2865
(dp2866
g62
(dp2867
sg71
g2852
sg64
(lp2868
g57
(g58
g59
NtRp2869
(dp2870
g62
(dp2871
g70
I3
ssg71
g2865
sg64
(lp2872
S'<class wsgiref.util.FileWrapper at 0x2f52328>'
p2873
asbasbasbag57
(g73
g59
NtRp2874
(dp2875
g62
(dp2876
sg71
g2427
sg64
(lp2877
g57
(g78
g59
NtRp2878
(dp2879
g62
(dp2880
g82
g83
ssg71
g2874
sg64
(lp2881
S'wsgi.input'
p2882
asbag57
(g78
g59
NtRp2883
(dp2884
g62
(dp2885
g89
g90
ssg71
g2874
sg64
(lp2886
S':'
asbag57
(g78
g59
NtRp2887
(dp2888
g62
(dp2889
sg71
g2874
sg64
(lp2890
g57
(g58
g59
NtRp2891
(dp2892
g62
(dp2893
g70
I3
ssg71
g2887
sg64
(lp2894
S'<cStringIO.StringO object at 0x7fb4645ae538>'
p2895
asbasbasbag57
(g73
g59
NtRp2896
(dp2897
g62
(dp2898
sg71
g2427
sg64
(lp2899
g57
(g78
g59
NtRp2900
(dp2901
g62
(dp2902
g82
g83
ssg71
g2896
sg64
(lp2903
S'wsgi.multiprocess'
p2904
asbag57
(g78
g59
NtRp2905
(dp2906
g62
(dp2907
g89
g90
ssg71
g2896
sg64
(lp2908
S':'
asbag57
(g78
g59
NtRp2909
(dp2910
g62
(dp2911
sg71
g2896
sg64
(lp2912
g57
(g58
g59
NtRp2913
(dp2914
g62
(dp2915
g70
I3
ssg71
g2909
sg64
(lp2916
g100
asbasbasbag57
(g73
g59
NtRp2917
(dp2918
g62
(dp2919
sg71
g2427
sg64
(lp2920
g57
(g78
g59
NtRp2921
(dp2922
g62
(dp2923
g82
g83
ssg71
g2917
sg64
(lp2924
S'wsgi.multithread'
p2925
asbag57
(g78
g59
NtRp2926
(dp2927
g62
(dp2928
g89
g90
ssg71
g2917
sg64
(lp2929
S':'
asbag57
(g78
g59
NtRp2930
(dp2931
g62
(dp2932
sg71
g2917
sg64
(lp2933
g57
(g58
g59
NtRp2934
(dp2935
g62
(dp2936
g70
I3
ssg71
g2930
sg64
(lp2937
g1678
asbasbasbag57
(g73
g59
NtRp2938
(dp2939
g62
(dp2940
sg71
g2427
sg64
(lp2941
g57
(g78
g59
NtRp2942
(dp2943
g62
(dp2944
g82
g83
ssg71
g2938
sg64
(lp2945
S'wsgi.run_once'
p2946
asbag57
(g78
g59
NtRp2947
(dp2948
g62
(dp2949
g89
g90
ssg71
g2938
sg64
(lp2950
S':'
asbag57
(g78
g59
NtRp2951
(dp2952
g62
(dp2953
sg71
g2938
sg64
(lp2954
g57
(g58
g59
NtRp2955
(dp2956
g62
(dp2957
g70
I3
ssg71
g2951
sg64
(lp2958
g100
asbasbasbag57
(g73
g59
NtRp2959
(dp2960
g62
(dp2961
sg71
g2427
sg64
(lp2962
g57
(g78
g59
NtRp2963
(dp2964
g62
(dp2965
g82
g83
ssg71
g2959
sg64
(lp2966
S'wsgi.url_scheme'
p2967
asbag57
(g78
g59
NtRp2968
(dp2969
g62
(dp2970
g89
g90
ssg71
g2959
sg64
(lp2971
S':'
asbag57
(g78
g59
NtRp2972
(dp2973
g62
(dp2974
sg71
g2959
sg64
(lp2975
g57
(g58
g59
NtRp2976
(dp2977
g62
(dp2978
g70
I3
ssg71
g2972
sg64
(lp2979
g1721
asbasbasbag57
(g73
g59
NtRp2980
(dp2981
g62
(dp2982
sg71
g2427
sg64
(lp2983
g57
(g78
g59
NtRp2984
(dp2985
g62
(dp2986
g82
g83
ssg71
g2980
sg64
(lp2987
S'wsgi.version'
p2988
asbag57
(g78
g59
NtRp2989
(dp2990
g62
(dp2991
g89
g90
ssg71
g2980
sg64
(lp2992
S':'
asbag57
(g78
g59
NtRp2993
(dp2994
g62
(dp2995
sg71
g2980
sg64
(lp2996
g57
(g58
g59
NtRp2997
(dp2998
g62
(dp2999
g70
I3
ssg71
g2993
sg64
(lp3000
S'1'
asbasbasbasbasbasbasbasbasbasbasbasbasbsS'frames'
p3001
(lp3002
(dp3003
S'file'
p3004
S'/usr/lib/pymodules/python2.7/gluon/restricted.py'
p3005
sS'dump'
p3006
(dp3007
S'environment'
p3008
S"{'A': <class 'gluon.html.A'>, 'Auth': <class 'gluon.tools.Auth'>, 'B': <class 'gluon.html.B'>, 'BEAUTIFY': <class 'gluon.html.BEAUTIFY'>, 'BODY': <class 'gluon.html.BODY'>, 'BR': <class 'gluon.html.BR'>, 'BUTTON': <class 'gluon.html.BUTTON'>, 'CAT': <class 'gluon.html.CAT'>, 'CENTER': <class 'gluon.html.CENTER'>, 'CLEANUP': <class 'gluon.validators.CLEANUP'>, ...}"
p3009
sS'ccode'
p3010
S'<code object <module> at 0x7fb4645b3530, file "/...lications/app1/views/default/index.html", line 1>'
p3011
ssS'lnum'
p3012
I204
sS'lines'
p3013
(dp3014
I199
S'    try:'
p3015
sI200
S'        if type(code) == types.CodeType:'
p3016
sI201
S'            ccode = code'
p3017
sI202
S'        else:'
p3018
sI203
S'            ccode = compile2(code,layer)'
p3019
sI204
S'        exec ccode in environment'
p3020
sI205
S'    except HTTP:'
p3021
sI206
S'        raise'
p3022
sI207
S'    except RestrictedError:'
p3023
sI208
S'        # do not encapsulate (obfuscate) the original RestrictedError'
p3024
ssS'call'
p3025
S'(code=r"response.write(\'<!DOCTYPE html>\\n<!-- paulirish....ponse.write(\'\\n</body>\\n</html>\\n\', escape=False)", environment={\'A\': <class \'gluon.html.A\'>, \'Auth\': <class \'gluon.tools.Auth\'>, \'B\': <class \'gluon.html.B\'>, \'BEAUTIFY\': <class \'gluon.html.BEAUTIFY\'>, \'BODY\': <class \'gluon.html.BODY\'>, \'BR\': <class \'gluon.html.BR\'>, \'BUTTON\': <class \'gluon.html.BUTTON\'>, \'CAT\': <class \'gluon.html.CAT\'>, \'CENTER\': <class \'gluon.html.CENTER\'>, \'CLEANUP\': <class \'gluon.validators.CLEANUP\'>, ...}, layer=\'/home/jigar/web2py/applications/app1/views/default/index.html\')'
p3026
sS'func'
p3027
S'restricted'
p3028
sa(dp3029
g3004
S'/home/jigar/web2py/applications/app1/views/default/index.html'
p3030
sg3006
(dp3031
sg3012
I76
sg3013
(dp3032
I67
S'    response.write(\'\\n        <div class="four columns left-sidebar">\\n          \', escape=False)'
p3033
sI68
S"    response.write('\\n          <h3>Left Sidebar</h3>\\n          <p></p>\\n          ', escape=False)"
p3034
sI69
S"    response.write('\\n        </div>\\n        ', escape=False)"
p3035
sI70
S'    pass'
p3036
sI71
S'response.write(\'\\n        \\n        <div class="\', escape=False)'
p3037
sI72
S'response.write(middle_columns)'
p3038
sI73
S'response.write(\' columns center">\\n          \', escape=False)'
p3039
sI74
S"response.write('\\n          ', escape=False)"
p3040
sI75
S"response.write('\\n<table>\\n<tr>\\n<th>CATEGORIES :</th>\\n', escape=False)"
p3041
sI76
S'for j in range(len(ca)):'
p3042
sI77
S'    response.write("\\n<td><a href=\'/app1/default/listcat/", escape=False)'
p3043
sI78
S"    response.write(ca[j]['id'])"
p3044
sI79
S'    response.write("\'>", escape=False)'
p3045
sI80
S"    response.write(ca[j]['Name'])"
p3046
sI81
S"    response.write('</a></td>\\n', escape=False)"
p3047
sI82
S'    pass'
p3048
sI83
S'response.write("\\n</tr>\\n</table>\\n<br>\\n<img src=\'", escape=False)'
p3049
sI84
S"response.write(URL('download', args=auth.user.Profile_Pic))"
p3050
sI85
S'response.write("\' style=\'float:right\' width=\'175px\' height=\'175px\'>\\n<h3 style=\'color:darkblue\'>WELCOME ", escape=False)'
p3051
sI86
S'response.write(auth.user.first_name)'
p3052
ssg3025
S'()'
p3053
sg3027
S'<module>'
p3054
sasS'pyver'
p3055
S'Python 2.7.3: /usr/bin/python'
p3056
sS'session'
p3057
g57
(g58
g59
NtRp3058
(dp3059
g62
(dp3060
sg64
(lp3061
g57
(g66
g59
NtRp3062
(dp3063
g62
(dp3064
g70
I5
ssg71
Nsg64
(lp3065
g57
(g73
g59
NtRp3066
(dp3067
g62
(dp3068
sg71
g3062
sg64
(lp3069
g57
(g78
g59
NtRp3070
(dp3071
g62
(dp3072
g82
g83
ssg71
g3066
sg64
(lp3073
S'last_query'
p3074
asbag57
(g78
g59
NtRp3075
(dp3076
g62
(dp3077
g89
g90
ssg71
g3066
sg64
(lp3078
S':'
asbag57
(g78
g59
NtRp3079
(dp3080
g62
(dp3081
sg71
g3066
sg64
(lp3082
g57
(g58
g59
NtRp3083
(dp3084
g62
(dp3085
g70
I5
ssg71
g3079
sg64
(lp3086
S'db.auth_user.id>0'
p3087
asbasbasbasbasbsS'etype'
p3088
S"<type 'exceptions.NameError'>"
p3089
sS'date'
p3090
S'Mon Sep  2 20:32:49 2013'
p3091
sS'response'
p3092
g57
(g58
g59
NtRp3093
(dp3094
g62
(dp3095
sg64
(lp3096
g57
(g66
g59
NtRp3097
(dp3098
g62
(dp3099
g70
I5
ssg71
Nsg64
(lp3100
g57
(g73
g59
NtRp3101
(dp3102
g62
(dp3103
sg71
g3097
sg64
(lp3104
g57
(g78
g59
NtRp3105
(dp3106
g62
(dp3107
g82
g83
ssg71
g3101
sg64
(lp3108
g155
asbag57
(g78
g59
NtRp3109
(dp3110
g62
(dp3111
g89
g90
ssg71
g3101
sg64
(lp3112
S':'
asbag57
(g78
g59
NtRp3113
(dp3114
g62
(dp3115
sg71
g3101
sg64
(lp3116
g57
(g58
g59
NtRp3117
(dp3118
g62
(dp3119
g70
I5
ssg71
g3113
sg64
(lp3120
S'<cStringIO.StringO object at 0x7fb4645ae6c0>'
p3121
asbasbasbag57
(g73
g59
NtRp3122
(dp3123
g62
(dp3124
sg71
g3097
sg64
(lp3125
g57
(g78
g59
NtRp3126
(dp3127
g62
(dp3128
g82
g83
ssg71
g3122
sg64
(lp3129
g221
asbag57
(g78
g59
NtRp3130
(dp3131
g62
(dp3132
g89
g90
ssg71
g3122
sg64
(lp3133
S':'
asbag57
(g78
g59
NtRp3134
(dp3135
g62
(dp3136
sg71
g3122
sg64
(lp3137
g57
(g58
g59
NtRp3138
(dp3139
g62
(dp3140
g70
I5
ssg71
g3134
sg64
(lp3141
g57
(g66
g59
NtRp3142
(dp3143
g62
(dp3144
g70
I4
ssg71
Nsg64
(lp3145
g57
(g73
g59
NtRp3146
(dp3147
g62
(dp3148
sg71
g3142
sg64
(lp3149
g57
(g78
g59
NtRp3150
(dp3151
g62
(dp3152
g82
g83
ssg71
g3146
sg64
(lp3153
S'session_id_app1'
p3154
asbag57
(g78
g59
NtRp3155
(dp3156
g62
(dp3157
g89
g90
ssg71
g3146
sg64
(lp3158
S':'
asbag57
(g78
g59
NtRp3159
(dp3160
g62
(dp3161
sg71
g3146
sg64
(lp3162
g57
(g58
g59
NtRp3163
(dp3164
g62
(dp3165
g70
I4
ssg71
g3159
sg64
(lp3166
g57
(g66
g59
NtRp3167
(dp3168
g62
(dp3169
g70
I3
ssg71
Nsg64
(lp3170
g57
(g73
g59
NtRp3171
(dp3172
g62
(dp3173
sg71
g3167
sg64
(lp3174
g57
(g78
g59
NtRp3175
(dp3176
g62
(dp3177
g82
g83
ssg71
g3171
sg64
(lp3178
g271
asbag57
(g78
g59
NtRp3179
(dp3180
g62
(dp3181
g89
g90
ssg71
g3171
sg64
(lp3182
S':'
asbag57
(g78
g59
NtRp3183
(dp3184
g62
(dp3185
sg71
g3171
sg64
(lp3186
g57
(g58
g59
NtRp3187
(dp3188
g62
(dp3189
g70
I3
ssg71
g3183
sg64
(lp3190
S''
asbasbasbag57
(g73
g59
NtRp3191
(dp3192
g62
(dp3193
sg71
g3167
sg64
(lp3194
g57
(g78
g59
NtRp3195
(dp3196
g62
(dp3197
g82
g83
ssg71
g3191
sg64
(lp3198
g292
asbag57
(g78
g59
NtRp3199
(dp3200
g62
(dp3201
g89
g90
ssg71
g3191
sg64
(lp3202
S':'
asbag57
(g78
g59
NtRp3203
(dp3204
g62
(dp3205
sg71
g3191
sg64
(lp3206
g57
(g58
g59
NtRp3207
(dp3208
g62
(dp3209
g70
I3
ssg71
g3203
sg64
(lp3210
S''
asbasbasbag57
(g73
g59
NtRp3211
(dp3212
g62
(dp3213
sg71
g3167
sg64
(lp3214
g57
(g78
g59
NtRp3215
(dp3216
g62
(dp3217
g82
g83
ssg71
g3211
sg64
(lp3218
g313
asbag57
(g78
g59
NtRp3219
(dp3220
g62
(dp3221
g89
g90
ssg71
g3211
sg64
(lp3222
S':'
asbag57
(g78
g59
NtRp3223
(dp3224
g62
(dp3225
sg71
g3211
sg64
(lp3226
g57
(g58
g59
NtRp3227
(dp3228
g62
(dp3229
g70
I3
ssg71
g3223
sg64
(lp3230
S''
asbasbasbag57
(g73
g59
NtRp3231
(dp3232
g62
(dp3233
sg71
g3167
sg64
(lp3234
g57
(g78
g59
NtRp3235
(dp3236
g62
(dp3237
g82
g83
ssg71
g3231
sg64
(lp3238
g334
asbag57
(g78
g59
NtRp3239
(dp3240
g62
(dp3241
g89
g90
ssg71
g3231
sg64
(lp3242
S':'
asbag57
(g78
g59
NtRp3243
(dp3244
g62
(dp3245
sg71
g3231
sg64
(lp3246
g57
(g58
g59
NtRp3247
(dp3248
g62
(dp3249
g70
I3
ssg71
g3243
sg64
(lp3250
S''
asbasbasbag57
(g73
g59
NtRp3251
(dp3252
g62
(dp3253
sg71
g3167
sg64
(lp3254
g57
(g78
g59
NtRp3255
(dp3256
g62
(dp3257
g82
g83
ssg71
g3251
sg64
(lp3258
g355
asbag57
(g78
g59
NtRp3259
(dp3260
g62
(dp3261
g89
g90
ssg71
g3251
sg64
(lp3262
S':'
asbag57
(g78
g59
NtRp3263
(dp3264
g62
(dp3265
sg71
g3251
sg64
(lp3266
g57
(g58
g59
NtRp3267
(dp3268
g62
(dp3269
g70
I3
ssg71
g3263
sg64
(lp3270
S''
asbasbasbag57
(g73
g59
NtRp3271
(dp3272
g62
(dp3273
sg71
g3167
sg64
(lp3274
g57
(g78
g59
NtRp3275
(dp3276
g62
(dp3277
g82
g83
ssg71
g3271
sg64
(lp3278
g376
asbag57
(g78
g59
NtRp3279
(dp3280
g62
(dp3281
g89
g90
ssg71
g3271
sg64
(lp3282
S':'
asbag57
(g78
g59
NtRp3283
(dp3284
g62
(dp3285
sg71
g3271
sg64
(lp3286
g57
(g58
g59
NtRp3287
(dp3288
g62
(dp3289
g70
I3
ssg71
g3283
sg64
(lp3290
S'/'
asbasbasbag57
(g73
g59
NtRp3291
(dp3292
g62
(dp3293
sg71
g3167
sg64
(lp3294
g57
(g78
g59
NtRp3295
(dp3296
g62
(dp3297
g82
g83
ssg71
g3291
sg64
(lp3298
g397
asbag57
(g78
g59
NtRp3299
(dp3300
g62
(dp3301
g89
g90
ssg71
g3291
sg64
(lp3302
S':'
asbag57
(g78
g59
NtRp3303
(dp3304
g62
(dp3305
sg71
g3291
sg64
(lp3306
g57
(g58
g59
NtRp3307
(dp3308
g62
(dp3309
g70
I3
ssg71
g3303
sg64
(lp3310
S''
asbasbasbag57
(g73
g59
NtRp3311
(dp3312
g62
(dp3313
sg71
g3167
sg64
(lp3314
g57
(g78
g59
NtRp3315
(dp3316
g62
(dp3317
g82
g83
ssg71
g3311
sg64
(lp3318
g418
asbag57
(g78
g59
NtRp3319
(dp3320
g62
(dp3321
g89
g90
ssg71
g3311
sg64
(lp3322
S':'
asbag57
(g78
g59
NtRp3323
(dp3324
g62
(dp3325
sg71
g3311
sg64
(lp3326
g57
(g58
g59
NtRp3327
(dp3328
g62
(dp3329
g70
I3
ssg71
g3323
sg64
(lp3330
S''
asbasbasbasbasbasbasbasbasbasbasbag57
(g73
g59
NtRp3331
(dp3332
g62
(dp3333
sg71
g3097
sg64
(lp3334
g57
(g78
g59
NtRp3335
(dp3336
g62
(dp3337
g82
g83
ssg71
g3331
sg64
(lp3338
S'files'
p3339
asbag57
(g78
g59
NtRp3340
(dp3341
g62
(dp3342
g89
g90
ssg71
g3331
sg64
(lp3343
S':'
asbag57
(g78
g59
NtRp3344
(dp3345
g62
(dp3346
sg71
g3331
sg64
(lp3347
g57
(g58
g59
NtRp3348
(dp3349
g62
(dp3350
g70
I5
ssg71
g3344
sg64
(lp3351
g57
(g66
g59
NtRp3352
(dp3353
g62
(dp3354
g70
I4
ssg71
Nsg64
(lp3355
g57
(g73
g59
NtRp3356
(dp3357
g62
(dp3358
sg71
g3352
sg64
(lp3359
g57
(g78
g59
NtRp3360
(dp3361
g62
(dp3362
sg71
g3356
sg64
(lp3363
g57
(g58
g59
NtRp3364
(dp3365
g62
(dp3366
g70
I4
ssg71
g3360
sg64
(lp3367
S'/app1/static/js/jquery.js'
p3368
asbasbasbag57
(g73
g59
NtRp3369
(dp3370
g62
(dp3371
sg71
g3352
sg64
(lp3372
g57
(g78
g59
NtRp3373
(dp3374
g62
(dp3375
sg71
g3369
sg64
(lp3376
g57
(g58
g59
NtRp3377
(dp3378
g62
(dp3379
g70
I4
ssg71
g3373
sg64
(lp3380
S'/app1/static/css/calendar.css'
p3381
asbasbasbag57
(g73
g59
NtRp3382
(dp3383
g62
(dp3384
sg71
g3352
sg64
(lp3385
g57
(g78
g59
NtRp3386
(dp3387
g62
(dp3388
sg71
g3382
sg64
(lp3389
g57
(g58
g59
NtRp3390
(dp3391
g62
(dp3392
g70
I4
ssg71
g3386
sg64
(lp3393
S'/app1/static/js/calendar.js'
p3394
asbasbasbag57
(g73
g59
NtRp3395
(dp3396
g62
(dp3397
sg71
g3352
sg64
(lp3398
g57
(g78
g59
NtRp3399
(dp3400
g62
(dp3401
sg71
g3395
sg64
(lp3402
g57
(g58
g59
NtRp3403
(dp3404
g62
(dp3405
g70
I4
ssg71
g3399
sg64
(lp3406
S'/app1/static/js/web2py.js'
p3407
asbasbasbag57
(g73
g59
NtRp3408
(dp3409
g62
(dp3410
sg71
g3352
sg64
(lp3411
g57
(g78
g59
NtRp3412
(dp3413
g62
(dp3414
sg71
g3408
sg64
(lp3415
g57
(g58
g59
NtRp3416
(dp3417
g62
(dp3418
g70
I4
ssg71
g3412
sg64
(lp3419
S'/app1/static/css/skeleton.css'
p3420
asbasbasbag57
(g73
g59
NtRp3421
(dp3422
g62
(dp3423
sg71
g3352
sg64
(lp3424
g57
(g78
g59
NtRp3425
(dp3426
g62
(dp3427
sg71
g3421
sg64
(lp3428
g57
(g58
g59
NtRp3429
(dp3430
g62
(dp3431
g70
I4
ssg71
g3425
sg64
(lp3432
S'/app1/static/css/web2py.css'
p3433
asbasbasbag57
(g73
g59
NtRp3434
(dp3435
g62
(dp3436
sg71
g3352
sg64
(lp3437
g57
(g78
g59
NtRp3438
(dp3439
g62
(dp3440
sg71
g3434
sg64
(lp3441
g57
(g58
g59
NtRp3442
(dp3443
g62
(dp3444
g70
I4
ssg71
g3438
sg64
(lp3445
S'/app1/static/css/superfish.css'
p3446
asbasbasbag57
(g73
g59
NtRp3447
(dp3448
g62
(dp3449
sg71
g3352
sg64
(lp3450
g57
(g78
g59
NtRp3451
(dp3452
g62
(dp3453
sg71
g3447
sg64
(lp3454
g57
(g58
g59
NtRp3455
(dp3456
g62
(dp3457
g70
I4
ssg71
g3451
sg64
(lp3458
S'/app1/static/js/superfish.js'
p3459
asbasbasbasbasbasbasbag57
(g73
g59
NtRp3460
(dp3461
g62
(dp3462
sg71
g3097
sg64
(lp3463
g57
(g78
g59
NtRp3464
(dp3465
g62
(dp3466
g82
g83
ssg71
g3460
sg64
(lp3467
S'flash'
p3468
asbag57
(g78
g59
NtRp3469
(dp3470
g62
(dp3471
g89
g90
ssg71
g3460
sg64
(lp3472
S':'
asbag57
(g78
g59
NtRp3473
(dp3474
g62
(dp3475
sg71
g3460
sg64
(lp3476
g57
(g58
g59
NtRp3477
(dp3478
g62
(dp3479
g70
I5
ssg71
g3473
sg64
(lp3480
S'Welcome to web2py!'
p3481
asbasbasbag57
(g73
g59
NtRp3482
(dp3483
g62
(dp3484
sg71
g3097
sg64
(lp3485
g57
(g78
g59
NtRp3486
(dp3487
g62
(dp3488
g82
g83
ssg71
g3482
sg64
(lp3489
S'generic_patterns'
p3490
asbag57
(g78
g59
NtRp3491
(dp3492
g62
(dp3493
g89
g90
ssg71
g3482
sg64
(lp3494
S':'
asbag57
(g78
g59
NtRp3495
(dp3496
g62
(dp3497
sg71
g3482
sg64
(lp3498
g57
(g58
g59
NtRp3499
(dp3500
g62
(dp3501
g70
I5
ssg71
g3495
sg64
(lp3502
g57
(g66
g59
NtRp3503
(dp3504
g62
(dp3505
g70
I4
ssg71
Nsg64
(lp3506
g57
(g73
g59
NtRp3507
(dp3508
g62
(dp3509
sg71
g3503
sg64
(lp3510
g57
(g78
g59
NtRp3511
(dp3512
g62
(dp3513
sg71
g3507
sg64
(lp3514
g57
(g58
g59
NtRp3515
(dp3516
g62
(dp3517
g70
I4
ssg71
g3511
sg64
(lp3518
S'*'
asbasbasbasbasbasbasbag57
(g73
g59
NtRp3519
(dp3520
g62
(dp3521
sg71
g3097
sg64
(lp3522
g57
(g78
g59
NtRp3523
(dp3524
g62
(dp3525
g82
g83
ssg71
g3519
sg64
(lp3526
S'headers'
p3527
asbag57
(g78
g59
NtRp3528
(dp3529
g62
(dp3530
g89
g90
ssg71
g3519
sg64
(lp3531
S':'
asbag57
(g78
g59
NtRp3532
(dp3533
g62
(dp3534
sg71
g3519
sg64
(lp3535
g57
(g58
g59
NtRp3536
(dp3537
g62
(dp3538
g70
I5
ssg71
g3532
sg64
(lp3539
g57
(g66
g59
NtRp3540
(dp3541
g62
(dp3542
g70
I4
ssg71
Nsg64
(lp3543
g57
(g73
g59
NtRp3544
(dp3545
g62
(dp3546
sg71
g3540
sg64
(lp3547
g57
(g78
g59
NtRp3548
(dp3549
g62
(dp3550
g82
g83
ssg71
g3544
sg64
(lp3551
S'Cache-Control'
p3552
asbag57
(g78
g59
NtRp3553
(dp3554
g62
(dp3555
g89
g90
ssg71
g3544
sg64
(lp3556
S':'
asbag57
(g78
g59
NtRp3557
(dp3558
g62
(dp3559
sg71
g3544
sg64
(lp3560
g57
(g58
g59
NtRp3561
(dp3562
g62
(dp3563
g70
I4
ssg71
g3557
sg64
(lp3564
S'no-store, no-cache, must-revalidate, post-check=0, pre-check=0'
p3565
asbasbasbag57
(g73
g59
NtRp3566
(dp3567
g62
(dp3568
sg71
g3540
sg64
(lp3569
g57
(g78
g59
NtRp3570
(dp3571
g62
(dp3572
g82
g83
ssg71
g3566
sg64
(lp3573
S'Content-Type'
p3574
asbag57
(g78
g59
NtRp3575
(dp3576
g62
(dp3577
g89
g90
ssg71
g3566
sg64
(lp3578
S':'
asbag57
(g78
g59
NtRp3579
(dp3580
g62
(dp3581
sg71
g3566
sg64
(lp3582
g57
(g58
g59
NtRp3583
(dp3584
g62
(dp3585
g70
I4
ssg71
g3579
sg64
(lp3586
S'text/html; charset=utf-8'
p3587
asbasbasbag57
(g73
g59
NtRp3588
(dp3589
g62
(dp3590
sg71
g3540
sg64
(lp3591
g57
(g78
g59
NtRp3592
(dp3593
g62
(dp3594
g82
g83
ssg71
g3588
sg64
(lp3595
S'Expires'
p3596
asbag57
(g78
g59
NtRp3597
(dp3598
g62
(dp3599
g89
g90
ssg71
g3588
sg64
(lp3600
S':'
asbag57
(g78
g59
NtRp3601
(dp3602
g62
(dp3603
sg71
g3588
sg64
(lp3604
g57
(g58
g59
NtRp3605
(dp3606
g62
(dp3607
g70
I4
ssg71
g3601
sg64
(lp3608
S'Mon, 02 Sep 2013 15:02:49 GMT'
p3609
asbasbasbag57
(g73
g59
NtRp3610
(dp3611
g62
(dp3612
sg71
g3540
sg64
(lp3613
g57
(g78
g59
NtRp3614
(dp3615
g62
(dp3616
g82
g83
ssg71
g3610
sg64
(lp3617
S'Pragma'
p3618
asbag57
(g78
g59
NtRp3619
(dp3620
g62
(dp3621
g89
g90
ssg71
g3610
sg64
(lp3622
S':'
asbag57
(g78
g59
NtRp3623
(dp3624
g62
(dp3625
sg71
g3610
sg64
(lp3626
g57
(g58
g59
NtRp3627
(dp3628
g62
(dp3629
g70
I4
ssg71
g3623
sg64
(lp3630
S'no-cache'
p3631
asbasbasbag57
(g73
g59
NtRp3632
(dp3633
g62
(dp3634
sg71
g3540
sg64
(lp3635
g57
(g78
g59
NtRp3636
(dp3637
g62
(dp3638
g82
g83
ssg71
g3632
sg64
(lp3639
S'X-Powered-By'
p3640
asbag57
(g78
g59
NtRp3641
(dp3642
g62
(dp3643
g89
g90
ssg71
g3632
sg64
(lp3644
S':'
asbag57
(g78
g59
NtRp3645
(dp3646
g62
(dp3647
sg71
g3632
sg64
(lp3648
g57
(g58
g59
NtRp3649
(dp3650
g62
(dp3651
g70
I4
ssg71
g3645
sg64
(lp3652
S'web2py'
p3653
asbasbasbasbasbasbasbag57
(g73
g59
NtRp3654
(dp3655
g62
(dp3656
sg71
g3097
sg64
(lp3657
g57
(g78
g59
NtRp3658
(dp3659
g62
(dp3660
g82
g83
ssg71
g3654
sg64
(lp3661
S'menu'
p3662
asbag57
(g78
g59
NtRp3663
(dp3664
g62
(dp3665
g89
g90
ssg71
g3654
sg64
(lp3666
S':'
asbag57
(g78
g59
NtRp3667
(dp3668
g62
(dp3669
sg71
g3654
sg64
(lp3670
g57
(g58
g59
NtRp3671
(dp3672
g62
(dp3673
g70
I5
ssg71
g3667
sg64
(lp3674
g57
(g66
g59
NtRp3675
(dp3676
g62
(dp3677
g70
I4
ssg71
Nsg64
(lp3678
g57
(g73
g59
NtRp3679
(dp3680
g62
(dp3681
sg71
g3675
sg64
(lp3682
g57
(g78
g59
NtRp3683
(dp3684
g62
(dp3685
sg71
g3679
sg64
(lp3686
g57
(g58
g59
NtRp3687
(dp3688
g62
(dp3689
g70
I4
ssg71
g3683
sg64
(lp3690
g57
(g66
g59
NtRp3691
(dp3692
g62
(dp3693
g70
I3
ssg71
Nsg64
(lp3694
g57
(g73
g59
NtRp3695
(dp3696
g62
(dp3697
sg71
g3691
sg64
(lp3698
g57
(g78
g59
NtRp3699
(dp3700
g62
(dp3701
sg71
g3695
sg64
(lp3702
g57
(g58
g59
NtRp3703
(dp3704
g62
(dp3705
g70
I3
ssg71
g3699
sg64
(lp3706
cgluon.languages
lazyT_unpickle
p3707
(S't\x04\x00\x00\x00Home'
tRp3708
asbasbasbag57
(g73
g59
NtRp3709
(dp3710
g62
(dp3711
sg71
g3691
sg64
(lp3712
g57
(g78
g59
NtRp3713
(dp3714
g62
(dp3715
sg71
g3709
sg64
(lp3716
g57
(g58
g59
NtRp3717
(dp3718
g62
(dp3719
g70
I3
ssg71
g3713
sg64
(lp3720
g100
asbasbasbag57
(g73
g59
NtRp3721
(dp3722
g62
(dp3723
sg71
g3691
sg64
(lp3724
g57
(g78
g59
NtRp3725
(dp3726
g62
(dp3727
sg71
g3721
sg64
(lp3728
g57
(g58
g59
NtRp3729
(dp3730
g62
(dp3731
g70
I3
ssg71
g3725
sg64
(lp3732
S'/app1/default/lall'
p3733
asbasbasbag57
(g73
g59
NtRp3734
(dp3735
g62
(dp3736
sg71
g3691
sg64
(lp3737
g57
(g78
g59
NtRp3738
(dp3739
g62
(dp3740
sg71
g3734
sg64
(lp3741
g57
(g58
g59
NtRp3742
(dp3743
g62
(dp3744
g70
I3
ssg71
g3738
sg64
(lp3745
g57
(g66
g59
NtRp3746
(dp3747
g62
(dp3748
g70
I2
ssg71
Nsg64
(lp3749
sbasbasbasbasbasbasbasbag57
(g73
g59
NtRp3750
(dp3751
g62
(dp3752
sg71
g3675
sg64
(lp3753
g57
(g78
g59
NtRp3754
(dp3755
g62
(dp3756
sg71
g3750
sg64
(lp3757
g57
(g58
g59
NtRp3758
(dp3759
g62
(dp3760
g70
I4
ssg71
g3754
sg64
(lp3761
g57
(g66
g59
NtRp3762
(dp3763
g62
(dp3764
g70
I3
ssg71
Nsg64
(lp3765
g57
(g73
g59
NtRp3766
(dp3767
g62
(dp3768
sg71
g3762
sg64
(lp3769
g57
(g78
g59
NtRp3770
(dp3771
g62
(dp3772
sg71
g3766
sg64
(lp3773
g57
(g58
g59
NtRp3774
(dp3775
g62
(dp3776
g70
I3
ssg71
g3770
sg64
(lp3777
g3707
(S's\x08\x00\x00\x00Post it!'
tRp3778
asbasbasbag57
(g73
g59
NtRp3779
(dp3780
g62
(dp3781
sg71
g3762
sg64
(lp3782
g57
(g78
g59
NtRp3783
(dp3784
g62
(dp3785
sg71
g3779
sg64
(lp3786
g57
(g58
g59
NtRp3787
(dp3788
g62
(dp3789
g70
I3
ssg71
g3783
sg64
(lp3790
g100
asbasbasbag57
(g73
g59
NtRp3791
(dp3792
g62
(dp3793
sg71
g3762
sg64
(lp3794
g57
(g78
g59
NtRp3795
(dp3796
g62
(dp3797
sg71
g3791
sg64
(lp3798
g57
(g58
g59
NtRp3799
(dp3800
g62
(dp3801
g70
I3
ssg71
g3795
sg64
(lp3802
S'/app1/default/postnews'
p3803
asbasbasbag57
(g73
g59
NtRp3804
(dp3805
g62
(dp3806
sg71
g3762
sg64
(lp3807
g57
(g78
g59
NtRp3808
(dp3809
g62
(dp3810
sg71
g3804
sg64
(lp3811
g57
(g58
g59
NtRp3812
(dp3813
g62
(dp3814
g70
I3
ssg71
g3808
sg64
(lp3815
g57
(g66
g59
NtRp3816
(dp3817
g62
(dp3818
g70
I2
ssg71
Nsg64
(lp3819
sbasbasbasbasbasbasbasbag57
(g73
g59
NtRp3820
(dp3821
g62
(dp3822
sg71
g3675
sg64
(lp3823
g57
(g78
g59
NtRp3824
(dp3825
g62
(dp3826
sg71
g3820
sg64
(lp3827
g57
(g58
g59
NtRp3828
(dp3829
g62
(dp3830
g70
I4
ssg71
g3824
sg64
(lp3831
g57
(g66
g59
NtRp3832
(dp3833
g62
(dp3834
g70
I3
ssg71
Nsg64
(lp3835
g57
(g73
g59
NtRp3836
(dp3837
g62
(dp3838
sg71
g3832
sg64
(lp3839
g57
(g78
g59
NtRp3840
(dp3841
g62
(dp3842
sg71
g3836
sg64
(lp3843
g57
(g58
g59
NtRp3844
(dp3845
g62
(dp3846
g70
I3
ssg71
g3840
sg64
(lp3847
g3707
(S's\x10\x00\x00\x00Throw a User Out'
tRp3848
asbasbasbag57
(g73
g59
NtRp3849
(dp3850
g62
(dp3851
sg71
g3832
sg64
(lp3852
g57
(g78
g59
NtRp3853
(dp3854
g62
(dp3855
sg71
g3849
sg64
(lp3856
g57
(g58
g59
NtRp3857
(dp3858
g62
(dp3859
g70
I3
ssg71
g3853
sg64
(lp3860
g100
asbasbasbag57
(g73
g59
NtRp3861
(dp3862
g62
(dp3863
sg71
g3832
sg64
(lp3864
g57
(g78
g59
NtRp3865
(dp3866
g62
(dp3867
sg71
g3861
sg64
(lp3868
g57
(g58
g59
NtRp3869
(dp3870
g62
(dp3871
g70
I3
ssg71
g3865
sg64
(lp3872
S'/app1/default/delaccount'
p3873
asbasbasbag57
(g73
g59
NtRp3874
(dp3875
g62
(dp3876
sg71
g3832
sg64
(lp3877
g57
(g78
g59
NtRp3878
(dp3879
g62
(dp3880
sg71
g3874
sg64
(lp3881
g57
(g58
g59
NtRp3882
(dp3883
g62
(dp3884
g70
I3
ssg71
g3878
sg64
(lp3885
g57
(g66
g59
NtRp3886
(dp3887
g62
(dp3888
g70
I2
ssg71
Nsg64
(lp3889
sbasbasbasbasbasbasbasbag57
(g73
g59
NtRp3890
(dp3891
g62
(dp3892
sg71
g3675
sg64
(lp3893
g57
(g78
g59
NtRp3894
(dp3895
g62
(dp3896
sg71
g3890
sg64
(lp3897
g57
(g58
g59
NtRp3898
(dp3899
g62
(dp3900
g70
I4
ssg71
g3894
sg64
(lp3901
g57
(g66
g59
NtRp3902
(dp3903
g62
(dp3904
g70
I3
ssg71
Nsg64
(lp3905
g57
(g73
g59
NtRp3906
(dp3907
g62
(dp3908
sg71
g3902
sg64
(lp3909
g57
(g78
g59
NtRp3910
(dp3911
g62
(dp3912
sg71
g3906
sg64
(lp3913
g57
(g58
g59
NtRp3914
(dp3915
g62
(dp3916
g70
I3
ssg71
g3910
sg64
(lp3917
g3707
(S's\x12\x00\x00\x00Add a new Category'
tRp3918
asbasbasbag57
(g73
g59
NtRp3919
(dp3920
g62
(dp3921
sg71
g3902
sg64
(lp3922
g57
(g78
g59
NtRp3923
(dp3924
g62
(dp3925
sg71
g3919
sg64
(lp3926
g57
(g58
g59
NtRp3927
(dp3928
g62
(dp3929
g70
I3
ssg71
g3923
sg64
(lp3930
g100
asbasbasbag57
(g73
g59
NtRp3931
(dp3932
g62
(dp3933
sg71
g3902
sg64
(lp3934
g57
(g78
g59
NtRp3935
(dp3936
g62
(dp3937
sg71
g3931
sg64
(lp3938
g57
(g58
g59
NtRp3939
(dp3940
g62
(dp3941
g70
I3
ssg71
g3935
sg64
(lp3942
S'/app1/default/addcat'
p3943
asbasbasbag57
(g73
g59
NtRp3944
(dp3945
g62
(dp3946
sg71
g3902
sg64
(lp3947
g57
(g78
g59
NtRp3948
(dp3949
g62
(dp3950
sg71
g3944
sg64
(lp3951
g57
(g58
g59
NtRp3952
(dp3953
g62
(dp3954
g70
I3
ssg71
g3948
sg64
(lp3955
g57
(g66
g59
NtRp3956
(dp3957
g62
(dp3958
g70
I2
ssg71
Nsg64
(lp3959
sbasbasbasbasbasbasbasbag57
(g73
g59
NtRp3960
(dp3961
g62
(dp3962
sg71
g3675
sg64
(lp3963
g57
(g78
g59
NtRp3964
(dp3965
g62
(dp3966
sg71
g3960
sg64
(lp3967
g57
(g58
g59
NtRp3968
(dp3969
g62
(dp3970
g70
I4
ssg71
g3964
sg64
(lp3971
g57
(g66
g59
NtRp3972
(dp3973
g62
(dp3974
g70
I3
ssg71
Nsg64
(lp3975
g57
(g73
g59
NtRp3976
(dp3977
g62
(dp3978
sg71
g3972
sg64
(lp3979
g57
(g78
g59
NtRp3980
(dp3981
g62
(dp3982
sg71
g3976
sg64
(lp3983
g57
(g58
g59
NtRp3984
(dp3985
g62
(dp3986
g70
I3
ssg71
g3980
sg64
(lp3987
g57
(cgluon.html
SPAN
p3988
g59
NtRp3989
(dp3990
g62
(dp3991
g82
S'color:yellow'
p3992
ssg71
g57
(cgluon.html
A
p3993
g59
NtRp3994
(dp3995
g62
(dp3996
S'_onclick'
p3997
S'javascript:void(0);return false;'
p3998
sS'_href'
p3999
S'#'
ssg71
g57
(cgluon.html
LI
p4000
g59
NtRp4001
(dp4002
g62
(dp4003
S'_class'
p4004
S'web2py-menu-expand'
p4005
ssg71
g57
(cgluon.html
UL
p4006
g59
NtRp4007
(dp4008
g62
(dp4009
S'mobile'
p4010
I00
sS'li_class'
p4011
g4005
sg4004
S'sf-menu'
p4012
sS'ul_class'
p4013
S'web2py-menu-vertical'
p4014
sS'li_active'
p4015
S'web2py-menu-active'
p4016
ssg71
Nsg64
(lp4017
g57
(g4000
g59
NtRp4018
(dp4019
g62
(dp4020
sg71
g4007
sg64
(lp4021
g57
(g3993
g59
NtRp4022
(dp4023
g62
(dp4024
g3999
g3733
ssg71
g4018
sg64
(lp4025
g3708
asbasbag57
(g4000
g59
NtRp4026
(dp4027
g62
(dp4028
sg71
g4007
sg64
(lp4029
g57
(g3993
g59
NtRp4030
(dp4031
g62
(dp4032
g3999
g3803
ssg71
g4026
sg64
(lp4033
g3778
asbasbag57
(g4000
g59
NtRp4034
(dp4035
g62
(dp4036
sg71
g4007
sg64
(lp4037
g57
(g3993
g59
NtRp4038
(dp4039
g62
(dp4040
g3999
g3873
ssg71
g4034
sg64
(lp4041
g3848
asbasbag57
(g4000
g59
NtRp4042
(dp4043
g62
(dp4044
sg71
g4007
sg64
(lp4045
g57
(g3993
g59
NtRp4046
(dp4047
g62
(dp4048
g3999
g3943
ssg71
g4042
sg64
(lp4049
g3918
asbasbag4001
asbsg64
(lp4050
g3994
ag57
(g4006
g59
NtRp4051
(dp4052
g62
(dp4053
g4004
g4014
ssg71
g4001
sg64
(lp4054
g57
(g4000
g59
NtRp4055
(dp4056
g62
(dp4057
sg71
g4051
sg64
(lp4058
g57
(g3993
g59
NtRp4059
(dp4060
g62
(dp4061
g3999
S'/admin/default/site'
p4062
ssg71
g4055
sg64
(lp4063
g3707
(S's\x08\x00\x00\x00My Sites'
tRp4064
asbasbag57
(g4000
g59
NtRp4065
(dp4066
g62
(dp4067
g4004
g4005
ssg71
g4051
sg64
(lp4068
g57
(g3993
g59
NtRp4069
(dp4070
g62
(dp4071
g3999
S'/admin/default/design/app1'
p4072
ssg71
g4065
sg64
(lp4073
g3707
(S's\x08\x00\x00\x00This App'
tRp4074
asbag57
(g4006
g59
NtRp4075
(dp4076
g62
(dp4077
g4004
g4014
ssg71
g4065
sg64
(lp4078
g57
(g4000
g59
NtRp4079
(dp4080
g62
(dp4081
sg71
g4075
sg64
(lp4082
g57
(g3993
g59
NtRp4083
(dp4084
g62
(dp4085
g3999
S'/admin/default/edit/app1/controllers/default.py'
p4086
ssg71
g4079
sg64
(lp4087
g3707
(S't\n\x00\x00\x00Controller'
tRp4088
asbasbag57
(g4000
g59
NtRp4089
(dp4090
g62
(dp4091
sg71
g4075
sg64
(lp4092
g57
(g3993
g59
NtRp4093
(dp4094
g62
(dp4095
g3999
S'/admin/default/edit/app1/views/default/index.html'
p4096
ssg71
g4089
sg64
(lp4097
g3707
(S't\x04\x00\x00\x00View'
tRp4098
asbasbag57
(g4000
g59
NtRp4099
(dp4100
g62
(dp4101
sg71
g4075
sg64
(lp4102
g57
(g3993
g59
NtRp4103
(dp4104
g62
(dp4105
g3999
S'/admin/default/edit/app1/views/layout.html'
p4106
ssg71
g4099
sg64
(lp4107
g3707
(S't\x06\x00\x00\x00Layout'
tRp4108
asbasbag57
(g4000
g59
NtRp4109
(dp4110
g62
(dp4111
sg71
g4075
sg64
(lp4112
g57
(g3993
g59
NtRp4113
(dp4114
g62
(dp4115
g3999
S'/admin/default/edit/app1/static/css/web2py.css'
p4116
ssg71
g4109
sg64
(lp4117
g3707
(S't\n\x00\x00\x00Stylesheet'
tRp4118
asbasbag57
(g4000
g59
NtRp4119
(dp4120
g62
(dp4121
sg71
g4075
sg64
(lp4122
g57
(g3993
g59
NtRp4123
(dp4124
g62
(dp4125
g3999
S'/admin/default/edit/app1/models/db.py'
p4126
ssg71
g4119
sg64
(lp4127
g3707
(S's\x08\x00\x00\x00DB Model'
tRp4128
asbasbag57
(g4000
g59
NtRp4129
(dp4130
g62
(dp4131
sg71
g4075
sg64
(lp4132
g57
(g3993
g59
NtRp4133
(dp4134
g62
(dp4135
g3999
S'/admin/default/edit/app1/models/menu.py'
p4136
ssg71
g4129
sg64
(lp4137
g3707
(S's\n\x00\x00\x00Menu Model'
tRp4138
asbasbag57
(g4000
g59
NtRp4139
(dp4140
g62
(dp4141
sg71
g4075
sg64
(lp4142
g57
(g3993
g59
NtRp4143
(dp4144
g62
(dp4145
g3999
S'/app1/appadmin/index'
p4146
ssg71
g4139
sg64
(lp4147
g3707
(S't\x08\x00\x00\x00Database'
tRp4148
asbasbag57
(g4000
g59
NtRp4149
(dp4150
g62
(dp4151
sg71
g4075
sg64
(lp4152
g57
(g3993
g59
NtRp4153
(dp4154
g62
(dp4155
g3999
S'/admin/default/errors/app1'
p4156
ssg71
g4149
sg64
(lp4157
g3707
(S't\x06\x00\x00\x00Errors'
tRp4158
asbasbag57
(g4000
g59
NtRp4159
(dp4160
g62
(dp4161
sg71
g4075
sg64
(lp4162
g57
(g3993
g59
NtRp4163
(dp4164
g62
(dp4165
g3999
S'/admin/default/about/app1'
p4166
ssg71
g4159
sg64
(lp4167
g3707
(S't\x05\x00\x00\x00About'
tRp4168
asbasbasbasbag57
(g4000
g59
NtRp4169
(dp4170
g62
(dp4171
g4004
g4005
ssg71
g4051
sg64
(lp4172
g57
(g3993
g59
NtRp4173
(dp4174
g62
(dp4175
g3999
S'http://www.web2py.com'
p4176
ssg71
g4169
sg64
(lp4177
S'web2py.com'
p4178
asbag57
(g4006
g59
NtRp4179
(dp4180
g62
(dp4181
g4004
g4014
ssg71
g4169
sg64
(lp4182
g57
(g4000
g59
NtRp4183
(dp4184
g62
(dp4185
sg71
g4179
sg64
(lp4186
g57
(g3993
g59
NtRp4187
(dp4188
g62
(dp4189
g3999
S'http://www.web2py.com/examples/default/download'
p4190
ssg71
g4183
sg64
(lp4191
g3707
(S't\x08\x00\x00\x00Download'
tRp4192
asbasbag57
(g4000
g59
NtRp4193
(dp4194
g62
(dp4195
sg71
g4179
sg64
(lp4196
g57
(g3993
g59
NtRp4197
(dp4198
g62
(dp4199
g3999
S'http://www.web2py.com/examples/default/support'
p4200
ssg71
g4193
sg64
(lp4201
g3707
(S't\x07\x00\x00\x00Support'
tRp4202
asbasbag57
(g4000
g59
NtRp4203
(dp4204
g62
(dp4205
sg71
g4179
sg64
(lp4206
g57
(g3993
g59
NtRp4207
(dp4208
g62
(dp4209
g3999
S'http://web2py.com/demo_admin'
p4210
ssg71
g4203
sg64
(lp4211
g3707
(S't\x04\x00\x00\x00Demo'
tRp4212
asbasbag57
(g4000
g59
NtRp4213
(dp4214
g62
(dp4215
sg71
g4179
sg64
(lp4216
g57
(g3993
g59
NtRp4217
(dp4218
g62
(dp4219
g3999
S'http://web2py.com/examples/default/examples'
p4220
ssg71
g4213
sg64
(lp4221
g3707
(S's\x0e\x00\x00\x00Quick Examples'
tRp4222
asbasbag57
(g4000
g59
NtRp4223
(dp4224
g62
(dp4225
sg71
g4179
sg64
(lp4226
g57
(g3993
g59
NtRp4227
(dp4228
g62
(dp4229
g3999
S'http://web2py.com/AlterEgo'
p4230
ssg71
g4223
sg64
(lp4231
g3707
(S't\x03\x00\x00\x00FAQ'
tRp4232
asbasbag57
(g4000
g59
NtRp4233
(dp4234
g62
(dp4235
sg71
g4179
sg64
(lp4236
g57
(g3993
g59
NtRp4237
(dp4238
g62
(dp4239
g3999
S'http://www.web2py.com/examples/default/videos/'
p4240
ssg71
g4233
sg64
(lp4241
g3707
(S't\x06\x00\x00\x00Videos'
tRp4242
asbasbag57
(g4000
g59
NtRp4243
(dp4244
g62
(dp4245
sg71
g4179
sg64
(lp4246
g57
(g3993
g59
NtRp4247
(dp4248
g62
(dp4249
g3999
S'http://web2py.com/appliances'
p4250
ssg71
g4243
sg64
(lp4251
g3707
(S's\x11\x00\x00\x00Free Applications'
tRp4252
asbasbag57
(g4000
g59
NtRp4253
(dp4254
g62
(dp4255
sg71
g4179
sg64
(lp4256
g57
(g3993
g59
NtRp4257
(dp4258
g62
(dp4259
g3999
S'http://web2py.com/plugins'
p4260
ssg71
g4253
sg64
(lp4261
g3707
(S't\x07\x00\x00\x00Plugins'
tRp4262
asbasbag57
(g4000
g59
NtRp4263
(dp4264
g62
(dp4265
sg71
g4179
sg64
(lp4266
g57
(g3993
g59
NtRp4267
(dp4268
g62
(dp4269
g3999
S'http://web2py.com/layouts'
p4270
ssg71
g4263
sg64
(lp4271
g3707
(S't\x07\x00\x00\x00Layouts'
tRp4272
asbasbag57
(g4000
g59
NtRp4273
(dp4274
g62
(dp4275
sg71
g4179
sg64
(lp4276
g57
(g3993
g59
NtRp4277
(dp4278
g62
(dp4279
g3999
S'http://web2pyslices.com/'
p4280
ssg71
g4273
sg64
(lp4281
g3707
(S't\x07\x00\x00\x00Recipes'
tRp4282
asbasbag57
(g4000
g59
NtRp4283
(dp4284
g62
(dp4285
sg71
g4179
sg64
(lp4286
g57
(g3993
g59
NtRp4287
(dp4288
g62
(dp4289
g3999
S'http://web2py.com/semantic'
p4290
ssg71
g4283
sg64
(lp4291
g3707
(S't\x08\x00\x00\x00Semantic'
tRp4292
asbasbasbasbag57
(g4000
g59
NtRp4293
(dp4294
g62
(dp4295
g4004
g4005
ssg71
g4051
sg64
(lp4296
g57
(g3993
g59
NtRp4297
(dp4298
g62
(dp4299
g3999
S'http://www.web2py.com/book'
p4300
ssg71
g4293
sg64
(lp4301
g3707
(S't\r\x00\x00\x00Documentation'
tRp4302
asbag57
(g4006
g59
NtRp4303
(dp4304
g62
(dp4305
g4004
g4014
ssg71
g4293
sg64
(lp4306
g57
(g4000
g59
NtRp4307
(dp4308
g62
(dp4309
sg71
g4303
sg64
(lp4310
g57
(g3993
g59
NtRp4311
(dp4312
g62
(dp4313
g3999
S'http://www.web2py.com/book/default/chapter/00'
p4314
ssg71
g4307
sg64
(lp4315
g3707
(S't\x07\x00\x00\x00Preface'
tRp4316
asbasbag57
(g4000
g59
NtRp4317
(dp4318
g62
(dp4319
sg71
g4303
sg64
(lp4320
g57
(g3993
g59
NtRp4321
(dp4322
g62
(dp4323
g3999
S'http://www.web2py.com/book/default/chapter/01'
p4324
ssg71
g4317
sg64
(lp4325
g3707
(S't\x0c\x00\x00\x00Introduction'
tRp4326
asbasbag57
(g4000
g59
NtRp4327
(dp4328
g62
(dp4329
sg71
g4303
sg64
(lp4330
g57
(g3993
g59
NtRp4331
(dp4332
g62
(dp4333
g3999
S'http://www.web2py.com/book/default/chapter/02'
p4334
ssg71
g4327
sg64
(lp4335
g3707
(S't\x06\x00\x00\x00Python'
tRp4336
asbasbag57
(g4000
g59
NtRp4337
(dp4338
g62
(dp4339
sg71
g4303
sg64
(lp4340
g57
(g3993
g59
NtRp4341
(dp4342
g62
(dp4343
g3999
S'http://www.web2py.com/book/default/chapter/03'
p4344
ssg71
g4337
sg64
(lp4345
g3707
(S't\x08\x00\x00\x00Overview'
tRp4346
asbasbag57
(g4000
g59
NtRp4347
(dp4348
g62
(dp4349
sg71
g4303
sg64
(lp4350
g57
(g3993
g59
NtRp4351
(dp4352
g62
(dp4353
g3999
S'http://www.web2py.com/book/default/chapter/04'
p4354
ssg71
g4347
sg64
(lp4355
g3707
(S's\x08\x00\x00\x00The Core'
tRp4356
asbasbag57
(g4000
g59
NtRp4357
(dp4358
g62
(dp4359
sg71
g4303
sg64
(lp4360
g57
(g3993
g59
NtRp4361
(dp4362
g62
(dp4363
g3999
S'http://www.web2py.com/book/default/chapter/05'
p4364
ssg71
g4357
sg64
(lp4365
g3707
(S's\t\x00\x00\x00The Views'
tRp4366
asbasbag57
(g4000
g59
NtRp4367
(dp4368
g62
(dp4369
sg71
g4303
sg64
(lp4370
g57
(g3993
g59
NtRp4371
(dp4372
g62
(dp4373
g3999
S'http://www.web2py.com/book/default/chapter/06'
p4374
ssg71
g4367
sg64
(lp4375
g3707
(S't\x08\x00\x00\x00Database'
tRp4376
asbasbag57
(g4000
g59
NtRp4377
(dp4378
g62
(dp4379
sg71
g4303
sg64
(lp4380
g57
(g3993
g59
NtRp4381
(dp4382
g62
(dp4383
g3999
S'http://www.web2py.com/book/default/chapter/07'
p4384
ssg71
g4377
sg64
(lp4385
g3707
(S's\x14\x00\x00\x00Forms and Validators'
tRp4386
asbasbag57
(g4000
g59
NtRp4387
(dp4388
g62
(dp4389
sg71
g4303
sg64
(lp4390
g57
(g3993
g59
NtRp4391
(dp4392
g62
(dp4393
g3999
S'http://www.web2py.com/book/default/chapter/08'
p4394
ssg71
g4387
sg64
(lp4395
g3707
(S's\r\x00\x00\x00Email and SMS'
tRp4396
asbasbag57
(g4000
g59
NtRp4397
(dp4398
g62
(dp4399
sg71
g4303
sg64
(lp4400
g57
(g3993
g59
NtRp4401
(dp4402
g62
(dp4403
g3999
S'http://www.web2py.com/book/default/chapter/09'
p4404
ssg71
g4397
sg64
(lp4405
g3707
(S's\x0e\x00\x00\x00Access Control'
tRp4406
asbasbag57
(g4000
g59
NtRp4407
(dp4408
g62
(dp4409
sg71
g4303
sg64
(lp4410
g57
(g3993
g59
NtRp4411
(dp4412
g62
(dp4413
g3999
S'http://www.web2py.com/book/default/chapter/10'
p4414
ssg71
g4407
sg64
(lp4415
g3707
(S't\x08\x00\x00\x00Services'
tRp4416
asbasbag57
(g4000
g59
NtRp4417
(dp4418
g62
(dp4419
sg71
g4303
sg64
(lp4420
g57
(g3993
g59
NtRp4421
(dp4422
g62
(dp4423
g3999
S'http://www.web2py.com/book/default/chapter/11'
p4424
ssg71
g4417
sg64
(lp4425
g3707
(S's\x0c\x00\x00\x00Ajax Recipes'
tRp4426
asbasbag57
(g4000
g59
NtRp4427
(dp4428
g62
(dp4429
sg71
g4303
sg64
(lp4430
g57
(g3993
g59
NtRp4431
(dp4432
g62
(dp4433
g3999
S'http://www.web2py.com/book/default/chapter/12'
p4434
ssg71
g4427
sg64
(lp4435
g3707
(S's\x16\x00\x00\x00Components and Plugins'
tRp4436
asbasbag57
(g4000
g59
NtRp4437
(dp4438
g62
(dp4439
sg71
g4303
sg64
(lp4440
g57
(g3993
g59
NtRp4441
(dp4442
g62
(dp4443
g3999
S'http://www.web2py.com/book/default/chapter/13'
p4444
ssg71
g4437
sg64
(lp4445
g3707
(S's\x12\x00\x00\x00Deployment Recipes'
tRp4446
asbasbag57
(g4000
g59
NtRp4447
(dp4448
g62
(dp4449
sg71
g4303
sg64
(lp4450
g57
(g3993
g59
NtRp4451
(dp4452
g62
(dp4453
g3999
S'http://www.web2py.com/book/default/chapter/14'
p4454
ssg71
g4447
sg64
(lp4455
g3707
(S's\r\x00\x00\x00Other Recipes'
tRp4456
asbasbag57
(g4000
g59
NtRp4457
(dp4458
g62
(dp4459
sg71
g4303
sg64
(lp4460
g57
(g3993
g59
NtRp4461
(dp4462
g62
(dp4463
g3999
S'http://stores.lulu.com/web2py'
p4464
ssg71
g4457
sg64
(lp4465
g3707
(S's\r\x00\x00\x00Buy this book'
tRp4466
asbasbasbasbag57
(g4000
g59
NtRp4467
(dp4468
g62
(dp4469
g4004
g4005
ssg71
g4051
sg64
(lp4470
g57
(g3993
g59
NtRp4471
(dp4472
g62
(dp4473
g3997
g3998
sg3999
S'#'
ssg71
g4467
sg64
(lp4474
g3707
(S't\t\x00\x00\x00Community'
tRp4475
asbag57
(g4006
g59
NtRp4476
(dp4477
g62
(dp4478
g4004
g4014
ssg71
g4467
sg64
(lp4479
g57
(g4000
g59
NtRp4480
(dp4481
g62
(dp4482
sg71
g4476
sg64
(lp4483
g57
(g3993
g59
NtRp4484
(dp4485
g62
(dp4486
g3999
S'http://www.web2py.com/examples/default/usergroups'
p4487
ssg71
g4480
sg64
(lp4488
g3707
(S't\x06\x00\x00\x00Groups'
tRp4489
asbasbag57
(g4000
g59
NtRp4490
(dp4491
g62
(dp4492
sg71
g4476
sg64
(lp4493
g57
(g3993
g59
NtRp4494
(dp4495
g62
(dp4496
g3999
S'http://twitter.com/web2py'
p4497
ssg71
g4490
sg64
(lp4498
g3707
(S't\x07\x00\x00\x00Twitter'
tRp4499
asbasbag57
(g4000
g59
NtRp4500
(dp4501
g62
(dp4502
sg71
g4476
sg64
(lp4503
g57
(g3993
g59
NtRp4504
(dp4505
g62
(dp4506
g3999
S'http://webchat.freenode.net/?channels=web2py'
p4507
ssg71
g4500
sg64
(lp4508
g3707
(S's\t\x00\x00\x00Live Chat'
tRp4509
asbasbasbasbag57
(g4000
g59
NtRp4510
(dp4511
g62
(dp4512
g4004
g4005
ssg71
g4051
sg64
(lp4513
g57
(g3993
g59
NtRp4514
(dp4515
g62
(dp4516
g3997
g3998
sg3999
S'#'
ssg71
g4510
sg64
(lp4517
g3707
(S't\x07\x00\x00\x00Plugins'
tRp4518
asbag57
(g4006
g59
NtRp4519
(dp4520
g62
(dp4521
g4004
g4014
ssg71
g4510
sg64
(lp4522
g57
(g4000
g59
NtRp4523
(dp4524
g62
(dp4525
sg71
g4519
sg64
(lp4526
g57
(g3993
g59
NtRp4527
(dp4528
g62
(dp4529
g3999
S'http://web2py.com/examples/default/download'
p4530
ssg71
g4523
sg64
(lp4531
S'plugin_wiki'
p4532
asbasbag57
(g4000
g59
NtRp4533
(dp4534
g62
(dp4535
sg71
g4519
sg64
(lp4536
g57
(g3993
g59
NtRp4537
(dp4538
g62
(dp4539
g3999
g4260
ssg71
g4533
sg64
(lp4540
g3707
(S's\r\x00\x00\x00Other Plugins'
tRp4541
asbasbag57
(g4000
g59
NtRp4542
(dp4543
g62
(dp4544
sg71
g4519
sg64
(lp4545
g57
(g3993
g59
NtRp4546
(dp4547
g62
(dp4548
g3999
g4270
ssg71
g4542
sg64
(lp4549
g3707
(S's\x0e\x00\x00\x00Layout Plugins'
tRp4550
asbasbasbasbasbasbsg64
(lp4551
g3989
asbsg64
(lp4552
g3653
asbasbasbasbag57
(g73
g59
NtRp4553
(dp4554
g62
(dp4555
sg71
g3972
sg64
(lp4556
g57
(g78
g59
NtRp4557
(dp4558
g62
(dp4559
sg71
g4553
sg64
(lp4560
g57
(g58
g59
NtRp4561
(dp4562
g62
(dp4563
g70
I3
ssg71
g4557
sg64
(lp4564
g100
asbasbasbag57
(g73
g59
NtRp4565
(dp4566
g62
(dp4567
sg71
g3972
sg64
(lp4568
g57
(g78
g59
NtRp4569
(dp4570
g62
(dp4571
sg71
g4565
sg64
(lp4572
g57
(g58
g59
NtRp4573
(dp4574
g62
(dp4575
g70
I3
ssg71
g4569
sg64
(lp4576
S'None'
p4577
asbasbasbag57
(g73
g59
NtRp4578
(dp4579
g62
(dp4580
sg71
g3972
sg64
(lp4581
g57
(g78
g59
NtRp4582
(dp4583
g62
(dp4584
sg71
g4578
sg64
(lp4585
g57
(g58
g59
NtRp4586
(dp4587
g62
(dp4588
g70
I3
ssg71
g4582
sg64
(lp4589
g57
(g66
g59
NtRp4590
(dp4591
g62
(dp4592
g70
I2
ssg71
Nsg64
(lp4593
g57
(g73
g59
NtRp4594
(dp4595
g62
(dp4596
sg71
g4590
sg64
(lp4597
g57
(g78
g59
NtRp4598
(dp4599
g62
(dp4600
sg71
g4594
sg64
(lp4601
g57
(g58
g59
NtRp4602
(dp4603
g62
(dp4604
g70
I2
ssg71
g4598
sg64
(lp4605
g57
(g66
g59
NtRp4606
(dp4607
g62
(dp4608
g70
I1
ssg71
Nsg64
(lp4609
g57
(g73
g59
NtRp4610
(dp4611
g62
(dp4612
sg71
g4606
sg64
(lp4613
g57
(g78
g59
NtRp4614
(dp4615
g62
(dp4616
sg71
g4610
sg64
(lp4617
g57
(g58
g59
NtRp4618
(dp4619
g62
(dp4620
g70
I1
ssg71
g4614
sg64
(lp4621
g4064
asbasbasbag57
(g73
g59
NtRp4622
(dp4623
g62
(dp4624
sg71
g4606
sg64
(lp4625
g57
(g78
g59
NtRp4626
(dp4627
g62
(dp4628
sg71
g4622
sg64
(lp4629
g57
(g58
g59
NtRp4630
(dp4631
g62
(dp4632
g70
I1
ssg71
g4626
sg64
(lp4633
I00
asbasbasbag57
(g73
g59
NtRp4634
(dp4635
g62
(dp4636
sg71
g4606
sg64
(lp4637
g57
(g78
g59
NtRp4638
(dp4639
g62
(dp4640
sg71
g4634
sg64
(lp4641
g57
(g58
g59
NtRp4642
(dp4643
g62
(dp4644
g70
I1
ssg71
g4638
sg64
(lp4645
g4062
asbasbasbasbasbasbasbag57
(g73
g59
NtRp4646
(dp4647
g62
(dp4648
sg71
g4590
sg64
(lp4649
g57
(g78
g59
NtRp4650
(dp4651
g62
(dp4652
sg71
g4646
sg64
(lp4653
g57
(g58
g59
NtRp4654
(dp4655
g62
(dp4656
g70
I2
ssg71
g4650
sg64
(lp4657
g57
(g66
g59
NtRp4658
(dp4659
g62
(dp4660
g70
I1
ssg71
Nsg64
(lp4661
g57
(g73
g59
NtRp4662
(dp4663
g62
(dp4664
sg71
g4658
sg64
(lp4665
g57
(g78
g59
NtRp4666
(dp4667
g62
(dp4668
sg71
g4662
sg64
(lp4669
g57
(g58
g59
NtRp4670
(dp4671
g62
(dp4672
g70
I1
ssg71
g4666
sg64
(lp4673
g4074
asbasbasbag57
(g73
g59
NtRp4674
(dp4675
g62
(dp4676
sg71
g4658
sg64
(lp4677
g57
(g78
g59
NtRp4678
(dp4679
g62
(dp4680
sg71
g4674
sg64
(lp4681
g57
(g58
g59
NtRp4682
(dp4683
g62
(dp4684
g70
I1
ssg71
g4678
sg64
(lp4685
I00
asbasbasbag57
(g73
g59
NtRp4686
(dp4687
g62
(dp4688
sg71
g4658
sg64
(lp4689
g57
(g78
g59
NtRp4690
(dp4691
g62
(dp4692
sg71
g4686
sg64
(lp4693
g57
(g58
g59
NtRp4694
(dp4695
g62
(dp4696
g70
I1
ssg71
g4690
sg64
(lp4697
g4072
asbasbasbag57
(g73
g59
NtRp4698
(dp4699
g62
(dp4700
sg71
g4658
sg64
(lp4701
g57
(g78
g59
NtRp4702
(dp4703
g62
(dp4704
sg71
g4698
sg64
(lp4705
g57
(g58
g59
NtRp4706
(dp4707
g62
(dp4708
g70
I1
ssg71
g4702
sg64
(lp4709
(lp4710
(g4088
I00
g4086
tp4711
a(g4098
I00
g4096
tp4712
a(g4108
I00
g4106
tp4713
a(g4118
I00
g4116
tp4714
a(g4128
I00
g4126
tp4715
a(g4138
I00
g4136
tp4716
a(g4148
I00
g4146
tp4717
a(g4158
I00
g4156
tp4718
a(g4168
I00
g4166
tp4719
aasbasbasbasbasbasbasbag57
(g73
g59
NtRp4720
(dp4721
g62
(dp4722
sg71
g4590
sg64
(lp4723
g57
(g78
g59
NtRp4724
(dp4725
g62
(dp4726
sg71
g4720
sg64
(lp4727
g57
(g58
g59
NtRp4728
(dp4729
g62
(dp4730
g70
I2
ssg71
g4724
sg64
(lp4731
g57
(g66
g59
NtRp4732
(dp4733
g62
(dp4734
g70
I1
ssg71
Nsg64
(lp4735
g57
(g73
g59
NtRp4736
(dp4737
g62
(dp4738
sg71
g4732
sg64
(lp4739
g57
(g78
g59
NtRp4740
(dp4741
g62
(dp4742
sg71
g4736
sg64
(lp4743
g57
(g58
g59
NtRp4744
(dp4745
g62
(dp4746
g70
I1
ssg71
g4740
sg64
(lp4747
g4178
asbasbasbag57
(g73
g59
NtRp4748
(dp4749
g62
(dp4750
sg71
g4732
sg64
(lp4751
g57
(g78
g59
NtRp4752
(dp4753
g62
(dp4754
sg71
g4748
sg64
(lp4755
g57
(g58
g59
NtRp4756
(dp4757
g62
(dp4758
g70
I1
ssg71
g4752
sg64
(lp4759
I00
asbasbasbag57
(g73
g59
NtRp4760
(dp4761
g62
(dp4762
sg71
g4732
sg64
(lp4763
g57
(g78
g59
NtRp4764
(dp4765
g62
(dp4766
sg71
g4760
sg64
(lp4767
g57
(g58
g59
NtRp4768
(dp4769
g62
(dp4770
g70
I1
ssg71
g4764
sg64
(lp4771
g4176
asbasbasbag57
(g73
g59
NtRp4772
(dp4773
g62
(dp4774
sg71
g4732
sg64
(lp4775
g57
(g78
g59
NtRp4776
(dp4777
g62
(dp4778
sg71
g4772
sg64
(lp4779
g57
(g58
g59
NtRp4780
(dp4781
g62
(dp4782
g70
I1
ssg71
g4776
sg64
(lp4783
(lp4784
(g4192
I00
g4190
tp4785
a(g4202
I00
g4200
tp4786
a(g4212
I00
g4210
tp4787
a(g4222
I00
g4220
tp4788
a(g4232
I00
g4230
tp4789
a(g4242
I00
g4240
tp4790
a(g4252
I00
g4250
tp4791
a(g4262
I00
g4260
tp4792
a(g4272
I00
g4270
tp4793
a(g4282
I00
g4280
tp4794
a(g4292
I00
g4290
tp4795
aasbasbasbasbasbasbasbag57
(g73
g59
NtRp4796
(dp4797
g62
(dp4798
sg71
g4590
sg64
(lp4799
g57
(g78
g59
NtRp4800
(dp4801
g62
(dp4802
sg71
g4796
sg64
(lp4803
g57
(g58
g59
NtRp4804
(dp4805
g62
(dp4806
g70
I2
ssg71
g4800
sg64
(lp4807
g57
(g66
g59
NtRp4808
(dp4809
g62
(dp4810
g70
I1
ssg71
Nsg64
(lp4811
g57
(g73
g59
NtRp4812
(dp4813
g62
(dp4814
sg71
g4808
sg64
(lp4815
g57
(g78
g59
NtRp4816
(dp4817
g62
(dp4818
sg71
g4812
sg64
(lp4819
g57
(g58
g59
NtRp4820
(dp4821
g62
(dp4822
g70
I1
ssg71
g4816
sg64
(lp4823
g4302
asbasbasbag57
(g73
g59
NtRp4824
(dp4825
g62
(dp4826
sg71
g4808
sg64
(lp4827
g57
(g78
g59
NtRp4828
(dp4829
g62
(dp4830
sg71
g4824
sg64
(lp4831
g57
(g58
g59
NtRp4832
(dp4833
g62
(dp4834
g70
I1
ssg71
g4828
sg64
(lp4835
I00
asbasbasbag57
(g73
g59
NtRp4836
(dp4837
g62
(dp4838
sg71
g4808
sg64
(lp4839
g57
(g78
g59
NtRp4840
(dp4841
g62
(dp4842
sg71
g4836
sg64
(lp4843
g57
(g58
g59
NtRp4844
(dp4845
g62
(dp4846
g70
I1
ssg71
g4840
sg64
(lp4847
g4300
asbasbasbag57
(g73
g59
NtRp4848
(dp4849
g62
(dp4850
sg71
g4808
sg64
(lp4851
g57
(g78
g59
NtRp4852
(dp4853
g62
(dp4854
sg71
g4848
sg64
(lp4855
g57
(g58
g59
NtRp4856
(dp4857
g62
(dp4858
g70
I1
ssg71
g4852
sg64
(lp4859
(lp4860
(g4316
I00
g4314
tp4861
a(g4326
I00
g4324
tp4862
a(g4336
I00
g4334
tp4863
a(g4346
I00
g4344
tp4864
a(g4356
I00
g4354
tp4865
a(g4366
I00
g4364
tp4866
a(g4376
I00
g4374
tp4867
a(g4386
I00
g4384
tp4868
a(g4396
I00
g4394
tp4869
a(g4406
I00
g4404
tp4870
a(g4416
I00
g4414
tp4871
a(g4426
I00
g4424
tp4872
a(g4436
I00
g4434
tp4873
a(g4446
I00
g4444
tp4874
a(g4456
I00
g4454
tp4875
a(g4466
I00
g4464
tp4876
aasbasbasbasbasbasbasbag57
(g73
g59
NtRp4877
(dp4878
g62
(dp4879
sg71
g4590
sg64
(lp4880
g57
(g78
g59
NtRp4881
(dp4882
g62
(dp4883
sg71
g4877
sg64
(lp4884
g57
(g58
g59
NtRp4885
(dp4886
g62
(dp4887
g70
I2
ssg71
g4881
sg64
(lp4888
g57
(g66
g59
NtRp4889
(dp4890
g62
(dp4891
g70
I1
ssg71
Nsg64
(lp4892
g57
(g73
g59
NtRp4893
(dp4894
g62
(dp4895
sg71
g4889
sg64
(lp4896
g57
(g78
g59
NtRp4897
(dp4898
g62
(dp4899
sg71
g4893
sg64
(lp4900
g57
(g58
g59
NtRp4901
(dp4902
g62
(dp4903
g70
I1
ssg71
g4897
sg64
(lp4904
g4475
asbasbasbag57
(g73
g59
NtRp4905
(dp4906
g62
(dp4907
sg71
g4889
sg64
(lp4908
g57
(g78
g59
NtRp4909
(dp4910
g62
(dp4911
sg71
g4905
sg64
(lp4912
g57
(g58
g59
NtRp4913
(dp4914
g62
(dp4915
g70
I1
ssg71
g4909
sg64
(lp4916
I00
asbasbasbag57
(g73
g59
NtRp4917
(dp4918
g62
(dp4919
sg71
g4889
sg64
(lp4920
g57
(g78
g59
NtRp4921
(dp4922
g62
(dp4923
sg71
g4917
sg64
(lp4924
g57
(g58
g59
NtRp4925
(dp4926
g62
(dp4927
g70
I1
ssg71
g4921
sg64
(lp4928
Nasbasbasbag57
(g73
g59
NtRp4929
(dp4930
g62
(dp4931
sg71
g4889
sg64
(lp4932
g57
(g78
g59
NtRp4933
(dp4934
g62
(dp4935
sg71
g4929
sg64
(lp4936
g57
(g58
g59
NtRp4937
(dp4938
g62
(dp4939
g70
I1
ssg71
g4933
sg64
(lp4940
(lp4941
(g4489
I00
g4487
tp4942
a(g4499
I00
g4497
tp4943
a(g4509
I00
g4507
tp4944
aasbasbasbasbasbasbasbag57
(g73
g59
NtRp4945
(dp4946
g62
(dp4947
sg71
g4590
sg64
(lp4948
g57
(g78
g59
NtRp4949
(dp4950
g62
(dp4951
sg71
g4945
sg64
(lp4952
g57
(g58
g59
NtRp4953
(dp4954
g62
(dp4955
g70
I2
ssg71
g4949
sg64
(lp4956
g57
(g66
g59
NtRp4957
(dp4958
g62
(dp4959
g70
I1
ssg71
Nsg64
(lp4960
g57
(g73
g59
NtRp4961
(dp4962
g62
(dp4963
sg71
g4957
sg64
(lp4964
g57
(g78
g59
NtRp4965
(dp4966
g62
(dp4967
sg71
g4961
sg64
(lp4968
g57
(g58
g59
NtRp4969
(dp4970
g62
(dp4971
g70
I1
ssg71
g4965
sg64
(lp4972
g4518
asbasbasbag57
(g73
g59
NtRp4973
(dp4974
g62
(dp4975
sg71
g4957
sg64
(lp4976
g57
(g78
g59
NtRp4977
(dp4978
g62
(dp4979
sg71
g4973
sg64
(lp4980
g57
(g58
g59
NtRp4981
(dp4982
g62
(dp4983
g70
I1
ssg71
g4977
sg64
(lp4984
I00
asbasbasbag57
(g73
g59
NtRp4985
(dp4986
g62
(dp4987
sg71
g4957
sg64
(lp4988
g57
(g78
g59
NtRp4989
(dp4990
g62
(dp4991
sg71
g4985
sg64
(lp4992
g57
(g58
g59
NtRp4993
(dp4994
g62
(dp4995
g70
I1
ssg71
g4989
sg64
(lp4996
Nasbasbasbag57
(g73
g59
NtRp4997
(dp4998
g62
(dp4999
sg71
g4957
sg64
(lp5000
g57
(g78
g59
NtRp5001
(dp5002
g62
(dp5003
sg71
g4997
sg64
(lp5004
g57
(g58
g59
NtRp5005
(dp5006
g62
(dp5007
g70
I1
ssg71
g5001
sg64
(lp5008
(lp5009
(g4532
I00
g4530
tp5010
a(g4541
I00
g4260
tp5011
a(g4550
I00
g4270
tp5012
aasbasbasbasbasbasbasbasbasbasbasbasbasbasbasbasbasbasbasbag57
(g73
g59
NtRp5013
(dp5014
g62
(dp5015
sg71
g3097
sg64
(lp5016
g57
(g78
g59
NtRp5017
(dp5018
g62
(dp5019
g82
g83
ssg71
g5013
sg64
(lp5020
S'meta'
p5021
asbag57
(g78
g59
NtRp5022
(dp5023
g62
(dp5024
g89
g90
ssg71
g5013
sg64
(lp5025
S':'
asbag57
(g78
g59
NtRp5026
(dp5027
g62
(dp5028
sg71
g5013
sg64
(lp5029
g57
(g58
g59
NtRp5030
(dp5031
g62
(dp5032
g70
I5
ssg71
g5026
sg64
(lp5033
g57
(g66
g59
NtRp5034
(dp5035
g62
(dp5036
g70
I4
ssg71
Nsg64
(lp5037
g57
(g73
g59
NtRp5038
(dp5039
g62
(dp5040
sg71
g5034
sg64
(lp5041
g57
(g78
g59
NtRp5042
(dp5043
g62
(dp5044
g82
g83
ssg71
g5038
sg64
(lp5045
S'author'
p5046
asbag57
(g78
g59
NtRp5047
(dp5048
g62
(dp5049
g89
g90
ssg71
g5038
sg64
(lp5050
S':'
asbag57
(g78
g59
NtRp5051
(dp5052
g62
(dp5053
sg71
g5038
sg64
(lp5054
g57
(g58
g59
NtRp5055
(dp5056
g62
(dp5057
g70
I4
ssg71
g5051
sg64
(lp5058
S'Your Name <you@example.com>'
p5059
asbasbasbag57
(g73
g59
NtRp5060
(dp5061
g62
(dp5062
sg71
g5034
sg64
(lp5063
g57
(g78
g59
NtRp5064
(dp5065
g62
(dp5066
g82
g83
ssg71
g5060
sg64
(lp5067
S'copyright'
p5068
asbag57
(g78
g59
NtRp5069
(dp5070
g62
(dp5071
g89
g90
ssg71
g5060
sg64
(lp5072
S':'
asbag57
(g78
g59
NtRp5073
(dp5074
g62
(dp5075
sg71
g5060
sg64
(lp5076
g57
(g58
g59
NtRp5077
(dp5078
g62
(dp5079
g70
I4
ssg71
g5073
sg64
(lp5080
S'Copyright 2011'
p5081
asbasbasbag57
(g73
g59
NtRp5082
(dp5083
g62
(dp5084
sg71
g5034
sg64
(lp5085
g57
(g78
g59
NtRp5086
(dp5087
g62
(dp5088
g82
g83
ssg71
g5082
sg64
(lp5089
S'description'
p5090
asbag57
(g78
g59
NtRp5091
(dp5092
g62
(dp5093
g89
g90
ssg71
g5082
sg64
(lp5094
S':'
asbag57
(g78
g59
NtRp5095
(dp5096
g62
(dp5097
sg71
g5082
sg64
(lp5098
g57
(g58
g59
NtRp5099
(dp5100
g62
(dp5101
g70
I4
ssg71
g5095
sg64
(lp5102
S'a cool new app'
p5103
asbasbasbag57
(g73
g59
NtRp5104
(dp5105
g62
(dp5106
sg71
g5034
sg64
(lp5107
g57
(g78
g59
NtRp5108
(dp5109
g62
(dp5110
g82
g83
ssg71
g5104
sg64
(lp5111
S'generator'
p5112
asbag57
(g78
g59
NtRp5113
(dp5114
g62
(dp5115
g89
g90
ssg71
g5104
sg64
(lp5116
S':'
asbag57
(g78
g59
NtRp5117
(dp5118
g62
(dp5119
sg71
g5104
sg64
(lp5120
g57
(g58
g59
NtRp5121
(dp5122
g62
(dp5123
g70
I4
ssg71
g5117
sg64
(lp5124
S'Web2py Web Framework'
p5125
asbasbasbag57
(g73
g59
NtRp5126
(dp5127
g62
(dp5128
sg71
g5034
sg64
(lp5129
g57
(g78
g59
NtRp5130
(dp5131
g62
(dp5132
g82
g83
ssg71
g5126
sg64
(lp5133
S'keywords'
p5134
asbag57
(g78
g59
NtRp5135
(dp5136
g62
(dp5137
g89
g90
ssg71
g5126
sg64
(lp5138
S':'
asbag57
(g78
g59
NtRp5139
(dp5140
g62
(dp5141
sg71
g5126
sg64
(lp5142
g57
(g58
g59
NtRp5143
(dp5144
g62
(dp5145
g70
I4
ssg71
g5139
sg64
(lp5146
S'web2py, python, framework'
p5147
asbasbasbasbasbasbasbag57
(g73
g59
NtRp5148
(dp5149
g62
(dp5150
sg71
g3097
sg64
(lp5151
g57
(g78
g59
NtRp5152
(dp5153
g62
(dp5154
g82
g83
ssg71
g5148
sg64
(lp5155
S'postprocessing'
p5156
asbag57
(g78
g59
NtRp5157
(dp5158
g62
(dp5159
g89
g90
ssg71
g5148
sg64
(lp5160
S':'
asbag57
(g78
g59
NtRp5161
(dp5162
g62
(dp5163
sg71
g5148
sg64
(lp5164
g57
(g58
g59
NtRp5165
(dp5166
g62
(dp5167
g70
I5
ssg71
g5161
sg64
(lp5168
g57
(g66
g59
NtRp5169
(dp5170
g62
(dp5171
g70
I4
ssg71
Nsg64
(lp5172
sbasbasbasbag57
(g73
g59
NtRp5173
(dp5174
g62
(dp5175
sg71
g3097
sg64
(lp5176
g57
(g78
g59
NtRp5177
(dp5178
g62
(dp5179
g82
g83
ssg71
g5173
sg64
(lp5180
S'session_file'
p5181
asbag57
(g78
g59
NtRp5182
(dp5183
g62
(dp5184
g89
g90
ssg71
g5173
sg64
(lp5185
S':'
asbag57
(g78
g59
NtRp5186
(dp5187
g62
(dp5188
sg71
g5173
sg64
(lp5189
g57
(g58
g59
NtRp5190
(dp5191
g62
(dp5192
g70
I5
ssg71
g5186
sg64
(lp5193
S"<open file '/home/jigar/web2py/applications/app1/sessions/127.0.0.1-a7d133f4-acec-437f-a963-db7b5b722c49', mode 'rb+' at 0x7fb44c56ad20>"
p5194
asbasbasbag57
(g73
g59
NtRp5195
(dp5196
g62
(dp5197
sg71
g3097
sg64
(lp5198
g57
(g78
g59
NtRp5199
(dp5200
g62
(dp5201
g82
g83
ssg71
g5195
sg64
(lp5202
S'session_filename'
p5203
asbag57
(g78
g59
NtRp5204
(dp5205
g62
(dp5206
g89
g90
ssg71
g5195
sg64
(lp5207
S':'
asbag57
(g78
g59
NtRp5208
(dp5209
g62
(dp5210
sg71
g5195
sg64
(lp5211
g57
(g58
g59
NtRp5212
(dp5213
g62
(dp5214
g70
I5
ssg71
g5208
sg64
(lp5215
S'/home/jigar/web2py/applications/app1/sessions/127.0.0.1-a7d133f4-acec-437f-a963-db7b5b722c49'
p5216
asbasbasbag57
(g73
g59
NtRp5217
(dp5218
g62
(dp5219
sg71
g3097
sg64
(lp5220
g57
(g78
g59
NtRp5221
(dp5222
g62
(dp5223
g82
g83
ssg71
g5217
sg64
(lp5224
S'session_id'
p5225
asbag57
(g78
g59
NtRp5226
(dp5227
g62
(dp5228
g89
g90
ssg71
g5217
sg64
(lp5229
S':'
asbag57
(g78
g59
NtRp5230
(dp5231
g62
(dp5232
sg71
g5217
sg64
(lp5233
g57
(g58
g59
NtRp5234
(dp5235
g62
(dp5236
g70
I5
ssg71
g5230
sg64
(lp5237
S'127.0.0.1-a7d133f4-acec-437f-a963-db7b5b722c49'
p5238
asbasbasbag57
(g73
g59
NtRp5239
(dp5240
g62
(dp5241
sg71
g3097
sg64
(lp5242
g57
(g78
g59
NtRp5243
(dp5244
g62
(dp5245
g82
g83
ssg71
g5239
sg64
(lp5246
S'session_id_name'
p5247
asbag57
(g78
g59
NtRp5248
(dp5249
g62
(dp5250
g89
g90
ssg71
g5239
sg64
(lp5251
S':'
asbag57
(g78
g59
NtRp5252
(dp5253
g62
(dp5254
sg71
g5239
sg64
(lp5255
g57
(g58
g59
NtRp5256
(dp5257
g62
(dp5258
g70
I5
ssg71
g5252
sg64
(lp5259
g3154
asbasbasbag57
(g73
g59
NtRp5260
(dp5261
g62
(dp5262
sg71
g3097
sg64
(lp5263
g57
(g78
g59
NtRp5264
(dp5265
g62
(dp5266
g82
g83
ssg71
g5260
sg64
(lp5267
S'session_locked'
p5268
asbag57
(g78
g59
NtRp5269
(dp5270
g62
(dp5271
g89
g90
ssg71
g5260
sg64
(lp5272
S':'
asbag57
(g78
g59
NtRp5273
(dp5274
g62
(dp5275
sg71
g5260
sg64
(lp5276
g57
(g58
g59
NtRp5277
(dp5278
g62
(dp5279
g70
I5
ssg71
g5273
sg64
(lp5280
g1678
asbasbasbag57
(g73
g59
NtRp5281
(dp5282
g62
(dp5283
sg71
g3097
sg64
(lp5284
g57
(g78
g59
NtRp5285
(dp5286
g62
(dp5287
g82
g83
ssg71
g5281
sg64
(lp5288
S'session_new'
p5289
asbag57
(g78
g59
NtRp5290
(dp5291
g62
(dp5292
g89
g90
ssg71
g5281
sg64
(lp5293
S':'
asbag57
(g78
g59
NtRp5294
(dp5295
g62
(dp5296
sg71
g5281
sg64
(lp5297
g57
(g58
g59
NtRp5298
(dp5299
g62
(dp5300
g70
I5
ssg71
g5294
sg64
(lp5301
g100
asbasbasbag57
(g73
g59
NtRp5302
(dp5303
g62
(dp5304
sg71
g3097
sg64
(lp5305
g57
(g78
g59
NtRp5306
(dp5307
g62
(dp5308
g82
g83
ssg71
g5302
sg64
(lp5309
S'status'
p5310
asbag57
(g78
g59
NtRp5311
(dp5312
g62
(dp5313
g89
g90
ssg71
g5302
sg64
(lp5314
S':'
asbag57
(g78
g59
NtRp5315
(dp5316
g62
(dp5317
sg71
g5302
sg64
(lp5318
g57
(g58
g59
NtRp5319
(dp5320
g62
(dp5321
g70
I5
ssg71
g5315
sg64
(lp5322
S'200'
p5323
asbasbasbag57
(g73
g59
NtRp5324
(dp5325
g62
(dp5326
sg71
g3097
sg64
(lp5327
g57
(g78
g59
NtRp5328
(dp5329
g62
(dp5330
g82
g83
ssg71
g5324
sg64
(lp5331
S'subtitle'
p5332
asbag57
(g78
g59
NtRp5333
(dp5334
g62
(dp5335
g89
g90
ssg71
g5324
sg64
(lp5336
S':'
asbag57
(g78
g59
NtRp5337
(dp5338
g62
(dp5339
sg71
g5324
sg64
(lp5340
g57
(g58
g59
NtRp5341
(dp5342
g62
(dp5343
g70
I5
ssg71
g5337
sg64
(lp5344
g3707
(S's\r\x00\x00\x00customize me!'
tRp5345
asbasbasbag57
(g73
g59
NtRp5346
(dp5347
g62
(dp5348
sg71
g3097
sg64
(lp5349
g57
(g78
g59
NtRp5350
(dp5351
g62
(dp5352
g82
g83
ssg71
g5346
sg64
(lp5353
S'title'
p5354
asbag57
(g78
g59
NtRp5355
(dp5356
g62
(dp5357
g89
g90
ssg71
g5346
sg64
(lp5358
S':'
asbag57
(g78
g59
NtRp5359
(dp5360
g62
(dp5361
sg71
g5346
sg64
(lp5362
g57
(g58
g59
NtRp5363
(dp5364
g62
(dp5365
g70
I5
ssg71
g5359
sg64
(lp5366
S'App1'
p5367
asbasbasbag57
(g73
g59
NtRp5368
(dp5369
g62
(dp5370
sg71
g3097
sg64
(lp5371
g57
(g78
g59
NtRp5372
(dp5373
g62
(dp5374
g82
g83
ssg71
g5368
sg64
(lp5375
g2342
asbag57
(g78
g59
NtRp5376
(dp5377
g62
(dp5378
g89
g90
ssg71
g5368
sg64
(lp5379
S':'
asbag57
(g78
g59
NtRp5380
(dp5381
g62
(dp5382
sg71
g5368
sg64
(lp5383
g57
(g58
g59
NtRp5384
(dp5385
g62
(dp5386
g70
I5
ssg71
g5380
sg64
(lp5387
g2355
asbasbasbag57
(g73
g59
NtRp5388
(dp5389
g62
(dp5390
sg71
g3097
sg64
(lp5391
g57
(g78
g59
NtRp5392
(dp5393
g62
(dp5394
g82
g83
ssg71
g5388
sg64
(lp5395
S'view'
p5396
asbag57
(g78
g59
NtRp5397
(dp5398
g62
(dp5399
g89
g90
ssg71
g5388
sg64
(lp5400
S':'
asbag57
(g78
g59
NtRp5401
(dp5402
g62
(dp5403
sg71
g5388
sg64
(lp5404
g57
(g58
g59
NtRp5405
(dp5406
g62
(dp5407
g70
I5
ssg71
g5401
sg64
(lp5408
S'default/index.html'
p5409
asbasbasbasbasbsS'locals'
p5410
(dp5411
S'Service'
p5412
S"<class 'gluon.tools.Service'>"
p5413
sS'OBJECT'
p5414
S"<class 'gluon.html.OBJECT'>"
p5415
sS'SQLDB'
p5416
S"<class 'gluon.dal.DAL'>"
p5417
sg3057
S"<Storage {'_formkey[Votes/5]': 'a20d0ad8-6139-43...reate]': 'b5e25c8a-4d98-4415-9d36-9758939927bc'}>"
p5418
sS'LINK'
p5419
S"<class 'gluon.html.LINK'>"
p5420
sS'BR'
p5421
S"<class 'gluon.html.BR'>"
p5422
sS'local_import'
p5423
S'<function <lambda>>'
p5424
sS'OPTGROUP'
p5425
S"<class 'gluon.html.OPTGROUP'>"
p5426
sS'PRE'
p5427
S"<class 'gluon.html.PRE'>"
p5428
sS'IS_INT_IN_RANGE'
p5429
S"<class 'gluon.validators.IS_INT_IN_RANGE'>"
p5430
sS'left_sidebar_enabled'
p5431
g100
sS'IS_LOWER'
p5432
S"<class 'gluon.validators.IS_LOWER'>"
p5433
sS'IS_STRONG'
p5434
S"<class 'gluon.validators.IS_STRONG'>"
p5435
sS'cache'
p5436
S'<gluon.cache.Cache object>'
p5437
sS'IS_IN_DB'
p5438
S"<class 'gluon.validators.IS_IN_DB'>"
p5439
sS'TAG'
p5440
S'<gluon.html.__TAG__ object>'
p5441
sS'SQLField'
p5442
S"<class 'gluon.dal.Field'>"
p5443
sS'mail'
p5444
S'<gluon.tools.Mail object>'
p5445
sS'BODY'
p5446
S"<class 'gluon.html.BODY'>"
p5447
sS'IS_DATE_IN_RANGE'
p5448
S"<class 'gluon.validators.IS_DATE_IN_RANGE'>"
p5449
sS'TH'
p5450
S"<class 'gluon.html.TH'>"
p5451
sS'URL'
p5452
S'<function URL>'
p5453
sS'__file__'
p5454
S"'/home/jigar/web2py/applications/app1/views/default/index.html'"
p5455
sS'db'
p5456
S"<DAL {'auth_event': <Table {'origin': <gluon.dal...': <gluon.dal.Field object at 0x7fb4645da490>}>}>"
p5457
sS'auth'
p5458
S'<gluon.tools.Auth object>'
p5459
sS'P'
S"<class 'gluon.html.P'>"
p5460
sS'TFOOT'
p5461
S"<class 'gluon.html.TFOOT'>"
p5462
sS'XHTML'
p5463
S"<class 'gluon.html.XHTML'>"
p5464
sS'ON'
p5465
g1678
sS'OL'
p5466
S"<class 'gluon.html.OL'>"
p5467
sS'TEXTAREA'
p5468
S"<class 'gluon.html.TEXTAREA'>"
p5469
sS'MENU'
p5470
S"<class 'gluon.html.MENU'>"
p5471
sS'LOAD'
p5472
S'<function LOAD>'
p5473
sS'CODE'
p5474
S"<class 'gluon.html.CODE'>"
p5475
sS'HTTP'
p5476
S"<class 'gluon.http.HTTP'>"
p5477
sS'HR'
p5478
S"<class 'gluon.html.HR'>"
p5479
sS'IS_DATETIME'
p5480
S"<class 'gluon.validators.IS_DATETIME'>"
p5481
sS'HEAD'
p5482
S"<class 'gluon.html.HEAD'>"
p5483
sS'LABEL'
p5484
S"<class 'gluon.html.LABEL'>"
p5485
sS'CLEANUP'
p5486
S"<class 'gluon.validators.CLEANUP'>"
p5487
sS'plugins'
p5488
S'<gluon.tools.PluginManager object>'
p5489
sS'SELECT'
p5490
S"<class 'gluon.html.SELECT'>"
p5491
sS'use_janrain'
p5492
S'<function use_janrain>'
p5493
sS'CENTER'
p5494
S"<class 'gluon.html.CENTER'>"
p5495
sS'prettydate'
p5496
S'<function prettydate>'
p5497
sS'Crud'
p5498
S"<class 'gluon.tools.Crud'>"
p5499
sS'Auth'
p5500
S"<class 'gluon.tools.Auth'>"
p5501
sS'__builtins__'
p5502
S"{'ArithmeticError': <type 'exceptions.ArithmeticError'>, 'AssertionError': <type 'exceptions.AssertionError'>, 'AttributeError': <type 'exceptions.AttributeError'>, 'BaseException': <type 'exceptions.BaseException'>, 'BufferError': <type 'exceptions.BufferError'>, 'BytesWarning': <type 'exceptions.BytesWarning'>, 'DeprecationWarning': <type 'exceptions.DeprecationWarning'>, 'EOFError': <type 'exceptions.EOFError'>, 'Ellipsis': Ellipsis, 'EnvironmentError': <type 'exceptions.EnvironmentError'>, ...}"
p5503
sS'HTML'
p5504
S"<class 'gluon.html.HTML'>"
p5505
sS'SQLFORM'
p5506
S"<class 'gluon.sqlhtml.SQLFORM'>"
p5507
sS'EM'
p5508
S"<class 'gluon.html.EM'>"
p5509
sS'redirect'
p5510
S'<function redirect>'
p5511
sS'FIELDSET'
p5512
S"<class 'gluon.html.FIELDSET'>"
p5513
sS'IS_EQUAL_TO'
p5514
S"<class 'gluon.validators.IS_EQUAL_TO'>"
p5515
sS'embed64'
p5516
S'<function embed64>'
p5517
sS'IS_LIST_OF'
p5518
S"<class 'gluon.validators.IS_LIST_OF'>"
p5519
sS'INPUT'
p5520
S"<class 'gluon.html.INPUT'>"
p5521
sS'EMBED'
p5522
S"<class 'gluon.html.EMBED'>"
p5523
sS'_'
S'<function _>'
p5524
sS'FORM'
p5525
S"<class 'gluon.html.FORM'>"
p5526
sS'H2'
p5527
S"<class 'gluon.html.H2'>"
p5528
sS'H3'
p5529
S"<class 'gluon.html.H3'>"
p5530
sS'BUTTON'
p5531
S"<class 'gluon.html.BUTTON'>"
p5532
sS'H1'
p5533
S"<class 'gluon.html.H1'>"
p5534
sS'H6'
p5535
S"<class 'gluon.html.H6'>"
p5536
sS'H4'
p5537
S"<class 'gluon.html.H4'>"
p5538
sS'H5'
p5539
S"<class 'gluon.html.H5'>"
p5540
sS'UL'
p5541
S"<class 'gluon.html.UL'>"
p5542
sS'IS_UPPER'
p5543
S"<class 'gluon.validators.IS_UPPER'>"
p5544
sS'xmlescape'
p5545
S'<function xmlescape>'
p5546
sS'IS_TIME'
p5547
S"<class 'gluon.validators.IS_TIME'>"
p5548
sS'OPTION'
p5549
S"<class 'gluon.html.OPTION'>"
p5550
sS'TITLE'
p5551
S"<class 'gluon.html.TITLE'>"
p5552
sS'CRYPT'
p5553
S"<class 'gluon.validators.CRYPT'>"
p5554
sS'IS_EMPTY_OR'
p5555
S"<class 'gluon.validators.IS_EMPTY_OR'>"
p5556
sS'MARKMIN'
p5557
S"<class 'gluon.html.MARKMIN'>"
p5558
sS'message'
p5559
S"<lazyT 'Hello World'>"
p5560
sS'COL'
p5561
S"<class 'gluon.html.COL'>"
p5562
sS'service'
p5563
S'<gluon.tools.Service object>'
p5564
sS'SCRIPT'
p5565
S"<class 'gluon.html.SCRIPT'>"
p5566
sS'is_mobile'
p5567
g100
sS'TABLE'
p5568
S"<class 'gluon.html.TABLE'>"
p5569
sS'IS_IPV4'
p5570
S"<class 'gluon.validators.IS_IPV4'>"
p5571
sS'IS_LENGTH'
p5572
S"<class 'gluon.validators.IS_LENGTH'>"
p5573
sS'XML'
p5574
S"<class 'gluon.html.XML'>"
p5575
sS'B'
S"<class 'gluon.html.B'>"
p5576
sS'IMG'
p5577
S"<class 'gluon.html.IMG'>"
p5578
sS'SQLTABLE'
p5579
S"<class 'gluon.sqlhtml.SQLTABLE'>"
p5580
sS'IS_MATCH'
p5581
S"<class 'gluon.validators.IS_MATCH'>"
p5582
sS'IS_ALPHANUMERIC'
p5583
S"<class 'gluon.validators.IS_ALPHANUMERIC'>"
p5584
sS'SPAN'
p5585
S"<class 'gluon.html.SPAN'>"
p5586
sS'IS_SLUG'
p5587
S"<class 'gluon.validators.IS_SLUG'>"
p5588
sS'BEAUTIFY'
p5589
S"<class 'gluon.html.BEAUTIFY'>"
p5590
sS'META'
p5591
S"<class 'gluon.html.META'>"
p5592
sS'IS_DATE'
p5593
S"<class 'gluon.validators.IS_DATE'>"
p5594
sS'IS_EMAIL'
p5595
S"<class 'gluon.validators.IS_EMAIL'>"
p5596
sS'IS_NOT_EMPTY'
p5597
S"<class 'gluon.validators.IS_NOT_EMPTY'>"
p5598
sS'IS_FLOAT_IN_RANGE'
p5599
S"<class 'gluon.validators.IS_FLOAT_IN_RANGE'>"
p5600
sS'TBODY'
p5601
S"<class 'gluon.html.TBODY'>"
p5602
sS'CAT'
p5603
S"<class 'gluon.html.CAT'>"
p5604
sS'Field'
p5605
S"<class 'gluon.dal.Field'>"
p5606
sS'middle_columns'
p5607
S"'sixteen'"
p5608
sS'DIV'
p5609
S"<class 'gluon.html.DIV'>"
p5610
sS'LEGEND'
p5611
S"<class 'gluon.html.LEGEND'>"
p5612
sS'COLGROUP'
p5613
S"<class 'gluon.html.COLGROUP'>"
p5614
sS'DAL'
p5615
S"<class 'gluon.dal.DAL'>"
p5616
sS'TT'
p5617
S"<class 'gluon.html.TT'>"
p5618
sS'TR'
p5619
S"<class 'gluon.html.TR'>"
p5620
sS'LI'
p5621
S"<class 'gluon.html.LI'>"
p5622
sS'right_sidebar_enabled'
p5623
g100
sS'set1'
p5624
S"['World', 'India', 'Business', 'Sports', 'Entertainment']"
p5625
sS'IFRAME'
p5626
S"<class 'gluon.html.IFRAME'>"
p5627
sS'TD'
p5628
S"<class 'gluon.html.TD'>"
p5629
sS'PluginManager'
p5630
S"<class 'gluon.tools.PluginManager'>"
p5631
sS'IS_URL'
p5632
S"<class 'gluon.validators.IS_URL'>"
p5633
sS'A'
S"<class 'gluon.html.A'>"
p5634
sS'STYLE'
p5635
S"<class 'gluon.html.STYLE'>"
p5636
sS'IS_DATETIME_IN_RANGE'
p5637
S"<class 'gluon.validators.IS_DATETIME_IN_RANGE'>"
p5638
sS'IS_IMAGE'
p5639
S"<class 'gluon.validators.IS_IMAGE'>"
p5640
sS'I'
S"<class 'gluon.html.I'>"
p5641
sS'crud'
p5642
S'<gluon.tools.Crud object>'
p5643
sS'IS_NOT_IN_DB'
p5644
S"<class 'gluon.validators.IS_NOT_IN_DB'>"
p5645
sg3092
S"<Storage {'body': <cStringIO.StringO object at 0...t 0x7fb4645aced8>, 'view': 'default/index.html'}>"
p5646
sS'THEAD'
p5647
S"<class 'gluon.html.THEAD'>"
p5648
sS'IS_NULL_OR'
p5649
S"<class 'gluon.validators.IS_EMPTY_OR'>"
p5650
sg56
S"<Storage {'body': <cStringIO.StringO object at 0..._vars': <Storage {}>, 'post_vars': <Storage {}>}>"
p5651
sS'IS_EXPR'
p5652
S"<class 'gluon.validators.IS_EXPR'>"
p5653
sS'T'
S'<gluon.languages.translator object>'
p5654
sS'IS_IN_SET'
p5655
S"<class 'gluon.validators.IS_IN_SET'>"
p5656
sS'IS_UPLOAD_FILENAME'
p5657
S"<class 'gluon.validators.IS_UPLOAD_FILENAME'>"
p5658
sS'IS_DECIMAL_IN_RANGE'
p5659
S"<class 'gluon.validators.IS_DECIMAL_IN_RANGE'>"
p5660
sssS'traceback'
p5661
S'Traceback (most recent call last):\n  File "/usr/lib/pymodules/python2.7/gluon/restricted.py", line 204, in restricted\n    exec ccode in environment\n  File "/home/jigar/web2py/applications/app1/views/default/index.html", line 76, in <module>\nNameError: name \'ca\' is not defined\n'
p5662
s.