(dp1
S'output'
p2
S"<type 'exceptions.NameError'> global name 'ri' is not defined"
p3
sS'layer'
p4
S'/home/jigar/web2py/applications/app1/controllers/default.py'
p5
sS'code'
p6
S'# -*- coding: utf-8 -*-\n# this file is released under public domain and you can use without limitations\n\n#########################################################################\n## This is a samples controller\n## - index is the default action of any application\n## - user is required for authentication and authorization\n## - download is for downloading files uploaded in the db (does streaming)\n## - call exposes all registered services (none by default)\n#########################################################################\n\ndef index():\n    """\n    example action using the internationalization operator T and flash\n    rendered by views/default/index.html or views/generic.html\n    """\n    response.flash = "Welcome to web2py!"\n    return dict(message=T(\'Hello World\'))\n\ndef user():\n    """\n    exposes:\n    http://..../[app]/default/user/login\n    http://..../[app]/default/user/logout\n    http://..../[app]/default/user/register\n    http://..../[app]/default/user/profile\n    http://..../[app]/default/user/retrieve_password\n    http://..../[app]/default/user/change_password\n    use @auth.requires_login()\n        @auth.requires_membership(\'group name\')\n        @auth.requires_permission(\'read\',\'table name\',record_id)\n    to decorate functions that need access control\n    """\n    return dict(form=auth())\n\n\ndef download():\n    """\n    allows downloading of uploaded files\n    http://..../[app]/default/download/[filename]\n    """\n    return response.download(request,db)\n\n\ndef call():\n    """\n    exposes services. for example:\n    http://..../[app]/default/call/jsonrpc\n    decorate with @services.jsonrpc the functions to expose\n    supports xml, json, xmlrpc, jsonrpc, amfrpc, rss, csv\n    """\n    return service()\n\n\n@auth.requires_signature()\ndef data():\n    """\n    http://..../[app]/default/data/tables\n    http://..../[app]/default/data/create/[table]\n    http://..../[app]/default/data/read/[table]/[id]\n    http://..../[app]/default/data/update/[table]/[id]\n    http://..../[app]/default/data/delete/[table]/[id]\n    http://..../[app]/default/data/select/[table]\n    http://..../[app]/default/data/search/[table]\n    but URLs must be signed, i.e. linked with\n      A(\'table\',_href=URL(\'data/tables\',user_signature=True))\n    or with the signed load operator\n      LOAD(\'default\',\'data.load\',args=\'tables\',ajax=True,user_signature=True)\n    """\n    return dict(form=crud())\n\ndef lall():\n\tx=db(db.Post.id>0).select()\n\ty=db(db.Post.User==db.auth_user.id).select(db.auth_user.first_name)\n\tr=request.args[0]\n\tp=request.args[1]\n\tprint ri\n\tif (request.args[1]=="like"):\t\n\t\tb=db(db.Post.id==(int(r)+1)).select(db.Post.Rating)\n\t\ta=db(db.Post.id==(int(r)+1)).update(Rating=b[0][\'Rating\']+5)\n\t\tredirect(URL("lall"))\n\telif (request.args[1]=="Dislike"):\t\n\t\tb=db(db.Post.id==int(r)+1).select(db.Post.Rating)\n\t\ta=db(db.Post.id==int(r)+1).update(Rating=b[0][\'Rating\']-3)\n\t\tredirect(URL("lall"))\n\treturn locals()\n\ndef postnews():\n\tform=SQLFORM(db.Post)\n\treturn locals()\n\ndef listcat():\n\tp=db(db.Post.id>0).select()\n\tq=db(db.Post.User==db.auth_user.id).select(db.auth_user.first_name)\n\ty=request.args[0]\n\tx=db(db.Post.Category==y).select()\n\tif (len(x)>0):\n\t\treturn locals()\n\t\n\telse :\n\t\treturn locals()\n\nresponse._vars=response._caller(lall)\n'
p7
sS'snapshot'
p8
(dp9
S'exception'
p10
(dp11
S'__hash__'
p12
S"<method-wrapper '__hash__' of exceptions.NameError object>"
p13
sS'__setattr__'
p14
S"<method-wrapper '__setattr__' of exceptions.NameError object>"
p15
sS'__reduce_ex__'
p16
S'<built-in method __reduce_ex__ of exceptions.NameError object>'
p17
sS'__getslice__'
p18
S"<method-wrapper '__getslice__' of exceptions.NameError object>"
p19
sS'__getitem__'
p20
S"<method-wrapper '__getitem__' of exceptions.NameError object>"
p21
sS'__setstate__'
p22
S'<built-in method __setstate__ of exceptions.NameError object>'
p23
sS'args'
p24
S'("global name \'ri\' is not defined",)'
p25
sS'__reduce__'
p26
S'<built-in method __reduce__ of exceptions.NameError object>'
p27
sS'__str__'
p28
S"<method-wrapper '__str__' of exceptions.NameError object>"
p29
sS'__format__'
p30
S'<built-in method __format__ of exceptions.NameError object>'
p31
sS'__getattribute__'
p32
S"<method-wrapper '__getattribute__' of exceptions.NameError object>"
p33
sS'__class__'
p34
S"<type 'exceptions.NameError'>"
p35
sS'__unicode__'
p36
S'<built-in method __unicode__ of exceptions.NameError object>'
p37
sS'__delattr__'
p38
S"<method-wrapper '__delattr__' of exceptions.NameError object>"
p39
sS'__subclasshook__'
p40
S'<built-in method __subclasshook__ of type object>'
p41
sS'__repr__'
p42
S"<method-wrapper '__repr__' of exceptions.NameError object>"
p43
sS'__dict__'
p44
S'{}'
p45
sS'__sizeof__'
p46
S'<built-in method __sizeof__ of exceptions.NameError object>'
p47
sS'__doc__'
p48
S"'Name not found globally.'"
p49
sS'__init__'
p50
S"<method-wrapper '__init__' of exceptions.NameError object>"
p51
sS'__new__'
p52
S'<built-in method __new__ of type object>'
p53
ssS'evalue'
p54
S"global name 'ri' is not defined"
p55
sS'request'
p56
ccopy_reg
_reconstructor
p57
(cgluon.html
BEAUTIFY
p58
c__builtin__
object
p59
NtRp60
(dp61
S'attributes'
p62
(dp63
sS'components'
p64
(lp65
g57
(cgluon.html
TABLE
p66
g59
NtRp67
(dp68
g62
(dp69
S'level'
p70
I5
ssS'parent'
p71
Nsg64
(lp72
g57
(cgluon.html
TR
p73
g59
NtRp74
(dp75
g62
(dp76
sg71
g67
sg64
(lp77
g57
(cgluon.html
TD
p78
g59
NtRp79
(dp80
g62
(dp81
S'_style'
p82
S'font-weight:bold;vertical-align:top'
p83
ssg71
g74
sg64
(lp84
S'ajax'
p85
asbag57
(g78
g59
NtRp86
(dp87
g62
(dp88
S'_valign'
p89
S'top'
p90
ssg71
g74
sg64
(lp91
S':'
asbag57
(g78
g59
NtRp92
(dp93
g62
(dp94
sg71
g74
sg64
(lp95
g57
(g58
g59
NtRp96
(dp97
g62
(dp98
g70
I5
ssg71
g92
sg64
(lp99
S'False'
p100
asbasbasbag57
(g73
g59
NtRp101
(dp102
g62
(dp103
sg71
g67
sg64
(lp104
g57
(g78
g59
NtRp105
(dp106
g62
(dp107
g82
g83
ssg71
g101
sg64
(lp108
S'application'
p109
asbag57
(g78
g59
NtRp110
(dp111
g62
(dp112
g89
g90
ssg71
g101
sg64
(lp113
S':'
asbag57
(g78
g59
NtRp114
(dp115
g62
(dp116
sg71
g101
sg64
(lp117
g57
(g58
g59
NtRp118
(dp119
g62
(dp120
g70
I5
ssg71
g114
sg64
(lp121
S'app1'
p122
asbasbasbag57
(g73
g59
NtRp123
(dp124
g62
(dp125
sg71
g67
sg64
(lp126
g57
(g78
g59
NtRp127
(dp128
g62
(dp129
g82
g83
ssg71
g123
sg64
(lp130
g24
asbag57
(g78
g59
NtRp131
(dp132
g62
(dp133
g89
g90
ssg71
g123
sg64
(lp134
S':'
asbag57
(g78
g59
NtRp135
(dp136
g62
(dp137
sg71
g123
sg64
(lp138
g57
(g58
g59
NtRp139
(dp140
g62
(dp141
g70
I5
ssg71
g135
sg64
(lp142
g57
(g66
g59
NtRp143
(dp144
g62
(dp145
g70
I4
ssg71
Nsg64
(lp146
g57
(g73
g59
NtRp147
(dp148
g62
(dp149
sg71
g143
sg64
(lp150
g57
(g78
g59
NtRp151
(dp152
g62
(dp153
sg71
g147
sg64
(lp154
g57
(g58
g59
NtRp155
(dp156
g62
(dp157
g70
I4
ssg71
g151
sg64
(lp158
S'0'
asbasbasbag57
(g73
g59
NtRp159
(dp160
g62
(dp161
sg71
g143
sg64
(lp162
g57
(g78
g59
NtRp163
(dp164
g62
(dp165
sg71
g159
sg64
(lp166
g57
(g58
g59
NtRp167
(dp168
g62
(dp169
g70
I4
ssg71
g163
sg64
(lp170
S'0'
asbasbasbag57
(g73
g59
NtRp171
(dp172
g62
(dp173
sg71
g143
sg64
(lp174
g57
(g78
g59
NtRp175
(dp176
g62
(dp177
sg71
g171
sg64
(lp178
g57
(g58
g59
NtRp179
(dp180
g62
(dp181
g70
I4
ssg71
g175
sg64
(lp182
S'0'
asbasbasbag57
(g73
g59
NtRp183
(dp184
g62
(dp185
sg71
g143
sg64
(lp186
g57
(g78
g59
NtRp187
(dp188
g62
(dp189
sg71
g183
sg64
(lp190
g57
(g58
g59
NtRp191
(dp192
g62
(dp193
g70
I4
ssg71
g187
sg64
(lp194
S'0'
asbasbasbag57
(g73
g59
NtRp195
(dp196
g62
(dp197
sg71
g143
sg64
(lp198
g57
(g78
g59
NtRp199
(dp200
g62
(dp201
sg71
g195
sg64
(lp202
g57
(g58
g59
NtRp203
(dp204
g62
(dp205
g70
I4
ssg71
g199
sg64
(lp206
S'like'
p207
asbasbasbasbasbasbasbag57
(g73
g59
NtRp208
(dp209
g62
(dp210
sg71
g67
sg64
(lp211
g57
(g78
g59
NtRp212
(dp213
g62
(dp214
g82
g83
ssg71
g208
sg64
(lp215
S'body'
p216
asbag57
(g78
g59
NtRp217
(dp218
g62
(dp219
g89
g90
ssg71
g208
sg64
(lp220
S':'
asbag57
(g78
g59
NtRp221
(dp222
g62
(dp223
sg71
g208
sg64
(lp224
g57
(g58
g59
NtRp225
(dp226
g62
(dp227
g70
I5
ssg71
g221
sg64
(lp228
S'<cStringIO.StringO object at 0x7fc83c303688>'
p229
asbasbasbag57
(g73
g59
NtRp230
(dp231
g62
(dp232
sg71
g67
sg64
(lp233
g57
(g78
g59
NtRp234
(dp235
g62
(dp236
g82
g83
ssg71
g230
sg64
(lp237
S'client'
p238
asbag57
(g78
g59
NtRp239
(dp240
g62
(dp241
g89
g90
ssg71
g230
sg64
(lp242
S':'
asbag57
(g78
g59
NtRp243
(dp244
g62
(dp245
sg71
g230
sg64
(lp246
g57
(g58
g59
NtRp247
(dp248
g62
(dp249
g70
I5
ssg71
g243
sg64
(lp250
S'127.0.0.1'
p251
asbasbasbag57
(g73
g59
NtRp252
(dp253
g62
(dp254
sg71
g67
sg64
(lp255
g57
(g78
g59
NtRp256
(dp257
g62
(dp258
g82
g83
ssg71
g252
sg64
(lp259
S'controller'
p260
asbag57
(g78
g59
NtRp261
(dp262
g62
(dp263
g89
g90
ssg71
g252
sg64
(lp264
S':'
asbag57
(g78
g59
NtRp265
(dp266
g62
(dp267
sg71
g252
sg64
(lp268
g57
(g58
g59
NtRp269
(dp270
g62
(dp271
g70
I5
ssg71
g265
sg64
(lp272
S'default'
p273
asbasbasbag57
(g73
g59
NtRp274
(dp275
g62
(dp276
sg71
g67
sg64
(lp277
g57
(g78
g59
NtRp278
(dp279
g62
(dp280
g82
g83
ssg71
g274
sg64
(lp281
S'cookies'
p282
asbag57
(g78
g59
NtRp283
(dp284
g62
(dp285
g89
g90
ssg71
g274
sg64
(lp286
S':'
asbag57
(g78
g59
NtRp287
(dp288
g62
(dp289
sg71
g274
sg64
(lp290
g57
(g58
g59
NtRp291
(dp292
g62
(dp293
g70
I5
ssg71
g287
sg64
(lp294
g57
(g66
g59
NtRp295
(dp296
g62
(dp297
g70
I4
ssg71
Nsg64
(lp298
g57
(g73
g59
NtRp299
(dp300
g62
(dp301
sg71
g295
sg64
(lp302
g57
(g78
g59
NtRp303
(dp304
g62
(dp305
g82
g83
ssg71
g299
sg64
(lp306
S'session_id_admin'
p307
asbag57
(g78
g59
NtRp308
(dp309
g62
(dp310
g89
g90
ssg71
g299
sg64
(lp311
S':'
asbag57
(g78
g59
NtRp312
(dp313
g62
(dp314
sg71
g299
sg64
(lp315
g57
(g58
g59
NtRp316
(dp317
g62
(dp318
g70
I4
ssg71
g312
sg64
(lp319
g57
(g66
g59
NtRp320
(dp321
g62
(dp322
g70
I3
ssg71
Nsg64
(lp323
g57
(g73
g59
NtRp324
(dp325
g62
(dp326
sg71
g320
sg64
(lp327
g57
(g78
g59
NtRp328
(dp329
g62
(dp330
g82
g83
ssg71
g324
sg64
(lp331
S'comment'
p332
asbag57
(g78
g59
NtRp333
(dp334
g62
(dp335
g89
g90
ssg71
g324
sg64
(lp336
S':'
asbag57
(g78
g59
NtRp337
(dp338
g62
(dp339
sg71
g324
sg64
(lp340
g57
(g58
g59
NtRp341
(dp342
g62
(dp343
g70
I3
ssg71
g337
sg64
(lp344
S''
asbasbasbag57
(g73
g59
NtRp345
(dp346
g62
(dp347
sg71
g320
sg64
(lp348
g57
(g78
g59
NtRp349
(dp350
g62
(dp351
g82
g83
ssg71
g345
sg64
(lp352
S'domain'
p353
asbag57
(g78
g59
NtRp354
(dp355
g62
(dp356
g89
g90
ssg71
g345
sg64
(lp357
S':'
asbag57
(g78
g59
NtRp358
(dp359
g62
(dp360
sg71
g345
sg64
(lp361
g57
(g58
g59
NtRp362
(dp363
g62
(dp364
g70
I3
ssg71
g358
sg64
(lp365
S''
asbasbasbag57
(g73
g59
NtRp366
(dp367
g62
(dp368
sg71
g320
sg64
(lp369
g57
(g78
g59
NtRp370
(dp371
g62
(dp372
g82
g83
ssg71
g366
sg64
(lp373
S'expires'
p374
asbag57
(g78
g59
NtRp375
(dp376
g62
(dp377
g89
g90
ssg71
g366
sg64
(lp378
S':'
asbag57
(g78
g59
NtRp379
(dp380
g62
(dp381
sg71
g366
sg64
(lp382
g57
(g58
g59
NtRp383
(dp384
g62
(dp385
g70
I3
ssg71
g379
sg64
(lp386
S''
asbasbasbag57
(g73
g59
NtRp387
(dp388
g62
(dp389
sg71
g320
sg64
(lp390
g57
(g78
g59
NtRp391
(dp392
g62
(dp393
g82
g83
ssg71
g387
sg64
(lp394
S'httponly'
p395
asbag57
(g78
g59
NtRp396
(dp397
g62
(dp398
g89
g90
ssg71
g387
sg64
(lp399
S':'
asbag57
(g78
g59
NtRp400
(dp401
g62
(dp402
sg71
g387
sg64
(lp403
g57
(g58
g59
NtRp404
(dp405
g62
(dp406
g70
I3
ssg71
g400
sg64
(lp407
S''
asbasbasbag57
(g73
g59
NtRp408
(dp409
g62
(dp410
sg71
g320
sg64
(lp411
g57
(g78
g59
NtRp412
(dp413
g62
(dp414
g82
g83
ssg71
g408
sg64
(lp415
S'max-age'
p416
asbag57
(g78
g59
NtRp417
(dp418
g62
(dp419
g89
g90
ssg71
g408
sg64
(lp420
S':'
asbag57
(g78
g59
NtRp421
(dp422
g62
(dp423
sg71
g408
sg64
(lp424
g57
(g58
g59
NtRp425
(dp426
g62
(dp427
g70
I3
ssg71
g421
sg64
(lp428
S''
asbasbasbag57
(g73
g59
NtRp429
(dp430
g62
(dp431
sg71
g320
sg64
(lp432
g57
(g78
g59
NtRp433
(dp434
g62
(dp435
g82
g83
ssg71
g429
sg64
(lp436
S'path'
p437
asbag57
(g78
g59
NtRp438
(dp439
g62
(dp440
g89
g90
ssg71
g429
sg64
(lp441
S':'
asbag57
(g78
g59
NtRp442
(dp443
g62
(dp444
sg71
g429
sg64
(lp445
g57
(g58
g59
NtRp446
(dp447
g62
(dp448
g70
I3
ssg71
g442
sg64
(lp449
S''
asbasbasbag57
(g73
g59
NtRp450
(dp451
g62
(dp452
sg71
g320
sg64
(lp453
g57
(g78
g59
NtRp454
(dp455
g62
(dp456
g82
g83
ssg71
g450
sg64
(lp457
S'secure'
p458
asbag57
(g78
g59
NtRp459
(dp460
g62
(dp461
g89
g90
ssg71
g450
sg64
(lp462
S':'
asbag57
(g78
g59
NtRp463
(dp464
g62
(dp465
sg71
g450
sg64
(lp466
g57
(g58
g59
NtRp467
(dp468
g62
(dp469
g70
I3
ssg71
g463
sg64
(lp470
S''
asbasbasbag57
(g73
g59
NtRp471
(dp472
g62
(dp473
sg71
g320
sg64
(lp474
g57
(g78
g59
NtRp475
(dp476
g62
(dp477
g82
g83
ssg71
g471
sg64
(lp478
S'version'
p479
asbag57
(g78
g59
NtRp480
(dp481
g62
(dp482
g89
g90
ssg71
g471
sg64
(lp483
S':'
asbag57
(g78
g59
NtRp484
(dp485
g62
(dp486
sg71
g471
sg64
(lp487
g57
(g58
g59
NtRp488
(dp489
g62
(dp490
g70
I3
ssg71
g484
sg64
(lp491
S''
asbasbasbasbasbasbasbag57
(g73
g59
NtRp492
(dp493
g62
(dp494
sg71
g295
sg64
(lp495
g57
(g78
g59
NtRp496
(dp497
g62
(dp498
g82
g83
ssg71
g492
sg64
(lp499
S'session_id_app1'
p500
asbag57
(g78
g59
NtRp501
(dp502
g62
(dp503
g89
g90
ssg71
g492
sg64
(lp504
S':'
asbag57
(g78
g59
NtRp505
(dp506
g62
(dp507
sg71
g492
sg64
(lp508
g57
(g58
g59
NtRp509
(dp510
g62
(dp511
g70
I4
ssg71
g505
sg64
(lp512
g57
(g66
g59
NtRp513
(dp514
g62
(dp515
g70
I3
ssg71
Nsg64
(lp516
g57
(g73
g59
NtRp517
(dp518
g62
(dp519
sg71
g513
sg64
(lp520
g57
(g78
g59
NtRp521
(dp522
g62
(dp523
g82
g83
ssg71
g517
sg64
(lp524
g332
asbag57
(g78
g59
NtRp525
(dp526
g62
(dp527
g89
g90
ssg71
g517
sg64
(lp528
S':'
asbag57
(g78
g59
NtRp529
(dp530
g62
(dp531
sg71
g517
sg64
(lp532
g57
(g58
g59
NtRp533
(dp534
g62
(dp535
g70
I3
ssg71
g529
sg64
(lp536
S''
asbasbasbag57
(g73
g59
NtRp537
(dp538
g62
(dp539
sg71
g513
sg64
(lp540
g57
(g78
g59
NtRp541
(dp542
g62
(dp543
g82
g83
ssg71
g537
sg64
(lp544
g353
asbag57
(g78
g59
NtRp545
(dp546
g62
(dp547
g89
g90
ssg71
g537
sg64
(lp548
S':'
asbag57
(g78
g59
NtRp549
(dp550
g62
(dp551
sg71
g537
sg64
(lp552
g57
(g58
g59
NtRp553
(dp554
g62
(dp555
g70
I3
ssg71
g549
sg64
(lp556
S''
asbasbasbag57
(g73
g59
NtRp557
(dp558
g62
(dp559
sg71
g513
sg64
(lp560
g57
(g78
g59
NtRp561
(dp562
g62
(dp563
g82
g83
ssg71
g557
sg64
(lp564
g374
asbag57
(g78
g59
NtRp565
(dp566
g62
(dp567
g89
g90
ssg71
g557
sg64
(lp568
S':'
asbag57
(g78
g59
NtRp569
(dp570
g62
(dp571
sg71
g557
sg64
(lp572
g57
(g58
g59
NtRp573
(dp574
g62
(dp575
g70
I3
ssg71
g569
sg64
(lp576
S''
asbasbasbag57
(g73
g59
NtRp577
(dp578
g62
(dp579
sg71
g513
sg64
(lp580
g57
(g78
g59
NtRp581
(dp582
g62
(dp583
g82
g83
ssg71
g577
sg64
(lp584
g395
asbag57
(g78
g59
NtRp585
(dp586
g62
(dp587
g89
g90
ssg71
g577
sg64
(lp588
S':'
asbag57
(g78
g59
NtRp589
(dp590
g62
(dp591
sg71
g577
sg64
(lp592
g57
(g58
g59
NtRp593
(dp594
g62
(dp595
g70
I3
ssg71
g589
sg64
(lp596
S''
asbasbasbag57
(g73
g59
NtRp597
(dp598
g62
(dp599
sg71
g513
sg64
(lp600
g57
(g78
g59
NtRp601
(dp602
g62
(dp603
g82
g83
ssg71
g597
sg64
(lp604
g416
asbag57
(g78
g59
NtRp605
(dp606
g62
(dp607
g89
g90
ssg71
g597
sg64
(lp608
S':'
asbag57
(g78
g59
NtRp609
(dp610
g62
(dp611
sg71
g597
sg64
(lp612
g57
(g58
g59
NtRp613
(dp614
g62
(dp615
g70
I3
ssg71
g609
sg64
(lp616
S''
asbasbasbag57
(g73
g59
NtRp617
(dp618
g62
(dp619
sg71
g513
sg64
(lp620
g57
(g78
g59
NtRp621
(dp622
g62
(dp623
g82
g83
ssg71
g617
sg64
(lp624
g437
asbag57
(g78
g59
NtRp625
(dp626
g62
(dp627
g89
g90
ssg71
g617
sg64
(lp628
S':'
asbag57
(g78
g59
NtRp629
(dp630
g62
(dp631
sg71
g617
sg64
(lp632
g57
(g58
g59
NtRp633
(dp634
g62
(dp635
g70
I3
ssg71
g629
sg64
(lp636
S''
asbasbasbag57
(g73
g59
NtRp637
(dp638
g62
(dp639
sg71
g513
sg64
(lp640
g57
(g78
g59
NtRp641
(dp642
g62
(dp643
g82
g83
ssg71
g637
sg64
(lp644
g458
asbag57
(g78
g59
NtRp645
(dp646
g62
(dp647
g89
g90
ssg71
g637
sg64
(lp648
S':'
asbag57
(g78
g59
NtRp649
(dp650
g62
(dp651
sg71
g637
sg64
(lp652
g57
(g58
g59
NtRp653
(dp654
g62
(dp655
g70
I3
ssg71
g649
sg64
(lp656
S''
asbasbasbag57
(g73
g59
NtRp657
(dp658
g62
(dp659
sg71
g513
sg64
(lp660
g57
(g78
g59
NtRp661
(dp662
g62
(dp663
g82
g83
ssg71
g657
sg64
(lp664
g479
asbag57
(g78
g59
NtRp665
(dp666
g62
(dp667
g89
g90
ssg71
g657
sg64
(lp668
S':'
asbag57
(g78
g59
NtRp669
(dp670
g62
(dp671
sg71
g657
sg64
(lp672
g57
(g58
g59
NtRp673
(dp674
g62
(dp675
g70
I3
ssg71
g669
sg64
(lp676
S''
asbasbasbasbasbasbasbag57
(g73
g59
NtRp677
(dp678
g62
(dp679
sg71
g295
sg64
(lp680
g57
(g78
g59
NtRp681
(dp682
g62
(dp683
g82
g83
ssg71
g677
sg64
(lp684
S'session_id_welcome'
p685
asbag57
(g78
g59
NtRp686
(dp687
g62
(dp688
g89
g90
ssg71
g677
sg64
(lp689
S':'
asbag57
(g78
g59
NtRp690
(dp691
g62
(dp692
sg71
g677
sg64
(lp693
g57
(g58
g59
NtRp694
(dp695
g62
(dp696
g70
I4
ssg71
g690
sg64
(lp697
g57
(g66
g59
NtRp698
(dp699
g62
(dp700
g70
I3
ssg71
Nsg64
(lp701
g57
(g73
g59
NtRp702
(dp703
g62
(dp704
sg71
g698
sg64
(lp705
g57
(g78
g59
NtRp706
(dp707
g62
(dp708
g82
g83
ssg71
g702
sg64
(lp709
g332
asbag57
(g78
g59
NtRp710
(dp711
g62
(dp712
g89
g90
ssg71
g702
sg64
(lp713
S':'
asbag57
(g78
g59
NtRp714
(dp715
g62
(dp716
sg71
g702
sg64
(lp717
g57
(g58
g59
NtRp718
(dp719
g62
(dp720
g70
I3
ssg71
g714
sg64
(lp721
S''
asbasbasbag57
(g73
g59
NtRp722
(dp723
g62
(dp724
sg71
g698
sg64
(lp725
g57
(g78
g59
NtRp726
(dp727
g62
(dp728
g82
g83
ssg71
g722
sg64
(lp729
g353
asbag57
(g78
g59
NtRp730
(dp731
g62
(dp732
g89
g90
ssg71
g722
sg64
(lp733
S':'
asbag57
(g78
g59
NtRp734
(dp735
g62
(dp736
sg71
g722
sg64
(lp737
g57
(g58
g59
NtRp738
(dp739
g62
(dp740
g70
I3
ssg71
g734
sg64
(lp741
S''
asbasbasbag57
(g73
g59
NtRp742
(dp743
g62
(dp744
sg71
g698
sg64
(lp745
g57
(g78
g59
NtRp746
(dp747
g62
(dp748
g82
g83
ssg71
g742
sg64
(lp749
g374
asbag57
(g78
g59
NtRp750
(dp751
g62
(dp752
g89
g90
ssg71
g742
sg64
(lp753
S':'
asbag57
(g78
g59
NtRp754
(dp755
g62
(dp756
sg71
g742
sg64
(lp757
g57
(g58
g59
NtRp758
(dp759
g62
(dp760
g70
I3
ssg71
g754
sg64
(lp761
S''
asbasbasbag57
(g73
g59
NtRp762
(dp763
g62
(dp764
sg71
g698
sg64
(lp765
g57
(g78
g59
NtRp766
(dp767
g62
(dp768
g82
g83
ssg71
g762
sg64
(lp769
g395
asbag57
(g78
g59
NtRp770
(dp771
g62
(dp772
g89
g90
ssg71
g762
sg64
(lp773
S':'
asbag57
(g78
g59
NtRp774
(dp775
g62
(dp776
sg71
g762
sg64
(lp777
g57
(g58
g59
NtRp778
(dp779
g62
(dp780
g70
I3
ssg71
g774
sg64
(lp781
S''
asbasbasbag57
(g73
g59
NtRp782
(dp783
g62
(dp784
sg71
g698
sg64
(lp785
g57
(g78
g59
NtRp786
(dp787
g62
(dp788
g82
g83
ssg71
g782
sg64
(lp789
g416
asbag57
(g78
g59
NtRp790
(dp791
g62
(dp792
g89
g90
ssg71
g782
sg64
(lp793
S':'
asbag57
(g78
g59
NtRp794
(dp795
g62
(dp796
sg71
g782
sg64
(lp797
g57
(g58
g59
NtRp798
(dp799
g62
(dp800
g70
I3
ssg71
g794
sg64
(lp801
S''
asbasbasbag57
(g73
g59
NtRp802
(dp803
g62
(dp804
sg71
g698
sg64
(lp805
g57
(g78
g59
NtRp806
(dp807
g62
(dp808
g82
g83
ssg71
g802
sg64
(lp809
g437
asbag57
(g78
g59
NtRp810
(dp811
g62
(dp812
g89
g90
ssg71
g802
sg64
(lp813
S':'
asbag57
(g78
g59
NtRp814
(dp815
g62
(dp816
sg71
g802
sg64
(lp817
g57
(g58
g59
NtRp818
(dp819
g62
(dp820
g70
I3
ssg71
g814
sg64
(lp821
S''
asbasbasbag57
(g73
g59
NtRp822
(dp823
g62
(dp824
sg71
g698
sg64
(lp825
g57
(g78
g59
NtRp826
(dp827
g62
(dp828
g82
g83
ssg71
g822
sg64
(lp829
g458
asbag57
(g78
g59
NtRp830
(dp831
g62
(dp832
g89
g90
ssg71
g822
sg64
(lp833
S':'
asbag57
(g78
g59
NtRp834
(dp835
g62
(dp836
sg71
g822
sg64
(lp837
g57
(g58
g59
NtRp838
(dp839
g62
(dp840
g70
I3
ssg71
g834
sg64
(lp841
S''
asbasbasbag57
(g73
g59
NtRp842
(dp843
g62
(dp844
sg71
g698
sg64
(lp845
g57
(g78
g59
NtRp846
(dp847
g62
(dp848
g82
g83
ssg71
g842
sg64
(lp849
g479
asbag57
(g78
g59
NtRp850
(dp851
g62
(dp852
g89
g90
ssg71
g842
sg64
(lp853
S':'
asbag57
(g78
g59
NtRp854
(dp855
g62
(dp856
sg71
g842
sg64
(lp857
g57
(g58
g59
NtRp858
(dp859
g62
(dp860
g70
I3
ssg71
g854
sg64
(lp861
S''
asbasbasbasbasbasbasbasbasbasbasbag57
(g73
g59
NtRp862
(dp863
g62
(dp864
sg71
g67
sg64
(lp865
g57
(g78
g59
NtRp866
(dp867
g62
(dp868
g82
g83
ssg71
g862
sg64
(lp869
S'env'
p870
asbag57
(g78
g59
NtRp871
(dp872
g62
(dp873
g89
g90
ssg71
g862
sg64
(lp874
S':'
asbag57
(g78
g59
NtRp875
(dp876
g62
(dp877
sg71
g862
sg64
(lp878
g57
(g58
g59
NtRp879
(dp880
g62
(dp881
g70
I5
ssg71
g875
sg64
(lp882
g57
(g66
g59
NtRp883
(dp884
g62
(dp885
g70
I4
ssg71
Nsg64
(lp886
g57
(g73
g59
NtRp887
(dp888
g62
(dp889
sg71
g883
sg64
(lp890
g57
(g78
g59
NtRp891
(dp892
g62
(dp893
g82
g83
ssg71
g887
sg64
(lp894
S'app_folders'
p895
asbag57
(g78
g59
NtRp896
(dp897
g62
(dp898
g89
g90
ssg71
g887
sg64
(lp899
S':'
asbag57
(g78
g59
NtRp900
(dp901
g62
(dp902
sg71
g887
sg64
(lp903
g57
(g58
g59
NtRp904
(dp905
g62
(dp906
g70
I4
ssg71
g900
sg64
(lp907
S"set(['/home/jigar/web2py/applications/welcome/', '/home/jigar/web2py/applications/app1/', '/home/jigar/web2py/applications/admin/'])"
p908
asbasbasbag57
(g73
g59
NtRp909
(dp910
g62
(dp911
sg71
g883
sg64
(lp912
g57
(g78
g59
NtRp913
(dp914
g62
(dp915
g82
g83
ssg71
g909
sg64
(lp916
S'applications_parent'
p917
asbag57
(g78
g59
NtRp918
(dp919
g62
(dp920
g89
g90
ssg71
g909
sg64
(lp921
S':'
asbag57
(g78
g59
NtRp922
(dp923
g62
(dp924
sg71
g909
sg64
(lp925
g57
(g58
g59
NtRp926
(dp927
g62
(dp928
g70
I4
ssg71
g922
sg64
(lp929
S'/home/jigar/web2py'
p930
asbasbasbag57
(g73
g59
NtRp931
(dp932
g62
(dp933
sg71
g883
sg64
(lp934
g57
(g78
g59
NtRp935
(dp936
g62
(dp937
g82
g83
ssg71
g931
sg64
(lp938
S'cmd_args'
p939
asbag57
(g78
g59
NtRp940
(dp941
g62
(dp942
g89
g90
ssg71
g931
sg64
(lp943
S':'
asbag57
(g78
g59
NtRp944
(dp945
g62
(dp946
sg71
g931
sg64
(lp947
g57
(g58
g59
NtRp948
(dp949
g62
(dp950
g70
I4
ssg71
g944
sg64
(lp951
g57
(g66
g59
NtRp952
(dp953
g62
(dp954
g70
I3
ssg71
Nsg64
(lp955
sbasbasbasbag57
(g73
g59
NtRp956
(dp957
g62
(dp958
sg71
g883
sg64
(lp959
g57
(g78
g59
NtRp960
(dp961
g62
(dp962
g82
g83
ssg71
g956
sg64
(lp963
S'cmd_options'
p964
asbag57
(g78
g59
NtRp965
(dp966
g62
(dp967
g89
g90
ssg71
g956
sg64
(lp968
S':'
asbag57
(g78
g59
NtRp969
(dp970
g62
(dp971
sg71
g956
sg64
(lp972
g57
(g58
g59
NtRp973
(dp974
g62
(dp975
g70
I4
ssg71
g969
sg64
(lp976
S"<Values at 0x19fcbd8: {'verbose': False, 'ip': '127.0.0.1', 'shutdown_timeout': 5, 'taskbar': False, 'port': 8000, 'maxthreads': None, 'softcron': False, 'server_name': 'jigar-Lenovo-Z580', 'bpython': False, 'nogui': False, 'nocron': False, 'extcron': False, 'debuglevel': 30, 'test': None, 'folder': '/home/jigar/web2py', 'config': '', 'import_models': False, 'winservice': '', 'shell': None, 'run': '', 'log_filename': 'httpserver.log', 'args': [''], 'socket_timeout': 1, 'profiler_filename': None, 'ssl_private_key': '', 'password': '<ask>', 'request_queue_size': 5, 'ssl_certificate': '', 'cronjob': False, 'plain': False, 'quiet': False, 'interfaces': None, 'minthreads': None, 'timeout': 10, 'numthreads': None, 'nobanner': False, 'pid_filename': 'httpserver.pid'}>"
p977
asbasbasbag57
(g73
g59
NtRp978
(dp979
g62
(dp980
sg71
g883
sg64
(lp981
g57
(g78
g59
NtRp982
(dp983
g62
(dp984
g82
g83
ssg71
g978
sg64
(lp985
S'db_sessions'
p986
asbag57
(g78
g59
NtRp987
(dp988
g62
(dp989
g89
g90
ssg71
g978
sg64
(lp990
S':'
asbag57
(g78
g59
NtRp991
(dp992
g62
(dp993
sg71
g978
sg64
(lp994
g57
(g58
g59
NtRp995
(dp996
g62
(dp997
g70
I4
ssg71
g991
sg64
(lp998
S'set([])'
p999
asbasbasbag57
(g73
g59
NtRp1000
(dp1001
g62
(dp1002
sg71
g883
sg64
(lp1003
g57
(g78
g59
NtRp1004
(dp1005
g62
(dp1006
g82
g83
ssg71
g1000
sg64
(lp1007
S'debugging'
p1008
asbag57
(g78
g59
NtRp1009
(dp1010
g62
(dp1011
g89
g90
ssg71
g1000
sg64
(lp1012
S':'
asbag57
(g78
g59
NtRp1013
(dp1014
g62
(dp1015
sg71
g1000
sg64
(lp1016
g57
(g58
g59
NtRp1017
(dp1018
g62
(dp1019
g70
I4
ssg71
g1013
sg64
(lp1020
g100
asbasbasbag57
(g73
g59
NtRp1021
(dp1022
g62
(dp1023
sg71
g883
sg64
(lp1024
g57
(g78
g59
NtRp1025
(dp1026
g62
(dp1027
g82
g83
ssg71
g1021
sg64
(lp1028
S'gluon_parent'
p1029
asbag57
(g78
g59
NtRp1030
(dp1031
g62
(dp1032
g89
g90
ssg71
g1021
sg64
(lp1033
S':'
asbag57
(g78
g59
NtRp1034
(dp1035
g62
(dp1036
sg71
g1021
sg64
(lp1037
g57
(g58
g59
NtRp1038
(dp1039
g62
(dp1040
g70
I4
ssg71
g1034
sg64
(lp1041
S'/usr/share/web2py'
p1042
asbasbasbag57
(g73
g59
NtRp1043
(dp1044
g62
(dp1045
sg71
g883
sg64
(lp1046
g57
(g78
g59
NtRp1047
(dp1048
g62
(dp1049
g82
g83
ssg71
g1043
sg64
(lp1050
S'http_accept'
p1051
asbag57
(g78
g59
NtRp1052
(dp1053
g62
(dp1054
g89
g90
ssg71
g1043
sg64
(lp1055
S':'
asbag57
(g78
g59
NtRp1056
(dp1057
g62
(dp1058
sg71
g1043
sg64
(lp1059
g57
(g58
g59
NtRp1060
(dp1061
g62
(dp1062
g70
I4
ssg71
g1056
sg64
(lp1063
S'text/html,application/xhtml+xml,application/xml;q=0.9,*/*;q=0.8'
p1064
asbasbasbag57
(g73
g59
NtRp1065
(dp1066
g62
(dp1067
sg71
g883
sg64
(lp1068
g57
(g78
g59
NtRp1069
(dp1070
g62
(dp1071
g82
g83
ssg71
g1065
sg64
(lp1072
S'http_accept_encoding'
p1073
asbag57
(g78
g59
NtRp1074
(dp1075
g62
(dp1076
g89
g90
ssg71
g1065
sg64
(lp1077
S':'
asbag57
(g78
g59
NtRp1078
(dp1079
g62
(dp1080
sg71
g1065
sg64
(lp1081
g57
(g58
g59
NtRp1082
(dp1083
g62
(dp1084
g70
I4
ssg71
g1078
sg64
(lp1085
S'gzip, deflate'
p1086
asbasbasbag57
(g73
g59
NtRp1087
(dp1088
g62
(dp1089
sg71
g883
sg64
(lp1090
g57
(g78
g59
NtRp1091
(dp1092
g62
(dp1093
g82
g83
ssg71
g1087
sg64
(lp1094
S'http_accept_language'
p1095
asbag57
(g78
g59
NtRp1096
(dp1097
g62
(dp1098
g89
g90
ssg71
g1087
sg64
(lp1099
S':'
asbag57
(g78
g59
NtRp1100
(dp1101
g62
(dp1102
sg71
g1087
sg64
(lp1103
g57
(g58
g59
NtRp1104
(dp1105
g62
(dp1106
g70
I4
ssg71
g1100
sg64
(lp1107
S'en-US,en;q=0.5'
p1108
asbasbasbag57
(g73
g59
NtRp1109
(dp1110
g62
(dp1111
sg71
g883
sg64
(lp1112
g57
(g78
g59
NtRp1113
(dp1114
g62
(dp1115
g82
g83
ssg71
g1109
sg64
(lp1116
S'http_connection'
p1117
asbag57
(g78
g59
NtRp1118
(dp1119
g62
(dp1120
g89
g90
ssg71
g1109
sg64
(lp1121
S':'
asbag57
(g78
g59
NtRp1122
(dp1123
g62
(dp1124
sg71
g1109
sg64
(lp1125
g57
(g58
g59
NtRp1126
(dp1127
g62
(dp1128
g70
I4
ssg71
g1122
sg64
(lp1129
S'keep-alive'
p1130
asbasbasbag57
(g73
g59
NtRp1131
(dp1132
g62
(dp1133
sg71
g883
sg64
(lp1134
g57
(g78
g59
NtRp1135
(dp1136
g62
(dp1137
g82
g83
ssg71
g1131
sg64
(lp1138
S'http_cookie'
p1139
asbag57
(g78
g59
NtRp1140
(dp1141
g62
(dp1142
g89
g90
ssg71
g1131
sg64
(lp1143
S':'
asbag57
(g78
g59
NtRp1144
(dp1145
g62
(dp1146
sg71
g1131
sg64
(lp1147
g57
(g58
g59
NtRp1148
(dp1149
g62
(dp1150
g70
I4
ssg71
g1144
sg64
(lp1151
S'session_id_welcome=127.0.0.1-b6f0729f-1b7b-417f-a0c4-729ef9448dca; session_id_admin=127.0.0.1-932cca65-c849-4cc4-aeab-720ab1480de6; session_id_app1=127.0.0.1-15782adb-a404-4b3e-868f-e60d89b9be1b'
p1152
asbasbasbag57
(g73
g59
NtRp1153
(dp1154
g62
(dp1155
sg71
g883
sg64
(lp1156
g57
(g78
g59
NtRp1157
(dp1158
g62
(dp1159
g82
g83
ssg71
g1153
sg64
(lp1160
S'http_host'
p1161
asbag57
(g78
g59
NtRp1162
(dp1163
g62
(dp1164
g89
g90
ssg71
g1153
sg64
(lp1165
S':'
asbag57
(g78
g59
NtRp1166
(dp1167
g62
(dp1168
sg71
g1153
sg64
(lp1169
g57
(g58
g59
NtRp1170
(dp1171
g62
(dp1172
g70
I4
ssg71
g1166
sg64
(lp1173
S'127.0.0.1:8000'
p1174
asbasbasbag57
(g73
g59
NtRp1175
(dp1176
g62
(dp1177
sg71
g883
sg64
(lp1178
g57
(g78
g59
NtRp1179
(dp1180
g62
(dp1181
g82
g83
ssg71
g1175
sg64
(lp1182
S'http_user_agent'
p1183
asbag57
(g78
g59
NtRp1184
(dp1185
g62
(dp1186
g89
g90
ssg71
g1175
sg64
(lp1187
S':'
asbag57
(g78
g59
NtRp1188
(dp1189
g62
(dp1190
sg71
g1175
sg64
(lp1191
g57
(g58
g59
NtRp1192
(dp1193
g62
(dp1194
g70
I4
ssg71
g1188
sg64
(lp1195
S'Mozilla/5.0 (X11; Ubuntu; Linux x86_64; rv:23.0) Gecko/20100101 Firefox/23.0'
p1196
asbasbasbag57
(g73
g59
NtRp1197
(dp1198
g62
(dp1199
sg71
g883
sg64
(lp1200
g57
(g78
g59
NtRp1201
(dp1202
g62
(dp1203
g82
g83
ssg71
g1197
sg64
(lp1204
S'is_jython'
p1205
asbag57
(g78
g59
NtRp1206
(dp1207
g62
(dp1208
g89
g90
ssg71
g1197
sg64
(lp1209
S':'
asbag57
(g78
g59
NtRp1210
(dp1211
g62
(dp1212
sg71
g1197
sg64
(lp1213
g57
(g58
g59
NtRp1214
(dp1215
g62
(dp1216
g70
I4
ssg71
g1210
sg64
(lp1217
g100
asbasbasbag57
(g73
g59
NtRp1218
(dp1219
g62
(dp1220
sg71
g883
sg64
(lp1221
g57
(g78
g59
NtRp1222
(dp1223
g62
(dp1224
g82
g83
ssg71
g1218
sg64
(lp1225
S'is_pypy'
p1226
asbag57
(g78
g59
NtRp1227
(dp1228
g62
(dp1229
g89
g90
ssg71
g1218
sg64
(lp1230
S':'
asbag57
(g78
g59
NtRp1231
(dp1232
g62
(dp1233
sg71
g1218
sg64
(lp1234
g57
(g58
g59
NtRp1235
(dp1236
g62
(dp1237
g70
I4
ssg71
g1231
sg64
(lp1238
g100
asbasbasbag57
(g73
g59
NtRp1239
(dp1240
g62
(dp1241
sg71
g883
sg64
(lp1242
g57
(g78
g59
NtRp1243
(dp1244
g62
(dp1245
g82
g83
ssg71
g1239
sg64
(lp1246
S'path_info'
p1247
asbag57
(g78
g59
NtRp1248
(dp1249
g62
(dp1250
g89
g90
ssg71
g1239
sg64
(lp1251
S':'
asbag57
(g78
g59
NtRp1252
(dp1253
g62
(dp1254
sg71
g1239
sg64
(lp1255
g57
(g58
g59
NtRp1256
(dp1257
g62
(dp1258
g70
I4
ssg71
g1252
sg64
(lp1259
S'/app1/default/lall/0/0/0/0/like'
p1260
asbasbasbag57
(g73
g59
NtRp1261
(dp1262
g62
(dp1263
sg71
g883
sg64
(lp1264
g57
(g78
g59
NtRp1265
(dp1266
g62
(dp1267
g82
g83
ssg71
g1261
sg64
(lp1268
S'query_string'
p1269
asbag57
(g78
g59
NtRp1270
(dp1271
g62
(dp1272
g89
g90
ssg71
g1261
sg64
(lp1273
S':'
asbag57
(g78
g59
NtRp1274
(dp1275
g62
(dp1276
sg71
g1261
sg64
(lp1277
g57
(g58
g59
NtRp1278
(dp1279
g62
(dp1280
g70
I4
ssg71
g1274
sg64
(lp1281
S''
asbasbasbag57
(g73
g59
NtRp1282
(dp1283
g62
(dp1284
sg71
g883
sg64
(lp1285
g57
(g78
g59
NtRp1286
(dp1287
g62
(dp1288
g82
g83
ssg71
g1282
sg64
(lp1289
S'remote_addr'
p1290
asbag57
(g78
g59
NtRp1291
(dp1292
g62
(dp1293
g89
g90
ssg71
g1282
sg64
(lp1294
S':'
asbag57
(g78
g59
NtRp1295
(dp1296
g62
(dp1297
sg71
g1282
sg64
(lp1298
g57
(g58
g59
NtRp1299
(dp1300
g62
(dp1301
g70
I4
ssg71
g1295
sg64
(lp1302
g251
asbasbasbag57
(g73
g59
NtRp1303
(dp1304
g62
(dp1305
sg71
g883
sg64
(lp1306
g57
(g78
g59
NtRp1307
(dp1308
g62
(dp1309
g82
g83
ssg71
g1303
sg64
(lp1310
S'remote_port'
p1311
asbag57
(g78
g59
NtRp1312
(dp1313
g62
(dp1314
g89
g90
ssg71
g1303
sg64
(lp1315
S':'
asbag57
(g78
g59
NtRp1316
(dp1317
g62
(dp1318
sg71
g1303
sg64
(lp1319
g57
(g58
g59
NtRp1320
(dp1321
g62
(dp1322
g70
I4
ssg71
g1316
sg64
(lp1323
S'56276'
p1324
asbasbasbag57
(g73
g59
NtRp1325
(dp1326
g62
(dp1327
sg71
g883
sg64
(lp1328
g57
(g78
g59
NtRp1329
(dp1330
g62
(dp1331
g82
g83
ssg71
g1325
sg64
(lp1332
S'request_method'
p1333
asbag57
(g78
g59
NtRp1334
(dp1335
g62
(dp1336
g89
g90
ssg71
g1325
sg64
(lp1337
S':'
asbag57
(g78
g59
NtRp1338
(dp1339
g62
(dp1340
sg71
g1325
sg64
(lp1341
g57
(g58
g59
NtRp1342
(dp1343
g62
(dp1344
g70
I4
ssg71
g1338
sg64
(lp1345
S'GET'
p1346
asbasbasbag57
(g73
g59
NtRp1347
(dp1348
g62
(dp1349
sg71
g883
sg64
(lp1350
g57
(g78
g59
NtRp1351
(dp1352
g62
(dp1353
g82
g83
ssg71
g1347
sg64
(lp1354
S'script_name'
p1355
asbag57
(g78
g59
NtRp1356
(dp1357
g62
(dp1358
g89
g90
ssg71
g1347
sg64
(lp1359
S':'
asbag57
(g78
g59
NtRp1360
(dp1361
g62
(dp1362
sg71
g1347
sg64
(lp1363
g57
(g58
g59
NtRp1364
(dp1365
g62
(dp1366
g70
I4
ssg71
g1360
sg64
(lp1367
S''
asbasbasbag57
(g73
g59
NtRp1368
(dp1369
g62
(dp1370
sg71
g883
sg64
(lp1371
g57
(g78
g59
NtRp1372
(dp1373
g62
(dp1374
g82
g83
ssg71
g1368
sg64
(lp1375
S'server_name'
p1376
asbag57
(g78
g59
NtRp1377
(dp1378
g62
(dp1379
g89
g90
ssg71
g1368
sg64
(lp1380
S':'
asbag57
(g78
g59
NtRp1381
(dp1382
g62
(dp1383
sg71
g1368
sg64
(lp1384
g57
(g58
g59
NtRp1385
(dp1386
g62
(dp1387
g70
I4
ssg71
g1381
sg64
(lp1388
S'jigar-Lenovo-Z580'
p1389
asbasbasbag57
(g73
g59
NtRp1390
(dp1391
g62
(dp1392
sg71
g883
sg64
(lp1393
g57
(g78
g59
NtRp1394
(dp1395
g62
(dp1396
g82
g83
ssg71
g1390
sg64
(lp1397
S'server_port'
p1398
asbag57
(g78
g59
NtRp1399
(dp1400
g62
(dp1401
g89
g90
ssg71
g1390
sg64
(lp1402
S':'
asbag57
(g78
g59
NtRp1403
(dp1404
g62
(dp1405
sg71
g1390
sg64
(lp1406
g57
(g58
g59
NtRp1407
(dp1408
g62
(dp1409
g70
I4
ssg71
g1403
sg64
(lp1410
S'8000'
p1411
asbasbasbag57
(g73
g59
NtRp1412
(dp1413
g62
(dp1414
sg71
g883
sg64
(lp1415
g57
(g78
g59
NtRp1416
(dp1417
g62
(dp1418
g82
g83
ssg71
g1412
sg64
(lp1419
S'server_protocol'
p1420
asbag57
(g78
g59
NtRp1421
(dp1422
g62
(dp1423
g89
g90
ssg71
g1412
sg64
(lp1424
S':'
asbag57
(g78
g59
NtRp1425
(dp1426
g62
(dp1427
sg71
g1412
sg64
(lp1428
g57
(g58
g59
NtRp1429
(dp1430
g62
(dp1431
g70
I4
ssg71
g1425
sg64
(lp1432
S'HTTP/1.1'
p1433
asbasbasbag57
(g73
g59
NtRp1434
(dp1435
g62
(dp1436
sg71
g883
sg64
(lp1437
g57
(g78
g59
NtRp1438
(dp1439
g62
(dp1440
g82
g83
ssg71
g1434
sg64
(lp1441
S'server_software'
p1442
asbag57
(g78
g59
NtRp1443
(dp1444
g62
(dp1445
g89
g90
ssg71
g1434
sg64
(lp1446
S':'
asbag57
(g78
g59
NtRp1447
(dp1448
g62
(dp1449
sg71
g1434
sg64
(lp1450
g57
(g58
g59
NtRp1451
(dp1452
g62
(dp1453
g70
I4
ssg71
g1447
sg64
(lp1454
S'Rocket 1.2.4'
p1455
asbasbasbag57
(g73
g59
NtRp1456
(dp1457
g62
(dp1458
sg71
g883
sg64
(lp1459
g57
(g78
g59
NtRp1460
(dp1461
g62
(dp1462
g82
g83
ssg71
g1456
sg64
(lp1463
S'web2py_crontype'
p1464
asbag57
(g78
g59
NtRp1465
(dp1466
g62
(dp1467
g89
g90
ssg71
g1456
sg64
(lp1468
S':'
asbag57
(g78
g59
NtRp1469
(dp1470
g62
(dp1471
sg71
g1456
sg64
(lp1472
g57
(g58
g59
NtRp1473
(dp1474
g62
(dp1475
g70
I4
ssg71
g1469
sg64
(lp1476
S'hard'
p1477
asbasbasbag57
(g73
g59
NtRp1478
(dp1479
g62
(dp1480
sg71
g883
sg64
(lp1481
g57
(g78
g59
NtRp1482
(dp1483
g62
(dp1484
g82
g83
ssg71
g1478
sg64
(lp1485
S'web2py_path'
p1486
asbag57
(g78
g59
NtRp1487
(dp1488
g62
(dp1489
g89
g90
ssg71
g1478
sg64
(lp1490
S':'
asbag57
(g78
g59
NtRp1491
(dp1492
g62
(dp1493
sg71
g1478
sg64
(lp1494
g57
(g58
g59
NtRp1495
(dp1496
g62
(dp1497
g70
I4
ssg71
g1491
sg64
(lp1498
g930
asbasbasbag57
(g73
g59
NtRp1499
(dp1500
g62
(dp1501
sg71
g883
sg64
(lp1502
g57
(g78
g59
NtRp1503
(dp1504
g62
(dp1505
g82
g83
ssg71
g1499
sg64
(lp1506
S'web2py_version'
p1507
asbag57
(g78
g59
NtRp1508
(dp1509
g62
(dp1510
g89
g90
ssg71
g1499
sg64
(lp1511
S':'
asbag57
(g78
g59
NtRp1512
(dp1513
g62
(dp1514
sg71
g1499
sg64
(lp1515
g57
(g58
g59
NtRp1516
(dp1517
g62
(dp1518
g70
I4
ssg71
g1512
sg64
(lp1519
g57
(g66
g59
NtRp1520
(dp1521
g62
(dp1522
g70
I3
ssg71
Nsg64
(lp1523
g57
(g73
g59
NtRp1524
(dp1525
g62
(dp1526
sg71
g1520
sg64
(lp1527
g57
(g78
g59
NtRp1528
(dp1529
g62
(dp1530
sg71
g1524
sg64
(lp1531
g57
(g58
g59
NtRp1532
(dp1533
g62
(dp1534
g70
I3
ssg71
g1528
sg64
(lp1535
S'1'
asbasbasbag57
(g73
g59
NtRp1536
(dp1537
g62
(dp1538
sg71
g1520
sg64
(lp1539
g57
(g78
g59
NtRp1540
(dp1541
g62
(dp1542
sg71
g1536
sg64
(lp1543
g57
(g58
g59
NtRp1544
(dp1545
g62
(dp1546
g70
I3
ssg71
g1540
sg64
(lp1547
S'99'
p1548
asbasbasbag57
(g73
g59
NtRp1549
(dp1550
g62
(dp1551
sg71
g1520
sg64
(lp1552
g57
(g78
g59
NtRp1553
(dp1554
g62
(dp1555
sg71
g1549
sg64
(lp1556
g57
(g58
g59
NtRp1557
(dp1558
g62
(dp1559
g70
I3
ssg71
g1553
sg64
(lp1560
S'4'
asbasbasbag57
(g73
g59
NtRp1561
(dp1562
g62
(dp1563
sg71
g1520
sg64
(lp1564
g57
(g78
g59
NtRp1565
(dp1566
g62
(dp1567
sg71
g1561
sg64
(lp1568
g57
(g58
g59
NtRp1569
(dp1570
g62
(dp1571
g70
I3
ssg71
g1565
sg64
(lp1572
S'datetime.datetime(2011, 12, 14, 14, 46, 14)'
p1573
asbasbasbag57
(g73
g59
NtRp1574
(dp1575
g62
(dp1576
sg71
g1520
sg64
(lp1577
g57
(g78
g59
NtRp1578
(dp1579
g62
(dp1580
sg71
g1574
sg64
(lp1581
g57
(g58
g59
NtRp1582
(dp1583
g62
(dp1584
g70
I3
ssg71
g1578
sg64
(lp1585
S'stable'
p1586
asbasbasbasbasbasbasbag57
(g73
g59
NtRp1587
(dp1588
g62
(dp1589
sg71
g883
sg64
(lp1590
g57
(g78
g59
NtRp1591
(dp1592
g62
(dp1593
g82
g83
ssg71
g1587
sg64
(lp1594
S'wsgi_errors'
p1595
asbag57
(g78
g59
NtRp1596
(dp1597
g62
(dp1598
g89
g90
ssg71
g1587
sg64
(lp1599
S':'
asbag57
(g78
g59
NtRp1600
(dp1601
g62
(dp1602
sg71
g1587
sg64
(lp1603
g57
(g58
g59
NtRp1604
(dp1605
g62
(dp1606
g70
I4
ssg71
g1600
sg64
(lp1607
S"<open file '<stderr>', mode 'w' at 0x7fc883477270>"
p1608
asbasbasbag57
(g73
g59
NtRp1609
(dp1610
g62
(dp1611
sg71
g883
sg64
(lp1612
g57
(g78
g59
NtRp1613
(dp1614
g62
(dp1615
g82
g83
ssg71
g1609
sg64
(lp1616
S'wsgi_file_wrapper'
p1617
asbag57
(g78
g59
NtRp1618
(dp1619
g62
(dp1620
g89
g90
ssg71
g1609
sg64
(lp1621
S':'
asbag57
(g78
g59
NtRp1622
(dp1623
g62
(dp1624
sg71
g1609
sg64
(lp1625
g57
(g58
g59
NtRp1626
(dp1627
g62
(dp1628
g70
I4
ssg71
g1622
sg64
(lp1629
S'<class wsgiref.util.FileWrapper at 0x1937328>'
p1630
asbasbasbag57
(g73
g59
NtRp1631
(dp1632
g62
(dp1633
sg71
g883
sg64
(lp1634
g57
(g78
g59
NtRp1635
(dp1636
g62
(dp1637
g82
g83
ssg71
g1631
sg64
(lp1638
S'wsgi_input'
p1639
asbag57
(g78
g59
NtRp1640
(dp1641
g62
(dp1642
g89
g90
ssg71
g1631
sg64
(lp1643
S':'
asbag57
(g78
g59
NtRp1644
(dp1645
g62
(dp1646
sg71
g1631
sg64
(lp1647
g57
(g58
g59
NtRp1648
(dp1649
g62
(dp1650
g70
I4
ssg71
g1644
sg64
(lp1651
S'<socket._fileobject object at 0x7fc8402a4bd0>'
p1652
asbasbasbag57
(g73
g59
NtRp1653
(dp1654
g62
(dp1655
sg71
g883
sg64
(lp1656
g57
(g78
g59
NtRp1657
(dp1658
g62
(dp1659
g82
g83
ssg71
g1653
sg64
(lp1660
S'wsgi_multiprocess'
p1661
asbag57
(g78
g59
NtRp1662
(dp1663
g62
(dp1664
g89
g90
ssg71
g1653
sg64
(lp1665
S':'
asbag57
(g78
g59
NtRp1666
(dp1667
g62
(dp1668
sg71
g1653
sg64
(lp1669
g57
(g58
g59
NtRp1670
(dp1671
g62
(dp1672
g70
I4
ssg71
g1666
sg64
(lp1673
g100
asbasbasbag57
(g73
g59
NtRp1674
(dp1675
g62
(dp1676
sg71
g883
sg64
(lp1677
g57
(g78
g59
NtRp1678
(dp1679
g62
(dp1680
g82
g83
ssg71
g1674
sg64
(lp1681
S'wsgi_multithread'
p1682
asbag57
(g78
g59
NtRp1683
(dp1684
g62
(dp1685
g89
g90
ssg71
g1674
sg64
(lp1686
S':'
asbag57
(g78
g59
NtRp1687
(dp1688
g62
(dp1689
sg71
g1674
sg64
(lp1690
g57
(g58
g59
NtRp1691
(dp1692
g62
(dp1693
g70
I4
ssg71
g1687
sg64
(lp1694
S'True'
p1695
asbasbasbag57
(g73
g59
NtRp1696
(dp1697
g62
(dp1698
sg71
g883
sg64
(lp1699
g57
(g78
g59
NtRp1700
(dp1701
g62
(dp1702
g82
g83
ssg71
g1696
sg64
(lp1703
S'wsgi_run_once'
p1704
asbag57
(g78
g59
NtRp1705
(dp1706
g62
(dp1707
g89
g90
ssg71
g1696
sg64
(lp1708
S':'
asbag57
(g78
g59
NtRp1709
(dp1710
g62
(dp1711
sg71
g1696
sg64
(lp1712
g57
(g58
g59
NtRp1713
(dp1714
g62
(dp1715
g70
I4
ssg71
g1709
sg64
(lp1716
g100
asbasbasbag57
(g73
g59
NtRp1717
(dp1718
g62
(dp1719
sg71
g883
sg64
(lp1720
g57
(g78
g59
NtRp1721
(dp1722
g62
(dp1723
g82
g83
ssg71
g1717
sg64
(lp1724
S'wsgi_url_scheme'
p1725
asbag57
(g78
g59
NtRp1726
(dp1727
g62
(dp1728
g89
g90
ssg71
g1717
sg64
(lp1729
S':'
asbag57
(g78
g59
NtRp1730
(dp1731
g62
(dp1732
sg71
g1717
sg64
(lp1733
g57
(g58
g59
NtRp1734
(dp1735
g62
(dp1736
g70
I4
ssg71
g1730
sg64
(lp1737
S'http'
p1738
asbasbasbag57
(g73
g59
NtRp1739
(dp1740
g62
(dp1741
sg71
g883
sg64
(lp1742
g57
(g78
g59
NtRp1743
(dp1744
g62
(dp1745
g82
g83
ssg71
g1739
sg64
(lp1746
S'wsgi_version'
p1747
asbag57
(g78
g59
NtRp1748
(dp1749
g62
(dp1750
g89
g90
ssg71
g1739
sg64
(lp1751
S':'
asbag57
(g78
g59
NtRp1752
(dp1753
g62
(dp1754
sg71
g1739
sg64
(lp1755
g57
(g58
g59
NtRp1756
(dp1757
g62
(dp1758
g70
I4
ssg71
g1752
sg64
(lp1759
g57
(g66
g59
NtRp1760
(dp1761
g62
(dp1762
g70
I3
ssg71
Nsg64
(lp1763
g57
(g73
g59
NtRp1764
(dp1765
g62
(dp1766
sg71
g1760
sg64
(lp1767
g57
(g78
g59
NtRp1768
(dp1769
g62
(dp1770
sg71
g1764
sg64
(lp1771
g57
(g58
g59
NtRp1772
(dp1773
g62
(dp1774
g70
I3
ssg71
g1768
sg64
(lp1775
S'1'
asbasbasbag57
(g73
g59
NtRp1776
(dp1777
g62
(dp1778
sg71
g1760
sg64
(lp1779
g57
(g78
g59
NtRp1780
(dp1781
g62
(dp1782
sg71
g1776
sg64
(lp1783
g57
(g58
g59
NtRp1784
(dp1785
g62
(dp1786
g70
I3
ssg71
g1780
sg64
(lp1787
S'0'
asbasbasbasbasbasbasbasbasbasbasbag57
(g73
g59
NtRp1788
(dp1789
g62
(dp1790
sg71
g67
sg64
(lp1791
g57
(g78
g59
NtRp1792
(dp1793
g62
(dp1794
g82
g83
ssg71
g1788
sg64
(lp1795
S'extension'
p1796
asbag57
(g78
g59
NtRp1797
(dp1798
g62
(dp1799
g89
g90
ssg71
g1788
sg64
(lp1800
S':'
asbag57
(g78
g59
NtRp1801
(dp1802
g62
(dp1803
sg71
g1788
sg64
(lp1804
g57
(g58
g59
NtRp1805
(dp1806
g62
(dp1807
g70
I5
ssg71
g1801
sg64
(lp1808
S'html'
p1809
asbasbasbag57
(g73
g59
NtRp1810
(dp1811
g62
(dp1812
sg71
g67
sg64
(lp1813
g57
(g78
g59
NtRp1814
(dp1815
g62
(dp1816
g82
g83
ssg71
g1810
sg64
(lp1817
S'folder'
p1818
asbag57
(g78
g59
NtRp1819
(dp1820
g62
(dp1821
g89
g90
ssg71
g1810
sg64
(lp1822
S':'
asbag57
(g78
g59
NtRp1823
(dp1824
g62
(dp1825
sg71
g1810
sg64
(lp1826
g57
(g58
g59
NtRp1827
(dp1828
g62
(dp1829
g70
I5
ssg71
g1823
sg64
(lp1830
S'/home/jigar/web2py/applications/app1/'
p1831
asbasbasbag57
(g73
g59
NtRp1832
(dp1833
g62
(dp1834
sg71
g67
sg64
(lp1835
g57
(g78
g59
NtRp1836
(dp1837
g62
(dp1838
g82
g83
ssg71
g1832
sg64
(lp1839
S'function'
p1840
asbag57
(g78
g59
NtRp1841
(dp1842
g62
(dp1843
g89
g90
ssg71
g1832
sg64
(lp1844
S':'
asbag57
(g78
g59
NtRp1845
(dp1846
g62
(dp1847
sg71
g1832
sg64
(lp1848
g57
(g58
g59
NtRp1849
(dp1850
g62
(dp1851
g70
I5
ssg71
g1845
sg64
(lp1852
S'lall'
p1853
asbasbasbag57
(g73
g59
NtRp1854
(dp1855
g62
(dp1856
sg71
g67
sg64
(lp1857
g57
(g78
g59
NtRp1858
(dp1859
g62
(dp1860
g82
g83
ssg71
g1854
sg64
(lp1861
S'get_vars'
p1862
asbag57
(g78
g59
NtRp1863
(dp1864
g62
(dp1865
g89
g90
ssg71
g1854
sg64
(lp1866
S':'
asbag57
(g78
g59
NtRp1867
(dp1868
g62
(dp1869
sg71
g1854
sg64
(lp1870
g57
(g58
g59
NtRp1871
(dp1872
g62
(dp1873
g70
I5
ssg71
g1867
sg64
(lp1874
g57
(g66
g59
NtRp1875
(dp1876
g62
(dp1877
g70
I4
ssg71
Nsg64
(lp1878
sbasbasbasbag57
(g73
g59
NtRp1879
(dp1880
g62
(dp1881
sg71
g67
sg64
(lp1882
g57
(g78
g59
NtRp1883
(dp1884
g62
(dp1885
g82
g83
ssg71
g1879
sg64
(lp1886
S'global_settings'
p1887
asbag57
(g78
g59
NtRp1888
(dp1889
g62
(dp1890
g89
g90
ssg71
g1879
sg64
(lp1891
S':'
asbag57
(g78
g59
NtRp1892
(dp1893
g62
(dp1894
sg71
g1879
sg64
(lp1895
g57
(g58
g59
NtRp1896
(dp1897
g62
(dp1898
g70
I5
ssg71
g1892
sg64
(lp1899
g57
(g66
g59
NtRp1900
(dp1901
g62
(dp1902
g70
I4
ssg71
Nsg64
(lp1903
g57
(g73
g59
NtRp1904
(dp1905
g62
(dp1906
sg71
g1900
sg64
(lp1907
g57
(g78
g59
NtRp1908
(dp1909
g62
(dp1910
g82
g83
ssg71
g1904
sg64
(lp1911
g895
asbag57
(g78
g59
NtRp1912
(dp1913
g62
(dp1914
g89
g90
ssg71
g1904
sg64
(lp1915
S':'
asbag57
(g78
g59
NtRp1916
(dp1917
g62
(dp1918
sg71
g1904
sg64
(lp1919
g57
(g58
g59
NtRp1920
(dp1921
g62
(dp1922
g70
I4
ssg71
g1916
sg64
(lp1923
S"set(['/home/jigar/web2py/applications/welcome/', '/home/jigar/web2py/applications/app1/', '/home/jigar/web2py/applications/admin/'])"
p1924
asbasbasbag57
(g73
g59
NtRp1925
(dp1926
g62
(dp1927
sg71
g1900
sg64
(lp1928
g57
(g78
g59
NtRp1929
(dp1930
g62
(dp1931
g82
g83
ssg71
g1925
sg64
(lp1932
g917
asbag57
(g78
g59
NtRp1933
(dp1934
g62
(dp1935
g89
g90
ssg71
g1925
sg64
(lp1936
S':'
asbag57
(g78
g59
NtRp1937
(dp1938
g62
(dp1939
sg71
g1925
sg64
(lp1940
g57
(g58
g59
NtRp1941
(dp1942
g62
(dp1943
g70
I4
ssg71
g1937
sg64
(lp1944
g930
asbasbasbag57
(g73
g59
NtRp1945
(dp1946
g62
(dp1947
sg71
g1900
sg64
(lp1948
g57
(g78
g59
NtRp1949
(dp1950
g62
(dp1951
g82
g83
ssg71
g1945
sg64
(lp1952
g939
asbag57
(g78
g59
NtRp1953
(dp1954
g62
(dp1955
g89
g90
ssg71
g1945
sg64
(lp1956
S':'
asbag57
(g78
g59
NtRp1957
(dp1958
g62
(dp1959
sg71
g1945
sg64
(lp1960
g57
(g58
g59
NtRp1961
(dp1962
g62
(dp1963
g70
I4
ssg71
g1957
sg64
(lp1964
g57
(g66
g59
NtRp1965
(dp1966
g62
(dp1967
g70
I3
ssg71
Nsg64
(lp1968
sbasbasbasbag57
(g73
g59
NtRp1969
(dp1970
g62
(dp1971
sg71
g1900
sg64
(lp1972
g57
(g78
g59
NtRp1973
(dp1974
g62
(dp1975
g82
g83
ssg71
g1969
sg64
(lp1976
g964
asbag57
(g78
g59
NtRp1977
(dp1978
g62
(dp1979
g89
g90
ssg71
g1969
sg64
(lp1980
S':'
asbag57
(g78
g59
NtRp1981
(dp1982
g62
(dp1983
sg71
g1969
sg64
(lp1984
g57
(g58
g59
NtRp1985
(dp1986
g62
(dp1987
g70
I4
ssg71
g1981
sg64
(lp1988
S"<Values at 0x19fcbd8: {'verbose': False, 'ip': '127.0.0.1', 'shutdown_timeout': 5, 'taskbar': False, 'port': 8000, 'maxthreads': None, 'softcron': False, 'server_name': 'jigar-Lenovo-Z580', 'bpython': False, 'nogui': False, 'nocron': False, 'extcron': False, 'debuglevel': 30, 'test': None, 'folder': '/home/jigar/web2py', 'config': '', 'import_models': False, 'winservice': '', 'shell': None, 'run': '', 'log_filename': 'httpserver.log', 'args': [''], 'socket_timeout': 1, 'profiler_filename': None, 'ssl_private_key': '', 'password': '<ask>', 'request_queue_size': 5, 'ssl_certificate': '', 'cronjob': False, 'plain': False, 'quiet': False, 'interfaces': None, 'minthreads': None, 'timeout': 10, 'numthreads': None, 'nobanner': False, 'pid_filename': 'httpserver.pid'}>"
p1989
asbasbasbag57
(g73
g59
NtRp1990
(dp1991
g62
(dp1992
sg71
g1900
sg64
(lp1993
g57
(g78
g59
NtRp1994
(dp1995
g62
(dp1996
g82
g83
ssg71
g1990
sg64
(lp1997
g986
asbag57
(g78
g59
NtRp1998
(dp1999
g62
(dp2000
g89
g90
ssg71
g1990
sg64
(lp2001
S':'
asbag57
(g78
g59
NtRp2002
(dp2003
g62
(dp2004
sg71
g1990
sg64
(lp2005
g57
(g58
g59
NtRp2006
(dp2007
g62
(dp2008
g70
I4
ssg71
g2002
sg64
(lp2009
S'set([])'
p2010
asbasbasbag57
(g73
g59
NtRp2011
(dp2012
g62
(dp2013
sg71
g1900
sg64
(lp2014
g57
(g78
g59
NtRp2015
(dp2016
g62
(dp2017
g82
g83
ssg71
g2011
sg64
(lp2018
g1008
asbag57
(g78
g59
NtRp2019
(dp2020
g62
(dp2021
g89
g90
ssg71
g2011
sg64
(lp2022
S':'
asbag57
(g78
g59
NtRp2023
(dp2024
g62
(dp2025
sg71
g2011
sg64
(lp2026
g57
(g58
g59
NtRp2027
(dp2028
g62
(dp2029
g70
I4
ssg71
g2023
sg64
(lp2030
g100
asbasbasbag57
(g73
g59
NtRp2031
(dp2032
g62
(dp2033
sg71
g1900
sg64
(lp2034
g57
(g78
g59
NtRp2035
(dp2036
g62
(dp2037
g82
g83
ssg71
g2031
sg64
(lp2038
g1029
asbag57
(g78
g59
NtRp2039
(dp2040
g62
(dp2041
g89
g90
ssg71
g2031
sg64
(lp2042
S':'
asbag57
(g78
g59
NtRp2043
(dp2044
g62
(dp2045
sg71
g2031
sg64
(lp2046
g57
(g58
g59
NtRp2047
(dp2048
g62
(dp2049
g70
I4
ssg71
g2043
sg64
(lp2050
g1042
asbasbasbag57
(g73
g59
NtRp2051
(dp2052
g62
(dp2053
sg71
g1900
sg64
(lp2054
g57
(g78
g59
NtRp2055
(dp2056
g62
(dp2057
g82
g83
ssg71
g2051
sg64
(lp2058
g1205
asbag57
(g78
g59
NtRp2059
(dp2060
g62
(dp2061
g89
g90
ssg71
g2051
sg64
(lp2062
S':'
asbag57
(g78
g59
NtRp2063
(dp2064
g62
(dp2065
sg71
g2051
sg64
(lp2066
g57
(g58
g59
NtRp2067
(dp2068
g62
(dp2069
g70
I4
ssg71
g2063
sg64
(lp2070
g100
asbasbasbag57
(g73
g59
NtRp2071
(dp2072
g62
(dp2073
sg71
g1900
sg64
(lp2074
g57
(g78
g59
NtRp2075
(dp2076
g62
(dp2077
g82
g83
ssg71
g2071
sg64
(lp2078
g1226
asbag57
(g78
g59
NtRp2079
(dp2080
g62
(dp2081
g89
g90
ssg71
g2071
sg64
(lp2082
S':'
asbag57
(g78
g59
NtRp2083
(dp2084
g62
(dp2085
sg71
g2071
sg64
(lp2086
g57
(g58
g59
NtRp2087
(dp2088
g62
(dp2089
g70
I4
ssg71
g2083
sg64
(lp2090
g100
asbasbasbag57
(g73
g59
NtRp2091
(dp2092
g62
(dp2093
sg71
g1900
sg64
(lp2094
g57
(g78
g59
NtRp2095
(dp2096
g62
(dp2097
g82
g83
ssg71
g2091
sg64
(lp2098
g1464
asbag57
(g78
g59
NtRp2099
(dp2100
g62
(dp2101
g89
g90
ssg71
g2091
sg64
(lp2102
S':'
asbag57
(g78
g59
NtRp2103
(dp2104
g62
(dp2105
sg71
g2091
sg64
(lp2106
g57
(g58
g59
NtRp2107
(dp2108
g62
(dp2109
g70
I4
ssg71
g2103
sg64
(lp2110
g1477
asbasbasbag57
(g73
g59
NtRp2111
(dp2112
g62
(dp2113
sg71
g1900
sg64
(lp2114
g57
(g78
g59
NtRp2115
(dp2116
g62
(dp2117
g82
g83
ssg71
g2111
sg64
(lp2118
g1507
asbag57
(g78
g59
NtRp2119
(dp2120
g62
(dp2121
g89
g90
ssg71
g2111
sg64
(lp2122
S':'
asbag57
(g78
g59
NtRp2123
(dp2124
g62
(dp2125
sg71
g2111
sg64
(lp2126
g57
(g58
g59
NtRp2127
(dp2128
g62
(dp2129
g70
I4
ssg71
g2123
sg64
(lp2130
g57
(g66
g59
NtRp2131
(dp2132
g62
(dp2133
g70
I3
ssg71
Nsg64
(lp2134
g57
(g73
g59
NtRp2135
(dp2136
g62
(dp2137
sg71
g2131
sg64
(lp2138
g57
(g78
g59
NtRp2139
(dp2140
g62
(dp2141
sg71
g2135
sg64
(lp2142
g57
(g58
g59
NtRp2143
(dp2144
g62
(dp2145
g70
I3
ssg71
g2139
sg64
(lp2146
S'1'
asbasbasbag57
(g73
g59
NtRp2147
(dp2148
g62
(dp2149
sg71
g2131
sg64
(lp2150
g57
(g78
g59
NtRp2151
(dp2152
g62
(dp2153
sg71
g2147
sg64
(lp2154
g57
(g58
g59
NtRp2155
(dp2156
g62
(dp2157
g70
I3
ssg71
g2151
sg64
(lp2158
S'99'
p2159
asbasbasbag57
(g73
g59
NtRp2160
(dp2161
g62
(dp2162
sg71
g2131
sg64
(lp2163
g57
(g78
g59
NtRp2164
(dp2165
g62
(dp2166
sg71
g2160
sg64
(lp2167
g57
(g58
g59
NtRp2168
(dp2169
g62
(dp2170
g70
I3
ssg71
g2164
sg64
(lp2171
S'4'
asbasbasbag57
(g73
g59
NtRp2172
(dp2173
g62
(dp2174
sg71
g2131
sg64
(lp2175
g57
(g78
g59
NtRp2176
(dp2177
g62
(dp2178
sg71
g2172
sg64
(lp2179
g57
(g58
g59
NtRp2180
(dp2181
g62
(dp2182
g70
I3
ssg71
g2176
sg64
(lp2183
S'datetime.datetime(2011, 12, 14, 14, 46, 14)'
p2184
asbasbasbag57
(g73
g59
NtRp2185
(dp2186
g62
(dp2187
sg71
g2131
sg64
(lp2188
g57
(g78
g59
NtRp2189
(dp2190
g62
(dp2191
sg71
g2185
sg64
(lp2192
g57
(g58
g59
NtRp2193
(dp2194
g62
(dp2195
g70
I3
ssg71
g2189
sg64
(lp2196
g1586
asbasbasbasbasbasbasbasbasbasbasbag57
(g73
g59
NtRp2197
(dp2198
g62
(dp2199
sg71
g67
sg64
(lp2200
g57
(g78
g59
NtRp2201
(dp2202
g62
(dp2203
g82
g83
ssg71
g2197
sg64
(lp2204
S'is_https'
p2205
asbag57
(g78
g59
NtRp2206
(dp2207
g62
(dp2208
g89
g90
ssg71
g2197
sg64
(lp2209
S':'
asbag57
(g78
g59
NtRp2210
(dp2211
g62
(dp2212
sg71
g2197
sg64
(lp2213
g57
(g58
g59
NtRp2214
(dp2215
g62
(dp2216
g70
I5
ssg71
g2210
sg64
(lp2217
g100
asbasbasbag57
(g73
g59
NtRp2218
(dp2219
g62
(dp2220
sg71
g67
sg64
(lp2221
g57
(g78
g59
NtRp2222
(dp2223
g62
(dp2224
g82
g83
ssg71
g2218
sg64
(lp2225
S'is_local'
p2226
asbag57
(g78
g59
NtRp2227
(dp2228
g62
(dp2229
g89
g90
ssg71
g2218
sg64
(lp2230
S':'
asbag57
(g78
g59
NtRp2231
(dp2232
g62
(dp2233
sg71
g2218
sg64
(lp2234
g57
(g58
g59
NtRp2235
(dp2236
g62
(dp2237
g70
I5
ssg71
g2231
sg64
(lp2238
g1695
asbasbasbag57
(g73
g59
NtRp2239
(dp2240
g62
(dp2241
sg71
g67
sg64
(lp2242
g57
(g78
g59
NtRp2243
(dp2244
g62
(dp2245
g82
g83
ssg71
g2239
sg64
(lp2246
S'is_restful'
p2247
asbag57
(g78
g59
NtRp2248
(dp2249
g62
(dp2250
g89
g90
ssg71
g2239
sg64
(lp2251
S':'
asbag57
(g78
g59
NtRp2252
(dp2253
g62
(dp2254
sg71
g2239
sg64
(lp2255
g57
(g58
g59
NtRp2256
(dp2257
g62
(dp2258
g70
I5
ssg71
g2252
sg64
(lp2259
g100
asbasbasbag57
(g73
g59
NtRp2260
(dp2261
g62
(dp2262
sg71
g67
sg64
(lp2263
g57
(g78
g59
NtRp2264
(dp2265
g62
(dp2266
g82
g83
ssg71
g2260
sg64
(lp2267
S'now'
p2268
asbag57
(g78
g59
NtRp2269
(dp2270
g62
(dp2271
g89
g90
ssg71
g2260
sg64
(lp2272
S':'
asbag57
(g78
g59
NtRp2273
(dp2274
g62
(dp2275
sg71
g2260
sg64
(lp2276
g57
(g58
g59
NtRp2277
(dp2278
g62
(dp2279
g70
I5
ssg71
g2273
sg64
(lp2280
S'datetime.datetime(2013, 8, 29, 13, 3, 20, 181206)'
p2281
asbasbasbag57
(g73
g59
NtRp2282
(dp2283
g62
(dp2284
sg71
g67
sg64
(lp2285
g57
(g78
g59
NtRp2286
(dp2287
g62
(dp2288
g82
g83
ssg71
g2282
sg64
(lp2289
S'post_vars'
p2290
asbag57
(g78
g59
NtRp2291
(dp2292
g62
(dp2293
g89
g90
ssg71
g2282
sg64
(lp2294
S':'
asbag57
(g78
g59
NtRp2295
(dp2296
g62
(dp2297
sg71
g2282
sg64
(lp2298
g57
(g58
g59
NtRp2299
(dp2300
g62
(dp2301
g70
I5
ssg71
g2295
sg64
(lp2302
g57
(g66
g59
NtRp2303
(dp2304
g62
(dp2305
g70
I4
ssg71
Nsg64
(lp2306
sbasbasbasbag57
(g73
g59
NtRp2307
(dp2308
g62
(dp2309
sg71
g67
sg64
(lp2310
g57
(g78
g59
NtRp2311
(dp2312
g62
(dp2313
g82
g83
ssg71
g2307
sg64
(lp2314
S'raw_args'
p2315
asbag57
(g78
g59
NtRp2316
(dp2317
g62
(dp2318
g89
g90
ssg71
g2307
sg64
(lp2319
S':'
asbag57
(g78
g59
NtRp2320
(dp2321
g62
(dp2322
sg71
g2307
sg64
(lp2323
g57
(g58
g59
NtRp2324
(dp2325
g62
(dp2326
g70
I5
ssg71
g2320
sg64
(lp2327
S'0/0/0/0/like'
p2328
asbasbasbag57
(g73
g59
NtRp2329
(dp2330
g62
(dp2331
sg71
g67
sg64
(lp2332
g57
(g78
g59
NtRp2333
(dp2334
g62
(dp2335
g82
g83
ssg71
g2329
sg64
(lp2336
S'url'
p2337
asbag57
(g78
g59
NtRp2338
(dp2339
g62
(dp2340
g89
g90
ssg71
g2329
sg64
(lp2341
S':'
asbag57
(g78
g59
NtRp2342
(dp2343
g62
(dp2344
sg71
g2329
sg64
(lp2345
g57
(g58
g59
NtRp2346
(dp2347
g62
(dp2348
g70
I5
ssg71
g2342
sg64
(lp2349
S'/app1/default/lall/0/0/0/0/like'
p2350
asbasbasbag57
(g73
g59
NtRp2351
(dp2352
g62
(dp2353
sg71
g67
sg64
(lp2354
g57
(g78
g59
NtRp2355
(dp2356
g62
(dp2357
g82
g83
ssg71
g2351
sg64
(lp2358
S'utcnow'
p2359
asbag57
(g78
g59
NtRp2360
(dp2361
g62
(dp2362
g89
g90
ssg71
g2351
sg64
(lp2363
S':'
asbag57
(g78
g59
NtRp2364
(dp2365
g62
(dp2366
sg71
g2351
sg64
(lp2367
g57
(g58
g59
NtRp2368
(dp2369
g62
(dp2370
g70
I5
ssg71
g2364
sg64
(lp2371
S'datetime.datetime(2013, 8, 29, 7, 33, 20, 181275)'
p2372
asbasbasbag57
(g73
g59
NtRp2373
(dp2374
g62
(dp2375
sg71
g67
sg64
(lp2376
g57
(g78
g59
NtRp2377
(dp2378
g62
(dp2379
g82
g83
ssg71
g2373
sg64
(lp2380
S'uuid'
p2381
asbag57
(g78
g59
NtRp2382
(dp2383
g62
(dp2384
g89
g90
ssg71
g2373
sg64
(lp2385
S':'
asbag57
(g78
g59
NtRp2386
(dp2387
g62
(dp2388
sg71
g2373
sg64
(lp2389
g57
(g58
g59
NtRp2390
(dp2391
g62
(dp2392
g70
I5
ssg71
g2386
sg64
(lp2393
S'app1/127.0.0.1.2013-08-29.13-03-20.ad17005b-aa23-4456-9470-e784200c481e'
p2394
asbasbasbag57
(g73
g59
NtRp2395
(dp2396
g62
(dp2397
sg71
g67
sg64
(lp2398
g57
(g78
g59
NtRp2399
(dp2400
g62
(dp2401
g82
g83
ssg71
g2395
sg64
(lp2402
S'vars'
p2403
asbag57
(g78
g59
NtRp2404
(dp2405
g62
(dp2406
g89
g90
ssg71
g2395
sg64
(lp2407
S':'
asbag57
(g78
g59
NtRp2408
(dp2409
g62
(dp2410
sg71
g2395
sg64
(lp2411
g57
(g58
g59
NtRp2412
(dp2413
g62
(dp2414
g70
I5
ssg71
g2408
sg64
(lp2415
g57
(g66
g59
NtRp2416
(dp2417
g62
(dp2418
g70
I4
ssg71
Nsg64
(lp2419
sbasbasbasbag57
(g73
g59
NtRp2420
(dp2421
g62
(dp2422
sg71
g67
sg64
(lp2423
g57
(g78
g59
NtRp2424
(dp2425
g62
(dp2426
g82
g83
ssg71
g2420
sg64
(lp2427
S'wsgi'
p2428
asbag57
(g78
g59
NtRp2429
(dp2430
g62
(dp2431
g89
g90
ssg71
g2420
sg64
(lp2432
S':'
asbag57
(g78
g59
NtRp2433
(dp2434
g62
(dp2435
sg71
g2420
sg64
(lp2436
g57
(g58
g59
NtRp2437
(dp2438
g62
(dp2439
g70
I5
ssg71
g2433
sg64
(lp2440
g57
(g66
g59
NtRp2441
(dp2442
g62
(dp2443
g70
I4
ssg71
Nsg64
(lp2444
g57
(g73
g59
NtRp2445
(dp2446
g62
(dp2447
sg71
g2441
sg64
(lp2448
g57
(g78
g59
NtRp2449
(dp2450
g62
(dp2451
g82
g83
ssg71
g2445
sg64
(lp2452
S'environ'
p2453
asbag57
(g78
g59
NtRp2454
(dp2455
g62
(dp2456
g89
g90
ssg71
g2445
sg64
(lp2457
S':'
asbag57
(g78
g59
NtRp2458
(dp2459
g62
(dp2460
sg71
g2445
sg64
(lp2461
g57
(g58
g59
NtRp2462
(dp2463
g62
(dp2464
g70
I4
ssg71
g2458
sg64
(lp2465
g57
(g66
g59
NtRp2466
(dp2467
g62
(dp2468
g70
I3
ssg71
Nsg64
(lp2469
g57
(g73
g59
NtRp2470
(dp2471
g62
(dp2472
sg71
g2466
sg64
(lp2473
g57
(g78
g59
NtRp2474
(dp2475
g62
(dp2476
g82
g83
ssg71
g2470
sg64
(lp2477
S'HTTP_ACCEPT'
p2478
asbag57
(g78
g59
NtRp2479
(dp2480
g62
(dp2481
g89
g90
ssg71
g2470
sg64
(lp2482
S':'
asbag57
(g78
g59
NtRp2483
(dp2484
g62
(dp2485
sg71
g2470
sg64
(lp2486
g57
(g58
g59
NtRp2487
(dp2488
g62
(dp2489
g70
I3
ssg71
g2483
sg64
(lp2490
g1064
asbasbasbag57
(g73
g59
NtRp2491
(dp2492
g62
(dp2493
sg71
g2466
sg64
(lp2494
g57
(g78
g59
NtRp2495
(dp2496
g62
(dp2497
g82
g83
ssg71
g2491
sg64
(lp2498
S'HTTP_ACCEPT_ENCODING'
p2499
asbag57
(g78
g59
NtRp2500
(dp2501
g62
(dp2502
g89
g90
ssg71
g2491
sg64
(lp2503
S':'
asbag57
(g78
g59
NtRp2504
(dp2505
g62
(dp2506
sg71
g2491
sg64
(lp2507
g57
(g58
g59
NtRp2508
(dp2509
g62
(dp2510
g70
I3
ssg71
g2504
sg64
(lp2511
g1086
asbasbasbag57
(g73
g59
NtRp2512
(dp2513
g62
(dp2514
sg71
g2466
sg64
(lp2515
g57
(g78
g59
NtRp2516
(dp2517
g62
(dp2518
g82
g83
ssg71
g2512
sg64
(lp2519
S'HTTP_ACCEPT_LANGUAGE'
p2520
asbag57
(g78
g59
NtRp2521
(dp2522
g62
(dp2523
g89
g90
ssg71
g2512
sg64
(lp2524
S':'
asbag57
(g78
g59
NtRp2525
(dp2526
g62
(dp2527
sg71
g2512
sg64
(lp2528
g57
(g58
g59
NtRp2529
(dp2530
g62
(dp2531
g70
I3
ssg71
g2525
sg64
(lp2532
g1108
asbasbasbag57
(g73
g59
NtRp2533
(dp2534
g62
(dp2535
sg71
g2466
sg64
(lp2536
g57
(g78
g59
NtRp2537
(dp2538
g62
(dp2539
g82
g83
ssg71
g2533
sg64
(lp2540
S'HTTP_CONNECTION'
p2541
asbag57
(g78
g59
NtRp2542
(dp2543
g62
(dp2544
g89
g90
ssg71
g2533
sg64
(lp2545
S':'
asbag57
(g78
g59
NtRp2546
(dp2547
g62
(dp2548
sg71
g2533
sg64
(lp2549
g57
(g58
g59
NtRp2550
(dp2551
g62
(dp2552
g70
I3
ssg71
g2546
sg64
(lp2553
g1130
asbasbasbag57
(g73
g59
NtRp2554
(dp2555
g62
(dp2556
sg71
g2466
sg64
(lp2557
g57
(g78
g59
NtRp2558
(dp2559
g62
(dp2560
g82
g83
ssg71
g2554
sg64
(lp2561
S'HTTP_COOKIE'
p2562
asbag57
(g78
g59
NtRp2563
(dp2564
g62
(dp2565
g89
g90
ssg71
g2554
sg64
(lp2566
S':'
asbag57
(g78
g59
NtRp2567
(dp2568
g62
(dp2569
sg71
g2554
sg64
(lp2570
g57
(g58
g59
NtRp2571
(dp2572
g62
(dp2573
g70
I3
ssg71
g2567
sg64
(lp2574
g1152
asbasbasbag57
(g73
g59
NtRp2575
(dp2576
g62
(dp2577
sg71
g2466
sg64
(lp2578
g57
(g78
g59
NtRp2579
(dp2580
g62
(dp2581
g82
g83
ssg71
g2575
sg64
(lp2582
S'HTTP_HOST'
p2583
asbag57
(g78
g59
NtRp2584
(dp2585
g62
(dp2586
g89
g90
ssg71
g2575
sg64
(lp2587
S':'
asbag57
(g78
g59
NtRp2588
(dp2589
g62
(dp2590
sg71
g2575
sg64
(lp2591
g57
(g58
g59
NtRp2592
(dp2593
g62
(dp2594
g70
I3
ssg71
g2588
sg64
(lp2595
g1174
asbasbasbag57
(g73
g59
NtRp2596
(dp2597
g62
(dp2598
sg71
g2466
sg64
(lp2599
g57
(g78
g59
NtRp2600
(dp2601
g62
(dp2602
g82
g83
ssg71
g2596
sg64
(lp2603
S'HTTP_USER_AGENT'
p2604
asbag57
(g78
g59
NtRp2605
(dp2606
g62
(dp2607
g89
g90
ssg71
g2596
sg64
(lp2608
S':'
asbag57
(g78
g59
NtRp2609
(dp2610
g62
(dp2611
sg71
g2596
sg64
(lp2612
g57
(g58
g59
NtRp2613
(dp2614
g62
(dp2615
g70
I3
ssg71
g2609
sg64
(lp2616
g1196
asbasbasbag57
(g73
g59
NtRp2617
(dp2618
g62
(dp2619
sg71
g2466
sg64
(lp2620
g57
(g78
g59
NtRp2621
(dp2622
g62
(dp2623
g82
g83
ssg71
g2617
sg64
(lp2624
S'PATH_INFO'
p2625
asbag57
(g78
g59
NtRp2626
(dp2627
g62
(dp2628
g89
g90
ssg71
g2617
sg64
(lp2629
S':'
asbag57
(g78
g59
NtRp2630
(dp2631
g62
(dp2632
sg71
g2617
sg64
(lp2633
g57
(g58
g59
NtRp2634
(dp2635
g62
(dp2636
g70
I3
ssg71
g2630
sg64
(lp2637
g1260
asbasbasbag57
(g73
g59
NtRp2638
(dp2639
g62
(dp2640
sg71
g2466
sg64
(lp2641
g57
(g78
g59
NtRp2642
(dp2643
g62
(dp2644
g82
g83
ssg71
g2638
sg64
(lp2645
S'QUERY_STRING'
p2646
asbag57
(g78
g59
NtRp2647
(dp2648
g62
(dp2649
g89
g90
ssg71
g2638
sg64
(lp2650
S':'
asbag57
(g78
g59
NtRp2651
(dp2652
g62
(dp2653
sg71
g2638
sg64
(lp2654
g57
(g58
g59
NtRp2655
(dp2656
g62
(dp2657
g70
I3
ssg71
g2651
sg64
(lp2658
S''
asbasbasbag57
(g73
g59
NtRp2659
(dp2660
g62
(dp2661
sg71
g2466
sg64
(lp2662
g57
(g78
g59
NtRp2663
(dp2664
g62
(dp2665
g82
g83
ssg71
g2659
sg64
(lp2666
S'REMOTE_ADDR'
p2667
asbag57
(g78
g59
NtRp2668
(dp2669
g62
(dp2670
g89
g90
ssg71
g2659
sg64
(lp2671
S':'
asbag57
(g78
g59
NtRp2672
(dp2673
g62
(dp2674
sg71
g2659
sg64
(lp2675
g57
(g58
g59
NtRp2676
(dp2677
g62
(dp2678
g70
I3
ssg71
g2672
sg64
(lp2679
g251
asbasbasbag57
(g73
g59
NtRp2680
(dp2681
g62
(dp2682
sg71
g2466
sg64
(lp2683
g57
(g78
g59
NtRp2684
(dp2685
g62
(dp2686
g82
g83
ssg71
g2680
sg64
(lp2687
S'REMOTE_PORT'
p2688
asbag57
(g78
g59
NtRp2689
(dp2690
g62
(dp2691
g89
g90
ssg71
g2680
sg64
(lp2692
S':'
asbag57
(g78
g59
NtRp2693
(dp2694
g62
(dp2695
sg71
g2680
sg64
(lp2696
g57
(g58
g59
NtRp2697
(dp2698
g62
(dp2699
g70
I3
ssg71
g2693
sg64
(lp2700
g1324
asbasbasbag57
(g73
g59
NtRp2701
(dp2702
g62
(dp2703
sg71
g2466
sg64
(lp2704
g57
(g78
g59
NtRp2705
(dp2706
g62
(dp2707
g82
g83
ssg71
g2701
sg64
(lp2708
S'REQUEST_METHOD'
p2709
asbag57
(g78
g59
NtRp2710
(dp2711
g62
(dp2712
g89
g90
ssg71
g2701
sg64
(lp2713
S':'
asbag57
(g78
g59
NtRp2714
(dp2715
g62
(dp2716
sg71
g2701
sg64
(lp2717
g57
(g58
g59
NtRp2718
(dp2719
g62
(dp2720
g70
I3
ssg71
g2714
sg64
(lp2721
g1346
asbasbasbag57
(g73
g59
NtRp2722
(dp2723
g62
(dp2724
sg71
g2466
sg64
(lp2725
g57
(g78
g59
NtRp2726
(dp2727
g62
(dp2728
g82
g83
ssg71
g2722
sg64
(lp2729
S'SCRIPT_NAME'
p2730
asbag57
(g78
g59
NtRp2731
(dp2732
g62
(dp2733
g89
g90
ssg71
g2722
sg64
(lp2734
S':'
asbag57
(g78
g59
NtRp2735
(dp2736
g62
(dp2737
sg71
g2722
sg64
(lp2738
g57
(g58
g59
NtRp2739
(dp2740
g62
(dp2741
g70
I3
ssg71
g2735
sg64
(lp2742
S''
asbasbasbag57
(g73
g59
NtRp2743
(dp2744
g62
(dp2745
sg71
g2466
sg64
(lp2746
g57
(g78
g59
NtRp2747
(dp2748
g62
(dp2749
g82
g83
ssg71
g2743
sg64
(lp2750
S'SERVER_NAME'
p2751
asbag57
(g78
g59
NtRp2752
(dp2753
g62
(dp2754
g89
g90
ssg71
g2743
sg64
(lp2755
S':'
asbag57
(g78
g59
NtRp2756
(dp2757
g62
(dp2758
sg71
g2743
sg64
(lp2759
g57
(g58
g59
NtRp2760
(dp2761
g62
(dp2762
g70
I3
ssg71
g2756
sg64
(lp2763
g1389
asbasbasbag57
(g73
g59
NtRp2764
(dp2765
g62
(dp2766
sg71
g2466
sg64
(lp2767
g57
(g78
g59
NtRp2768
(dp2769
g62
(dp2770
g82
g83
ssg71
g2764
sg64
(lp2771
S'SERVER_PORT'
p2772
asbag57
(g78
g59
NtRp2773
(dp2774
g62
(dp2775
g89
g90
ssg71
g2764
sg64
(lp2776
S':'
asbag57
(g78
g59
NtRp2777
(dp2778
g62
(dp2779
sg71
g2764
sg64
(lp2780
g57
(g58
g59
NtRp2781
(dp2782
g62
(dp2783
g70
I3
ssg71
g2777
sg64
(lp2784
g1411
asbasbasbag57
(g73
g59
NtRp2785
(dp2786
g62
(dp2787
sg71
g2466
sg64
(lp2788
g57
(g78
g59
NtRp2789
(dp2790
g62
(dp2791
g82
g83
ssg71
g2785
sg64
(lp2792
S'SERVER_PROTOCOL'
p2793
asbag57
(g78
g59
NtRp2794
(dp2795
g62
(dp2796
g89
g90
ssg71
g2785
sg64
(lp2797
S':'
asbag57
(g78
g59
NtRp2798
(dp2799
g62
(dp2800
sg71
g2785
sg64
(lp2801
g57
(g58
g59
NtRp2802
(dp2803
g62
(dp2804
g70
I3
ssg71
g2798
sg64
(lp2805
g1433
asbasbasbag57
(g73
g59
NtRp2806
(dp2807
g62
(dp2808
sg71
g2466
sg64
(lp2809
g57
(g78
g59
NtRp2810
(dp2811
g62
(dp2812
g82
g83
ssg71
g2806
sg64
(lp2813
S'SERVER_SOFTWARE'
p2814
asbag57
(g78
g59
NtRp2815
(dp2816
g62
(dp2817
g89
g90
ssg71
g2806
sg64
(lp2818
S':'
asbag57
(g78
g59
NtRp2819
(dp2820
g62
(dp2821
sg71
g2806
sg64
(lp2822
g57
(g58
g59
NtRp2823
(dp2824
g62
(dp2825
g70
I3
ssg71
g2819
sg64
(lp2826
g1455
asbasbasbag57
(g73
g59
NtRp2827
(dp2828
g62
(dp2829
sg71
g2466
sg64
(lp2830
g57
(g78
g59
NtRp2831
(dp2832
g62
(dp2833
g82
g83
ssg71
g2827
sg64
(lp2834
S'wsgi.errors'
p2835
asbag57
(g78
g59
NtRp2836
(dp2837
g62
(dp2838
g89
g90
ssg71
g2827
sg64
(lp2839
S':'
asbag57
(g78
g59
NtRp2840
(dp2841
g62
(dp2842
sg71
g2827
sg64
(lp2843
g57
(g58
g59
NtRp2844
(dp2845
g62
(dp2846
g70
I3
ssg71
g2840
sg64
(lp2847
S"<open file '<stderr>', mode 'w' at 0x7fc883477270>"
p2848
asbasbasbag57
(g73
g59
NtRp2849
(dp2850
g62
(dp2851
sg71
g2466
sg64
(lp2852
g57
(g78
g59
NtRp2853
(dp2854
g62
(dp2855
g82
g83
ssg71
g2849
sg64
(lp2856
S'wsgi.file_wrapper'
p2857
asbag57
(g78
g59
NtRp2858
(dp2859
g62
(dp2860
g89
g90
ssg71
g2849
sg64
(lp2861
S':'
asbag57
(g78
g59
NtRp2862
(dp2863
g62
(dp2864
sg71
g2849
sg64
(lp2865
g57
(g58
g59
NtRp2866
(dp2867
g62
(dp2868
g70
I3
ssg71
g2862
sg64
(lp2869
S'<class wsgiref.util.FileWrapper at 0x1937328>'
p2870
asbasbasbag57
(g73
g59
NtRp2871
(dp2872
g62
(dp2873
sg71
g2466
sg64
(lp2874
g57
(g78
g59
NtRp2875
(dp2876
g62
(dp2877
g82
g83
ssg71
g2871
sg64
(lp2878
S'wsgi.input'
p2879
asbag57
(g78
g59
NtRp2880
(dp2881
g62
(dp2882
g89
g90
ssg71
g2871
sg64
(lp2883
S':'
asbag57
(g78
g59
NtRp2884
(dp2885
g62
(dp2886
sg71
g2871
sg64
(lp2887
g57
(g58
g59
NtRp2888
(dp2889
g62
(dp2890
g70
I3
ssg71
g2884
sg64
(lp2891
S'<cStringIO.StringO object at 0x7fc83c303688>'
p2892
asbasbasbag57
(g73
g59
NtRp2893
(dp2894
g62
(dp2895
sg71
g2466
sg64
(lp2896
g57
(g78
g59
NtRp2897
(dp2898
g62
(dp2899
g82
g83
ssg71
g2893
sg64
(lp2900
S'wsgi.multiprocess'
p2901
asbag57
(g78
g59
NtRp2902
(dp2903
g62
(dp2904
g89
g90
ssg71
g2893
sg64
(lp2905
S':'
asbag57
(g78
g59
NtRp2906
(dp2907
g62
(dp2908
sg71
g2893
sg64
(lp2909
g57
(g58
g59
NtRp2910
(dp2911
g62
(dp2912
g70
I3
ssg71
g2906
sg64
(lp2913
g100
asbasbasbag57
(g73
g59
NtRp2914
(dp2915
g62
(dp2916
sg71
g2466
sg64
(lp2917
g57
(g78
g59
NtRp2918
(dp2919
g62
(dp2920
g82
g83
ssg71
g2914
sg64
(lp2921
S'wsgi.multithread'
p2922
asbag57
(g78
g59
NtRp2923
(dp2924
g62
(dp2925
g89
g90
ssg71
g2914
sg64
(lp2926
S':'
asbag57
(g78
g59
NtRp2927
(dp2928
g62
(dp2929
sg71
g2914
sg64
(lp2930
g57
(g58
g59
NtRp2931
(dp2932
g62
(dp2933
g70
I3
ssg71
g2927
sg64
(lp2934
g1695
asbasbasbag57
(g73
g59
NtRp2935
(dp2936
g62
(dp2937
sg71
g2466
sg64
(lp2938
g57
(g78
g59
NtRp2939
(dp2940
g62
(dp2941
g82
g83
ssg71
g2935
sg64
(lp2942
S'wsgi.run_once'
p2943
asbag57
(g78
g59
NtRp2944
(dp2945
g62
(dp2946
g89
g90
ssg71
g2935
sg64
(lp2947
S':'
asbag57
(g78
g59
NtRp2948
(dp2949
g62
(dp2950
sg71
g2935
sg64
(lp2951
g57
(g58
g59
NtRp2952
(dp2953
g62
(dp2954
g70
I3
ssg71
g2948
sg64
(lp2955
g100
asbasbasbag57
(g73
g59
NtRp2956
(dp2957
g62
(dp2958
sg71
g2466
sg64
(lp2959
g57
(g78
g59
NtRp2960
(dp2961
g62
(dp2962
g82
g83
ssg71
g2956
sg64
(lp2963
S'wsgi.url_scheme'
p2964
asbag57
(g78
g59
NtRp2965
(dp2966
g62
(dp2967
g89
g90
ssg71
g2956
sg64
(lp2968
S':'
asbag57
(g78
g59
NtRp2969
(dp2970
g62
(dp2971
sg71
g2956
sg64
(lp2972
g57
(g58
g59
NtRp2973
(dp2974
g62
(dp2975
g70
I3
ssg71
g2969
sg64
(lp2976
g1738
asbasbasbag57
(g73
g59
NtRp2977
(dp2978
g62
(dp2979
sg71
g2466
sg64
(lp2980
g57
(g78
g59
NtRp2981
(dp2982
g62
(dp2983
g82
g83
ssg71
g2977
sg64
(lp2984
S'wsgi.version'
p2985
asbag57
(g78
g59
NtRp2986
(dp2987
g62
(dp2988
g89
g90
ssg71
g2977
sg64
(lp2989
S':'
asbag57
(g78
g59
NtRp2990
(dp2991
g62
(dp2992
sg71
g2977
sg64
(lp2993
g57
(g58
g59
NtRp2994
(dp2995
g62
(dp2996
g70
I3
ssg71
g2990
sg64
(lp2997
S'1'
asbasbasbasbasbasbasbasbasbasbasbasbasbsS'frames'
p2998
(lp2999
(dp3000
S'file'
p3001
S'/usr/lib/pymodules/python2.7/gluon/restricted.py'
p3002
sS'dump'
p3003
(dp3004
S'environment'
p3005
S"{'A': <class 'gluon.html.A'>, 'Auth': <class 'gluon.tools.Auth'>, 'B': <class 'gluon.html.B'>, 'BEAUTIFY': <class 'gluon.html.BEAUTIFY'>, 'BODY': <class 'gluon.html.BODY'>, 'BR': <class 'gluon.html.BR'>, 'BUTTON': <class 'gluon.html.BUTTON'>, 'CAT': <class 'gluon.html.CAT'>, 'CENTER': <class 'gluon.html.CENTER'>, 'CLEANUP': <class 'gluon.validators.CLEANUP'>, ...}"
p3006
sS'ccode'
p3007
S'<code object <module> at 0x7fc83c2d7930, file "/...plications/app1/controllers/default.py", line 12>'
p3008
ssS'lnum'
p3009
I204
sS'lines'
p3010
(dp3011
I199
S'    try:'
p3012
sI200
S'        if type(code) == types.CodeType:'
p3013
sI201
S'            ccode = code'
p3014
sI202
S'        else:'
p3015
sI203
S'            ccode = compile2(code,layer)'
p3016
sI204
S'        exec ccode in environment'
p3017
sI205
S'    except HTTP:'
p3018
sI206
S'        raise'
p3019
sI207
S'    except RestrictedError:'
p3020
sI208
S'        # do not encapsulate (obfuscate) the original RestrictedError'
p3021
ssS'call'
p3022
S"(code='# -*- coding: utf-8 -*-\\n# this file is released ... locals()\\n\\nresponse._vars=response._caller(lall)\\n', environment={'A': <class 'gluon.html.A'>, 'Auth': <class 'gluon.tools.Auth'>, 'B': <class 'gluon.html.B'>, 'BEAUTIFY': <class 'gluon.html.BEAUTIFY'>, 'BODY': <class 'gluon.html.BODY'>, 'BR': <class 'gluon.html.BR'>, 'BUTTON': <class 'gluon.html.BUTTON'>, 'CAT': <class 'gluon.html.CAT'>, 'CENTER': <class 'gluon.html.CENTER'>, 'CLEANUP': <class 'gluon.validators.CLEANUP'>, ...}, layer='/home/jigar/web2py/applications/app1/controllers/default.py')"
p3023
sS'func'
p3024
S'restricted'
p3025
sa(dp3026
g3001
S'/home/jigar/web2py/applications/app1/controllers/default.py'
p3027
sg3003
(dp3028
sg3009
I103
sg3010
(dp3029
I96
S'\tx=db(db.Post.Category==y).select()'
p3030
sI97
S'\tif (len(x)>0):'
p3031
sI98
S'\t\treturn locals()'
p3032
sI99
S''
sI100
S'\telse :'
p3033
sI101
S'\t\treturn locals()'
p3034
sI92
S'def listcat():'
p3035
sI93
S'\tp=db(db.Post.id>0).select()'
p3036
sI94
S'\tq=db(db.Post.User==db.auth_user.id).select(db.auth_user.first_name)'
p3037
sI95
S'\ty=request.args[0]'
p3038
ssg3022
S'()'
p3039
sg3024
S'<module>'
p3040
sa(dp3041
g3001
S'/usr/lib/pymodules/python2.7/gluon/globals.py'
p3042
sg3003
(dp3043
S'self'
p3044
S'undefined'
p3045
sS'f'
S'<function lall>'
p3046
ssg3009
I172
sg3010
(dp3047
I167
S'        self.meta = Storage()      # used by web2py_ajax.html'
p3048
sI168
S'        self.menu = []             # used by the default view layout'
p3049
sI169
S'        self.files = []            # used by web2py_ajax.html'
p3050
sI170
S'        self.generic_patterns = [] # patterns to allow generic views'
p3051
sI171
S'        self._vars = None'
p3052
sI172
S'        self._caller = lambda f: f()'
p3053
sI173
S'        self._view_environment = None'
p3054
sI174
S'        self._custom_commit = None'
p3055
sI175
S'        self._custom_rollback = None'
p3056
sI176
S''
ssg3022
S'(f=<function lall>)'
p3057
sg3024
S'<lambda>'
p3058
sa(dp3059
g3001
S'/home/jigar/web2py/applications/app1/controllers/default.py'
p3060
sg3003
(dp3061
S'ri'
p3062
g3045
ssg3009
I77
sg3010
(dp3063
I72
S'def lall():'
p3064
sI73
S'\tx=db(db.Post.id>0).select()'
p3065
sI74
S'\ty=db(db.Post.User==db.auth_user.id).select(db.auth_user.first_name)'
p3066
sI75
S'\tr=request.args[0]'
p3067
sI76
S'\tp=request.args[1]'
p3068
sI77
S'\tprint ri'
p3069
sI78
S'\tif (request.args[1]=="like"):'
p3070
sI79
S'\t\tb=db(db.Post.id==(int(r)+1)).select(db.Post.Rating)'
p3071
sI80
S"\t\ta=db(db.Post.id==(int(r)+1)).update(Rating=b[0]['Rating']+5)"
p3072
sI81
S'\t\tredirect(URL("lall"))'
p3073
ssg3022
S'()'
p3074
sg3024
S'lall'
p3075
sasS'pyver'
p3076
S'Python 2.7.3: /usr/bin/python'
p3077
sS'session'
p3078
g57
(g58
g59
NtRp3079
(dp3080
g62
(dp3081
sg64
(lp3082
g57
(g66
g59
NtRp3083
(dp3084
g62
(dp3085
g70
I5
ssg71
Nsg64
(lp3086
g57
(g73
g59
NtRp3087
(dp3088
g62
(dp3089
sg71
g3083
sg64
(lp3090
g57
(g78
g59
NtRp3091
(dp3092
g62
(dp3093
g82
g83
ssg71
g3087
sg64
(lp3094
S'last_query'
p3095
asbag57
(g78
g59
NtRp3096
(dp3097
g62
(dp3098
g89
g90
ssg71
g3087
sg64
(lp3099
S':'
asbag57
(g78
g59
NtRp3100
(dp3101
g62
(dp3102
sg71
g3087
sg64
(lp3103
g57
(g58
g59
NtRp3104
(dp3105
g62
(dp3106
g70
I5
ssg71
g3100
sg64
(lp3107
S'db.Post.id>0'
p3108
asbasbasbasbasbsS'etype'
p3109
S"<type 'exceptions.NameError'>"
p3110
sS'date'
p3111
S'Thu Aug 29 13:03:20 2013'
p3112
sS'response'
p3113
g57
(g58
g59
NtRp3114
(dp3115
g62
(dp3116
sg64
(lp3117
g57
(g66
g59
NtRp3118
(dp3119
g62
(dp3120
g70
I5
ssg71
Nsg64
(lp3121
g57
(g73
g59
NtRp3122
(dp3123
g62
(dp3124
sg71
g3118
sg64
(lp3125
g57
(g78
g59
NtRp3126
(dp3127
g62
(dp3128
g82
g83
ssg71
g3122
sg64
(lp3129
g216
asbag57
(g78
g59
NtRp3130
(dp3131
g62
(dp3132
g89
g90
ssg71
g3122
sg64
(lp3133
S':'
asbag57
(g78
g59
NtRp3134
(dp3135
g62
(dp3136
sg71
g3122
sg64
(lp3137
g57
(g58
g59
NtRp3138
(dp3139
g62
(dp3140
g70
I5
ssg71
g3134
sg64
(lp3141
S'<cStringIO.StringO object at 0x7fc83c3037d8>'
p3142
asbasbasbag57
(g73
g59
NtRp3143
(dp3144
g62
(dp3145
sg71
g3118
sg64
(lp3146
g57
(g78
g59
NtRp3147
(dp3148
g62
(dp3149
g82
g83
ssg71
g3143
sg64
(lp3150
g282
asbag57
(g78
g59
NtRp3151
(dp3152
g62
(dp3153
g89
g90
ssg71
g3143
sg64
(lp3154
S':'
asbag57
(g78
g59
NtRp3155
(dp3156
g62
(dp3157
sg71
g3143
sg64
(lp3158
g57
(g58
g59
NtRp3159
(dp3160
g62
(dp3161
g70
I5
ssg71
g3155
sg64
(lp3162
g57
(g66
g59
NtRp3163
(dp3164
g62
(dp3165
g70
I4
ssg71
Nsg64
(lp3166
g57
(g73
g59
NtRp3167
(dp3168
g62
(dp3169
sg71
g3163
sg64
(lp3170
g57
(g78
g59
NtRp3171
(dp3172
g62
(dp3173
g82
g83
ssg71
g3167
sg64
(lp3174
S'session_id_app1'
p3175
asbag57
(g78
g59
NtRp3176
(dp3177
g62
(dp3178
g89
g90
ssg71
g3167
sg64
(lp3179
S':'
asbag57
(g78
g59
NtRp3180
(dp3181
g62
(dp3182
sg71
g3167
sg64
(lp3183
g57
(g58
g59
NtRp3184
(dp3185
g62
(dp3186
g70
I4
ssg71
g3180
sg64
(lp3187
g57
(g66
g59
NtRp3188
(dp3189
g62
(dp3190
g70
I3
ssg71
Nsg64
(lp3191
g57
(g73
g59
NtRp3192
(dp3193
g62
(dp3194
sg71
g3188
sg64
(lp3195
g57
(g78
g59
NtRp3196
(dp3197
g62
(dp3198
g82
g83
ssg71
g3192
sg64
(lp3199
g332
asbag57
(g78
g59
NtRp3200
(dp3201
g62
(dp3202
g89
g90
ssg71
g3192
sg64
(lp3203
S':'
asbag57
(g78
g59
NtRp3204
(dp3205
g62
(dp3206
sg71
g3192
sg64
(lp3207
g57
(g58
g59
NtRp3208
(dp3209
g62
(dp3210
g70
I3
ssg71
g3204
sg64
(lp3211
S''
asbasbasbag57
(g73
g59
NtRp3212
(dp3213
g62
(dp3214
sg71
g3188
sg64
(lp3215
g57
(g78
g59
NtRp3216
(dp3217
g62
(dp3218
g82
g83
ssg71
g3212
sg64
(lp3219
g353
asbag57
(g78
g59
NtRp3220
(dp3221
g62
(dp3222
g89
g90
ssg71
g3212
sg64
(lp3223
S':'
asbag57
(g78
g59
NtRp3224
(dp3225
g62
(dp3226
sg71
g3212
sg64
(lp3227
g57
(g58
g59
NtRp3228
(dp3229
g62
(dp3230
g70
I3
ssg71
g3224
sg64
(lp3231
S''
asbasbasbag57
(g73
g59
NtRp3232
(dp3233
g62
(dp3234
sg71
g3188
sg64
(lp3235
g57
(g78
g59
NtRp3236
(dp3237
g62
(dp3238
g82
g83
ssg71
g3232
sg64
(lp3239
g374
asbag57
(g78
g59
NtRp3240
(dp3241
g62
(dp3242
g89
g90
ssg71
g3232
sg64
(lp3243
S':'
asbag57
(g78
g59
NtRp3244
(dp3245
g62
(dp3246
sg71
g3232
sg64
(lp3247
g57
(g58
g59
NtRp3248
(dp3249
g62
(dp3250
g70
I3
ssg71
g3244
sg64
(lp3251
S''
asbasbasbag57
(g73
g59
NtRp3252
(dp3253
g62
(dp3254
sg71
g3188
sg64
(lp3255
g57
(g78
g59
NtRp3256
(dp3257
g62
(dp3258
g82
g83
ssg71
g3252
sg64
(lp3259
g395
asbag57
(g78
g59
NtRp3260
(dp3261
g62
(dp3262
g89
g90
ssg71
g3252
sg64
(lp3263
S':'
asbag57
(g78
g59
NtRp3264
(dp3265
g62
(dp3266
sg71
g3252
sg64
(lp3267
g57
(g58
g59
NtRp3268
(dp3269
g62
(dp3270
g70
I3
ssg71
g3264
sg64
(lp3271
S''
asbasbasbag57
(g73
g59
NtRp3272
(dp3273
g62
(dp3274
sg71
g3188
sg64
(lp3275
g57
(g78
g59
NtRp3276
(dp3277
g62
(dp3278
g82
g83
ssg71
g3272
sg64
(lp3279
g416
asbag57
(g78
g59
NtRp3280
(dp3281
g62
(dp3282
g89
g90
ssg71
g3272
sg64
(lp3283
S':'
asbag57
(g78
g59
NtRp3284
(dp3285
g62
(dp3286
sg71
g3272
sg64
(lp3287
g57
(g58
g59
NtRp3288
(dp3289
g62
(dp3290
g70
I3
ssg71
g3284
sg64
(lp3291
S''
asbasbasbag57
(g73
g59
NtRp3292
(dp3293
g62
(dp3294
sg71
g3188
sg64
(lp3295
g57
(g78
g59
NtRp3296
(dp3297
g62
(dp3298
g82
g83
ssg71
g3292
sg64
(lp3299
g437
asbag57
(g78
g59
NtRp3300
(dp3301
g62
(dp3302
g89
g90
ssg71
g3292
sg64
(lp3303
S':'
asbag57
(g78
g59
NtRp3304
(dp3305
g62
(dp3306
sg71
g3292
sg64
(lp3307
g57
(g58
g59
NtRp3308
(dp3309
g62
(dp3310
g70
I3
ssg71
g3304
sg64
(lp3311
S'/'
asbasbasbag57
(g73
g59
NtRp3312
(dp3313
g62
(dp3314
sg71
g3188
sg64
(lp3315
g57
(g78
g59
NtRp3316
(dp3317
g62
(dp3318
g82
g83
ssg71
g3312
sg64
(lp3319
g458
asbag57
(g78
g59
NtRp3320
(dp3321
g62
(dp3322
g89
g90
ssg71
g3312
sg64
(lp3323
S':'
asbag57
(g78
g59
NtRp3324
(dp3325
g62
(dp3326
sg71
g3312
sg64
(lp3327
g57
(g58
g59
NtRp3328
(dp3329
g62
(dp3330
g70
I3
ssg71
g3324
sg64
(lp3331
S''
asbasbasbag57
(g73
g59
NtRp3332
(dp3333
g62
(dp3334
sg71
g3188
sg64
(lp3335
g57
(g78
g59
NtRp3336
(dp3337
g62
(dp3338
g82
g83
ssg71
g3332
sg64
(lp3339
g479
asbag57
(g78
g59
NtRp3340
(dp3341
g62
(dp3342
g89
g90
ssg71
g3332
sg64
(lp3343
S':'
asbag57
(g78
g59
NtRp3344
(dp3345
g62
(dp3346
sg71
g3332
sg64
(lp3347
g57
(g58
g59
NtRp3348
(dp3349
g62
(dp3350
g70
I3
ssg71
g3344
sg64
(lp3351
S''
asbasbasbasbasbasbasbasbasbasbasbag57
(g73
g59
NtRp3352
(dp3353
g62
(dp3354
sg71
g3118
sg64
(lp3355
g57
(g78
g59
NtRp3356
(dp3357
g62
(dp3358
g82
g83
ssg71
g3352
sg64
(lp3359
S'files'
p3360
asbag57
(g78
g59
NtRp3361
(dp3362
g62
(dp3363
g89
g90
ssg71
g3352
sg64
(lp3364
S':'
asbag57
(g78
g59
NtRp3365
(dp3366
g62
(dp3367
sg71
g3352
sg64
(lp3368
g57
(g58
g59
NtRp3369
(dp3370
g62
(dp3371
g70
I5
ssg71
g3365
sg64
(lp3372
g57
(g66
g59
NtRp3373
(dp3374
g62
(dp3375
g70
I4
ssg71
Nsg64
(lp3376
sbasbasbasbag57
(g73
g59
NtRp3377
(dp3378
g62
(dp3379
sg71
g3118
sg64
(lp3380
g57
(g78
g59
NtRp3381
(dp3382
g62
(dp3383
g82
g83
ssg71
g3377
sg64
(lp3384
S'flash'
p3385
asbag57
(g78
g59
NtRp3386
(dp3387
g62
(dp3388
g89
g90
ssg71
g3377
sg64
(lp3389
S':'
asbag57
(g78
g59
NtRp3390
(dp3391
g62
(dp3392
sg71
g3377
sg64
(lp3393
g57
(g58
g59
NtRp3394
(dp3395
g62
(dp3396
g70
I5
ssg71
g3390
sg64
(lp3397
S''
asbasbasbag57
(g73
g59
NtRp3398
(dp3399
g62
(dp3400
sg71
g3118
sg64
(lp3401
g57
(g78
g59
NtRp3402
(dp3403
g62
(dp3404
g82
g83
ssg71
g3398
sg64
(lp3405
S'generic_patterns'
p3406
asbag57
(g78
g59
NtRp3407
(dp3408
g62
(dp3409
g89
g90
ssg71
g3398
sg64
(lp3410
S':'
asbag57
(g78
g59
NtRp3411
(dp3412
g62
(dp3413
sg71
g3398
sg64
(lp3414
g57
(g58
g59
NtRp3415
(dp3416
g62
(dp3417
g70
I5
ssg71
g3411
sg64
(lp3418
g57
(g66
g59
NtRp3419
(dp3420
g62
(dp3421
g70
I4
ssg71
Nsg64
(lp3422
g57
(g73
g59
NtRp3423
(dp3424
g62
(dp3425
sg71
g3419
sg64
(lp3426
g57
(g78
g59
NtRp3427
(dp3428
g62
(dp3429
sg71
g3423
sg64
(lp3430
g57
(g58
g59
NtRp3431
(dp3432
g62
(dp3433
g70
I4
ssg71
g3427
sg64
(lp3434
S'*'
asbasbasbasbasbasbasbag57
(g73
g59
NtRp3435
(dp3436
g62
(dp3437
sg71
g3118
sg64
(lp3438
g57
(g78
g59
NtRp3439
(dp3440
g62
(dp3441
g82
g83
ssg71
g3435
sg64
(lp3442
S'headers'
p3443
asbag57
(g78
g59
NtRp3444
(dp3445
g62
(dp3446
g89
g90
ssg71
g3435
sg64
(lp3447
S':'
asbag57
(g78
g59
NtRp3448
(dp3449
g62
(dp3450
sg71
g3435
sg64
(lp3451
g57
(g58
g59
NtRp3452
(dp3453
g62
(dp3454
g70
I5
ssg71
g3448
sg64
(lp3455
g57
(g66
g59
NtRp3456
(dp3457
g62
(dp3458
g70
I4
ssg71
Nsg64
(lp3459
g57
(g73
g59
NtRp3460
(dp3461
g62
(dp3462
sg71
g3456
sg64
(lp3463
g57
(g78
g59
NtRp3464
(dp3465
g62
(dp3466
g82
g83
ssg71
g3460
sg64
(lp3467
S'Cache-Control'
p3468
asbag57
(g78
g59
NtRp3469
(dp3470
g62
(dp3471
g89
g90
ssg71
g3460
sg64
(lp3472
S':'
asbag57
(g78
g59
NtRp3473
(dp3474
g62
(dp3475
sg71
g3460
sg64
(lp3476
g57
(g58
g59
NtRp3477
(dp3478
g62
(dp3479
g70
I4
ssg71
g3473
sg64
(lp3480
S'no-store, no-cache, must-revalidate, post-check=0, pre-check=0'
p3481
asbasbasbag57
(g73
g59
NtRp3482
(dp3483
g62
(dp3484
sg71
g3456
sg64
(lp3485
g57
(g78
g59
NtRp3486
(dp3487
g62
(dp3488
g82
g83
ssg71
g3482
sg64
(lp3489
S'Content-Type'
p3490
asbag57
(g78
g59
NtRp3491
(dp3492
g62
(dp3493
g89
g90
ssg71
g3482
sg64
(lp3494
S':'
asbag57
(g78
g59
NtRp3495
(dp3496
g62
(dp3497
sg71
g3482
sg64
(lp3498
g57
(g58
g59
NtRp3499
(dp3500
g62
(dp3501
g70
I4
ssg71
g3495
sg64
(lp3502
S'text/html; charset=utf-8'
p3503
asbasbasbag57
(g73
g59
NtRp3504
(dp3505
g62
(dp3506
sg71
g3456
sg64
(lp3507
g57
(g78
g59
NtRp3508
(dp3509
g62
(dp3510
g82
g83
ssg71
g3504
sg64
(lp3511
S'Expires'
p3512
asbag57
(g78
g59
NtRp3513
(dp3514
g62
(dp3515
g89
g90
ssg71
g3504
sg64
(lp3516
S':'
asbag57
(g78
g59
NtRp3517
(dp3518
g62
(dp3519
sg71
g3504
sg64
(lp3520
g57
(g58
g59
NtRp3521
(dp3522
g62
(dp3523
g70
I4
ssg71
g3517
sg64
(lp3524
S'Thu, 29 Aug 2013 07:33:20 GMT'
p3525
asbasbasbag57
(g73
g59
NtRp3526
(dp3527
g62
(dp3528
sg71
g3456
sg64
(lp3529
g57
(g78
g59
NtRp3530
(dp3531
g62
(dp3532
g82
g83
ssg71
g3526
sg64
(lp3533
S'Pragma'
p3534
asbag57
(g78
g59
NtRp3535
(dp3536
g62
(dp3537
g89
g90
ssg71
g3526
sg64
(lp3538
S':'
asbag57
(g78
g59
NtRp3539
(dp3540
g62
(dp3541
sg71
g3526
sg64
(lp3542
g57
(g58
g59
NtRp3543
(dp3544
g62
(dp3545
g70
I4
ssg71
g3539
sg64
(lp3546
S'no-cache'
p3547
asbasbasbag57
(g73
g59
NtRp3548
(dp3549
g62
(dp3550
sg71
g3456
sg64
(lp3551
g57
(g78
g59
NtRp3552
(dp3553
g62
(dp3554
g82
g83
ssg71
g3548
sg64
(lp3555
S'X-Powered-By'
p3556
asbag57
(g78
g59
NtRp3557
(dp3558
g62
(dp3559
g89
g90
ssg71
g3548
sg64
(lp3560
S':'
asbag57
(g78
g59
NtRp3561
(dp3562
g62
(dp3563
sg71
g3548
sg64
(lp3564
g57
(g58
g59
NtRp3565
(dp3566
g62
(dp3567
g70
I4
ssg71
g3561
sg64
(lp3568
S'web2py'
p3569
asbasbasbasbasbasbasbag57
(g73
g59
NtRp3570
(dp3571
g62
(dp3572
sg71
g3118
sg64
(lp3573
g57
(g78
g59
NtRp3574
(dp3575
g62
(dp3576
g82
g83
ssg71
g3570
sg64
(lp3577
S'menu'
p3578
asbag57
(g78
g59
NtRp3579
(dp3580
g62
(dp3581
g89
g90
ssg71
g3570
sg64
(lp3582
S':'
asbag57
(g78
g59
NtRp3583
(dp3584
g62
(dp3585
sg71
g3570
sg64
(lp3586
g57
(g58
g59
NtRp3587
(dp3588
g62
(dp3589
g70
I5
ssg71
g3583
sg64
(lp3590
g57
(g66
g59
NtRp3591
(dp3592
g62
(dp3593
g70
I4
ssg71
Nsg64
(lp3594
g57
(g73
g59
NtRp3595
(dp3596
g62
(dp3597
sg71
g3591
sg64
(lp3598
g57
(g78
g59
NtRp3599
(dp3600
g62
(dp3601
sg71
g3595
sg64
(lp3602
g57
(g58
g59
NtRp3603
(dp3604
g62
(dp3605
g70
I4
ssg71
g3599
sg64
(lp3606
g57
(g66
g59
NtRp3607
(dp3608
g62
(dp3609
g70
I3
ssg71
Nsg64
(lp3610
g57
(g73
g59
NtRp3611
(dp3612
g62
(dp3613
sg71
g3607
sg64
(lp3614
g57
(g78
g59
NtRp3615
(dp3616
g62
(dp3617
sg71
g3611
sg64
(lp3618
g57
(g58
g59
NtRp3619
(dp3620
g62
(dp3621
g70
I3
ssg71
g3615
sg64
(lp3622
cgluon.languages
lazyT_unpickle
p3623
(S't\x04\x00\x00\x00Home'
tRp3624
asbasbasbag57
(g73
g59
NtRp3625
(dp3626
g62
(dp3627
sg71
g3607
sg64
(lp3628
g57
(g78
g59
NtRp3629
(dp3630
g62
(dp3631
sg71
g3625
sg64
(lp3632
g57
(g58
g59
NtRp3633
(dp3634
g62
(dp3635
g70
I3
ssg71
g3629
sg64
(lp3636
g100
asbasbasbag57
(g73
g59
NtRp3637
(dp3638
g62
(dp3639
sg71
g3607
sg64
(lp3640
g57
(g78
g59
NtRp3641
(dp3642
g62
(dp3643
sg71
g3637
sg64
(lp3644
g57
(g58
g59
NtRp3645
(dp3646
g62
(dp3647
g70
I3
ssg71
g3641
sg64
(lp3648
S'/app1/default/index'
p3649
asbasbasbag57
(g73
g59
NtRp3650
(dp3651
g62
(dp3652
sg71
g3607
sg64
(lp3653
g57
(g78
g59
NtRp3654
(dp3655
g62
(dp3656
sg71
g3650
sg64
(lp3657
g57
(g58
g59
NtRp3658
(dp3659
g62
(dp3660
g70
I3
ssg71
g3654
sg64
(lp3661
g57
(g66
g59
NtRp3662
(dp3663
g62
(dp3664
g70
I2
ssg71
Nsg64
(lp3665
sbasbasbasbasbasbasbasbag57
(g73
g59
NtRp3666
(dp3667
g62
(dp3668
sg71
g3591
sg64
(lp3669
g57
(g78
g59
NtRp3670
(dp3671
g62
(dp3672
sg71
g3666
sg64
(lp3673
g57
(g58
g59
NtRp3674
(dp3675
g62
(dp3676
g70
I4
ssg71
g3670
sg64
(lp3677
g57
(g66
g59
NtRp3678
(dp3679
g62
(dp3680
g70
I3
ssg71
Nsg64
(lp3681
g57
(g73
g59
NtRp3682
(dp3683
g62
(dp3684
sg71
g3678
sg64
(lp3685
g57
(g78
g59
NtRp3686
(dp3687
g62
(dp3688
sg71
g3682
sg64
(lp3689
g57
(g58
g59
NtRp3690
(dp3691
g62
(dp3692
g70
I3
ssg71
g3686
sg64
(lp3693
g57
(cgluon.html
SPAN
p3694
g59
NtRp3695
(dp3696
g62
(dp3697
g82
S'color:yellow'
p3698
ssg71
Nsg64
(lp3699
g3569
asbasbasbasbag57
(g73
g59
NtRp3700
(dp3701
g62
(dp3702
sg71
g3678
sg64
(lp3703
g57
(g78
g59
NtRp3704
(dp3705
g62
(dp3706
sg71
g3700
sg64
(lp3707
g57
(g58
g59
NtRp3708
(dp3709
g62
(dp3710
g70
I3
ssg71
g3704
sg64
(lp3711
g100
asbasbasbag57
(g73
g59
NtRp3712
(dp3713
g62
(dp3714
sg71
g3678
sg64
(lp3715
g57
(g78
g59
NtRp3716
(dp3717
g62
(dp3718
sg71
g3712
sg64
(lp3719
g57
(g58
g59
NtRp3720
(dp3721
g62
(dp3722
g70
I3
ssg71
g3716
sg64
(lp3723
S'None'
p3724
asbasbasbag57
(g73
g59
NtRp3725
(dp3726
g62
(dp3727
sg71
g3678
sg64
(lp3728
g57
(g78
g59
NtRp3729
(dp3730
g62
(dp3731
sg71
g3725
sg64
(lp3732
g57
(g58
g59
NtRp3733
(dp3734
g62
(dp3735
g70
I3
ssg71
g3729
sg64
(lp3736
g57
(g66
g59
NtRp3737
(dp3738
g62
(dp3739
g70
I2
ssg71
Nsg64
(lp3740
g57
(g73
g59
NtRp3741
(dp3742
g62
(dp3743
sg71
g3737
sg64
(lp3744
g57
(g78
g59
NtRp3745
(dp3746
g62
(dp3747
sg71
g3741
sg64
(lp3748
g57
(g58
g59
NtRp3749
(dp3750
g62
(dp3751
g70
I2
ssg71
g3745
sg64
(lp3752
g57
(g66
g59
NtRp3753
(dp3754
g62
(dp3755
g70
I1
ssg71
Nsg64
(lp3756
g57
(g73
g59
NtRp3757
(dp3758
g62
(dp3759
sg71
g3753
sg64
(lp3760
g57
(g78
g59
NtRp3761
(dp3762
g62
(dp3763
sg71
g3757
sg64
(lp3764
g57
(g58
g59
NtRp3765
(dp3766
g62
(dp3767
g70
I1
ssg71
g3761
sg64
(lp3768
g3623
(S's\x08\x00\x00\x00My Sites'
tRp3769
asbasbasbag57
(g73
g59
NtRp3770
(dp3771
g62
(dp3772
sg71
g3753
sg64
(lp3773
g57
(g78
g59
NtRp3774
(dp3775
g62
(dp3776
sg71
g3770
sg64
(lp3777
g57
(g58
g59
NtRp3778
(dp3779
g62
(dp3780
g70
I1
ssg71
g3774
sg64
(lp3781
I00
asbasbasbag57
(g73
g59
NtRp3782
(dp3783
g62
(dp3784
sg71
g3753
sg64
(lp3785
g57
(g78
g59
NtRp3786
(dp3787
g62
(dp3788
sg71
g3782
sg64
(lp3789
g57
(g58
g59
NtRp3790
(dp3791
g62
(dp3792
g70
I1
ssg71
g3786
sg64
(lp3793
S'/admin/default/site'
p3794
asbasbasbasbasbasbasbag57
(g73
g59
NtRp3795
(dp3796
g62
(dp3797
sg71
g3737
sg64
(lp3798
g57
(g78
g59
NtRp3799
(dp3800
g62
(dp3801
sg71
g3795
sg64
(lp3802
g57
(g58
g59
NtRp3803
(dp3804
g62
(dp3805
g70
I2
ssg71
g3799
sg64
(lp3806
g57
(g66
g59
NtRp3807
(dp3808
g62
(dp3809
g70
I1
ssg71
Nsg64
(lp3810
g57
(g73
g59
NtRp3811
(dp3812
g62
(dp3813
sg71
g3807
sg64
(lp3814
g57
(g78
g59
NtRp3815
(dp3816
g62
(dp3817
sg71
g3811
sg64
(lp3818
g57
(g58
g59
NtRp3819
(dp3820
g62
(dp3821
g70
I1
ssg71
g3815
sg64
(lp3822
g3623
(S's\x08\x00\x00\x00This App'
tRp3823
asbasbasbag57
(g73
g59
NtRp3824
(dp3825
g62
(dp3826
sg71
g3807
sg64
(lp3827
g57
(g78
g59
NtRp3828
(dp3829
g62
(dp3830
sg71
g3824
sg64
(lp3831
g57
(g58
g59
NtRp3832
(dp3833
g62
(dp3834
g70
I1
ssg71
g3828
sg64
(lp3835
I00
asbasbasbag57
(g73
g59
NtRp3836
(dp3837
g62
(dp3838
sg71
g3807
sg64
(lp3839
g57
(g78
g59
NtRp3840
(dp3841
g62
(dp3842
sg71
g3836
sg64
(lp3843
g57
(g58
g59
NtRp3844
(dp3845
g62
(dp3846
g70
I1
ssg71
g3840
sg64
(lp3847
S'/admin/default/design/app1'
p3848
asbasbasbag57
(g73
g59
NtRp3849
(dp3850
g62
(dp3851
sg71
g3807
sg64
(lp3852
g57
(g78
g59
NtRp3853
(dp3854
g62
(dp3855
sg71
g3849
sg64
(lp3856
g57
(g58
g59
NtRp3857
(dp3858
g62
(dp3859
g70
I1
ssg71
g3853
sg64
(lp3860
(lp3861
(g3623
(S't\n\x00\x00\x00Controller'
tRp3862
I00
S'/admin/default/edit/app1/controllers/default.py'
tp3863
a(g3623
(S't\x04\x00\x00\x00View'
tRp3864
I00
S'/admin/default/edit/app1/views/default/lall.html'
tp3865
a(g3623
(S't\x06\x00\x00\x00Layout'
tRp3866
I00
S'/admin/default/edit/app1/views/layout.html'
tp3867
a(g3623
(S't\n\x00\x00\x00Stylesheet'
tRp3868
I00
S'/admin/default/edit/app1/static/css/web2py.css'
tp3869
a(g3623
(S's\x08\x00\x00\x00DB Model'
tRp3870
I00
S'/admin/default/edit/app1/models/db.py'
tp3871
a(g3623
(S's\n\x00\x00\x00Menu Model'
tRp3872
I00
S'/admin/default/edit/app1/models/menu.py'
tp3873
a(g3623
(S't\x08\x00\x00\x00Database'
tRp3874
I00
S'/app1/appadmin/index'
tp3875
a(g3623
(S't\x06\x00\x00\x00Errors'
tRp3876
I00
S'/admin/default/errors/app1'
tp3877
a(g3623
(S't\x05\x00\x00\x00About'
tRp3878
I00
S'/admin/default/about/app1'
tp3879
aasbasbasbasbasbasbasbag57
(g73
g59
NtRp3880
(dp3881
g62
(dp3882
sg71
g3737
sg64
(lp3883
g57
(g78
g59
NtRp3884
(dp3885
g62
(dp3886
sg71
g3880
sg64
(lp3887
g57
(g58
g59
NtRp3888
(dp3889
g62
(dp3890
g70
I2
ssg71
g3884
sg64
(lp3891
g57
(g66
g59
NtRp3892
(dp3893
g62
(dp3894
g70
I1
ssg71
Nsg64
(lp3895
g57
(g73
g59
NtRp3896
(dp3897
g62
(dp3898
sg71
g3892
sg64
(lp3899
g57
(g78
g59
NtRp3900
(dp3901
g62
(dp3902
sg71
g3896
sg64
(lp3903
g57
(g58
g59
NtRp3904
(dp3905
g62
(dp3906
g70
I1
ssg71
g3900
sg64
(lp3907
S'web2py.com'
p3908
asbasbasbag57
(g73
g59
NtRp3909
(dp3910
g62
(dp3911
sg71
g3892
sg64
(lp3912
g57
(g78
g59
NtRp3913
(dp3914
g62
(dp3915
sg71
g3909
sg64
(lp3916
g57
(g58
g59
NtRp3917
(dp3918
g62
(dp3919
g70
I1
ssg71
g3913
sg64
(lp3920
I00
asbasbasbag57
(g73
g59
NtRp3921
(dp3922
g62
(dp3923
sg71
g3892
sg64
(lp3924
g57
(g78
g59
NtRp3925
(dp3926
g62
(dp3927
sg71
g3921
sg64
(lp3928
g57
(g58
g59
NtRp3929
(dp3930
g62
(dp3931
g70
I1
ssg71
g3925
sg64
(lp3932
S'http://www.web2py.com'
p3933
asbasbasbag57
(g73
g59
NtRp3934
(dp3935
g62
(dp3936
sg71
g3892
sg64
(lp3937
g57
(g78
g59
NtRp3938
(dp3939
g62
(dp3940
sg71
g3934
sg64
(lp3941
g57
(g58
g59
NtRp3942
(dp3943
g62
(dp3944
g70
I1
ssg71
g3938
sg64
(lp3945
(lp3946
(g3623
(S't\x08\x00\x00\x00Download'
tRp3947
I00
S'http://www.web2py.com/examples/default/download'
p3948
tp3949
a(g3623
(S't\x07\x00\x00\x00Support'
tRp3950
I00
S'http://www.web2py.com/examples/default/support'
p3951
tp3952
a(g3623
(S't\x04\x00\x00\x00Demo'
tRp3953
I00
S'http://web2py.com/demo_admin'
p3954
tp3955
a(g3623
(S's\x0e\x00\x00\x00Quick Examples'
tRp3956
I00
S'http://web2py.com/examples/default/examples'
p3957
tp3958
a(g3623
(S't\x03\x00\x00\x00FAQ'
tRp3959
I00
S'http://web2py.com/AlterEgo'
p3960
tp3961
a(g3623
(S't\x06\x00\x00\x00Videos'
tRp3962
I00
S'http://www.web2py.com/examples/default/videos/'
p3963
tp3964
a(g3623
(S's\x11\x00\x00\x00Free Applications'
tRp3965
I00
S'http://web2py.com/appliances'
p3966
tp3967
a(g3623
(S't\x07\x00\x00\x00Plugins'
tRp3968
I00
S'http://web2py.com/plugins'
p3969
tp3970
a(g3623
(S't\x07\x00\x00\x00Layouts'
tRp3971
I00
S'http://web2py.com/layouts'
p3972
tp3973
a(g3623
(S't\x07\x00\x00\x00Recipes'
tRp3974
I00
S'http://web2pyslices.com/'
p3975
tp3976
a(g3623
(S't\x08\x00\x00\x00Semantic'
tRp3977
I00
S'http://web2py.com/semantic'
p3978
tp3979
aasbasbasbasbasbasbasbag57
(g73
g59
NtRp3980
(dp3981
g62
(dp3982
sg71
g3737
sg64
(lp3983
g57
(g78
g59
NtRp3984
(dp3985
g62
(dp3986
sg71
g3980
sg64
(lp3987
g57
(g58
g59
NtRp3988
(dp3989
g62
(dp3990
g70
I2
ssg71
g3984
sg64
(lp3991
g57
(g66
g59
NtRp3992
(dp3993
g62
(dp3994
g70
I1
ssg71
Nsg64
(lp3995
g57
(g73
g59
NtRp3996
(dp3997
g62
(dp3998
sg71
g3992
sg64
(lp3999
g57
(g78
g59
NtRp4000
(dp4001
g62
(dp4002
sg71
g3996
sg64
(lp4003
g57
(g58
g59
NtRp4004
(dp4005
g62
(dp4006
g70
I1
ssg71
g4000
sg64
(lp4007
g3623
(S't\r\x00\x00\x00Documentation'
tRp4008
asbasbasbag57
(g73
g59
NtRp4009
(dp4010
g62
(dp4011
sg71
g3992
sg64
(lp4012
g57
(g78
g59
NtRp4013
(dp4014
g62
(dp4015
sg71
g4009
sg64
(lp4016
g57
(g58
g59
NtRp4017
(dp4018
g62
(dp4019
g70
I1
ssg71
g4013
sg64
(lp4020
I00
asbasbasbag57
(g73
g59
NtRp4021
(dp4022
g62
(dp4023
sg71
g3992
sg64
(lp4024
g57
(g78
g59
NtRp4025
(dp4026
g62
(dp4027
sg71
g4021
sg64
(lp4028
g57
(g58
g59
NtRp4029
(dp4030
g62
(dp4031
g70
I1
ssg71
g4025
sg64
(lp4032
S'http://www.web2py.com/book'
p4033
asbasbasbag57
(g73
g59
NtRp4034
(dp4035
g62
(dp4036
sg71
g3992
sg64
(lp4037
g57
(g78
g59
NtRp4038
(dp4039
g62
(dp4040
sg71
g4034
sg64
(lp4041
g57
(g58
g59
NtRp4042
(dp4043
g62
(dp4044
g70
I1
ssg71
g4038
sg64
(lp4045
(lp4046
(g3623
(S't\x07\x00\x00\x00Preface'
tRp4047
I00
S'http://www.web2py.com/book/default/chapter/00'
p4048
tp4049
a(g3623
(S't\x0c\x00\x00\x00Introduction'
tRp4050
I00
S'http://www.web2py.com/book/default/chapter/01'
p4051
tp4052
a(g3623
(S't\x06\x00\x00\x00Python'
tRp4053
I00
S'http://www.web2py.com/book/default/chapter/02'
p4054
tp4055
a(g3623
(S't\x08\x00\x00\x00Overview'
tRp4056
I00
S'http://www.web2py.com/book/default/chapter/03'
p4057
tp4058
a(g3623
(S's\x08\x00\x00\x00The Core'
tRp4059
I00
S'http://www.web2py.com/book/default/chapter/04'
p4060
tp4061
a(g3623
(S's\t\x00\x00\x00The Views'
tRp4062
I00
S'http://www.web2py.com/book/default/chapter/05'
p4063
tp4064
a(g3623
(S't\x08\x00\x00\x00Database'
tRp4065
I00
S'http://www.web2py.com/book/default/chapter/06'
p4066
tp4067
a(g3623
(S's\x14\x00\x00\x00Forms and Validators'
tRp4068
I00
S'http://www.web2py.com/book/default/chapter/07'
p4069
tp4070
a(g3623
(S's\r\x00\x00\x00Email and SMS'
tRp4071
I00
S'http://www.web2py.com/book/default/chapter/08'
p4072
tp4073
a(g3623
(S's\x0e\x00\x00\x00Access Control'
tRp4074
I00
S'http://www.web2py.com/book/default/chapter/09'
p4075
tp4076
a(g3623
(S't\x08\x00\x00\x00Services'
tRp4077
I00
S'http://www.web2py.com/book/default/chapter/10'
p4078
tp4079
a(g3623
(S's\x0c\x00\x00\x00Ajax Recipes'
tRp4080
I00
S'http://www.web2py.com/book/default/chapter/11'
p4081
tp4082
a(g3623
(S's\x16\x00\x00\x00Components and Plugins'
tRp4083
I00
S'http://www.web2py.com/book/default/chapter/12'
p4084
tp4085
a(g3623
(S's\x12\x00\x00\x00Deployment Recipes'
tRp4086
I00
S'http://www.web2py.com/book/default/chapter/13'
p4087
tp4088
a(g3623
(S's\r\x00\x00\x00Other Recipes'
tRp4089
I00
S'http://www.web2py.com/book/default/chapter/14'
p4090
tp4091
a(g3623
(S's\r\x00\x00\x00Buy this book'
tRp4092
I00
S'http://stores.lulu.com/web2py'
p4093
tp4094
aasbasbasbasbasbasbasbag57
(g73
g59
NtRp4095
(dp4096
g62
(dp4097
sg71
g3737
sg64
(lp4098
g57
(g78
g59
NtRp4099
(dp4100
g62
(dp4101
sg71
g4095
sg64
(lp4102
g57
(g58
g59
NtRp4103
(dp4104
g62
(dp4105
g70
I2
ssg71
g4099
sg64
(lp4106
g57
(g66
g59
NtRp4107
(dp4108
g62
(dp4109
g70
I1
ssg71
Nsg64
(lp4110
g57
(g73
g59
NtRp4111
(dp4112
g62
(dp4113
sg71
g4107
sg64
(lp4114
g57
(g78
g59
NtRp4115
(dp4116
g62
(dp4117
sg71
g4111
sg64
(lp4118
g57
(g58
g59
NtRp4119
(dp4120
g62
(dp4121
g70
I1
ssg71
g4115
sg64
(lp4122
g3623
(S't\t\x00\x00\x00Community'
tRp4123
asbasbasbag57
(g73
g59
NtRp4124
(dp4125
g62
(dp4126
sg71
g4107
sg64
(lp4127
g57
(g78
g59
NtRp4128
(dp4129
g62
(dp4130
sg71
g4124
sg64
(lp4131
g57
(g58
g59
NtRp4132
(dp4133
g62
(dp4134
g70
I1
ssg71
g4128
sg64
(lp4135
I00
asbasbasbag57
(g73
g59
NtRp4136
(dp4137
g62
(dp4138
sg71
g4107
sg64
(lp4139
g57
(g78
g59
NtRp4140
(dp4141
g62
(dp4142
sg71
g4136
sg64
(lp4143
g57
(g58
g59
NtRp4144
(dp4145
g62
(dp4146
g70
I1
ssg71
g4140
sg64
(lp4147
Nasbasbasbag57
(g73
g59
NtRp4148
(dp4149
g62
(dp4150
sg71
g4107
sg64
(lp4151
g57
(g78
g59
NtRp4152
(dp4153
g62
(dp4154
sg71
g4148
sg64
(lp4155
g57
(g58
g59
NtRp4156
(dp4157
g62
(dp4158
g70
I1
ssg71
g4152
sg64
(lp4159
(lp4160
(g3623
(S't\x06\x00\x00\x00Groups'
tRp4161
I00
S'http://www.web2py.com/examples/default/usergroups'
p4162
tp4163
a(g3623
(S't\x07\x00\x00\x00Twitter'
tRp4164
I00
S'http://twitter.com/web2py'
p4165
tp4166
a(g3623
(S's\t\x00\x00\x00Live Chat'
tRp4167
I00
S'http://webchat.freenode.net/?channels=web2py'
p4168
tp4169
aasbasbasbasbasbasbasbag57
(g73
g59
NtRp4170
(dp4171
g62
(dp4172
sg71
g3737
sg64
(lp4173
g57
(g78
g59
NtRp4174
(dp4175
g62
(dp4176
sg71
g4170
sg64
(lp4177
g57
(g58
g59
NtRp4178
(dp4179
g62
(dp4180
g70
I2
ssg71
g4174
sg64
(lp4181
g57
(g66
g59
NtRp4182
(dp4183
g62
(dp4184
g70
I1
ssg71
Nsg64
(lp4185
g57
(g73
g59
NtRp4186
(dp4187
g62
(dp4188
sg71
g4182
sg64
(lp4189
g57
(g78
g59
NtRp4190
(dp4191
g62
(dp4192
sg71
g4186
sg64
(lp4193
g57
(g58
g59
NtRp4194
(dp4195
g62
(dp4196
g70
I1
ssg71
g4190
sg64
(lp4197
g3623
(S't\x07\x00\x00\x00Plugins'
tRp4198
asbasbasbag57
(g73
g59
NtRp4199
(dp4200
g62
(dp4201
sg71
g4182
sg64
(lp4202
g57
(g78
g59
NtRp4203
(dp4204
g62
(dp4205
sg71
g4199
sg64
(lp4206
g57
(g58
g59
NtRp4207
(dp4208
g62
(dp4209
g70
I1
ssg71
g4203
sg64
(lp4210
I00
asbasbasbag57
(g73
g59
NtRp4211
(dp4212
g62
(dp4213
sg71
g4182
sg64
(lp4214
g57
(g78
g59
NtRp4215
(dp4216
g62
(dp4217
sg71
g4211
sg64
(lp4218
g57
(g58
g59
NtRp4219
(dp4220
g62
(dp4221
g70
I1
ssg71
g4215
sg64
(lp4222
Nasbasbasbag57
(g73
g59
NtRp4223
(dp4224
g62
(dp4225
sg71
g4182
sg64
(lp4226
g57
(g78
g59
NtRp4227
(dp4228
g62
(dp4229
sg71
g4223
sg64
(lp4230
g57
(g58
g59
NtRp4231
(dp4232
g62
(dp4233
g70
I1
ssg71
g4227
sg64
(lp4234
(lp4235
(S'plugin_wiki'
p4236
I00
S'http://web2py.com/examples/default/download'
p4237
tp4238
a(g3623
(S's\r\x00\x00\x00Other Plugins'
tRp4239
I00
g3969
tp4240
a(g3623
(S's\x0e\x00\x00\x00Layout Plugins'
tRp4241
I00
g3972
tp4242
aasbasbasbasbasbasbasbasbasbasbasbasbasbasbasbasbasbasbasbag57
(g73
g59
NtRp4243
(dp4244
g62
(dp4245
sg71
g3118
sg64
(lp4246
g57
(g78
g59
NtRp4247
(dp4248
g62
(dp4249
g82
g83
ssg71
g4243
sg64
(lp4250
S'meta'
p4251
asbag57
(g78
g59
NtRp4252
(dp4253
g62
(dp4254
g89
g90
ssg71
g4243
sg64
(lp4255
S':'
asbag57
(g78
g59
NtRp4256
(dp4257
g62
(dp4258
sg71
g4243
sg64
(lp4259
g57
(g58
g59
NtRp4260
(dp4261
g62
(dp4262
g70
I5
ssg71
g4256
sg64
(lp4263
g57
(g66
g59
NtRp4264
(dp4265
g62
(dp4266
g70
I4
ssg71
Nsg64
(lp4267
g57
(g73
g59
NtRp4268
(dp4269
g62
(dp4270
sg71
g4264
sg64
(lp4271
g57
(g78
g59
NtRp4272
(dp4273
g62
(dp4274
g82
g83
ssg71
g4268
sg64
(lp4275
S'author'
p4276
asbag57
(g78
g59
NtRp4277
(dp4278
g62
(dp4279
g89
g90
ssg71
g4268
sg64
(lp4280
S':'
asbag57
(g78
g59
NtRp4281
(dp4282
g62
(dp4283
sg71
g4268
sg64
(lp4284
g57
(g58
g59
NtRp4285
(dp4286
g62
(dp4287
g70
I4
ssg71
g4281
sg64
(lp4288
S'Your Name <you@example.com>'
p4289
asbasbasbag57
(g73
g59
NtRp4290
(dp4291
g62
(dp4292
sg71
g4264
sg64
(lp4293
g57
(g78
g59
NtRp4294
(dp4295
g62
(dp4296
g82
g83
ssg71
g4290
sg64
(lp4297
S'copyright'
p4298
asbag57
(g78
g59
NtRp4299
(dp4300
g62
(dp4301
g89
g90
ssg71
g4290
sg64
(lp4302
S':'
asbag57
(g78
g59
NtRp4303
(dp4304
g62
(dp4305
sg71
g4290
sg64
(lp4306
g57
(g58
g59
NtRp4307
(dp4308
g62
(dp4309
g70
I4
ssg71
g4303
sg64
(lp4310
S'Copyright 2011'
p4311
asbasbasbag57
(g73
g59
NtRp4312
(dp4313
g62
(dp4314
sg71
g4264
sg64
(lp4315
g57
(g78
g59
NtRp4316
(dp4317
g62
(dp4318
g82
g83
ssg71
g4312
sg64
(lp4319
S'description'
p4320
asbag57
(g78
g59
NtRp4321
(dp4322
g62
(dp4323
g89
g90
ssg71
g4312
sg64
(lp4324
S':'
asbag57
(g78
g59
NtRp4325
(dp4326
g62
(dp4327
sg71
g4312
sg64
(lp4328
g57
(g58
g59
NtRp4329
(dp4330
g62
(dp4331
g70
I4
ssg71
g4325
sg64
(lp4332
S'a cool new app'
p4333
asbasbasbag57
(g73
g59
NtRp4334
(dp4335
g62
(dp4336
sg71
g4264
sg64
(lp4337
g57
(g78
g59
NtRp4338
(dp4339
g62
(dp4340
g82
g83
ssg71
g4334
sg64
(lp4341
S'generator'
p4342
asbag57
(g78
g59
NtRp4343
(dp4344
g62
(dp4345
g89
g90
ssg71
g4334
sg64
(lp4346
S':'
asbag57
(g78
g59
NtRp4347
(dp4348
g62
(dp4349
sg71
g4334
sg64
(lp4350
g57
(g58
g59
NtRp4351
(dp4352
g62
(dp4353
g70
I4
ssg71
g4347
sg64
(lp4354
S'Web2py Web Framework'
p4355
asbasbasbag57
(g73
g59
NtRp4356
(dp4357
g62
(dp4358
sg71
g4264
sg64
(lp4359
g57
(g78
g59
NtRp4360
(dp4361
g62
(dp4362
g82
g83
ssg71
g4356
sg64
(lp4363
S'keywords'
p4364
asbag57
(g78
g59
NtRp4365
(dp4366
g62
(dp4367
g89
g90
ssg71
g4356
sg64
(lp4368
S':'
asbag57
(g78
g59
NtRp4369
(dp4370
g62
(dp4371
sg71
g4356
sg64
(lp4372
g57
(g58
g59
NtRp4373
(dp4374
g62
(dp4375
g70
I4
ssg71
g4369
sg64
(lp4376
S'web2py, python, framework'
p4377
asbasbasbasbasbasbasbag57
(g73
g59
NtRp4378
(dp4379
g62
(dp4380
sg71
g3118
sg64
(lp4381
g57
(g78
g59
NtRp4382
(dp4383
g62
(dp4384
g82
g83
ssg71
g4378
sg64
(lp4385
S'postprocessing'
p4386
asbag57
(g78
g59
NtRp4387
(dp4388
g62
(dp4389
g89
g90
ssg71
g4378
sg64
(lp4390
S':'
asbag57
(g78
g59
NtRp4391
(dp4392
g62
(dp4393
sg71
g4378
sg64
(lp4394
g57
(g58
g59
NtRp4395
(dp4396
g62
(dp4397
g70
I5
ssg71
g4391
sg64
(lp4398
g57
(g66
g59
NtRp4399
(dp4400
g62
(dp4401
g70
I4
ssg71
Nsg64
(lp4402
sbasbasbasbag57
(g73
g59
NtRp4403
(dp4404
g62
(dp4405
sg71
g3118
sg64
(lp4406
g57
(g78
g59
NtRp4407
(dp4408
g62
(dp4409
g82
g83
ssg71
g4403
sg64
(lp4410
S'session_file'
p4411
asbag57
(g78
g59
NtRp4412
(dp4413
g62
(dp4414
g89
g90
ssg71
g4403
sg64
(lp4415
S':'
asbag57
(g78
g59
NtRp4416
(dp4417
g62
(dp4418
sg71
g4403
sg64
(lp4419
g57
(g58
g59
NtRp4420
(dp4421
g62
(dp4422
g70
I5
ssg71
g4416
sg64
(lp4423
S"<open file '/home/jigar/web2py/applications/app1/sessions/127.0.0.1-15782adb-a404-4b3e-868f-e60d89b9be1b', mode 'rb+' at 0x1932930>"
p4424
asbasbasbag57
(g73
g59
NtRp4425
(dp4426
g62
(dp4427
sg71
g3118
sg64
(lp4428
g57
(g78
g59
NtRp4429
(dp4430
g62
(dp4431
g82
g83
ssg71
g4425
sg64
(lp4432
S'session_filename'
p4433
asbag57
(g78
g59
NtRp4434
(dp4435
g62
(dp4436
g89
g90
ssg71
g4425
sg64
(lp4437
S':'
asbag57
(g78
g59
NtRp4438
(dp4439
g62
(dp4440
sg71
g4425
sg64
(lp4441
g57
(g58
g59
NtRp4442
(dp4443
g62
(dp4444
g70
I5
ssg71
g4438
sg64
(lp4445
S'/home/jigar/web2py/applications/app1/sessions/127.0.0.1-15782adb-a404-4b3e-868f-e60d89b9be1b'
p4446
asbasbasbag57
(g73
g59
NtRp4447
(dp4448
g62
(dp4449
sg71
g3118
sg64
(lp4450
g57
(g78
g59
NtRp4451
(dp4452
g62
(dp4453
g82
g83
ssg71
g4447
sg64
(lp4454
S'session_id'
p4455
asbag57
(g78
g59
NtRp4456
(dp4457
g62
(dp4458
g89
g90
ssg71
g4447
sg64
(lp4459
S':'
asbag57
(g78
g59
NtRp4460
(dp4461
g62
(dp4462
sg71
g4447
sg64
(lp4463
g57
(g58
g59
NtRp4464
(dp4465
g62
(dp4466
g70
I5
ssg71
g4460
sg64
(lp4467
S'127.0.0.1-15782adb-a404-4b3e-868f-e60d89b9be1b'
p4468
asbasbasbag57
(g73
g59
NtRp4469
(dp4470
g62
(dp4471
sg71
g3118
sg64
(lp4472
g57
(g78
g59
NtRp4473
(dp4474
g62
(dp4475
g82
g83
ssg71
g4469
sg64
(lp4476
S'session_id_name'
p4477
asbag57
(g78
g59
NtRp4478
(dp4479
g62
(dp4480
g89
g90
ssg71
g4469
sg64
(lp4481
S':'
asbag57
(g78
g59
NtRp4482
(dp4483
g62
(dp4484
sg71
g4469
sg64
(lp4485
g57
(g58
g59
NtRp4486
(dp4487
g62
(dp4488
g70
I5
ssg71
g4482
sg64
(lp4489
g3175
asbasbasbag57
(g73
g59
NtRp4490
(dp4491
g62
(dp4492
sg71
g3118
sg64
(lp4493
g57
(g78
g59
NtRp4494
(dp4495
g62
(dp4496
g82
g83
ssg71
g4490
sg64
(lp4497
S'session_locked'
p4498
asbag57
(g78
g59
NtRp4499
(dp4500
g62
(dp4501
g89
g90
ssg71
g4490
sg64
(lp4502
S':'
asbag57
(g78
g59
NtRp4503
(dp4504
g62
(dp4505
sg71
g4490
sg64
(lp4506
g57
(g58
g59
NtRp4507
(dp4508
g62
(dp4509
g70
I5
ssg71
g4503
sg64
(lp4510
g1695
asbasbasbag57
(g73
g59
NtRp4511
(dp4512
g62
(dp4513
sg71
g3118
sg64
(lp4514
g57
(g78
g59
NtRp4515
(dp4516
g62
(dp4517
g82
g83
ssg71
g4511
sg64
(lp4518
S'session_new'
p4519
asbag57
(g78
g59
NtRp4520
(dp4521
g62
(dp4522
g89
g90
ssg71
g4511
sg64
(lp4523
S':'
asbag57
(g78
g59
NtRp4524
(dp4525
g62
(dp4526
sg71
g4511
sg64
(lp4527
g57
(g58
g59
NtRp4528
(dp4529
g62
(dp4530
g70
I5
ssg71
g4524
sg64
(lp4531
g100
asbasbasbag57
(g73
g59
NtRp4532
(dp4533
g62
(dp4534
sg71
g3118
sg64
(lp4535
g57
(g78
g59
NtRp4536
(dp4537
g62
(dp4538
g82
g83
ssg71
g4532
sg64
(lp4539
S'status'
p4540
asbag57
(g78
g59
NtRp4541
(dp4542
g62
(dp4543
g89
g90
ssg71
g4532
sg64
(lp4544
S':'
asbag57
(g78
g59
NtRp4545
(dp4546
g62
(dp4547
sg71
g4532
sg64
(lp4548
g57
(g58
g59
NtRp4549
(dp4550
g62
(dp4551
g70
I5
ssg71
g4545
sg64
(lp4552
S'200'
p4553
asbasbasbag57
(g73
g59
NtRp4554
(dp4555
g62
(dp4556
sg71
g3118
sg64
(lp4557
g57
(g78
g59
NtRp4558
(dp4559
g62
(dp4560
g82
g83
ssg71
g4554
sg64
(lp4561
S'subtitle'
p4562
asbag57
(g78
g59
NtRp4563
(dp4564
g62
(dp4565
g89
g90
ssg71
g4554
sg64
(lp4566
S':'
asbag57
(g78
g59
NtRp4567
(dp4568
g62
(dp4569
sg71
g4554
sg64
(lp4570
g57
(g58
g59
NtRp4571
(dp4572
g62
(dp4573
g70
I5
ssg71
g4567
sg64
(lp4574
g3623
(S's\r\x00\x00\x00customize me!'
tRp4575
asbasbasbag57
(g73
g59
NtRp4576
(dp4577
g62
(dp4578
sg71
g3118
sg64
(lp4579
g57
(g78
g59
NtRp4580
(dp4581
g62
(dp4582
g82
g83
ssg71
g4576
sg64
(lp4583
S'title'
p4584
asbag57
(g78
g59
NtRp4585
(dp4586
g62
(dp4587
g89
g90
ssg71
g4576
sg64
(lp4588
S':'
asbag57
(g78
g59
NtRp4589
(dp4590
g62
(dp4591
sg71
g4576
sg64
(lp4592
g57
(g58
g59
NtRp4593
(dp4594
g62
(dp4595
g70
I5
ssg71
g4589
sg64
(lp4596
S'App1'
p4597
asbasbasbag57
(g73
g59
NtRp4598
(dp4599
g62
(dp4600
sg71
g3118
sg64
(lp4601
g57
(g78
g59
NtRp4602
(dp4603
g62
(dp4604
g82
g83
ssg71
g4598
sg64
(lp4605
g2381
asbag57
(g78
g59
NtRp4606
(dp4607
g62
(dp4608
g89
g90
ssg71
g4598
sg64
(lp4609
S':'
asbag57
(g78
g59
NtRp4610
(dp4611
g62
(dp4612
sg71
g4598
sg64
(lp4613
g57
(g58
g59
NtRp4614
(dp4615
g62
(dp4616
g70
I5
ssg71
g4610
sg64
(lp4617
g2394
asbasbasbag57
(g73
g59
NtRp4618
(dp4619
g62
(dp4620
sg71
g3118
sg64
(lp4621
g57
(g78
g59
NtRp4622
(dp4623
g62
(dp4624
g82
g83
ssg71
g4618
sg64
(lp4625
S'view'
p4626
asbag57
(g78
g59
NtRp4627
(dp4628
g62
(dp4629
g89
g90
ssg71
g4618
sg64
(lp4630
S':'
asbag57
(g78
g59
NtRp4631
(dp4632
g62
(dp4633
sg71
g4618
sg64
(lp4634
g57
(g58
g59
NtRp4635
(dp4636
g62
(dp4637
g70
I5
ssg71
g4631
sg64
(lp4638
S'default/lall.html'
p4639
asbasbasbasbasbsS'locals'
p4640
(dp4641
S'y'
S'<gluon.dal.Rows object>'
p4642
sS'p'
S"'0'"
p4643
sS'r'
S"'0'"
p4644
sS'x'
S'<gluon.dal.Rows object>'
p4645
sssS'traceback'
p4646
S'Traceback (most recent call last):\n  File "/usr/lib/pymodules/python2.7/gluon/restricted.py", line 204, in restricted\n    exec ccode in environment\n  File "/home/jigar/web2py/applications/app1/controllers/default.py", line 103, in <module>\n  File "/usr/lib/pymodules/python2.7/gluon/globals.py", line 172, in <lambda>\n    self._caller = lambda f: f()\n  File "/home/jigar/web2py/applications/app1/controllers/default.py", line 77, in lall\n    print ri\nNameError: global name \'ri\' is not defined\n'
p4647
s.