(dp1
S'output'
p2
S"<type 'exceptions.NameError'> name 'ca' is not defined"
p3
sS'layer'
p4
S'/home/jigar/web2py/applications/app1/views/default/listcat.html'
p5
sS'code'
p6
S'response.write(\'<!DOCTYPE html>\\n<!-- paulirish.com/2008/conditional-stylesheets-vs-css-hacks-answer-neither/ -->\\n<!--[if lt IE 7]><html class="ie ie6 ie-lte9 ie-lte8 ie-lte7 no-js" lang="\', escape=False)\nresponse.write(T.accepted_language or \'en\')\nresponse.write(\'"> <![endif]-->\\n<!--[if IE 7]><html class="ie ie7 ie-lte9 ie-lte8 ie-lte7 no-js" lang="\', escape=False)\nresponse.write(T.accepted_language or \'en\')\nresponse.write(\'"> <![endif]-->\\n<!--[if IE 8]><html class="ie ie8 ie-lte9 ie-lte8 no-js" lang="\', escape=False)\nresponse.write(T.accepted_language or \'en\')\nresponse.write(\'"> <![endif]-->\\n<!--[if IE 9]><html class="ie9 ie-lte9 no-js" lang="\', escape=False)\nresponse.write(T.accepted_language or \'en\')\nresponse.write(\'"> <![endif]-->\\n<!--[if (gt IE 9)|!(IE)]><!--> <html class="no-js" lang="\', escape=False)\nresponse.write(T.accepted_language or \'en\')\nresponse.write(\'"> <!--<![endif]-->\\n<head>\\n  <meta charset="utf-8" />\\n  <!-- www.phpied.com/conditional-comments-block-downloads/ -->\\n  <!-- Always force latest IE rendering engine\\n\\t   (even in intranet) & Chrome Frame\\n\\t   Remove this if you use the .htaccess -->\\n  <!--[if IE]>\\n    <meta http-equiv="X-UA-Compatible" content="IE=edge\', escape=False)\nresponse.write(not request.is_local and \',chrome=1\' or \'\')\nresponse.write(\'">\\n  <![endif]-->\\n  \\n  <title>\', escape=False)\nresponse.write(response.title or request.application)\nresponse.write(\'</title>\\n  \\n  <!-- http://dev.w3.org/html5/markup/meta.name.html -->\\n  <meta name="application-name" content="\', escape=False)\nresponse.write(request.application)\nresponse.write(\'" />\\n  \\n  <!-- Speaking of Google, don\\\'t forget to set your site up:\\n\\t   http://google.com/webmasters -->\\n  <meta name="google-site-verification" content="" />\\n\\n  <!--  Mobile Viewport Fix\\n\\t  j.mp/mobileviewport & davidbcalhoun.com/2010/viewport-metatag\\n\\t  device-width: Occupy full width of the screen in its current orientation\\n\\t  initial-scale = 1.0 retains dimensions instead of zooming out if page height > device height\\n\\t  user-scalable = yes allows the user to zoom in -->\\n  <meta name="viewport" content="width=device-width, initial-scale=1.0, user-scalable=yes">\\n  \\n  <!-- Place favicon.ico and apple-touch-icon.png in the root of your domain and delete these references -->\\n  <link rel="shortcut icon" href="\', escape=False)\nresponse.write(URL(\'static\',\'favicon.ico\'))\nresponse.write(\'" type="image/x-icon">\\n  <link rel="apple-touch-icon" href="\', escape=False)\nresponse.write(URL(\'static\',\'favicon.png\'))\nresponse.write(\'">\\n\\n  <!-- All JavaScript at the bottom, except for Modernizr which enables \\n\\t   HTML5 elements & feature detects -->\\n  <script src="\', escape=False)\nresponse.write(URL(\'static\',\'js/modernizr.custom.js\'))\nresponse.write(\'"></script>  \\n\\n  <!-- include stylesheets -->\\n  \', escape=False)\nresponse.files.append(URL(\'static\',\'css/skeleton.css\'))\nresponse.files.append(URL(\'static\',\'css/web2py.css\'))\nresponse.files.append(URL(\'static\',\'css/superfish.css\'))\nresponse.files.append(URL(\'static\',\'js/superfish.js\'))\nresponse.write(\'\\n\\n  \', escape=False)\nresponse.write(\'<script type="text/javascript"><!--\\n    // These variables are used by the web2py_ajax_init function in web2py_ajax.js (which is loaded below).\\n    var w2p_ajax_confirm_message = "\', escape=False)\nresponse.write(T(\'Are you sure you want to delete this object?\'))\nresponse.write(\'";\\n    var w2p_ajax_date_format = "\', escape=False)\nresponse.write(T(\'%Y-%m-%d\'))\nresponse.write(\'";\\n    var w2p_ajax_datetime_format = "\', escape=False)\nresponse.write(T(\'%Y-%m-%d %H:%M:%S\'))\nresponse.write(\'";\\n    //--></script>\\n\', escape=False)\nresponse.files.insert(0,URL(\'static\',\'js/jquery.js\'))\nresponse.files.insert(1,URL(\'static\',\'css/calendar.css\'))\nresponse.files.insert(2,URL(\'static\',\'js/calendar.js\'))\nresponse.files.insert(3,URL(\'static\',\'js/web2py.js\'))\nresponse.include_meta()\nresponse.include_files()\nresponse.write(\'\\n\', escape=False)\nresponse.write(\'\\n\\n  <script type="text/javascript">\\n    jQuery(function(){ jQuery(\\\'ul.sf-menu\\\').supersubs({minWidth:12,maxWidth:30,extraWidth:3}).superfish(); });\\n  </script>\\n\\n  \', escape=False)\n# using sidebars need to know what sidebar you want to use\nleft_sidebar_enabled = globals().get(\'left_sidebar_enabled\',False)\nright_sidebar_enabled = globals().get(\'right_sidebar_enabled\',False)\nmiddle_columns = {0:\'sixteen\',1:\'twelve\',2:\'eight\'}[\n(left_sidebar_enabled and 1 or 0)+(right_sidebar_enabled and 1 or 0)]\nresponse.write(\'\\n\\n  <!-- uncomment here to load jquery-ui\\n  <link rel="stylesheet" href="http://ajax.googleapis.com/ajax/libs/jqueryui/1.8.16/themes/base/jquery-ui.css" type="text/css" media="all" />\\n  <script src="http://ajax.googleapis.com/ajax/libs/jqueryui/1.8.16/jquery-ui.min.js" type="text/javascript"></script>\\n  uncomment to load jquery-ui //-->\\n</head>\\n<body>\\n  <div class="wrapper"><!-- for sticky footer -->\\n  \\n    <div class="topbar">\\n      <div class="container">    \\n        <div class="sixteen columns">\\n          <div id="navbar">\', escape=False)\nresponse.write(\'auth\' in globals() and auth.navbar(separators=(\' \',\' | \',\'\')))\nresponse.write(\'</div>\\n          \', escape=False)\nis_mobile=request.user_agent().is_mobile\nresponse.write(\'\\n          <div id="menu">\', escape=False)\nresponse.write(MENU(response.menu, _class=\'mobile-menu\' if is_mobile else \'sf-menu\',mobile=is_mobile))\nresponse.write(\'\\n          </div>\\n        </div>\\n      </div>\\n    </div><!-- topbar -->\\n    \\n    <div class="flash">\', escape=False)\nresponse.write(response.flash or \'\')\nresponse.write(\'</div>\\n    \\n    <div class="header">\\n      <div class="container">         \\n        <div class="sixteen columns">\\n          <h1 class="remove-bottom" style="margin-top: .5em;">\\n          \', escape=False)\nresponse.write(response.title or request.application)\nresponse.write(\'\\n          </h1>\\n          <h5>\', escape=False)\nresponse.write(response.subtitle or \'\')\nresponse.write(\'</h5>\\n        </div>\\n        <div class="sixteen columns">\\n          <div class="statusbar clearfix">\\n            \', escape=False)\nresponse.write(\'\\n            <div class="breadcrumbs">\', escape=False)\nresponse.write(request.function.replace(\'_\', \' \').title())\nresponse.write(\'</div>\\n            \', escape=False)\nresponse.write(\'\\n            <!-- AddToAny BEGIN -->\\n            <div style="float:right; padding-top: .25em;" class="a2a_kit a2a_default_style">\\n            <a class="a2a_dd" href="http://www.addtoany.com/share_save">Share</a></div>\\n            <script type="text/javascript" src="http://static.addtoany.com/menu/page.js"></script>\\n            <!-- AddToAny END -->\\n          </div>\\n        </div>\\n      </div>\\n    </div>\\n\\n    <div class="main">\\n      <div class="container">                 \\n        \', escape=False)\nif left_sidebar_enabled:\n    response.write(\'\\n        <div class="four columns left-sidebar">\\n          \', escape=False)\n    response.write(\'\\n          <h3>Left Sidebar</h3>\\n          <p></p>\\n          \', escape=False)\n    response.write(\'\\n        </div>\\n        \', escape=False)\n    pass\nresponse.write(\'\\n        \\n        <div class="\', escape=False)\nresponse.write(middle_columns)\nresponse.write(\' columns center">\\n          \', escape=False)\nresponse.write(\'\\n          \', escape=False)\nresponse.write(\'\\n<table>\\n<tr>\\n<th>CATEGORIES :</th>\\n\', escape=False)\nfor j in range(len(ca)):\n    response.write("\\n<td><a href=\'listcat/", escape=False)\n    response.write(ca[j][\'id\'])\n    response.write("\'>", escape=False)\n    response.write(ca[j][\'Name\'])\n    response.write(\'</a></td>\\n\', escape=False)\n    pass\nresponse.write("\\n</tr>\\n</table>\\n<font size=\'16\'><b>CATEGORY : ", escape=False)\nresponse.write(x[0][\'Category\'])\nresponse.write(\'</b></font>\\n\', escape=False)\ni=(len(x)-1)\nresponse.write(\'\\n\', escape=False)\nwhile (i>=0):\n    response.write("\\n<a href=\'l/", escape=False)\n    response.write(x[i][\'id\'])\n    response.write(\'/5\\\'>\\n<img src="http://chrisblattman.com/files/2011/07/facebook_like_button_big1.jpg" height=5% width=10% style="float:right"></a>\\n<a href=\\\'l/\', escape=False)\n    response.write(x[i][\'id\'])\n    response.write(\'/-3\\\'>\\n<img src="http://alexcalic.files.wordpress.com/2011/06/facebook-dislike-button.png" height=5% width=10% style="float:right"></a>\\n<font size=\\\'14\\\'><a href=\\\'\', escape=False)\n    response.write(x[i][\'URL\'])\n    response.write("\'>", escape=False)\n    response.write(x[i][\'Heading\'])\n    response.write("</a></font>\\n<p style=\'text-align:right\'><i>Uploaded by:- ", escape=False)\n    response.write(y[i][\'first_name\'])\n    response.write(\' at \', escape=False)\n    response.write(x[i][\'Time\'])\n    response.write("</i></p>\\n<table>\\n<tr>\\n<td><a href=\'addcomment/", escape=False)\n    response.write(x[i][\'id\'])\n    response.write("\'>Add Comments</a></td>\\n<td><a href=\'showcomments/", escape=False)\n    response.write(x[i][\'id\'])\n    response.write("\'>See the previous comments</a></td>\\n<ul>\\n<li><a href=\'deletepost/", escape=False)\n    response.write(x[i][\'id\'])\n    response.write("/lall\'>Delete This Post</li></a>\\n<li><a href=\'updatepost/", escape=False)\n    response.write(x[i][\'id\'])\n    response.write("/lall\'>Update This Post</li></a>\\n</ul>\\n<hr>\\n", escape=False)\n    i=i-1\n    response.write(\'\\n\', escape=False)\n    pass\nresponse.write(\'\\n\', escape=False)\nresponse.write(\'\\n          \', escape=False)\nresponse.write(\'\\n        </div>\\n        \\n        \', escape=False)\nif right_sidebar_enabled:\n    response.write(\'\\n        <div class="four columns">\\n          \', escape=False)\n    response.write(\'\\n          <h3>Right Sidebar</h3>\\n          <p></p>\\n          \', escape=False)\n    response.write(\'\\n        </div>    \\n        \', escape=False)\n    pass\nresponse.write(\'\\n        \\n      </div><!-- container -->\\n    </div><!-- main -->\\n    \\n    <div class="push"></div>\\n  </div><!-- wrapper -->\\n\\n  <div class="footer">\\n    <div class="container">    \\n      <div class="sixteen columns">\\n        \', escape=False)\nresponse.write(\' <!-- this is default footer -->\\n        <div class="footer-content clearfix">\\n          <div class="copyright">\', escape=False)\nresponse.write(T(\'Copyright\'))\nresponse.write(\' &#169; 2011</div>\\n          <div style="float: right;">\\n            <a href="http://www.web2py.com/">\\n            <img style="padding-bottom: 0;" src="\', escape=False)\nresponse.write(URL(\'static\',\'images/poweredby.png\'))\nresponse.write(\'"/>\\n            </a>\\n          </div>\\n        </div>\\n        \', escape=False)\nresponse.write(\'\\t\\n      </div>\\n    </div><!-- container -->\\n  </div><!-- footer -->\\n  \\n  <!--[if lt IE 7 ]>\\n\\t<script src="\', escape=False)\nresponse.write(URL(\'static\',\'js/dd_belatedpng.js\'))\nresponse.write(\'"></script>\\n\\t<script> DD_belatedPNG.fix(\\\'img, .png_bg\\\'); //fix any <img> or .png_bg background-images </script>\\n\\t<![endif]-->\\n  \', escape=False)\nif response.google_analytics_id:\n    response.write(\'<script type="text/javascript"> var _gaq = _gaq || []; _gaq.push([\\\'_setAccount\\\', \\\'\', escape=False)\n    response.write(response.google_analytics_id)\n    response.write("\']); _gaq.push([\'_trackPageview\']); (function() { var ga = document.createElement(\'script\'); ga.type = \'text/javascript\'; ga.async = true; ga.src = (\'https:\' == document.location.protocol ? \'https://ssl\' : \'http://www\') + \'.google-analytics.com/ga.js\'; var s = document.getElementsByTagName(\'script\')[0]; s.parentNode.insertBefore(ga, s); })(); </script> ", escape=False)\n    pass\nresponse.write(\'\\n</body>\\n</html>\\n\', escape=False)'
p7
sS'snapshot'
p8
(dp9
S'exception'
p10
(dp11
S'__hash__'
p12
S"<method-wrapper '__hash__' of exceptions.NameError object>"
p13
sS'__setattr__'
p14
S"<method-wrapper '__setattr__' of exceptions.NameError object>"
p15
sS'__reduce_ex__'
p16
S'<built-in method __reduce_ex__ of exceptions.NameError object>'
p17
sS'__getslice__'
p18
S"<method-wrapper '__getslice__' of exceptions.NameError object>"
p19
sS'__getitem__'
p20
S"<method-wrapper '__getitem__' of exceptions.NameError object>"
p21
sS'__setstate__'
p22
S'<built-in method __setstate__ of exceptions.NameError object>'
p23
sS'args'
p24
S'("name \'ca\' is not defined",)'
p25
sS'__reduce__'
p26
S'<built-in method __reduce__ of exceptions.NameError object>'
p27
sS'__str__'
p28
S"<method-wrapper '__str__' of exceptions.NameError object>"
p29
sS'__format__'
p30
S'<built-in method __format__ of exceptions.NameError object>'
p31
sS'__getattribute__'
p32
S"<method-wrapper '__getattribute__' of exceptions.NameError object>"
p33
sS'__class__'
p34
S"<type 'exceptions.NameError'>"
p35
sS'__unicode__'
p36
S'<built-in method __unicode__ of exceptions.NameError object>'
p37
sS'__delattr__'
p38
S"<method-wrapper '__delattr__' of exceptions.NameError object>"
p39
sS'__subclasshook__'
p40
S'<built-in method __subclasshook__ of type object>'
p41
sS'__repr__'
p42
S"<method-wrapper '__repr__' of exceptions.NameError object>"
p43
sS'__dict__'
p44
S'{}'
p45
sS'__sizeof__'
p46
S'<built-in method __sizeof__ of exceptions.NameError object>'
p47
sS'__doc__'
p48
S"'Name not found globally.'"
p49
sS'__init__'
p50
S"<method-wrapper '__init__' of exceptions.NameError object>"
p51
sS'__new__'
p52
S'<built-in method __new__ of type object>'
p53
ssS'evalue'
p54
S"name 'ca' is not defined"
p55
sS'request'
p56
ccopy_reg
_reconstructor
p57
(cgluon.html
BEAUTIFY
p58
c__builtin__
object
p59
NtRp60
(dp61
S'attributes'
p62
(dp63
sS'components'
p64
(lp65
g57
(cgluon.html
TABLE
p66
g59
NtRp67
(dp68
g62
(dp69
S'level'
p70
I5
ssS'parent'
p71
Nsg64
(lp72
g57
(cgluon.html
TR
p73
g59
NtRp74
(dp75
g62
(dp76
sg71
g67
sg64
(lp77
g57
(cgluon.html
TD
p78
g59
NtRp79
(dp80
g62
(dp81
S'_style'
p82
S'font-weight:bold;vertical-align:top'
p83
ssg71
g74
sg64
(lp84
S'ajax'
p85
asbag57
(g78
g59
NtRp86
(dp87
g62
(dp88
S'_valign'
p89
S'top'
p90
ssg71
g74
sg64
(lp91
S':'
asbag57
(g78
g59
NtRp92
(dp93
g62
(dp94
sg71
g74
sg64
(lp95
g57
(g58
g59
NtRp96
(dp97
g62
(dp98
g70
I5
ssg71
g92
sg64
(lp99
S'False'
p100
asbasbasbag57
(g73
g59
NtRp101
(dp102
g62
(dp103
sg71
g67
sg64
(lp104
g57
(g78
g59
NtRp105
(dp106
g62
(dp107
g82
g83
ssg71
g101
sg64
(lp108
S'application'
p109
asbag57
(g78
g59
NtRp110
(dp111
g62
(dp112
g89
g90
ssg71
g101
sg64
(lp113
S':'
asbag57
(g78
g59
NtRp114
(dp115
g62
(dp116
sg71
g101
sg64
(lp117
g57
(g58
g59
NtRp118
(dp119
g62
(dp120
g70
I5
ssg71
g114
sg64
(lp121
S'app1'
p122
asbasbasbag57
(g73
g59
NtRp123
(dp124
g62
(dp125
sg71
g67
sg64
(lp126
g57
(g78
g59
NtRp127
(dp128
g62
(dp129
g82
g83
ssg71
g123
sg64
(lp130
g24
asbag57
(g78
g59
NtRp131
(dp132
g62
(dp133
g89
g90
ssg71
g123
sg64
(lp134
S':'
asbag57
(g78
g59
NtRp135
(dp136
g62
(dp137
sg71
g123
sg64
(lp138
g57
(g58
g59
NtRp139
(dp140
g62
(dp141
g70
I5
ssg71
g135
sg64
(lp142
g57
(g66
g59
NtRp143
(dp144
g62
(dp145
g70
I4
ssg71
Nsg64
(lp146
g57
(g73
g59
NtRp147
(dp148
g62
(dp149
sg71
g143
sg64
(lp150
g57
(g78
g59
NtRp151
(dp152
g62
(dp153
sg71
g147
sg64
(lp154
g57
(g58
g59
NtRp155
(dp156
g62
(dp157
g70
I4
ssg71
g151
sg64
(lp158
S'2'
asbasbasbasbasbasbasbag57
(g73
g59
NtRp159
(dp160
g62
(dp161
sg71
g67
sg64
(lp162
g57
(g78
g59
NtRp163
(dp164
g62
(dp165
g82
g83
ssg71
g159
sg64
(lp166
S'body'
p167
asbag57
(g78
g59
NtRp168
(dp169
g62
(dp170
g89
g90
ssg71
g159
sg64
(lp171
S':'
asbag57
(g78
g59
NtRp172
(dp173
g62
(dp174
sg71
g159
sg64
(lp175
g57
(g58
g59
NtRp176
(dp177
g62
(dp178
g70
I5
ssg71
g172
sg64
(lp179
S'<cStringIO.StringO object at 0x7fb44c5ab068>'
p180
asbasbasbag57
(g73
g59
NtRp181
(dp182
g62
(dp183
sg71
g67
sg64
(lp184
g57
(g78
g59
NtRp185
(dp186
g62
(dp187
g82
g83
ssg71
g181
sg64
(lp188
S'client'
p189
asbag57
(g78
g59
NtRp190
(dp191
g62
(dp192
g89
g90
ssg71
g181
sg64
(lp193
S':'
asbag57
(g78
g59
NtRp194
(dp195
g62
(dp196
sg71
g181
sg64
(lp197
g57
(g58
g59
NtRp198
(dp199
g62
(dp200
g70
I5
ssg71
g194
sg64
(lp201
S'127.0.0.1'
p202
asbasbasbag57
(g73
g59
NtRp203
(dp204
g62
(dp205
sg71
g67
sg64
(lp206
g57
(g78
g59
NtRp207
(dp208
g62
(dp209
g82
g83
ssg71
g203
sg64
(lp210
S'controller'
p211
asbag57
(g78
g59
NtRp212
(dp213
g62
(dp214
g89
g90
ssg71
g203
sg64
(lp215
S':'
asbag57
(g78
g59
NtRp216
(dp217
g62
(dp218
sg71
g203
sg64
(lp219
g57
(g58
g59
NtRp220
(dp221
g62
(dp222
g70
I5
ssg71
g216
sg64
(lp223
S'default'
p224
asbasbasbag57
(g73
g59
NtRp225
(dp226
g62
(dp227
sg71
g67
sg64
(lp228
g57
(g78
g59
NtRp229
(dp230
g62
(dp231
g82
g83
ssg71
g225
sg64
(lp232
S'cookies'
p233
asbag57
(g78
g59
NtRp234
(dp235
g62
(dp236
g89
g90
ssg71
g225
sg64
(lp237
S':'
asbag57
(g78
g59
NtRp238
(dp239
g62
(dp240
sg71
g225
sg64
(lp241
g57
(g58
g59
NtRp242
(dp243
g62
(dp244
g70
I5
ssg71
g238
sg64
(lp245
g57
(g66
g59
NtRp246
(dp247
g62
(dp248
g70
I4
ssg71
Nsg64
(lp249
g57
(g73
g59
NtRp250
(dp251
g62
(dp252
sg71
g246
sg64
(lp253
g57
(g78
g59
NtRp254
(dp255
g62
(dp256
g82
g83
ssg71
g250
sg64
(lp257
S'session_id_admin'
p258
asbag57
(g78
g59
NtRp259
(dp260
g62
(dp261
g89
g90
ssg71
g250
sg64
(lp262
S':'
asbag57
(g78
g59
NtRp263
(dp264
g62
(dp265
sg71
g250
sg64
(lp266
g57
(g58
g59
NtRp267
(dp268
g62
(dp269
g70
I4
ssg71
g263
sg64
(lp270
g57
(g66
g59
NtRp271
(dp272
g62
(dp273
g70
I3
ssg71
Nsg64
(lp274
g57
(g73
g59
NtRp275
(dp276
g62
(dp277
sg71
g271
sg64
(lp278
g57
(g78
g59
NtRp279
(dp280
g62
(dp281
g82
g83
ssg71
g275
sg64
(lp282
S'comment'
p283
asbag57
(g78
g59
NtRp284
(dp285
g62
(dp286
g89
g90
ssg71
g275
sg64
(lp287
S':'
asbag57
(g78
g59
NtRp288
(dp289
g62
(dp290
sg71
g275
sg64
(lp291
g57
(g58
g59
NtRp292
(dp293
g62
(dp294
g70
I3
ssg71
g288
sg64
(lp295
S''
asbasbasbag57
(g73
g59
NtRp296
(dp297
g62
(dp298
sg71
g271
sg64
(lp299
g57
(g78
g59
NtRp300
(dp301
g62
(dp302
g82
g83
ssg71
g296
sg64
(lp303
S'domain'
p304
asbag57
(g78
g59
NtRp305
(dp306
g62
(dp307
g89
g90
ssg71
g296
sg64
(lp308
S':'
asbag57
(g78
g59
NtRp309
(dp310
g62
(dp311
sg71
g296
sg64
(lp312
g57
(g58
g59
NtRp313
(dp314
g62
(dp315
g70
I3
ssg71
g309
sg64
(lp316
S''
asbasbasbag57
(g73
g59
NtRp317
(dp318
g62
(dp319
sg71
g271
sg64
(lp320
g57
(g78
g59
NtRp321
(dp322
g62
(dp323
g82
g83
ssg71
g317
sg64
(lp324
S'expires'
p325
asbag57
(g78
g59
NtRp326
(dp327
g62
(dp328
g89
g90
ssg71
g317
sg64
(lp329
S':'
asbag57
(g78
g59
NtRp330
(dp331
g62
(dp332
sg71
g317
sg64
(lp333
g57
(g58
g59
NtRp334
(dp335
g62
(dp336
g70
I3
ssg71
g330
sg64
(lp337
S''
asbasbasbag57
(g73
g59
NtRp338
(dp339
g62
(dp340
sg71
g271
sg64
(lp341
g57
(g78
g59
NtRp342
(dp343
g62
(dp344
g82
g83
ssg71
g338
sg64
(lp345
S'httponly'
p346
asbag57
(g78
g59
NtRp347
(dp348
g62
(dp349
g89
g90
ssg71
g338
sg64
(lp350
S':'
asbag57
(g78
g59
NtRp351
(dp352
g62
(dp353
sg71
g338
sg64
(lp354
g57
(g58
g59
NtRp355
(dp356
g62
(dp357
g70
I3
ssg71
g351
sg64
(lp358
S''
asbasbasbag57
(g73
g59
NtRp359
(dp360
g62
(dp361
sg71
g271
sg64
(lp362
g57
(g78
g59
NtRp363
(dp364
g62
(dp365
g82
g83
ssg71
g359
sg64
(lp366
S'max-age'
p367
asbag57
(g78
g59
NtRp368
(dp369
g62
(dp370
g89
g90
ssg71
g359
sg64
(lp371
S':'
asbag57
(g78
g59
NtRp372
(dp373
g62
(dp374
sg71
g359
sg64
(lp375
g57
(g58
g59
NtRp376
(dp377
g62
(dp378
g70
I3
ssg71
g372
sg64
(lp379
S''
asbasbasbag57
(g73
g59
NtRp380
(dp381
g62
(dp382
sg71
g271
sg64
(lp383
g57
(g78
g59
NtRp384
(dp385
g62
(dp386
g82
g83
ssg71
g380
sg64
(lp387
S'path'
p388
asbag57
(g78
g59
NtRp389
(dp390
g62
(dp391
g89
g90
ssg71
g380
sg64
(lp392
S':'
asbag57
(g78
g59
NtRp393
(dp394
g62
(dp395
sg71
g380
sg64
(lp396
g57
(g58
g59
NtRp397
(dp398
g62
(dp399
g70
I3
ssg71
g393
sg64
(lp400
S''
asbasbasbag57
(g73
g59
NtRp401
(dp402
g62
(dp403
sg71
g271
sg64
(lp404
g57
(g78
g59
NtRp405
(dp406
g62
(dp407
g82
g83
ssg71
g401
sg64
(lp408
S'secure'
p409
asbag57
(g78
g59
NtRp410
(dp411
g62
(dp412
g89
g90
ssg71
g401
sg64
(lp413
S':'
asbag57
(g78
g59
NtRp414
(dp415
g62
(dp416
sg71
g401
sg64
(lp417
g57
(g58
g59
NtRp418
(dp419
g62
(dp420
g70
I3
ssg71
g414
sg64
(lp421
S''
asbasbasbag57
(g73
g59
NtRp422
(dp423
g62
(dp424
sg71
g271
sg64
(lp425
g57
(g78
g59
NtRp426
(dp427
g62
(dp428
g82
g83
ssg71
g422
sg64
(lp429
S'version'
p430
asbag57
(g78
g59
NtRp431
(dp432
g62
(dp433
g89
g90
ssg71
g422
sg64
(lp434
S':'
asbag57
(g78
g59
NtRp435
(dp436
g62
(dp437
sg71
g422
sg64
(lp438
g57
(g58
g59
NtRp439
(dp440
g62
(dp441
g70
I3
ssg71
g435
sg64
(lp442
S''
asbasbasbasbasbasbasbag57
(g73
g59
NtRp443
(dp444
g62
(dp445
sg71
g246
sg64
(lp446
g57
(g78
g59
NtRp447
(dp448
g62
(dp449
g82
g83
ssg71
g443
sg64
(lp450
S'session_id_app1'
p451
asbag57
(g78
g59
NtRp452
(dp453
g62
(dp454
g89
g90
ssg71
g443
sg64
(lp455
S':'
asbag57
(g78
g59
NtRp456
(dp457
g62
(dp458
sg71
g443
sg64
(lp459
g57
(g58
g59
NtRp460
(dp461
g62
(dp462
g70
I4
ssg71
g456
sg64
(lp463
g57
(g66
g59
NtRp464
(dp465
g62
(dp466
g70
I3
ssg71
Nsg64
(lp467
g57
(g73
g59
NtRp468
(dp469
g62
(dp470
sg71
g464
sg64
(lp471
g57
(g78
g59
NtRp472
(dp473
g62
(dp474
g82
g83
ssg71
g468
sg64
(lp475
g283
asbag57
(g78
g59
NtRp476
(dp477
g62
(dp478
g89
g90
ssg71
g468
sg64
(lp479
S':'
asbag57
(g78
g59
NtRp480
(dp481
g62
(dp482
sg71
g468
sg64
(lp483
g57
(g58
g59
NtRp484
(dp485
g62
(dp486
g70
I3
ssg71
g480
sg64
(lp487
S''
asbasbasbag57
(g73
g59
NtRp488
(dp489
g62
(dp490
sg71
g464
sg64
(lp491
g57
(g78
g59
NtRp492
(dp493
g62
(dp494
g82
g83
ssg71
g488
sg64
(lp495
g304
asbag57
(g78
g59
NtRp496
(dp497
g62
(dp498
g89
g90
ssg71
g488
sg64
(lp499
S':'
asbag57
(g78
g59
NtRp500
(dp501
g62
(dp502
sg71
g488
sg64
(lp503
g57
(g58
g59
NtRp504
(dp505
g62
(dp506
g70
I3
ssg71
g500
sg64
(lp507
S''
asbasbasbag57
(g73
g59
NtRp508
(dp509
g62
(dp510
sg71
g464
sg64
(lp511
g57
(g78
g59
NtRp512
(dp513
g62
(dp514
g82
g83
ssg71
g508
sg64
(lp515
g325
asbag57
(g78
g59
NtRp516
(dp517
g62
(dp518
g89
g90
ssg71
g508
sg64
(lp519
S':'
asbag57
(g78
g59
NtRp520
(dp521
g62
(dp522
sg71
g508
sg64
(lp523
g57
(g58
g59
NtRp524
(dp525
g62
(dp526
g70
I3
ssg71
g520
sg64
(lp527
S''
asbasbasbag57
(g73
g59
NtRp528
(dp529
g62
(dp530
sg71
g464
sg64
(lp531
g57
(g78
g59
NtRp532
(dp533
g62
(dp534
g82
g83
ssg71
g528
sg64
(lp535
g346
asbag57
(g78
g59
NtRp536
(dp537
g62
(dp538
g89
g90
ssg71
g528
sg64
(lp539
S':'
asbag57
(g78
g59
NtRp540
(dp541
g62
(dp542
sg71
g528
sg64
(lp543
g57
(g58
g59
NtRp544
(dp545
g62
(dp546
g70
I3
ssg71
g540
sg64
(lp547
S''
asbasbasbag57
(g73
g59
NtRp548
(dp549
g62
(dp550
sg71
g464
sg64
(lp551
g57
(g78
g59
NtRp552
(dp553
g62
(dp554
g82
g83
ssg71
g548
sg64
(lp555
g367
asbag57
(g78
g59
NtRp556
(dp557
g62
(dp558
g89
g90
ssg71
g548
sg64
(lp559
S':'
asbag57
(g78
g59
NtRp560
(dp561
g62
(dp562
sg71
g548
sg64
(lp563
g57
(g58
g59
NtRp564
(dp565
g62
(dp566
g70
I3
ssg71
g560
sg64
(lp567
S''
asbasbasbag57
(g73
g59
NtRp568
(dp569
g62
(dp570
sg71
g464
sg64
(lp571
g57
(g78
g59
NtRp572
(dp573
g62
(dp574
g82
g83
ssg71
g568
sg64
(lp575
g388
asbag57
(g78
g59
NtRp576
(dp577
g62
(dp578
g89
g90
ssg71
g568
sg64
(lp579
S':'
asbag57
(g78
g59
NtRp580
(dp581
g62
(dp582
sg71
g568
sg64
(lp583
g57
(g58
g59
NtRp584
(dp585
g62
(dp586
g70
I3
ssg71
g580
sg64
(lp587
S''
asbasbasbag57
(g73
g59
NtRp588
(dp589
g62
(dp590
sg71
g464
sg64
(lp591
g57
(g78
g59
NtRp592
(dp593
g62
(dp594
g82
g83
ssg71
g588
sg64
(lp595
g409
asbag57
(g78
g59
NtRp596
(dp597
g62
(dp598
g89
g90
ssg71
g588
sg64
(lp599
S':'
asbag57
(g78
g59
NtRp600
(dp601
g62
(dp602
sg71
g588
sg64
(lp603
g57
(g58
g59
NtRp604
(dp605
g62
(dp606
g70
I3
ssg71
g600
sg64
(lp607
S''
asbasbasbag57
(g73
g59
NtRp608
(dp609
g62
(dp610
sg71
g464
sg64
(lp611
g57
(g78
g59
NtRp612
(dp613
g62
(dp614
g82
g83
ssg71
g608
sg64
(lp615
g430
asbag57
(g78
g59
NtRp616
(dp617
g62
(dp618
g89
g90
ssg71
g608
sg64
(lp619
S':'
asbag57
(g78
g59
NtRp620
(dp621
g62
(dp622
sg71
g608
sg64
(lp623
g57
(g58
g59
NtRp624
(dp625
g62
(dp626
g70
I3
ssg71
g620
sg64
(lp627
S''
asbasbasbasbasbasbasbag57
(g73
g59
NtRp628
(dp629
g62
(dp630
sg71
g246
sg64
(lp631
g57
(g78
g59
NtRp632
(dp633
g62
(dp634
g82
g83
ssg71
g628
sg64
(lp635
S'session_id_welcome'
p636
asbag57
(g78
g59
NtRp637
(dp638
g62
(dp639
g89
g90
ssg71
g628
sg64
(lp640
S':'
asbag57
(g78
g59
NtRp641
(dp642
g62
(dp643
sg71
g628
sg64
(lp644
g57
(g58
g59
NtRp645
(dp646
g62
(dp647
g70
I4
ssg71
g641
sg64
(lp648
g57
(g66
g59
NtRp649
(dp650
g62
(dp651
g70
I3
ssg71
Nsg64
(lp652
g57
(g73
g59
NtRp653
(dp654
g62
(dp655
sg71
g649
sg64
(lp656
g57
(g78
g59
NtRp657
(dp658
g62
(dp659
g82
g83
ssg71
g653
sg64
(lp660
g283
asbag57
(g78
g59
NtRp661
(dp662
g62
(dp663
g89
g90
ssg71
g653
sg64
(lp664
S':'
asbag57
(g78
g59
NtRp665
(dp666
g62
(dp667
sg71
g653
sg64
(lp668
g57
(g58
g59
NtRp669
(dp670
g62
(dp671
g70
I3
ssg71
g665
sg64
(lp672
S''
asbasbasbag57
(g73
g59
NtRp673
(dp674
g62
(dp675
sg71
g649
sg64
(lp676
g57
(g78
g59
NtRp677
(dp678
g62
(dp679
g82
g83
ssg71
g673
sg64
(lp680
g304
asbag57
(g78
g59
NtRp681
(dp682
g62
(dp683
g89
g90
ssg71
g673
sg64
(lp684
S':'
asbag57
(g78
g59
NtRp685
(dp686
g62
(dp687
sg71
g673
sg64
(lp688
g57
(g58
g59
NtRp689
(dp690
g62
(dp691
g70
I3
ssg71
g685
sg64
(lp692
S''
asbasbasbag57
(g73
g59
NtRp693
(dp694
g62
(dp695
sg71
g649
sg64
(lp696
g57
(g78
g59
NtRp697
(dp698
g62
(dp699
g82
g83
ssg71
g693
sg64
(lp700
g325
asbag57
(g78
g59
NtRp701
(dp702
g62
(dp703
g89
g90
ssg71
g693
sg64
(lp704
S':'
asbag57
(g78
g59
NtRp705
(dp706
g62
(dp707
sg71
g693
sg64
(lp708
g57
(g58
g59
NtRp709
(dp710
g62
(dp711
g70
I3
ssg71
g705
sg64
(lp712
S''
asbasbasbag57
(g73
g59
NtRp713
(dp714
g62
(dp715
sg71
g649
sg64
(lp716
g57
(g78
g59
NtRp717
(dp718
g62
(dp719
g82
g83
ssg71
g713
sg64
(lp720
g346
asbag57
(g78
g59
NtRp721
(dp722
g62
(dp723
g89
g90
ssg71
g713
sg64
(lp724
S':'
asbag57
(g78
g59
NtRp725
(dp726
g62
(dp727
sg71
g713
sg64
(lp728
g57
(g58
g59
NtRp729
(dp730
g62
(dp731
g70
I3
ssg71
g725
sg64
(lp732
S''
asbasbasbag57
(g73
g59
NtRp733
(dp734
g62
(dp735
sg71
g649
sg64
(lp736
g57
(g78
g59
NtRp737
(dp738
g62
(dp739
g82
g83
ssg71
g733
sg64
(lp740
g367
asbag57
(g78
g59
NtRp741
(dp742
g62
(dp743
g89
g90
ssg71
g733
sg64
(lp744
S':'
asbag57
(g78
g59
NtRp745
(dp746
g62
(dp747
sg71
g733
sg64
(lp748
g57
(g58
g59
NtRp749
(dp750
g62
(dp751
g70
I3
ssg71
g745
sg64
(lp752
S''
asbasbasbag57
(g73
g59
NtRp753
(dp754
g62
(dp755
sg71
g649
sg64
(lp756
g57
(g78
g59
NtRp757
(dp758
g62
(dp759
g82
g83
ssg71
g753
sg64
(lp760
g388
asbag57
(g78
g59
NtRp761
(dp762
g62
(dp763
g89
g90
ssg71
g753
sg64
(lp764
S':'
asbag57
(g78
g59
NtRp765
(dp766
g62
(dp767
sg71
g753
sg64
(lp768
g57
(g58
g59
NtRp769
(dp770
g62
(dp771
g70
I3
ssg71
g765
sg64
(lp772
S''
asbasbasbag57
(g73
g59
NtRp773
(dp774
g62
(dp775
sg71
g649
sg64
(lp776
g57
(g78
g59
NtRp777
(dp778
g62
(dp779
g82
g83
ssg71
g773
sg64
(lp780
g409
asbag57
(g78
g59
NtRp781
(dp782
g62
(dp783
g89
g90
ssg71
g773
sg64
(lp784
S':'
asbag57
(g78
g59
NtRp785
(dp786
g62
(dp787
sg71
g773
sg64
(lp788
g57
(g58
g59
NtRp789
(dp790
g62
(dp791
g70
I3
ssg71
g785
sg64
(lp792
S''
asbasbasbag57
(g73
g59
NtRp793
(dp794
g62
(dp795
sg71
g649
sg64
(lp796
g57
(g78
g59
NtRp797
(dp798
g62
(dp799
g82
g83
ssg71
g793
sg64
(lp800
g430
asbag57
(g78
g59
NtRp801
(dp802
g62
(dp803
g89
g90
ssg71
g793
sg64
(lp804
S':'
asbag57
(g78
g59
NtRp805
(dp806
g62
(dp807
sg71
g793
sg64
(lp808
g57
(g58
g59
NtRp809
(dp810
g62
(dp811
g70
I3
ssg71
g805
sg64
(lp812
S''
asbasbasbasbasbasbasbasbasbasbasbag57
(g73
g59
NtRp813
(dp814
g62
(dp815
sg71
g67
sg64
(lp816
g57
(g78
g59
NtRp817
(dp818
g62
(dp819
g82
g83
ssg71
g813
sg64
(lp820
S'env'
p821
asbag57
(g78
g59
NtRp822
(dp823
g62
(dp824
g89
g90
ssg71
g813
sg64
(lp825
S':'
asbag57
(g78
g59
NtRp826
(dp827
g62
(dp828
sg71
g813
sg64
(lp829
g57
(g58
g59
NtRp830
(dp831
g62
(dp832
g70
I5
ssg71
g826
sg64
(lp833
g57
(g66
g59
NtRp834
(dp835
g62
(dp836
g70
I4
ssg71
Nsg64
(lp837
g57
(g73
g59
NtRp838
(dp839
g62
(dp840
sg71
g834
sg64
(lp841
g57
(g78
g59
NtRp842
(dp843
g62
(dp844
g82
g83
ssg71
g838
sg64
(lp845
S'app_folders'
p846
asbag57
(g78
g59
NtRp847
(dp848
g62
(dp849
g89
g90
ssg71
g838
sg64
(lp850
S':'
asbag57
(g78
g59
NtRp851
(dp852
g62
(dp853
sg71
g838
sg64
(lp854
g57
(g58
g59
NtRp855
(dp856
g62
(dp857
g70
I4
ssg71
g851
sg64
(lp858
S"set(['/home/jigar/web2py/applications/welcome/', '/home/jigar/web2py/applications/admin/', '/home/jigar/web2py/applications/app1/'])"
p859
asbasbasbag57
(g73
g59
NtRp860
(dp861
g62
(dp862
sg71
g834
sg64
(lp863
g57
(g78
g59
NtRp864
(dp865
g62
(dp866
g82
g83
ssg71
g860
sg64
(lp867
S'applications_parent'
p868
asbag57
(g78
g59
NtRp869
(dp870
g62
(dp871
g89
g90
ssg71
g860
sg64
(lp872
S':'
asbag57
(g78
g59
NtRp873
(dp874
g62
(dp875
sg71
g860
sg64
(lp876
g57
(g58
g59
NtRp877
(dp878
g62
(dp879
g70
I4
ssg71
g873
sg64
(lp880
S'/home/jigar/web2py'
p881
asbasbasbag57
(g73
g59
NtRp882
(dp883
g62
(dp884
sg71
g834
sg64
(lp885
g57
(g78
g59
NtRp886
(dp887
g62
(dp888
g82
g83
ssg71
g882
sg64
(lp889
S'cmd_args'
p890
asbag57
(g78
g59
NtRp891
(dp892
g62
(dp893
g89
g90
ssg71
g882
sg64
(lp894
S':'
asbag57
(g78
g59
NtRp895
(dp896
g62
(dp897
sg71
g882
sg64
(lp898
g57
(g58
g59
NtRp899
(dp900
g62
(dp901
g70
I4
ssg71
g895
sg64
(lp902
g57
(g66
g59
NtRp903
(dp904
g62
(dp905
g70
I3
ssg71
Nsg64
(lp906
sbasbasbasbag57
(g73
g59
NtRp907
(dp908
g62
(dp909
sg71
g834
sg64
(lp910
g57
(g78
g59
NtRp911
(dp912
g62
(dp913
g82
g83
ssg71
g907
sg64
(lp914
S'cmd_options'
p915
asbag57
(g78
g59
NtRp916
(dp917
g62
(dp918
g89
g90
ssg71
g907
sg64
(lp919
S':'
asbag57
(g78
g59
NtRp920
(dp921
g62
(dp922
sg71
g907
sg64
(lp923
g57
(g58
g59
NtRp924
(dp925
g62
(dp926
g70
I4
ssg71
g920
sg64
(lp927
S"<Values at 0x2fd1c20: {'verbose': False, 'ip': '127.0.0.1', 'shutdown_timeout': 5, 'taskbar': False, 'port': 8000, 'maxthreads': None, 'softcron': False, 'server_name': 'jigar-Lenovo-Z580', 'bpython': False, 'nogui': False, 'nocron': False, 'extcron': False, 'debuglevel': 30, 'test': None, 'folder': '/home/jigar/web2py', 'config': '', 'import_models': False, 'winservice': '', 'shell': None, 'run': '', 'log_filename': 'httpserver.log', 'args': [''], 'socket_timeout': 1, 'profiler_filename': None, 'ssl_private_key': '', 'password': '<ask>', 'request_queue_size': 5, 'ssl_certificate': '', 'cronjob': False, 'plain': False, 'quiet': False, 'interfaces': None, 'minthreads': None, 'timeout': 10, 'numthreads': None, 'nobanner': False, 'pid_filename': 'httpserver.pid'}>"
p928
asbasbasbag57
(g73
g59
NtRp929
(dp930
g62
(dp931
sg71
g834
sg64
(lp932
g57
(g78
g59
NtRp933
(dp934
g62
(dp935
g82
g83
ssg71
g929
sg64
(lp936
S'db_sessions'
p937
asbag57
(g78
g59
NtRp938
(dp939
g62
(dp940
g89
g90
ssg71
g929
sg64
(lp941
S':'
asbag57
(g78
g59
NtRp942
(dp943
g62
(dp944
sg71
g929
sg64
(lp945
g57
(g58
g59
NtRp946
(dp947
g62
(dp948
g70
I4
ssg71
g942
sg64
(lp949
S'set([])'
p950
asbasbasbag57
(g73
g59
NtRp951
(dp952
g62
(dp953
sg71
g834
sg64
(lp954
g57
(g78
g59
NtRp955
(dp956
g62
(dp957
g82
g83
ssg71
g951
sg64
(lp958
S'debugging'
p959
asbag57
(g78
g59
NtRp960
(dp961
g62
(dp962
g89
g90
ssg71
g951
sg64
(lp963
S':'
asbag57
(g78
g59
NtRp964
(dp965
g62
(dp966
sg71
g951
sg64
(lp967
g57
(g58
g59
NtRp968
(dp969
g62
(dp970
g70
I4
ssg71
g964
sg64
(lp971
g100
asbasbasbag57
(g73
g59
NtRp972
(dp973
g62
(dp974
sg71
g834
sg64
(lp975
g57
(g78
g59
NtRp976
(dp977
g62
(dp978
g82
g83
ssg71
g972
sg64
(lp979
S'gluon_parent'
p980
asbag57
(g78
g59
NtRp981
(dp982
g62
(dp983
g89
g90
ssg71
g972
sg64
(lp984
S':'
asbag57
(g78
g59
NtRp985
(dp986
g62
(dp987
sg71
g972
sg64
(lp988
g57
(g58
g59
NtRp989
(dp990
g62
(dp991
g70
I4
ssg71
g985
sg64
(lp992
S'/usr/share/web2py'
p993
asbasbasbag57
(g73
g59
NtRp994
(dp995
g62
(dp996
sg71
g834
sg64
(lp997
g57
(g78
g59
NtRp998
(dp999
g62
(dp1000
g82
g83
ssg71
g994
sg64
(lp1001
S'http_accept'
p1002
asbag57
(g78
g59
NtRp1003
(dp1004
g62
(dp1005
g89
g90
ssg71
g994
sg64
(lp1006
S':'
asbag57
(g78
g59
NtRp1007
(dp1008
g62
(dp1009
sg71
g994
sg64
(lp1010
g57
(g58
g59
NtRp1011
(dp1012
g62
(dp1013
g70
I4
ssg71
g1007
sg64
(lp1014
S'text/html,application/xhtml+xml,application/xml;q=0.9,*/*;q=0.8'
p1015
asbasbasbag57
(g73
g59
NtRp1016
(dp1017
g62
(dp1018
sg71
g834
sg64
(lp1019
g57
(g78
g59
NtRp1020
(dp1021
g62
(dp1022
g82
g83
ssg71
g1016
sg64
(lp1023
S'http_accept_encoding'
p1024
asbag57
(g78
g59
NtRp1025
(dp1026
g62
(dp1027
g89
g90
ssg71
g1016
sg64
(lp1028
S':'
asbag57
(g78
g59
NtRp1029
(dp1030
g62
(dp1031
sg71
g1016
sg64
(lp1032
g57
(g58
g59
NtRp1033
(dp1034
g62
(dp1035
g70
I4
ssg71
g1029
sg64
(lp1036
S'gzip, deflate'
p1037
asbasbasbag57
(g73
g59
NtRp1038
(dp1039
g62
(dp1040
sg71
g834
sg64
(lp1041
g57
(g78
g59
NtRp1042
(dp1043
g62
(dp1044
g82
g83
ssg71
g1038
sg64
(lp1045
S'http_accept_language'
p1046
asbag57
(g78
g59
NtRp1047
(dp1048
g62
(dp1049
g89
g90
ssg71
g1038
sg64
(lp1050
S':'
asbag57
(g78
g59
NtRp1051
(dp1052
g62
(dp1053
sg71
g1038
sg64
(lp1054
g57
(g58
g59
NtRp1055
(dp1056
g62
(dp1057
g70
I4
ssg71
g1051
sg64
(lp1058
S'en-US,en;q=0.5'
p1059
asbasbasbag57
(g73
g59
NtRp1060
(dp1061
g62
(dp1062
sg71
g834
sg64
(lp1063
g57
(g78
g59
NtRp1064
(dp1065
g62
(dp1066
g82
g83
ssg71
g1060
sg64
(lp1067
S'http_cache_control'
p1068
asbag57
(g78
g59
NtRp1069
(dp1070
g62
(dp1071
g89
g90
ssg71
g1060
sg64
(lp1072
S':'
asbag57
(g78
g59
NtRp1073
(dp1074
g62
(dp1075
sg71
g1060
sg64
(lp1076
g57
(g58
g59
NtRp1077
(dp1078
g62
(dp1079
g70
I4
ssg71
g1073
sg64
(lp1080
S'max-age=0'
p1081
asbasbasbag57
(g73
g59
NtRp1082
(dp1083
g62
(dp1084
sg71
g834
sg64
(lp1085
g57
(g78
g59
NtRp1086
(dp1087
g62
(dp1088
g82
g83
ssg71
g1082
sg64
(lp1089
S'http_connection'
p1090
asbag57
(g78
g59
NtRp1091
(dp1092
g62
(dp1093
g89
g90
ssg71
g1082
sg64
(lp1094
S':'
asbag57
(g78
g59
NtRp1095
(dp1096
g62
(dp1097
sg71
g1082
sg64
(lp1098
g57
(g58
g59
NtRp1099
(dp1100
g62
(dp1101
g70
I4
ssg71
g1095
sg64
(lp1102
S'keep-alive'
p1103
asbasbasbag57
(g73
g59
NtRp1104
(dp1105
g62
(dp1106
sg71
g834
sg64
(lp1107
g57
(g78
g59
NtRp1108
(dp1109
g62
(dp1110
g82
g83
ssg71
g1104
sg64
(lp1111
S'http_cookie'
p1112
asbag57
(g78
g59
NtRp1113
(dp1114
g62
(dp1115
g89
g90
ssg71
g1104
sg64
(lp1116
S':'
asbag57
(g78
g59
NtRp1117
(dp1118
g62
(dp1119
sg71
g1104
sg64
(lp1120
g57
(g58
g59
NtRp1121
(dp1122
g62
(dp1123
g70
I4
ssg71
g1117
sg64
(lp1124
S'session_id_welcome=127.0.0.1-0f223b6f-37a0-4134-96f9-344b5b82abf2; session_id_admin=127.0.0.1-9d94419c-3c0e-43d2-aae5-f86b38fccfce; session_id_app1=127.0.0.1-a7d133f4-acec-437f-a963-db7b5b722c49'
p1125
asbasbasbag57
(g73
g59
NtRp1126
(dp1127
g62
(dp1128
sg71
g834
sg64
(lp1129
g57
(g78
g59
NtRp1130
(dp1131
g62
(dp1132
g82
g83
ssg71
g1126
sg64
(lp1133
S'http_host'
p1134
asbag57
(g78
g59
NtRp1135
(dp1136
g62
(dp1137
g89
g90
ssg71
g1126
sg64
(lp1138
S':'
asbag57
(g78
g59
NtRp1139
(dp1140
g62
(dp1141
sg71
g1126
sg64
(lp1142
g57
(g58
g59
NtRp1143
(dp1144
g62
(dp1145
g70
I4
ssg71
g1139
sg64
(lp1146
S'127.0.0.1:8000'
p1147
asbasbasbag57
(g73
g59
NtRp1148
(dp1149
g62
(dp1150
sg71
g834
sg64
(lp1151
g57
(g78
g59
NtRp1152
(dp1153
g62
(dp1154
g82
g83
ssg71
g1148
sg64
(lp1155
S'http_referer'
p1156
asbag57
(g78
g59
NtRp1157
(dp1158
g62
(dp1159
g89
g90
ssg71
g1148
sg64
(lp1160
S':'
asbag57
(g78
g59
NtRp1161
(dp1162
g62
(dp1163
sg71
g1148
sg64
(lp1164
g57
(g58
g59
NtRp1165
(dp1166
g62
(dp1167
g70
I4
ssg71
g1161
sg64
(lp1168
S'http://127.0.0.1:8000/app1/default/lall'
p1169
asbasbasbag57
(g73
g59
NtRp1170
(dp1171
g62
(dp1172
sg71
g834
sg64
(lp1173
g57
(g78
g59
NtRp1174
(dp1175
g62
(dp1176
g82
g83
ssg71
g1170
sg64
(lp1177
S'http_user_agent'
p1178
asbag57
(g78
g59
NtRp1179
(dp1180
g62
(dp1181
g89
g90
ssg71
g1170
sg64
(lp1182
S':'
asbag57
(g78
g59
NtRp1183
(dp1184
g62
(dp1185
sg71
g1170
sg64
(lp1186
g57
(g58
g59
NtRp1187
(dp1188
g62
(dp1189
g70
I4
ssg71
g1183
sg64
(lp1190
S'Mozilla/5.0 (X11; Ubuntu; Linux x86_64; rv:23.0) Gecko/20100101 Firefox/23.0'
p1191
asbasbasbag57
(g73
g59
NtRp1192
(dp1193
g62
(dp1194
sg71
g834
sg64
(lp1195
g57
(g78
g59
NtRp1196
(dp1197
g62
(dp1198
g82
g83
ssg71
g1192
sg64
(lp1199
S'is_jython'
p1200
asbag57
(g78
g59
NtRp1201
(dp1202
g62
(dp1203
g89
g90
ssg71
g1192
sg64
(lp1204
S':'
asbag57
(g78
g59
NtRp1205
(dp1206
g62
(dp1207
sg71
g1192
sg64
(lp1208
g57
(g58
g59
NtRp1209
(dp1210
g62
(dp1211
g70
I4
ssg71
g1205
sg64
(lp1212
g100
asbasbasbag57
(g73
g59
NtRp1213
(dp1214
g62
(dp1215
sg71
g834
sg64
(lp1216
g57
(g78
g59
NtRp1217
(dp1218
g62
(dp1219
g82
g83
ssg71
g1213
sg64
(lp1220
S'is_pypy'
p1221
asbag57
(g78
g59
NtRp1222
(dp1223
g62
(dp1224
g89
g90
ssg71
g1213
sg64
(lp1225
S':'
asbag57
(g78
g59
NtRp1226
(dp1227
g62
(dp1228
sg71
g1213
sg64
(lp1229
g57
(g58
g59
NtRp1230
(dp1231
g62
(dp1232
g70
I4
ssg71
g1226
sg64
(lp1233
g100
asbasbasbag57
(g73
g59
NtRp1234
(dp1235
g62
(dp1236
sg71
g834
sg64
(lp1237
g57
(g78
g59
NtRp1238
(dp1239
g62
(dp1240
g82
g83
ssg71
g1234
sg64
(lp1241
S'path_info'
p1242
asbag57
(g78
g59
NtRp1243
(dp1244
g62
(dp1245
g89
g90
ssg71
g1234
sg64
(lp1246
S':'
asbag57
(g78
g59
NtRp1247
(dp1248
g62
(dp1249
sg71
g1234
sg64
(lp1250
g57
(g58
g59
NtRp1251
(dp1252
g62
(dp1253
g70
I4
ssg71
g1247
sg64
(lp1254
S'/app1/default/listcat/2'
p1255
asbasbasbag57
(g73
g59
NtRp1256
(dp1257
g62
(dp1258
sg71
g834
sg64
(lp1259
g57
(g78
g59
NtRp1260
(dp1261
g62
(dp1262
g82
g83
ssg71
g1256
sg64
(lp1263
S'query_string'
p1264
asbag57
(g78
g59
NtRp1265
(dp1266
g62
(dp1267
g89
g90
ssg71
g1256
sg64
(lp1268
S':'
asbag57
(g78
g59
NtRp1269
(dp1270
g62
(dp1271
sg71
g1256
sg64
(lp1272
g57
(g58
g59
NtRp1273
(dp1274
g62
(dp1275
g70
I4
ssg71
g1269
sg64
(lp1276
S''
asbasbasbag57
(g73
g59
NtRp1277
(dp1278
g62
(dp1279
sg71
g834
sg64
(lp1280
g57
(g78
g59
NtRp1281
(dp1282
g62
(dp1283
g82
g83
ssg71
g1277
sg64
(lp1284
S'remote_addr'
p1285
asbag57
(g78
g59
NtRp1286
(dp1287
g62
(dp1288
g89
g90
ssg71
g1277
sg64
(lp1289
S':'
asbag57
(g78
g59
NtRp1290
(dp1291
g62
(dp1292
sg71
g1277
sg64
(lp1293
g57
(g58
g59
NtRp1294
(dp1295
g62
(dp1296
g70
I4
ssg71
g1290
sg64
(lp1297
g202
asbasbasbag57
(g73
g59
NtRp1298
(dp1299
g62
(dp1300
sg71
g834
sg64
(lp1301
g57
(g78
g59
NtRp1302
(dp1303
g62
(dp1304
g82
g83
ssg71
g1298
sg64
(lp1305
S'remote_port'
p1306
asbag57
(g78
g59
NtRp1307
(dp1308
g62
(dp1309
g89
g90
ssg71
g1298
sg64
(lp1310
S':'
asbag57
(g78
g59
NtRp1311
(dp1312
g62
(dp1313
sg71
g1298
sg64
(lp1314
g57
(g58
g59
NtRp1315
(dp1316
g62
(dp1317
g70
I4
ssg71
g1311
sg64
(lp1318
S'35568'
p1319
asbasbasbag57
(g73
g59
NtRp1320
(dp1321
g62
(dp1322
sg71
g834
sg64
(lp1323
g57
(g78
g59
NtRp1324
(dp1325
g62
(dp1326
g82
g83
ssg71
g1320
sg64
(lp1327
S'request_method'
p1328
asbag57
(g78
g59
NtRp1329
(dp1330
g62
(dp1331
g89
g90
ssg71
g1320
sg64
(lp1332
S':'
asbag57
(g78
g59
NtRp1333
(dp1334
g62
(dp1335
sg71
g1320
sg64
(lp1336
g57
(g58
g59
NtRp1337
(dp1338
g62
(dp1339
g70
I4
ssg71
g1333
sg64
(lp1340
S'GET'
p1341
asbasbasbag57
(g73
g59
NtRp1342
(dp1343
g62
(dp1344
sg71
g834
sg64
(lp1345
g57
(g78
g59
NtRp1346
(dp1347
g62
(dp1348
g82
g83
ssg71
g1342
sg64
(lp1349
S'script_name'
p1350
asbag57
(g78
g59
NtRp1351
(dp1352
g62
(dp1353
g89
g90
ssg71
g1342
sg64
(lp1354
S':'
asbag57
(g78
g59
NtRp1355
(dp1356
g62
(dp1357
sg71
g1342
sg64
(lp1358
g57
(g58
g59
NtRp1359
(dp1360
g62
(dp1361
g70
I4
ssg71
g1355
sg64
(lp1362
S''
asbasbasbag57
(g73
g59
NtRp1363
(dp1364
g62
(dp1365
sg71
g834
sg64
(lp1366
g57
(g78
g59
NtRp1367
(dp1368
g62
(dp1369
g82
g83
ssg71
g1363
sg64
(lp1370
S'server_name'
p1371
asbag57
(g78
g59
NtRp1372
(dp1373
g62
(dp1374
g89
g90
ssg71
g1363
sg64
(lp1375
S':'
asbag57
(g78
g59
NtRp1376
(dp1377
g62
(dp1378
sg71
g1363
sg64
(lp1379
g57
(g58
g59
NtRp1380
(dp1381
g62
(dp1382
g70
I4
ssg71
g1376
sg64
(lp1383
S'jigar-Lenovo-Z580'
p1384
asbasbasbag57
(g73
g59
NtRp1385
(dp1386
g62
(dp1387
sg71
g834
sg64
(lp1388
g57
(g78
g59
NtRp1389
(dp1390
g62
(dp1391
g82
g83
ssg71
g1385
sg64
(lp1392
S'server_port'
p1393
asbag57
(g78
g59
NtRp1394
(dp1395
g62
(dp1396
g89
g90
ssg71
g1385
sg64
(lp1397
S':'
asbag57
(g78
g59
NtRp1398
(dp1399
g62
(dp1400
sg71
g1385
sg64
(lp1401
g57
(g58
g59
NtRp1402
(dp1403
g62
(dp1404
g70
I4
ssg71
g1398
sg64
(lp1405
S'8000'
p1406
asbasbasbag57
(g73
g59
NtRp1407
(dp1408
g62
(dp1409
sg71
g834
sg64
(lp1410
g57
(g78
g59
NtRp1411
(dp1412
g62
(dp1413
g82
g83
ssg71
g1407
sg64
(lp1414
S'server_protocol'
p1415
asbag57
(g78
g59
NtRp1416
(dp1417
g62
(dp1418
g89
g90
ssg71
g1407
sg64
(lp1419
S':'
asbag57
(g78
g59
NtRp1420
(dp1421
g62
(dp1422
sg71
g1407
sg64
(lp1423
g57
(g58
g59
NtRp1424
(dp1425
g62
(dp1426
g70
I4
ssg71
g1420
sg64
(lp1427
S'HTTP/1.1'
p1428
asbasbasbag57
(g73
g59
NtRp1429
(dp1430
g62
(dp1431
sg71
g834
sg64
(lp1432
g57
(g78
g59
NtRp1433
(dp1434
g62
(dp1435
g82
g83
ssg71
g1429
sg64
(lp1436
S'server_software'
p1437
asbag57
(g78
g59
NtRp1438
(dp1439
g62
(dp1440
g89
g90
ssg71
g1429
sg64
(lp1441
S':'
asbag57
(g78
g59
NtRp1442
(dp1443
g62
(dp1444
sg71
g1429
sg64
(lp1445
g57
(g58
g59
NtRp1446
(dp1447
g62
(dp1448
g70
I4
ssg71
g1442
sg64
(lp1449
S'Rocket 1.2.4'
p1450
asbasbasbag57
(g73
g59
NtRp1451
(dp1452
g62
(dp1453
sg71
g834
sg64
(lp1454
g57
(g78
g59
NtRp1455
(dp1456
g62
(dp1457
g82
g83
ssg71
g1451
sg64
(lp1458
S'web2py_crontype'
p1459
asbag57
(g78
g59
NtRp1460
(dp1461
g62
(dp1462
g89
g90
ssg71
g1451
sg64
(lp1463
S':'
asbag57
(g78
g59
NtRp1464
(dp1465
g62
(dp1466
sg71
g1451
sg64
(lp1467
g57
(g58
g59
NtRp1468
(dp1469
g62
(dp1470
g70
I4
ssg71
g1464
sg64
(lp1471
S'hard'
p1472
asbasbasbag57
(g73
g59
NtRp1473
(dp1474
g62
(dp1475
sg71
g834
sg64
(lp1476
g57
(g78
g59
NtRp1477
(dp1478
g62
(dp1479
g82
g83
ssg71
g1473
sg64
(lp1480
S'web2py_path'
p1481
asbag57
(g78
g59
NtRp1482
(dp1483
g62
(dp1484
g89
g90
ssg71
g1473
sg64
(lp1485
S':'
asbag57
(g78
g59
NtRp1486
(dp1487
g62
(dp1488
sg71
g1473
sg64
(lp1489
g57
(g58
g59
NtRp1490
(dp1491
g62
(dp1492
g70
I4
ssg71
g1486
sg64
(lp1493
g881
asbasbasbag57
(g73
g59
NtRp1494
(dp1495
g62
(dp1496
sg71
g834
sg64
(lp1497
g57
(g78
g59
NtRp1498
(dp1499
g62
(dp1500
g82
g83
ssg71
g1494
sg64
(lp1501
S'web2py_version'
p1502
asbag57
(g78
g59
NtRp1503
(dp1504
g62
(dp1505
g89
g90
ssg71
g1494
sg64
(lp1506
S':'
asbag57
(g78
g59
NtRp1507
(dp1508
g62
(dp1509
sg71
g1494
sg64
(lp1510
g57
(g58
g59
NtRp1511
(dp1512
g62
(dp1513
g70
I4
ssg71
g1507
sg64
(lp1514
g57
(g66
g59
NtRp1515
(dp1516
g62
(dp1517
g70
I3
ssg71
Nsg64
(lp1518
g57
(g73
g59
NtRp1519
(dp1520
g62
(dp1521
sg71
g1515
sg64
(lp1522
g57
(g78
g59
NtRp1523
(dp1524
g62
(dp1525
sg71
g1519
sg64
(lp1526
g57
(g58
g59
NtRp1527
(dp1528
g62
(dp1529
g70
I3
ssg71
g1523
sg64
(lp1530
S'1'
asbasbasbag57
(g73
g59
NtRp1531
(dp1532
g62
(dp1533
sg71
g1515
sg64
(lp1534
g57
(g78
g59
NtRp1535
(dp1536
g62
(dp1537
sg71
g1531
sg64
(lp1538
g57
(g58
g59
NtRp1539
(dp1540
g62
(dp1541
g70
I3
ssg71
g1535
sg64
(lp1542
S'99'
p1543
asbasbasbag57
(g73
g59
NtRp1544
(dp1545
g62
(dp1546
sg71
g1515
sg64
(lp1547
g57
(g78
g59
NtRp1548
(dp1549
g62
(dp1550
sg71
g1544
sg64
(lp1551
g57
(g58
g59
NtRp1552
(dp1553
g62
(dp1554
g70
I3
ssg71
g1548
sg64
(lp1555
S'4'
asbasbasbag57
(g73
g59
NtRp1556
(dp1557
g62
(dp1558
sg71
g1515
sg64
(lp1559
g57
(g78
g59
NtRp1560
(dp1561
g62
(dp1562
sg71
g1556
sg64
(lp1563
g57
(g58
g59
NtRp1564
(dp1565
g62
(dp1566
g70
I3
ssg71
g1560
sg64
(lp1567
S'datetime.datetime(2011, 12, 14, 14, 46, 14)'
p1568
asbasbasbag57
(g73
g59
NtRp1569
(dp1570
g62
(dp1571
sg71
g1515
sg64
(lp1572
g57
(g78
g59
NtRp1573
(dp1574
g62
(dp1575
sg71
g1569
sg64
(lp1576
g57
(g58
g59
NtRp1577
(dp1578
g62
(dp1579
g70
I3
ssg71
g1573
sg64
(lp1580
S'stable'
p1581
asbasbasbasbasbasbasbag57
(g73
g59
NtRp1582
(dp1583
g62
(dp1584
sg71
g834
sg64
(lp1585
g57
(g78
g59
NtRp1586
(dp1587
g62
(dp1588
g82
g83
ssg71
g1582
sg64
(lp1589
S'wsgi_errors'
p1590
asbag57
(g78
g59
NtRp1591
(dp1592
g62
(dp1593
g89
g90
ssg71
g1582
sg64
(lp1594
S':'
asbag57
(g78
g59
NtRp1595
(dp1596
g62
(dp1597
sg71
g1582
sg64
(lp1598
g57
(g58
g59
NtRp1599
(dp1600
g62
(dp1601
g70
I4
ssg71
g1595
sg64
(lp1602
S"<open file '<stderr>', mode 'w' at 0x7fb48f9e6270>"
p1603
asbasbasbag57
(g73
g59
NtRp1604
(dp1605
g62
(dp1606
sg71
g834
sg64
(lp1607
g57
(g78
g59
NtRp1608
(dp1609
g62
(dp1610
g82
g83
ssg71
g1604
sg64
(lp1611
S'wsgi_file_wrapper'
p1612
asbag57
(g78
g59
NtRp1613
(dp1614
g62
(dp1615
g89
g90
ssg71
g1604
sg64
(lp1616
S':'
asbag57
(g78
g59
NtRp1617
(dp1618
g62
(dp1619
sg71
g1604
sg64
(lp1620
g57
(g58
g59
NtRp1621
(dp1622
g62
(dp1623
g70
I4
ssg71
g1617
sg64
(lp1624
S'<class wsgiref.util.FileWrapper at 0x2f52328>'
p1625
asbasbasbag57
(g73
g59
NtRp1626
(dp1627
g62
(dp1628
sg71
g834
sg64
(lp1629
g57
(g78
g59
NtRp1630
(dp1631
g62
(dp1632
g82
g83
ssg71
g1626
sg64
(lp1633
S'wsgi_input'
p1634
asbag57
(g78
g59
NtRp1635
(dp1636
g62
(dp1637
g89
g90
ssg71
g1626
sg64
(lp1638
S':'
asbag57
(g78
g59
NtRp1639
(dp1640
g62
(dp1641
sg71
g1626
sg64
(lp1642
g57
(g58
g59
NtRp1643
(dp1644
g62
(dp1645
g70
I4
ssg71
g1639
sg64
(lp1646
S'<socket._fileobject object at 0x7fb44c312bd0>'
p1647
asbasbasbag57
(g73
g59
NtRp1648
(dp1649
g62
(dp1650
sg71
g834
sg64
(lp1651
g57
(g78
g59
NtRp1652
(dp1653
g62
(dp1654
g82
g83
ssg71
g1648
sg64
(lp1655
S'wsgi_multiprocess'
p1656
asbag57
(g78
g59
NtRp1657
(dp1658
g62
(dp1659
g89
g90
ssg71
g1648
sg64
(lp1660
S':'
asbag57
(g78
g59
NtRp1661
(dp1662
g62
(dp1663
sg71
g1648
sg64
(lp1664
g57
(g58
g59
NtRp1665
(dp1666
g62
(dp1667
g70
I4
ssg71
g1661
sg64
(lp1668
g100
asbasbasbag57
(g73
g59
NtRp1669
(dp1670
g62
(dp1671
sg71
g834
sg64
(lp1672
g57
(g78
g59
NtRp1673
(dp1674
g62
(dp1675
g82
g83
ssg71
g1669
sg64
(lp1676
S'wsgi_multithread'
p1677
asbag57
(g78
g59
NtRp1678
(dp1679
g62
(dp1680
g89
g90
ssg71
g1669
sg64
(lp1681
S':'
asbag57
(g78
g59
NtRp1682
(dp1683
g62
(dp1684
sg71
g1669
sg64
(lp1685
g57
(g58
g59
NtRp1686
(dp1687
g62
(dp1688
g70
I4
ssg71
g1682
sg64
(lp1689
S'True'
p1690
asbasbasbag57
(g73
g59
NtRp1691
(dp1692
g62
(dp1693
sg71
g834
sg64
(lp1694
g57
(g78
g59
NtRp1695
(dp1696
g62
(dp1697
g82
g83
ssg71
g1691
sg64
(lp1698
S'wsgi_run_once'
p1699
asbag57
(g78
g59
NtRp1700
(dp1701
g62
(dp1702
g89
g90
ssg71
g1691
sg64
(lp1703
S':'
asbag57
(g78
g59
NtRp1704
(dp1705
g62
(dp1706
sg71
g1691
sg64
(lp1707
g57
(g58
g59
NtRp1708
(dp1709
g62
(dp1710
g70
I4
ssg71
g1704
sg64
(lp1711
g100
asbasbasbag57
(g73
g59
NtRp1712
(dp1713
g62
(dp1714
sg71
g834
sg64
(lp1715
g57
(g78
g59
NtRp1716
(dp1717
g62
(dp1718
g82
g83
ssg71
g1712
sg64
(lp1719
S'wsgi_url_scheme'
p1720
asbag57
(g78
g59
NtRp1721
(dp1722
g62
(dp1723
g89
g90
ssg71
g1712
sg64
(lp1724
S':'
asbag57
(g78
g59
NtRp1725
(dp1726
g62
(dp1727
sg71
g1712
sg64
(lp1728
g57
(g58
g59
NtRp1729
(dp1730
g62
(dp1731
g70
I4
ssg71
g1725
sg64
(lp1732
S'http'
p1733
asbasbasbag57
(g73
g59
NtRp1734
(dp1735
g62
(dp1736
sg71
g834
sg64
(lp1737
g57
(g78
g59
NtRp1738
(dp1739
g62
(dp1740
g82
g83
ssg71
g1734
sg64
(lp1741
S'wsgi_version'
p1742
asbag57
(g78
g59
NtRp1743
(dp1744
g62
(dp1745
g89
g90
ssg71
g1734
sg64
(lp1746
S':'
asbag57
(g78
g59
NtRp1747
(dp1748
g62
(dp1749
sg71
g1734
sg64
(lp1750
g57
(g58
g59
NtRp1751
(dp1752
g62
(dp1753
g70
I4
ssg71
g1747
sg64
(lp1754
g57
(g66
g59
NtRp1755
(dp1756
g62
(dp1757
g70
I3
ssg71
Nsg64
(lp1758
g57
(g73
g59
NtRp1759
(dp1760
g62
(dp1761
sg71
g1755
sg64
(lp1762
g57
(g78
g59
NtRp1763
(dp1764
g62
(dp1765
sg71
g1759
sg64
(lp1766
g57
(g58
g59
NtRp1767
(dp1768
g62
(dp1769
g70
I3
ssg71
g1763
sg64
(lp1770
S'1'
asbasbasbag57
(g73
g59
NtRp1771
(dp1772
g62
(dp1773
sg71
g1755
sg64
(lp1774
g57
(g78
g59
NtRp1775
(dp1776
g62
(dp1777
sg71
g1771
sg64
(lp1778
g57
(g58
g59
NtRp1779
(dp1780
g62
(dp1781
g70
I3
ssg71
g1775
sg64
(lp1782
S'0'
asbasbasbasbasbasbasbasbasbasbasbag57
(g73
g59
NtRp1783
(dp1784
g62
(dp1785
sg71
g67
sg64
(lp1786
g57
(g78
g59
NtRp1787
(dp1788
g62
(dp1789
g82
g83
ssg71
g1783
sg64
(lp1790
S'extension'
p1791
asbag57
(g78
g59
NtRp1792
(dp1793
g62
(dp1794
g89
g90
ssg71
g1783
sg64
(lp1795
S':'
asbag57
(g78
g59
NtRp1796
(dp1797
g62
(dp1798
sg71
g1783
sg64
(lp1799
g57
(g58
g59
NtRp1800
(dp1801
g62
(dp1802
g70
I5
ssg71
g1796
sg64
(lp1803
S'html'
p1804
asbasbasbag57
(g73
g59
NtRp1805
(dp1806
g62
(dp1807
sg71
g67
sg64
(lp1808
g57
(g78
g59
NtRp1809
(dp1810
g62
(dp1811
g82
g83
ssg71
g1805
sg64
(lp1812
S'folder'
p1813
asbag57
(g78
g59
NtRp1814
(dp1815
g62
(dp1816
g89
g90
ssg71
g1805
sg64
(lp1817
S':'
asbag57
(g78
g59
NtRp1818
(dp1819
g62
(dp1820
sg71
g1805
sg64
(lp1821
g57
(g58
g59
NtRp1822
(dp1823
g62
(dp1824
g70
I5
ssg71
g1818
sg64
(lp1825
S'/home/jigar/web2py/applications/app1/'
p1826
asbasbasbag57
(g73
g59
NtRp1827
(dp1828
g62
(dp1829
sg71
g67
sg64
(lp1830
g57
(g78
g59
NtRp1831
(dp1832
g62
(dp1833
g82
g83
ssg71
g1827
sg64
(lp1834
S'function'
p1835
asbag57
(g78
g59
NtRp1836
(dp1837
g62
(dp1838
g89
g90
ssg71
g1827
sg64
(lp1839
S':'
asbag57
(g78
g59
NtRp1840
(dp1841
g62
(dp1842
sg71
g1827
sg64
(lp1843
g57
(g58
g59
NtRp1844
(dp1845
g62
(dp1846
g70
I5
ssg71
g1840
sg64
(lp1847
S'listcat'
p1848
asbasbasbag57
(g73
g59
NtRp1849
(dp1850
g62
(dp1851
sg71
g67
sg64
(lp1852
g57
(g78
g59
NtRp1853
(dp1854
g62
(dp1855
g82
g83
ssg71
g1849
sg64
(lp1856
S'get_vars'
p1857
asbag57
(g78
g59
NtRp1858
(dp1859
g62
(dp1860
g89
g90
ssg71
g1849
sg64
(lp1861
S':'
asbag57
(g78
g59
NtRp1862
(dp1863
g62
(dp1864
sg71
g1849
sg64
(lp1865
g57
(g58
g59
NtRp1866
(dp1867
g62
(dp1868
g70
I5
ssg71
g1862
sg64
(lp1869
g57
(g66
g59
NtRp1870
(dp1871
g62
(dp1872
g70
I4
ssg71
Nsg64
(lp1873
sbasbasbasbag57
(g73
g59
NtRp1874
(dp1875
g62
(dp1876
sg71
g67
sg64
(lp1877
g57
(g78
g59
NtRp1878
(dp1879
g62
(dp1880
g82
g83
ssg71
g1874
sg64
(lp1881
S'global_settings'
p1882
asbag57
(g78
g59
NtRp1883
(dp1884
g62
(dp1885
g89
g90
ssg71
g1874
sg64
(lp1886
S':'
asbag57
(g78
g59
NtRp1887
(dp1888
g62
(dp1889
sg71
g1874
sg64
(lp1890
g57
(g58
g59
NtRp1891
(dp1892
g62
(dp1893
g70
I5
ssg71
g1887
sg64
(lp1894
g57
(g66
g59
NtRp1895
(dp1896
g62
(dp1897
g70
I4
ssg71
Nsg64
(lp1898
g57
(g73
g59
NtRp1899
(dp1900
g62
(dp1901
sg71
g1895
sg64
(lp1902
g57
(g78
g59
NtRp1903
(dp1904
g62
(dp1905
g82
g83
ssg71
g1899
sg64
(lp1906
g846
asbag57
(g78
g59
NtRp1907
(dp1908
g62
(dp1909
g89
g90
ssg71
g1899
sg64
(lp1910
S':'
asbag57
(g78
g59
NtRp1911
(dp1912
g62
(dp1913
sg71
g1899
sg64
(lp1914
g57
(g58
g59
NtRp1915
(dp1916
g62
(dp1917
g70
I4
ssg71
g1911
sg64
(lp1918
S"set(['/home/jigar/web2py/applications/welcome/', '/home/jigar/web2py/applications/admin/', '/home/jigar/web2py/applications/app1/'])"
p1919
asbasbasbag57
(g73
g59
NtRp1920
(dp1921
g62
(dp1922
sg71
g1895
sg64
(lp1923
g57
(g78
g59
NtRp1924
(dp1925
g62
(dp1926
g82
g83
ssg71
g1920
sg64
(lp1927
g868
asbag57
(g78
g59
NtRp1928
(dp1929
g62
(dp1930
g89
g90
ssg71
g1920
sg64
(lp1931
S':'
asbag57
(g78
g59
NtRp1932
(dp1933
g62
(dp1934
sg71
g1920
sg64
(lp1935
g57
(g58
g59
NtRp1936
(dp1937
g62
(dp1938
g70
I4
ssg71
g1932
sg64
(lp1939
g881
asbasbasbag57
(g73
g59
NtRp1940
(dp1941
g62
(dp1942
sg71
g1895
sg64
(lp1943
g57
(g78
g59
NtRp1944
(dp1945
g62
(dp1946
g82
g83
ssg71
g1940
sg64
(lp1947
g890
asbag57
(g78
g59
NtRp1948
(dp1949
g62
(dp1950
g89
g90
ssg71
g1940
sg64
(lp1951
S':'
asbag57
(g78
g59
NtRp1952
(dp1953
g62
(dp1954
sg71
g1940
sg64
(lp1955
g57
(g58
g59
NtRp1956
(dp1957
g62
(dp1958
g70
I4
ssg71
g1952
sg64
(lp1959
g57
(g66
g59
NtRp1960
(dp1961
g62
(dp1962
g70
I3
ssg71
Nsg64
(lp1963
sbasbasbasbag57
(g73
g59
NtRp1964
(dp1965
g62
(dp1966
sg71
g1895
sg64
(lp1967
g57
(g78
g59
NtRp1968
(dp1969
g62
(dp1970
g82
g83
ssg71
g1964
sg64
(lp1971
g915
asbag57
(g78
g59
NtRp1972
(dp1973
g62
(dp1974
g89
g90
ssg71
g1964
sg64
(lp1975
S':'
asbag57
(g78
g59
NtRp1976
(dp1977
g62
(dp1978
sg71
g1964
sg64
(lp1979
g57
(g58
g59
NtRp1980
(dp1981
g62
(dp1982
g70
I4
ssg71
g1976
sg64
(lp1983
S"<Values at 0x2fd1c20: {'verbose': False, 'ip': '127.0.0.1', 'shutdown_timeout': 5, 'taskbar': False, 'port': 8000, 'maxthreads': None, 'softcron': False, 'server_name': 'jigar-Lenovo-Z580', 'bpython': False, 'nogui': False, 'nocron': False, 'extcron': False, 'debuglevel': 30, 'test': None, 'folder': '/home/jigar/web2py', 'config': '', 'import_models': False, 'winservice': '', 'shell': None, 'run': '', 'log_filename': 'httpserver.log', 'args': [''], 'socket_timeout': 1, 'profiler_filename': None, 'ssl_private_key': '', 'password': '<ask>', 'request_queue_size': 5, 'ssl_certificate': '', 'cronjob': False, 'plain': False, 'quiet': False, 'interfaces': None, 'minthreads': None, 'timeout': 10, 'numthreads': None, 'nobanner': False, 'pid_filename': 'httpserver.pid'}>"
p1984
asbasbasbag57
(g73
g59
NtRp1985
(dp1986
g62
(dp1987
sg71
g1895
sg64
(lp1988
g57
(g78
g59
NtRp1989
(dp1990
g62
(dp1991
g82
g83
ssg71
g1985
sg64
(lp1992
g937
asbag57
(g78
g59
NtRp1993
(dp1994
g62
(dp1995
g89
g90
ssg71
g1985
sg64
(lp1996
S':'
asbag57
(g78
g59
NtRp1997
(dp1998
g62
(dp1999
sg71
g1985
sg64
(lp2000
g57
(g58
g59
NtRp2001
(dp2002
g62
(dp2003
g70
I4
ssg71
g1997
sg64
(lp2004
S'set([])'
p2005
asbasbasbag57
(g73
g59
NtRp2006
(dp2007
g62
(dp2008
sg71
g1895
sg64
(lp2009
g57
(g78
g59
NtRp2010
(dp2011
g62
(dp2012
g82
g83
ssg71
g2006
sg64
(lp2013
g959
asbag57
(g78
g59
NtRp2014
(dp2015
g62
(dp2016
g89
g90
ssg71
g2006
sg64
(lp2017
S':'
asbag57
(g78
g59
NtRp2018
(dp2019
g62
(dp2020
sg71
g2006
sg64
(lp2021
g57
(g58
g59
NtRp2022
(dp2023
g62
(dp2024
g70
I4
ssg71
g2018
sg64
(lp2025
g100
asbasbasbag57
(g73
g59
NtRp2026
(dp2027
g62
(dp2028
sg71
g1895
sg64
(lp2029
g57
(g78
g59
NtRp2030
(dp2031
g62
(dp2032
g82
g83
ssg71
g2026
sg64
(lp2033
g980
asbag57
(g78
g59
NtRp2034
(dp2035
g62
(dp2036
g89
g90
ssg71
g2026
sg64
(lp2037
S':'
asbag57
(g78
g59
NtRp2038
(dp2039
g62
(dp2040
sg71
g2026
sg64
(lp2041
g57
(g58
g59
NtRp2042
(dp2043
g62
(dp2044
g70
I4
ssg71
g2038
sg64
(lp2045
g993
asbasbasbag57
(g73
g59
NtRp2046
(dp2047
g62
(dp2048
sg71
g1895
sg64
(lp2049
g57
(g78
g59
NtRp2050
(dp2051
g62
(dp2052
g82
g83
ssg71
g2046
sg64
(lp2053
g1200
asbag57
(g78
g59
NtRp2054
(dp2055
g62
(dp2056
g89
g90
ssg71
g2046
sg64
(lp2057
S':'
asbag57
(g78
g59
NtRp2058
(dp2059
g62
(dp2060
sg71
g2046
sg64
(lp2061
g57
(g58
g59
NtRp2062
(dp2063
g62
(dp2064
g70
I4
ssg71
g2058
sg64
(lp2065
g100
asbasbasbag57
(g73
g59
NtRp2066
(dp2067
g62
(dp2068
sg71
g1895
sg64
(lp2069
g57
(g78
g59
NtRp2070
(dp2071
g62
(dp2072
g82
g83
ssg71
g2066
sg64
(lp2073
g1221
asbag57
(g78
g59
NtRp2074
(dp2075
g62
(dp2076
g89
g90
ssg71
g2066
sg64
(lp2077
S':'
asbag57
(g78
g59
NtRp2078
(dp2079
g62
(dp2080
sg71
g2066
sg64
(lp2081
g57
(g58
g59
NtRp2082
(dp2083
g62
(dp2084
g70
I4
ssg71
g2078
sg64
(lp2085
g100
asbasbasbag57
(g73
g59
NtRp2086
(dp2087
g62
(dp2088
sg71
g1895
sg64
(lp2089
g57
(g78
g59
NtRp2090
(dp2091
g62
(dp2092
g82
g83
ssg71
g2086
sg64
(lp2093
g1459
asbag57
(g78
g59
NtRp2094
(dp2095
g62
(dp2096
g89
g90
ssg71
g2086
sg64
(lp2097
S':'
asbag57
(g78
g59
NtRp2098
(dp2099
g62
(dp2100
sg71
g2086
sg64
(lp2101
g57
(g58
g59
NtRp2102
(dp2103
g62
(dp2104
g70
I4
ssg71
g2098
sg64
(lp2105
g1472
asbasbasbag57
(g73
g59
NtRp2106
(dp2107
g62
(dp2108
sg71
g1895
sg64
(lp2109
g57
(g78
g59
NtRp2110
(dp2111
g62
(dp2112
g82
g83
ssg71
g2106
sg64
(lp2113
g1502
asbag57
(g78
g59
NtRp2114
(dp2115
g62
(dp2116
g89
g90
ssg71
g2106
sg64
(lp2117
S':'
asbag57
(g78
g59
NtRp2118
(dp2119
g62
(dp2120
sg71
g2106
sg64
(lp2121
g57
(g58
g59
NtRp2122
(dp2123
g62
(dp2124
g70
I4
ssg71
g2118
sg64
(lp2125
g57
(g66
g59
NtRp2126
(dp2127
g62
(dp2128
g70
I3
ssg71
Nsg64
(lp2129
g57
(g73
g59
NtRp2130
(dp2131
g62
(dp2132
sg71
g2126
sg64
(lp2133
g57
(g78
g59
NtRp2134
(dp2135
g62
(dp2136
sg71
g2130
sg64
(lp2137
g57
(g58
g59
NtRp2138
(dp2139
g62
(dp2140
g70
I3
ssg71
g2134
sg64
(lp2141
S'1'
asbasbasbag57
(g73
g59
NtRp2142
(dp2143
g62
(dp2144
sg71
g2126
sg64
(lp2145
g57
(g78
g59
NtRp2146
(dp2147
g62
(dp2148
sg71
g2142
sg64
(lp2149
g57
(g58
g59
NtRp2150
(dp2151
g62
(dp2152
g70
I3
ssg71
g2146
sg64
(lp2153
S'99'
p2154
asbasbasbag57
(g73
g59
NtRp2155
(dp2156
g62
(dp2157
sg71
g2126
sg64
(lp2158
g57
(g78
g59
NtRp2159
(dp2160
g62
(dp2161
sg71
g2155
sg64
(lp2162
g57
(g58
g59
NtRp2163
(dp2164
g62
(dp2165
g70
I3
ssg71
g2159
sg64
(lp2166
S'4'
asbasbasbag57
(g73
g59
NtRp2167
(dp2168
g62
(dp2169
sg71
g2126
sg64
(lp2170
g57
(g78
g59
NtRp2171
(dp2172
g62
(dp2173
sg71
g2167
sg64
(lp2174
g57
(g58
g59
NtRp2175
(dp2176
g62
(dp2177
g70
I3
ssg71
g2171
sg64
(lp2178
S'datetime.datetime(2011, 12, 14, 14, 46, 14)'
p2179
asbasbasbag57
(g73
g59
NtRp2180
(dp2181
g62
(dp2182
sg71
g2126
sg64
(lp2183
g57
(g78
g59
NtRp2184
(dp2185
g62
(dp2186
sg71
g2180
sg64
(lp2187
g57
(g58
g59
NtRp2188
(dp2189
g62
(dp2190
g70
I3
ssg71
g2184
sg64
(lp2191
g1581
asbasbasbasbasbasbasbasbasbasbasbag57
(g73
g59
NtRp2192
(dp2193
g62
(dp2194
sg71
g67
sg64
(lp2195
g57
(g78
g59
NtRp2196
(dp2197
g62
(dp2198
g82
g83
ssg71
g2192
sg64
(lp2199
S'is_https'
p2200
asbag57
(g78
g59
NtRp2201
(dp2202
g62
(dp2203
g89
g90
ssg71
g2192
sg64
(lp2204
S':'
asbag57
(g78
g59
NtRp2205
(dp2206
g62
(dp2207
sg71
g2192
sg64
(lp2208
g57
(g58
g59
NtRp2209
(dp2210
g62
(dp2211
g70
I5
ssg71
g2205
sg64
(lp2212
g100
asbasbasbag57
(g73
g59
NtRp2213
(dp2214
g62
(dp2215
sg71
g67
sg64
(lp2216
g57
(g78
g59
NtRp2217
(dp2218
g62
(dp2219
g82
g83
ssg71
g2213
sg64
(lp2220
S'is_local'
p2221
asbag57
(g78
g59
NtRp2222
(dp2223
g62
(dp2224
g89
g90
ssg71
g2213
sg64
(lp2225
S':'
asbag57
(g78
g59
NtRp2226
(dp2227
g62
(dp2228
sg71
g2213
sg64
(lp2229
g57
(g58
g59
NtRp2230
(dp2231
g62
(dp2232
g70
I5
ssg71
g2226
sg64
(lp2233
g1690
asbasbasbag57
(g73
g59
NtRp2234
(dp2235
g62
(dp2236
sg71
g67
sg64
(lp2237
g57
(g78
g59
NtRp2238
(dp2239
g62
(dp2240
g82
g83
ssg71
g2234
sg64
(lp2241
S'is_restful'
p2242
asbag57
(g78
g59
NtRp2243
(dp2244
g62
(dp2245
g89
g90
ssg71
g2234
sg64
(lp2246
S':'
asbag57
(g78
g59
NtRp2247
(dp2248
g62
(dp2249
sg71
g2234
sg64
(lp2250
g57
(g58
g59
NtRp2251
(dp2252
g62
(dp2253
g70
I5
ssg71
g2247
sg64
(lp2254
g100
asbasbasbag57
(g73
g59
NtRp2255
(dp2256
g62
(dp2257
sg71
g67
sg64
(lp2258
g57
(g78
g59
NtRp2259
(dp2260
g62
(dp2261
g82
g83
ssg71
g2255
sg64
(lp2262
S'now'
p2263
asbag57
(g78
g59
NtRp2264
(dp2265
g62
(dp2266
g89
g90
ssg71
g2255
sg64
(lp2267
S':'
asbag57
(g78
g59
NtRp2268
(dp2269
g62
(dp2270
sg71
g2255
sg64
(lp2271
g57
(g58
g59
NtRp2272
(dp2273
g62
(dp2274
g70
I5
ssg71
g2268
sg64
(lp2275
S'datetime.datetime(2013, 9, 1, 23, 26, 33, 784782)'
p2276
asbasbasbag57
(g73
g59
NtRp2277
(dp2278
g62
(dp2279
sg71
g67
sg64
(lp2280
g57
(g78
g59
NtRp2281
(dp2282
g62
(dp2283
g82
g83
ssg71
g2277
sg64
(lp2284
S'post_vars'
p2285
asbag57
(g78
g59
NtRp2286
(dp2287
g62
(dp2288
g89
g90
ssg71
g2277
sg64
(lp2289
S':'
asbag57
(g78
g59
NtRp2290
(dp2291
g62
(dp2292
sg71
g2277
sg64
(lp2293
g57
(g58
g59
NtRp2294
(dp2295
g62
(dp2296
g70
I5
ssg71
g2290
sg64
(lp2297
g57
(g66
g59
NtRp2298
(dp2299
g62
(dp2300
g70
I4
ssg71
Nsg64
(lp2301
sbasbasbasbag57
(g73
g59
NtRp2302
(dp2303
g62
(dp2304
sg71
g67
sg64
(lp2305
g57
(g78
g59
NtRp2306
(dp2307
g62
(dp2308
g82
g83
ssg71
g2302
sg64
(lp2309
S'raw_args'
p2310
asbag57
(g78
g59
NtRp2311
(dp2312
g62
(dp2313
g89
g90
ssg71
g2302
sg64
(lp2314
S':'
asbag57
(g78
g59
NtRp2315
(dp2316
g62
(dp2317
sg71
g2302
sg64
(lp2318
g57
(g58
g59
NtRp2319
(dp2320
g62
(dp2321
g70
I5
ssg71
g2315
sg64
(lp2322
S'2'
asbasbasbag57
(g73
g59
NtRp2323
(dp2324
g62
(dp2325
sg71
g67
sg64
(lp2326
g57
(g78
g59
NtRp2327
(dp2328
g62
(dp2329
g82
g83
ssg71
g2323
sg64
(lp2330
S'url'
p2331
asbag57
(g78
g59
NtRp2332
(dp2333
g62
(dp2334
g89
g90
ssg71
g2323
sg64
(lp2335
S':'
asbag57
(g78
g59
NtRp2336
(dp2337
g62
(dp2338
sg71
g2323
sg64
(lp2339
g57
(g58
g59
NtRp2340
(dp2341
g62
(dp2342
g70
I5
ssg71
g2336
sg64
(lp2343
S'/app1/default/listcat/2'
p2344
asbasbasbag57
(g73
g59
NtRp2345
(dp2346
g62
(dp2347
sg71
g67
sg64
(lp2348
g57
(g78
g59
NtRp2349
(dp2350
g62
(dp2351
g82
g83
ssg71
g2345
sg64
(lp2352
S'utcnow'
p2353
asbag57
(g78
g59
NtRp2354
(dp2355
g62
(dp2356
g89
g90
ssg71
g2345
sg64
(lp2357
S':'
asbag57
(g78
g59
NtRp2358
(dp2359
g62
(dp2360
sg71
g2345
sg64
(lp2361
g57
(g58
g59
NtRp2362
(dp2363
g62
(dp2364
g70
I5
ssg71
g2358
sg64
(lp2365
S'datetime.datetime(2013, 9, 1, 17, 56, 33, 784836)'
p2366
asbasbasbag57
(g73
g59
NtRp2367
(dp2368
g62
(dp2369
sg71
g67
sg64
(lp2370
g57
(g78
g59
NtRp2371
(dp2372
g62
(dp2373
g82
g83
ssg71
g2367
sg64
(lp2374
S'uuid'
p2375
asbag57
(g78
g59
NtRp2376
(dp2377
g62
(dp2378
g89
g90
ssg71
g2367
sg64
(lp2379
S':'
asbag57
(g78
g59
NtRp2380
(dp2381
g62
(dp2382
sg71
g2367
sg64
(lp2383
g57
(g58
g59
NtRp2384
(dp2385
g62
(dp2386
g70
I5
ssg71
g2380
sg64
(lp2387
S'app1/127.0.0.1.2013-09-01.23-26-33.1028fccd-c525-440a-86bc-4f76a77545e2'
p2388
asbasbasbag57
(g73
g59
NtRp2389
(dp2390
g62
(dp2391
sg71
g67
sg64
(lp2392
g57
(g78
g59
NtRp2393
(dp2394
g62
(dp2395
g82
g83
ssg71
g2389
sg64
(lp2396
S'vars'
p2397
asbag57
(g78
g59
NtRp2398
(dp2399
g62
(dp2400
g89
g90
ssg71
g2389
sg64
(lp2401
S':'
asbag57
(g78
g59
NtRp2402
(dp2403
g62
(dp2404
sg71
g2389
sg64
(lp2405
g57
(g58
g59
NtRp2406
(dp2407
g62
(dp2408
g70
I5
ssg71
g2402
sg64
(lp2409
g57
(g66
g59
NtRp2410
(dp2411
g62
(dp2412
g70
I4
ssg71
Nsg64
(lp2413
sbasbasbasbag57
(g73
g59
NtRp2414
(dp2415
g62
(dp2416
sg71
g67
sg64
(lp2417
g57
(g78
g59
NtRp2418
(dp2419
g62
(dp2420
g82
g83
ssg71
g2414
sg64
(lp2421
S'wsgi'
p2422
asbag57
(g78
g59
NtRp2423
(dp2424
g62
(dp2425
g89
g90
ssg71
g2414
sg64
(lp2426
S':'
asbag57
(g78
g59
NtRp2427
(dp2428
g62
(dp2429
sg71
g2414
sg64
(lp2430
g57
(g58
g59
NtRp2431
(dp2432
g62
(dp2433
g70
I5
ssg71
g2427
sg64
(lp2434
g57
(g66
g59
NtRp2435
(dp2436
g62
(dp2437
g70
I4
ssg71
Nsg64
(lp2438
g57
(g73
g59
NtRp2439
(dp2440
g62
(dp2441
sg71
g2435
sg64
(lp2442
g57
(g78
g59
NtRp2443
(dp2444
g62
(dp2445
g82
g83
ssg71
g2439
sg64
(lp2446
S'environ'
p2447
asbag57
(g78
g59
NtRp2448
(dp2449
g62
(dp2450
g89
g90
ssg71
g2439
sg64
(lp2451
S':'
asbag57
(g78
g59
NtRp2452
(dp2453
g62
(dp2454
sg71
g2439
sg64
(lp2455
g57
(g58
g59
NtRp2456
(dp2457
g62
(dp2458
g70
I4
ssg71
g2452
sg64
(lp2459
g57
(g66
g59
NtRp2460
(dp2461
g62
(dp2462
g70
I3
ssg71
Nsg64
(lp2463
g57
(g73
g59
NtRp2464
(dp2465
g62
(dp2466
sg71
g2460
sg64
(lp2467
g57
(g78
g59
NtRp2468
(dp2469
g62
(dp2470
g82
g83
ssg71
g2464
sg64
(lp2471
S'HTTP_ACCEPT'
p2472
asbag57
(g78
g59
NtRp2473
(dp2474
g62
(dp2475
g89
g90
ssg71
g2464
sg64
(lp2476
S':'
asbag57
(g78
g59
NtRp2477
(dp2478
g62
(dp2479
sg71
g2464
sg64
(lp2480
g57
(g58
g59
NtRp2481
(dp2482
g62
(dp2483
g70
I3
ssg71
g2477
sg64
(lp2484
g1015
asbasbasbag57
(g73
g59
NtRp2485
(dp2486
g62
(dp2487
sg71
g2460
sg64
(lp2488
g57
(g78
g59
NtRp2489
(dp2490
g62
(dp2491
g82
g83
ssg71
g2485
sg64
(lp2492
S'HTTP_ACCEPT_ENCODING'
p2493
asbag57
(g78
g59
NtRp2494
(dp2495
g62
(dp2496
g89
g90
ssg71
g2485
sg64
(lp2497
S':'
asbag57
(g78
g59
NtRp2498
(dp2499
g62
(dp2500
sg71
g2485
sg64
(lp2501
g57
(g58
g59
NtRp2502
(dp2503
g62
(dp2504
g70
I3
ssg71
g2498
sg64
(lp2505
g1037
asbasbasbag57
(g73
g59
NtRp2506
(dp2507
g62
(dp2508
sg71
g2460
sg64
(lp2509
g57
(g78
g59
NtRp2510
(dp2511
g62
(dp2512
g82
g83
ssg71
g2506
sg64
(lp2513
S'HTTP_ACCEPT_LANGUAGE'
p2514
asbag57
(g78
g59
NtRp2515
(dp2516
g62
(dp2517
g89
g90
ssg71
g2506
sg64
(lp2518
S':'
asbag57
(g78
g59
NtRp2519
(dp2520
g62
(dp2521
sg71
g2506
sg64
(lp2522
g57
(g58
g59
NtRp2523
(dp2524
g62
(dp2525
g70
I3
ssg71
g2519
sg64
(lp2526
g1059
asbasbasbag57
(g73
g59
NtRp2527
(dp2528
g62
(dp2529
sg71
g2460
sg64
(lp2530
g57
(g78
g59
NtRp2531
(dp2532
g62
(dp2533
g82
g83
ssg71
g2527
sg64
(lp2534
S'HTTP_CACHE_CONTROL'
p2535
asbag57
(g78
g59
NtRp2536
(dp2537
g62
(dp2538
g89
g90
ssg71
g2527
sg64
(lp2539
S':'
asbag57
(g78
g59
NtRp2540
(dp2541
g62
(dp2542
sg71
g2527
sg64
(lp2543
g57
(g58
g59
NtRp2544
(dp2545
g62
(dp2546
g70
I3
ssg71
g2540
sg64
(lp2547
g1081
asbasbasbag57
(g73
g59
NtRp2548
(dp2549
g62
(dp2550
sg71
g2460
sg64
(lp2551
g57
(g78
g59
NtRp2552
(dp2553
g62
(dp2554
g82
g83
ssg71
g2548
sg64
(lp2555
S'HTTP_CONNECTION'
p2556
asbag57
(g78
g59
NtRp2557
(dp2558
g62
(dp2559
g89
g90
ssg71
g2548
sg64
(lp2560
S':'
asbag57
(g78
g59
NtRp2561
(dp2562
g62
(dp2563
sg71
g2548
sg64
(lp2564
g57
(g58
g59
NtRp2565
(dp2566
g62
(dp2567
g70
I3
ssg71
g2561
sg64
(lp2568
g1103
asbasbasbag57
(g73
g59
NtRp2569
(dp2570
g62
(dp2571
sg71
g2460
sg64
(lp2572
g57
(g78
g59
NtRp2573
(dp2574
g62
(dp2575
g82
g83
ssg71
g2569
sg64
(lp2576
S'HTTP_COOKIE'
p2577
asbag57
(g78
g59
NtRp2578
(dp2579
g62
(dp2580
g89
g90
ssg71
g2569
sg64
(lp2581
S':'
asbag57
(g78
g59
NtRp2582
(dp2583
g62
(dp2584
sg71
g2569
sg64
(lp2585
g57
(g58
g59
NtRp2586
(dp2587
g62
(dp2588
g70
I3
ssg71
g2582
sg64
(lp2589
g1125
asbasbasbag57
(g73
g59
NtRp2590
(dp2591
g62
(dp2592
sg71
g2460
sg64
(lp2593
g57
(g78
g59
NtRp2594
(dp2595
g62
(dp2596
g82
g83
ssg71
g2590
sg64
(lp2597
S'HTTP_HOST'
p2598
asbag57
(g78
g59
NtRp2599
(dp2600
g62
(dp2601
g89
g90
ssg71
g2590
sg64
(lp2602
S':'
asbag57
(g78
g59
NtRp2603
(dp2604
g62
(dp2605
sg71
g2590
sg64
(lp2606
g57
(g58
g59
NtRp2607
(dp2608
g62
(dp2609
g70
I3
ssg71
g2603
sg64
(lp2610
g1147
asbasbasbag57
(g73
g59
NtRp2611
(dp2612
g62
(dp2613
sg71
g2460
sg64
(lp2614
g57
(g78
g59
NtRp2615
(dp2616
g62
(dp2617
g82
g83
ssg71
g2611
sg64
(lp2618
S'HTTP_REFERER'
p2619
asbag57
(g78
g59
NtRp2620
(dp2621
g62
(dp2622
g89
g90
ssg71
g2611
sg64
(lp2623
S':'
asbag57
(g78
g59
NtRp2624
(dp2625
g62
(dp2626
sg71
g2611
sg64
(lp2627
g57
(g58
g59
NtRp2628
(dp2629
g62
(dp2630
g70
I3
ssg71
g2624
sg64
(lp2631
g1169
asbasbasbag57
(g73
g59
NtRp2632
(dp2633
g62
(dp2634
sg71
g2460
sg64
(lp2635
g57
(g78
g59
NtRp2636
(dp2637
g62
(dp2638
g82
g83
ssg71
g2632
sg64
(lp2639
S'HTTP_USER_AGENT'
p2640
asbag57
(g78
g59
NtRp2641
(dp2642
g62
(dp2643
g89
g90
ssg71
g2632
sg64
(lp2644
S':'
asbag57
(g78
g59
NtRp2645
(dp2646
g62
(dp2647
sg71
g2632
sg64
(lp2648
g57
(g58
g59
NtRp2649
(dp2650
g62
(dp2651
g70
I3
ssg71
g2645
sg64
(lp2652
g1191
asbasbasbag57
(g73
g59
NtRp2653
(dp2654
g62
(dp2655
sg71
g2460
sg64
(lp2656
g57
(g78
g59
NtRp2657
(dp2658
g62
(dp2659
g82
g83
ssg71
g2653
sg64
(lp2660
S'PATH_INFO'
p2661
asbag57
(g78
g59
NtRp2662
(dp2663
g62
(dp2664
g89
g90
ssg71
g2653
sg64
(lp2665
S':'
asbag57
(g78
g59
NtRp2666
(dp2667
g62
(dp2668
sg71
g2653
sg64
(lp2669
g57
(g58
g59
NtRp2670
(dp2671
g62
(dp2672
g70
I3
ssg71
g2666
sg64
(lp2673
g1255
asbasbasbag57
(g73
g59
NtRp2674
(dp2675
g62
(dp2676
sg71
g2460
sg64
(lp2677
g57
(g78
g59
NtRp2678
(dp2679
g62
(dp2680
g82
g83
ssg71
g2674
sg64
(lp2681
S'QUERY_STRING'
p2682
asbag57
(g78
g59
NtRp2683
(dp2684
g62
(dp2685
g89
g90
ssg71
g2674
sg64
(lp2686
S':'
asbag57
(g78
g59
NtRp2687
(dp2688
g62
(dp2689
sg71
g2674
sg64
(lp2690
g57
(g58
g59
NtRp2691
(dp2692
g62
(dp2693
g70
I3
ssg71
g2687
sg64
(lp2694
S''
asbasbasbag57
(g73
g59
NtRp2695
(dp2696
g62
(dp2697
sg71
g2460
sg64
(lp2698
g57
(g78
g59
NtRp2699
(dp2700
g62
(dp2701
g82
g83
ssg71
g2695
sg64
(lp2702
S'REMOTE_ADDR'
p2703
asbag57
(g78
g59
NtRp2704
(dp2705
g62
(dp2706
g89
g90
ssg71
g2695
sg64
(lp2707
S':'
asbag57
(g78
g59
NtRp2708
(dp2709
g62
(dp2710
sg71
g2695
sg64
(lp2711
g57
(g58
g59
NtRp2712
(dp2713
g62
(dp2714
g70
I3
ssg71
g2708
sg64
(lp2715
g202
asbasbasbag57
(g73
g59
NtRp2716
(dp2717
g62
(dp2718
sg71
g2460
sg64
(lp2719
g57
(g78
g59
NtRp2720
(dp2721
g62
(dp2722
g82
g83
ssg71
g2716
sg64
(lp2723
S'REMOTE_PORT'
p2724
asbag57
(g78
g59
NtRp2725
(dp2726
g62
(dp2727
g89
g90
ssg71
g2716
sg64
(lp2728
S':'
asbag57
(g78
g59
NtRp2729
(dp2730
g62
(dp2731
sg71
g2716
sg64
(lp2732
g57
(g58
g59
NtRp2733
(dp2734
g62
(dp2735
g70
I3
ssg71
g2729
sg64
(lp2736
g1319
asbasbasbag57
(g73
g59
NtRp2737
(dp2738
g62
(dp2739
sg71
g2460
sg64
(lp2740
g57
(g78
g59
NtRp2741
(dp2742
g62
(dp2743
g82
g83
ssg71
g2737
sg64
(lp2744
S'REQUEST_METHOD'
p2745
asbag57
(g78
g59
NtRp2746
(dp2747
g62
(dp2748
g89
g90
ssg71
g2737
sg64
(lp2749
S':'
asbag57
(g78
g59
NtRp2750
(dp2751
g62
(dp2752
sg71
g2737
sg64
(lp2753
g57
(g58
g59
NtRp2754
(dp2755
g62
(dp2756
g70
I3
ssg71
g2750
sg64
(lp2757
g1341
asbasbasbag57
(g73
g59
NtRp2758
(dp2759
g62
(dp2760
sg71
g2460
sg64
(lp2761
g57
(g78
g59
NtRp2762
(dp2763
g62
(dp2764
g82
g83
ssg71
g2758
sg64
(lp2765
S'SCRIPT_NAME'
p2766
asbag57
(g78
g59
NtRp2767
(dp2768
g62
(dp2769
g89
g90
ssg71
g2758
sg64
(lp2770
S':'
asbag57
(g78
g59
NtRp2771
(dp2772
g62
(dp2773
sg71
g2758
sg64
(lp2774
g57
(g58
g59
NtRp2775
(dp2776
g62
(dp2777
g70
I3
ssg71
g2771
sg64
(lp2778
S''
asbasbasbag57
(g73
g59
NtRp2779
(dp2780
g62
(dp2781
sg71
g2460
sg64
(lp2782
g57
(g78
g59
NtRp2783
(dp2784
g62
(dp2785
g82
g83
ssg71
g2779
sg64
(lp2786
S'SERVER_NAME'
p2787
asbag57
(g78
g59
NtRp2788
(dp2789
g62
(dp2790
g89
g90
ssg71
g2779
sg64
(lp2791
S':'
asbag57
(g78
g59
NtRp2792
(dp2793
g62
(dp2794
sg71
g2779
sg64
(lp2795
g57
(g58
g59
NtRp2796
(dp2797
g62
(dp2798
g70
I3
ssg71
g2792
sg64
(lp2799
g1384
asbasbasbag57
(g73
g59
NtRp2800
(dp2801
g62
(dp2802
sg71
g2460
sg64
(lp2803
g57
(g78
g59
NtRp2804
(dp2805
g62
(dp2806
g82
g83
ssg71
g2800
sg64
(lp2807
S'SERVER_PORT'
p2808
asbag57
(g78
g59
NtRp2809
(dp2810
g62
(dp2811
g89
g90
ssg71
g2800
sg64
(lp2812
S':'
asbag57
(g78
g59
NtRp2813
(dp2814
g62
(dp2815
sg71
g2800
sg64
(lp2816
g57
(g58
g59
NtRp2817
(dp2818
g62
(dp2819
g70
I3
ssg71
g2813
sg64
(lp2820
g1406
asbasbasbag57
(g73
g59
NtRp2821
(dp2822
g62
(dp2823
sg71
g2460
sg64
(lp2824
g57
(g78
g59
NtRp2825
(dp2826
g62
(dp2827
g82
g83
ssg71
g2821
sg64
(lp2828
S'SERVER_PROTOCOL'
p2829
asbag57
(g78
g59
NtRp2830
(dp2831
g62
(dp2832
g89
g90
ssg71
g2821
sg64
(lp2833
S':'
asbag57
(g78
g59
NtRp2834
(dp2835
g62
(dp2836
sg71
g2821
sg64
(lp2837
g57
(g58
g59
NtRp2838
(dp2839
g62
(dp2840
g70
I3
ssg71
g2834
sg64
(lp2841
g1428
asbasbasbag57
(g73
g59
NtRp2842
(dp2843
g62
(dp2844
sg71
g2460
sg64
(lp2845
g57
(g78
g59
NtRp2846
(dp2847
g62
(dp2848
g82
g83
ssg71
g2842
sg64
(lp2849
S'SERVER_SOFTWARE'
p2850
asbag57
(g78
g59
NtRp2851
(dp2852
g62
(dp2853
g89
g90
ssg71
g2842
sg64
(lp2854
S':'
asbag57
(g78
g59
NtRp2855
(dp2856
g62
(dp2857
sg71
g2842
sg64
(lp2858
g57
(g58
g59
NtRp2859
(dp2860
g62
(dp2861
g70
I3
ssg71
g2855
sg64
(lp2862
g1450
asbasbasbag57
(g73
g59
NtRp2863
(dp2864
g62
(dp2865
sg71
g2460
sg64
(lp2866
g57
(g78
g59
NtRp2867
(dp2868
g62
(dp2869
g82
g83
ssg71
g2863
sg64
(lp2870
S'wsgi.errors'
p2871
asbag57
(g78
g59
NtRp2872
(dp2873
g62
(dp2874
g89
g90
ssg71
g2863
sg64
(lp2875
S':'
asbag57
(g78
g59
NtRp2876
(dp2877
g62
(dp2878
sg71
g2863
sg64
(lp2879
g57
(g58
g59
NtRp2880
(dp2881
g62
(dp2882
g70
I3
ssg71
g2876
sg64
(lp2883
S"<open file '<stderr>', mode 'w' at 0x7fb48f9e6270>"
p2884
asbasbasbag57
(g73
g59
NtRp2885
(dp2886
g62
(dp2887
sg71
g2460
sg64
(lp2888
g57
(g78
g59
NtRp2889
(dp2890
g62
(dp2891
g82
g83
ssg71
g2885
sg64
(lp2892
S'wsgi.file_wrapper'
p2893
asbag57
(g78
g59
NtRp2894
(dp2895
g62
(dp2896
g89
g90
ssg71
g2885
sg64
(lp2897
S':'
asbag57
(g78
g59
NtRp2898
(dp2899
g62
(dp2900
sg71
g2885
sg64
(lp2901
g57
(g58
g59
NtRp2902
(dp2903
g62
(dp2904
g70
I3
ssg71
g2898
sg64
(lp2905
S'<class wsgiref.util.FileWrapper at 0x2f52328>'
p2906
asbasbasbag57
(g73
g59
NtRp2907
(dp2908
g62
(dp2909
sg71
g2460
sg64
(lp2910
g57
(g78
g59
NtRp2911
(dp2912
g62
(dp2913
g82
g83
ssg71
g2907
sg64
(lp2914
S'wsgi.input'
p2915
asbag57
(g78
g59
NtRp2916
(dp2917
g62
(dp2918
g89
g90
ssg71
g2907
sg64
(lp2919
S':'
asbag57
(g78
g59
NtRp2920
(dp2921
g62
(dp2922
sg71
g2907
sg64
(lp2923
g57
(g58
g59
NtRp2924
(dp2925
g62
(dp2926
g70
I3
ssg71
g2920
sg64
(lp2927
S'<cStringIO.StringO object at 0x7fb44c5ab068>'
p2928
asbasbasbag57
(g73
g59
NtRp2929
(dp2930
g62
(dp2931
sg71
g2460
sg64
(lp2932
g57
(g78
g59
NtRp2933
(dp2934
g62
(dp2935
g82
g83
ssg71
g2929
sg64
(lp2936
S'wsgi.multiprocess'
p2937
asbag57
(g78
g59
NtRp2938
(dp2939
g62
(dp2940
g89
g90
ssg71
g2929
sg64
(lp2941
S':'
asbag57
(g78
g59
NtRp2942
(dp2943
g62
(dp2944
sg71
g2929
sg64
(lp2945
g57
(g58
g59
NtRp2946
(dp2947
g62
(dp2948
g70
I3
ssg71
g2942
sg64
(lp2949
g100
asbasbasbag57
(g73
g59
NtRp2950
(dp2951
g62
(dp2952
sg71
g2460
sg64
(lp2953
g57
(g78
g59
NtRp2954
(dp2955
g62
(dp2956
g82
g83
ssg71
g2950
sg64
(lp2957
S'wsgi.multithread'
p2958
asbag57
(g78
g59
NtRp2959
(dp2960
g62
(dp2961
g89
g90
ssg71
g2950
sg64
(lp2962
S':'
asbag57
(g78
g59
NtRp2963
(dp2964
g62
(dp2965
sg71
g2950
sg64
(lp2966
g57
(g58
g59
NtRp2967
(dp2968
g62
(dp2969
g70
I3
ssg71
g2963
sg64
(lp2970
g1690
asbasbasbag57
(g73
g59
NtRp2971
(dp2972
g62
(dp2973
sg71
g2460
sg64
(lp2974
g57
(g78
g59
NtRp2975
(dp2976
g62
(dp2977
g82
g83
ssg71
g2971
sg64
(lp2978
S'wsgi.run_once'
p2979
asbag57
(g78
g59
NtRp2980
(dp2981
g62
(dp2982
g89
g90
ssg71
g2971
sg64
(lp2983
S':'
asbag57
(g78
g59
NtRp2984
(dp2985
g62
(dp2986
sg71
g2971
sg64
(lp2987
g57
(g58
g59
NtRp2988
(dp2989
g62
(dp2990
g70
I3
ssg71
g2984
sg64
(lp2991
g100
asbasbasbag57
(g73
g59
NtRp2992
(dp2993
g62
(dp2994
sg71
g2460
sg64
(lp2995
g57
(g78
g59
NtRp2996
(dp2997
g62
(dp2998
g82
g83
ssg71
g2992
sg64
(lp2999
S'wsgi.url_scheme'
p3000
asbag57
(g78
g59
NtRp3001
(dp3002
g62
(dp3003
g89
g90
ssg71
g2992
sg64
(lp3004
S':'
asbag57
(g78
g59
NtRp3005
(dp3006
g62
(dp3007
sg71
g2992
sg64
(lp3008
g57
(g58
g59
NtRp3009
(dp3010
g62
(dp3011
g70
I3
ssg71
g3005
sg64
(lp3012
g1733
asbasbasbag57
(g73
g59
NtRp3013
(dp3014
g62
(dp3015
sg71
g2460
sg64
(lp3016
g57
(g78
g59
NtRp3017
(dp3018
g62
(dp3019
g82
g83
ssg71
g3013
sg64
(lp3020
S'wsgi.version'
p3021
asbag57
(g78
g59
NtRp3022
(dp3023
g62
(dp3024
g89
g90
ssg71
g3013
sg64
(lp3025
S':'
asbag57
(g78
g59
NtRp3026
(dp3027
g62
(dp3028
sg71
g3013
sg64
(lp3029
g57
(g58
g59
NtRp3030
(dp3031
g62
(dp3032
g70
I3
ssg71
g3026
sg64
(lp3033
S'1'
asbasbasbasbasbasbasbasbasbasbasbasbasbsS'frames'
p3034
(lp3035
(dp3036
S'file'
p3037
S'/usr/lib/pymodules/python2.7/gluon/restricted.py'
p3038
sS'dump'
p3039
(dp3040
S'environment'
p3041
S"{'A': <class 'gluon.html.A'>, 'Auth': <class 'gluon.tools.Auth'>, 'B': <class 'gluon.html.B'>, 'BEAUTIFY': <class 'gluon.html.BEAUTIFY'>, 'BODY': <class 'gluon.html.BODY'>, 'BR': <class 'gluon.html.BR'>, 'BUTTON': <class 'gluon.html.BUTTON'>, 'CAT': <class 'gluon.html.CAT'>, 'CENTER': <class 'gluon.html.CENTER'>, 'CLEANUP': <class 'gluon.validators.CLEANUP'>, ...}"
p3042
sS'ccode'
p3043
S'<code object <module> at 0x7fb43c112bb0, file "/...cations/app1/views/default/listcat.html", line 1>'
p3044
ssS'lnum'
p3045
I204
sS'lines'
p3046
(dp3047
I199
S'    try:'
p3048
sI200
S'        if type(code) == types.CodeType:'
p3049
sI201
S'            ccode = code'
p3050
sI202
S'        else:'
p3051
sI203
S'            ccode = compile2(code,layer)'
p3052
sI204
S'        exec ccode in environment'
p3053
sI205
S'    except HTTP:'
p3054
sI206
S'        raise'
p3055
sI207
S'    except RestrictedError:'
p3056
sI208
S'        # do not encapsulate (obfuscate) the original RestrictedError'
p3057
ssS'call'
p3058
S'(code=r"response.write(\'<!DOCTYPE html>\\n<!-- paulirish....ponse.write(\'\\n</body>\\n</html>\\n\', escape=False)", environment={\'A\': <class \'gluon.html.A\'>, \'Auth\': <class \'gluon.tools.Auth\'>, \'B\': <class \'gluon.html.B\'>, \'BEAUTIFY\': <class \'gluon.html.BEAUTIFY\'>, \'BODY\': <class \'gluon.html.BODY\'>, \'BR\': <class \'gluon.html.BR\'>, \'BUTTON\': <class \'gluon.html.BUTTON\'>, \'CAT\': <class \'gluon.html.CAT\'>, \'CENTER\': <class \'gluon.html.CENTER\'>, \'CLEANUP\': <class \'gluon.validators.CLEANUP\'>, ...}, layer=\'/home/jigar/web2py/applications/app1/views/default/listcat.html\')'
p3059
sS'func'
p3060
S'restricted'
p3061
sa(dp3062
g3037
S'/home/jigar/web2py/applications/app1/views/default/listcat.html'
p3063
sg3039
(dp3064
sg3045
I76
sg3046
(dp3065
I67
S'    response.write(\'\\n        <div class="four columns left-sidebar">\\n          \', escape=False)'
p3066
sI68
S"    response.write('\\n          <h3>Left Sidebar</h3>\\n          <p></p>\\n          ', escape=False)"
p3067
sI69
S"    response.write('\\n        </div>\\n        ', escape=False)"
p3068
sI70
S'    pass'
p3069
sI71
S'response.write(\'\\n        \\n        <div class="\', escape=False)'
p3070
sI72
S'response.write(middle_columns)'
p3071
sI73
S'response.write(\' columns center">\\n          \', escape=False)'
p3072
sI74
S"response.write('\\n          ', escape=False)"
p3073
sI75
S"response.write('\\n<table>\\n<tr>\\n<th>CATEGORIES :</th>\\n', escape=False)"
p3074
sI76
S'for j in range(len(ca)):'
p3075
sI77
S'    response.write("\\n<td><a href=\'listcat/", escape=False)'
p3076
sI78
S"    response.write(ca[j]['id'])"
p3077
sI79
S'    response.write("\'>", escape=False)'
p3078
sI80
S"    response.write(ca[j]['Name'])"
p3079
sI81
S"    response.write('</a></td>\\n', escape=False)"
p3080
sI82
S'    pass'
p3081
sI83
S'response.write("\\n</tr>\\n</table>\\n<font size=\'16\'><b>CATEGORY : ", escape=False)'
p3082
sI84
S"response.write(x[0]['Category'])"
p3083
sI85
S"response.write('</b></font>\\n', escape=False)"
p3084
sI86
S'i=(len(x)-1)'
p3085
ssg3058
S'()'
p3086
sg3060
S'<module>'
p3087
sasS'pyver'
p3088
S'Python 2.7.3: /usr/bin/python'
p3089
sS'session'
p3090
g57
(g58
g59
NtRp3091
(dp3092
g62
(dp3093
sg64
(lp3094
g57
(g66
g59
NtRp3095
(dp3096
g62
(dp3097
g70
I5
ssg71
Nsg64
(lp3098
g57
(g73
g59
NtRp3099
(dp3100
g62
(dp3101
sg71
g3095
sg64
(lp3102
g57
(g78
g59
NtRp3103
(dp3104
g62
(dp3105
g82
g83
ssg71
g3099
sg64
(lp3106
S'auth'
p3107
asbag57
(g78
g59
NtRp3108
(dp3109
g62
(dp3110
g89
g90
ssg71
g3099
sg64
(lp3111
S':'
asbag57
(g78
g59
NtRp3112
(dp3113
g62
(dp3114
sg71
g3099
sg64
(lp3115
g57
(g58
g59
NtRp3116
(dp3117
g62
(dp3118
g70
I5
ssg71
g3112
sg64
(lp3119
g57
(g66
g59
NtRp3120
(dp3121
g62
(dp3122
g70
I4
ssg71
Nsg64
(lp3123
g57
(g73
g59
NtRp3124
(dp3125
g62
(dp3126
sg71
g3120
sg64
(lp3127
g57
(g78
g59
NtRp3128
(dp3129
g62
(dp3130
g82
g83
ssg71
g3124
sg64
(lp3131
S'expiration'
p3132
asbag57
(g78
g59
NtRp3133
(dp3134
g62
(dp3135
g89
g90
ssg71
g3124
sg64
(lp3136
S':'
asbag57
(g78
g59
NtRp3137
(dp3138
g62
(dp3139
sg71
g3124
sg64
(lp3140
g57
(g58
g59
NtRp3141
(dp3142
g62
(dp3143
g70
I4
ssg71
g3137
sg64
(lp3144
S'2592000'
p3145
asbasbasbag57
(g73
g59
NtRp3146
(dp3147
g62
(dp3148
sg71
g3120
sg64
(lp3149
g57
(g78
g59
NtRp3150
(dp3151
g62
(dp3152
g82
g83
ssg71
g3146
sg64
(lp3153
S'hmac_key'
p3154
asbag57
(g78
g59
NtRp3155
(dp3156
g62
(dp3157
g89
g90
ssg71
g3146
sg64
(lp3158
S':'
asbag57
(g78
g59
NtRp3159
(dp3160
g62
(dp3161
sg71
g3146
sg64
(lp3162
g57
(g58
g59
NtRp3163
(dp3164
g62
(dp3165
g70
I4
ssg71
g3159
sg64
(lp3166
S'210b6841-395e-49ba-88a4-cda1ccfaea82'
p3167
asbasbasbag57
(g73
g59
NtRp3168
(dp3169
g62
(dp3170
sg71
g3120
sg64
(lp3171
g57
(g78
g59
NtRp3172
(dp3173
g62
(dp3174
g82
g83
ssg71
g3168
sg64
(lp3175
S'last_visit'
p3176
asbag57
(g78
g59
NtRp3177
(dp3178
g62
(dp3179
g89
g90
ssg71
g3168
sg64
(lp3180
S':'
asbag57
(g78
g59
NtRp3181
(dp3182
g62
(dp3183
sg71
g3168
sg64
(lp3184
g57
(g58
g59
NtRp3185
(dp3186
g62
(dp3187
g70
I4
ssg71
g3181
sg64
(lp3188
S'datetime.datetime(2013, 9, 1, 22, 16, 48, 472619)'
p3189
asbasbasbag57
(g73
g59
NtRp3190
(dp3191
g62
(dp3192
sg71
g3120
sg64
(lp3193
g57
(g78
g59
NtRp3194
(dp3195
g62
(dp3196
g82
g83
ssg71
g3190
sg64
(lp3197
S'remember'
p3198
asbag57
(g78
g59
NtRp3199
(dp3200
g62
(dp3201
g89
g90
ssg71
g3190
sg64
(lp3202
S':'
asbag57
(g78
g59
NtRp3203
(dp3204
g62
(dp3205
sg71
g3190
sg64
(lp3206
g57
(g58
g59
NtRp3207
(dp3208
g62
(dp3209
g70
I4
ssg71
g3203
sg64
(lp3210
g100
asbasbasbag57
(g73
g59
NtRp3211
(dp3212
g62
(dp3213
sg71
g3120
sg64
(lp3214
g57
(g78
g59
NtRp3215
(dp3216
g62
(dp3217
g82
g83
ssg71
g3211
sg64
(lp3218
S'user'
p3219
asbag57
(g78
g59
NtRp3220
(dp3221
g62
(dp3222
g89
g90
ssg71
g3211
sg64
(lp3223
S':'
asbag57
(g78
g59
NtRp3224
(dp3225
g62
(dp3226
sg71
g3211
sg64
(lp3227
g57
(g58
g59
NtRp3228
(dp3229
g62
(dp3230
g70
I4
ssg71
g3224
sg64
(lp3231
g57
(g66
g59
NtRp3232
(dp3233
g62
(dp3234
g70
I3
ssg71
Nsg64
(lp3235
g57
(g73
g59
NtRp3236
(dp3237
g62
(dp3238
sg71
g3232
sg64
(lp3239
g57
(g78
g59
NtRp3240
(dp3241
g62
(dp3242
g82
g83
ssg71
g3236
sg64
(lp3243
S'City'
p3244
asbag57
(g78
g59
NtRp3245
(dp3246
g62
(dp3247
g89
g90
ssg71
g3236
sg64
(lp3248
S':'
asbag57
(g78
g59
NtRp3249
(dp3250
g62
(dp3251
sg71
g3236
sg64
(lp3252
g57
(g58
g59
NtRp3253
(dp3254
g62
(dp3255
g70
I3
ssg71
g3249
sg64
(lp3256
S'Rajkot'
p3257
asbasbasbag57
(g73
g59
NtRp3258
(dp3259
g62
(dp3260
sg71
g3232
sg64
(lp3261
g57
(g78
g59
NtRp3262
(dp3263
g62
(dp3264
g82
g83
ssg71
g3258
sg64
(lp3265
S'Member_type'
p3266
asbag57
(g78
g59
NtRp3267
(dp3268
g62
(dp3269
g89
g90
ssg71
g3258
sg64
(lp3270
S':'
asbag57
(g78
g59
NtRp3271
(dp3272
g62
(dp3273
sg71
g3258
sg64
(lp3274
g57
(g58
g59
NtRp3275
(dp3276
g62
(dp3277
g70
I3
ssg71
g3271
sg64
(lp3278
S'User'
p3279
asbasbasbag57
(g73
g59
NtRp3280
(dp3281
g62
(dp3282
sg71
g3232
sg64
(lp3283
g57
(g78
g59
NtRp3284
(dp3285
g62
(dp3286
g82
g83
ssg71
g3280
sg64
(lp3287
S'Profile_Pic'
p3288
asbag57
(g78
g59
NtRp3289
(dp3290
g62
(dp3291
g89
g90
ssg71
g3280
sg64
(lp3292
S':'
asbag57
(g78
g59
NtRp3293
(dp3294
g62
(dp3295
sg71
g3280
sg64
(lp3296
g57
(g58
g59
NtRp3297
(dp3298
g62
(dp3299
g70
I3
ssg71
g3293
sg64
(lp3300
S''
asbasbasbag57
(g73
g59
NtRp3301
(dp3302
g62
(dp3303
sg71
g3232
sg64
(lp3304
g57
(g78
g59
NtRp3305
(dp3306
g62
(dp3307
g82
g83
ssg71
g3301
sg64
(lp3308
S'email'
p3309
asbag57
(g78
g59
NtRp3310
(dp3311
g62
(dp3312
g89
g90
ssg71
g3301
sg64
(lp3313
S':'
asbag57
(g78
g59
NtRp3314
(dp3315
g62
(dp3316
sg71
g3301
sg64
(lp3317
g57
(g58
g59
NtRp3318
(dp3319
g62
(dp3320
g70
I3
ssg71
g3314
sg64
(lp3321
S'kotak.ankit@gmail.com'
p3322
asbasbasbag57
(g73
g59
NtRp3323
(dp3324
g62
(dp3325
sg71
g3232
sg64
(lp3326
g57
(g78
g59
NtRp3327
(dp3328
g62
(dp3329
g82
g83
ssg71
g3323
sg64
(lp3330
S'first_name'
p3331
asbag57
(g78
g59
NtRp3332
(dp3333
g62
(dp3334
g89
g90
ssg71
g3323
sg64
(lp3335
S':'
asbag57
(g78
g59
NtRp3336
(dp3337
g62
(dp3338
sg71
g3323
sg64
(lp3339
g57
(g58
g59
NtRp3340
(dp3341
g62
(dp3342
g70
I3
ssg71
g3336
sg64
(lp3343
S'Kotak'
p3344
asbasbasbag57
(g73
g59
NtRp3345
(dp3346
g62
(dp3347
sg71
g3232
sg64
(lp3348
g57
(g78
g59
NtRp3349
(dp3350
g62
(dp3351
g82
g83
ssg71
g3345
sg64
(lp3352
S'id'
p3353
asbag57
(g78
g59
NtRp3354
(dp3355
g62
(dp3356
g89
g90
ssg71
g3345
sg64
(lp3357
S':'
asbag57
(g78
g59
NtRp3358
(dp3359
g62
(dp3360
sg71
g3345
sg64
(lp3361
g57
(g58
g59
NtRp3362
(dp3363
g62
(dp3364
g70
I3
ssg71
g3358
sg64
(lp3365
S'3'
asbasbasbag57
(g73
g59
NtRp3366
(dp3367
g62
(dp3368
sg71
g3232
sg64
(lp3369
g57
(g78
g59
NtRp3370
(dp3371
g62
(dp3372
g82
g83
ssg71
g3366
sg64
(lp3373
S'last_name'
p3374
asbag57
(g78
g59
NtRp3375
(dp3376
g62
(dp3377
g89
g90
ssg71
g3366
sg64
(lp3378
S':'
asbag57
(g78
g59
NtRp3379
(dp3380
g62
(dp3381
sg71
g3366
sg64
(lp3382
g57
(g58
g59
NtRp3383
(dp3384
g62
(dp3385
g70
I3
ssg71
g3379
sg64
(lp3386
S'Ankit'
p3387
asbasbasbag57
(g73
g59
NtRp3388
(dp3389
g62
(dp3390
sg71
g3232
sg64
(lp3391
g57
(g78
g59
NtRp3392
(dp3393
g62
(dp3394
g82
g83
ssg71
g3388
sg64
(lp3395
S'password'
p3396
asbag57
(g78
g59
NtRp3397
(dp3398
g62
(dp3399
g89
g90
ssg71
g3388
sg64
(lp3400
S':'
asbag57
(g78
g59
NtRp3401
(dp3402
g62
(dp3403
sg71
g3388
sg64
(lp3404
g57
(g58
g59
NtRp3405
(dp3406
g62
(dp3407
g70
I3
ssg71
g3401
sg64
(lp3408
S'322411aa1b7b437bab6c1ef957bd636d'
p3409
asbasbasbag57
(g73
g59
NtRp3410
(dp3411
g62
(dp3412
sg71
g3232
sg64
(lp3413
g57
(g78
g59
NtRp3414
(dp3415
g62
(dp3416
g82
g83
ssg71
g3410
sg64
(lp3417
S'registration_id'
p3418
asbag57
(g78
g59
NtRp3419
(dp3420
g62
(dp3421
g89
g90
ssg71
g3410
sg64
(lp3422
S':'
asbag57
(g78
g59
NtRp3423
(dp3424
g62
(dp3425
sg71
g3410
sg64
(lp3426
g57
(g58
g59
NtRp3427
(dp3428
g62
(dp3429
g70
I3
ssg71
g3423
sg64
(lp3430
S''
asbasbasbag57
(g73
g59
NtRp3431
(dp3432
g62
(dp3433
sg71
g3232
sg64
(lp3434
g57
(g78
g59
NtRp3435
(dp3436
g62
(dp3437
g82
g83
ssg71
g3431
sg64
(lp3438
S'registration_key'
p3439
asbag57
(g78
g59
NtRp3440
(dp3441
g62
(dp3442
g89
g90
ssg71
g3431
sg64
(lp3443
S':'
asbag57
(g78
g59
NtRp3444
(dp3445
g62
(dp3446
sg71
g3431
sg64
(lp3447
g57
(g58
g59
NtRp3448
(dp3449
g62
(dp3450
g70
I3
ssg71
g3444
sg64
(lp3451
S''
asbasbasbag57
(g73
g59
NtRp3452
(dp3453
g62
(dp3454
sg71
g3232
sg64
(lp3455
g57
(g78
g59
NtRp3456
(dp3457
g62
(dp3458
g82
g83
ssg71
g3452
sg64
(lp3459
S'reset_password_key'
p3460
asbag57
(g78
g59
NtRp3461
(dp3462
g62
(dp3463
g89
g90
ssg71
g3452
sg64
(lp3464
S':'
asbag57
(g78
g59
NtRp3465
(dp3466
g62
(dp3467
sg71
g3452
sg64
(lp3468
g57
(g58
g59
NtRp3469
(dp3470
g62
(dp3471
g70
I3
ssg71
g3465
sg64
(lp3472
S''
asbasbasbasbasbasbasbasbasbasbasbag57
(g73
g59
NtRp3473
(dp3474
g62
(dp3475
sg71
g3095
sg64
(lp3476
g57
(g78
g59
NtRp3477
(dp3478
g62
(dp3479
g82
g83
ssg71
g3473
sg64
(lp3480
S'last_query'
p3481
asbag57
(g78
g59
NtRp3482
(dp3483
g62
(dp3484
g89
g90
ssg71
g3473
sg64
(lp3485
S':'
asbag57
(g78
g59
NtRp3486
(dp3487
g62
(dp3488
sg71
g3473
sg64
(lp3489
g57
(g58
g59
NtRp3490
(dp3491
g62
(dp3492
g70
I5
ssg71
g3486
sg64
(lp3493
S'db.Comment.id>0'
p3494
asbasbasbasbasbsS'etype'
p3495
S"<type 'exceptions.NameError'>"
p3496
sS'date'
p3497
S'Sun Sep  1 23:26:33 2013'
p3498
sS'response'
p3499
g57
(g58
g59
NtRp3500
(dp3501
g62
(dp3502
sg64
(lp3503
g57
(g66
g59
NtRp3504
(dp3505
g62
(dp3506
g70
I5
ssg71
Nsg64
(lp3507
g57
(g73
g59
NtRp3508
(dp3509
g62
(dp3510
sg71
g3504
sg64
(lp3511
g57
(g78
g59
NtRp3512
(dp3513
g62
(dp3514
g82
g83
ssg71
g3508
sg64
(lp3515
g167
asbag57
(g78
g59
NtRp3516
(dp3517
g62
(dp3518
g89
g90
ssg71
g3508
sg64
(lp3519
S':'
asbag57
(g78
g59
NtRp3520
(dp3521
g62
(dp3522
sg71
g3508
sg64
(lp3523
g57
(g58
g59
NtRp3524
(dp3525
g62
(dp3526
g70
I5
ssg71
g3520
sg64
(lp3527
S'<cStringIO.StringO object at 0x7fb43c12ce30>'
p3528
asbasbasbag57
(g73
g59
NtRp3529
(dp3530
g62
(dp3531
sg71
g3504
sg64
(lp3532
g57
(g78
g59
NtRp3533
(dp3534
g62
(dp3535
g82
g83
ssg71
g3529
sg64
(lp3536
g233
asbag57
(g78
g59
NtRp3537
(dp3538
g62
(dp3539
g89
g90
ssg71
g3529
sg64
(lp3540
S':'
asbag57
(g78
g59
NtRp3541
(dp3542
g62
(dp3543
sg71
g3529
sg64
(lp3544
g57
(g58
g59
NtRp3545
(dp3546
g62
(dp3547
g70
I5
ssg71
g3541
sg64
(lp3548
g57
(g66
g59
NtRp3549
(dp3550
g62
(dp3551
g70
I4
ssg71
Nsg64
(lp3552
g57
(g73
g59
NtRp3553
(dp3554
g62
(dp3555
sg71
g3549
sg64
(lp3556
g57
(g78
g59
NtRp3557
(dp3558
g62
(dp3559
g82
g83
ssg71
g3553
sg64
(lp3560
S'session_id_app1'
p3561
asbag57
(g78
g59
NtRp3562
(dp3563
g62
(dp3564
g89
g90
ssg71
g3553
sg64
(lp3565
S':'
asbag57
(g78
g59
NtRp3566
(dp3567
g62
(dp3568
sg71
g3553
sg64
(lp3569
g57
(g58
g59
NtRp3570
(dp3571
g62
(dp3572
g70
I4
ssg71
g3566
sg64
(lp3573
g57
(g66
g59
NtRp3574
(dp3575
g62
(dp3576
g70
I3
ssg71
Nsg64
(lp3577
g57
(g73
g59
NtRp3578
(dp3579
g62
(dp3580
sg71
g3574
sg64
(lp3581
g57
(g78
g59
NtRp3582
(dp3583
g62
(dp3584
g82
g83
ssg71
g3578
sg64
(lp3585
g283
asbag57
(g78
g59
NtRp3586
(dp3587
g62
(dp3588
g89
g90
ssg71
g3578
sg64
(lp3589
S':'
asbag57
(g78
g59
NtRp3590
(dp3591
g62
(dp3592
sg71
g3578
sg64
(lp3593
g57
(g58
g59
NtRp3594
(dp3595
g62
(dp3596
g70
I3
ssg71
g3590
sg64
(lp3597
S''
asbasbasbag57
(g73
g59
NtRp3598
(dp3599
g62
(dp3600
sg71
g3574
sg64
(lp3601
g57
(g78
g59
NtRp3602
(dp3603
g62
(dp3604
g82
g83
ssg71
g3598
sg64
(lp3605
g304
asbag57
(g78
g59
NtRp3606
(dp3607
g62
(dp3608
g89
g90
ssg71
g3598
sg64
(lp3609
S':'
asbag57
(g78
g59
NtRp3610
(dp3611
g62
(dp3612
sg71
g3598
sg64
(lp3613
g57
(g58
g59
NtRp3614
(dp3615
g62
(dp3616
g70
I3
ssg71
g3610
sg64
(lp3617
S''
asbasbasbag57
(g73
g59
NtRp3618
(dp3619
g62
(dp3620
sg71
g3574
sg64
(lp3621
g57
(g78
g59
NtRp3622
(dp3623
g62
(dp3624
g82
g83
ssg71
g3618
sg64
(lp3625
g325
asbag57
(g78
g59
NtRp3626
(dp3627
g62
(dp3628
g89
g90
ssg71
g3618
sg64
(lp3629
S':'
asbag57
(g78
g59
NtRp3630
(dp3631
g62
(dp3632
sg71
g3618
sg64
(lp3633
g57
(g58
g59
NtRp3634
(dp3635
g62
(dp3636
g70
I3
ssg71
g3630
sg64
(lp3637
S''
asbasbasbag57
(g73
g59
NtRp3638
(dp3639
g62
(dp3640
sg71
g3574
sg64
(lp3641
g57
(g78
g59
NtRp3642
(dp3643
g62
(dp3644
g82
g83
ssg71
g3638
sg64
(lp3645
g346
asbag57
(g78
g59
NtRp3646
(dp3647
g62
(dp3648
g89
g90
ssg71
g3638
sg64
(lp3649
S':'
asbag57
(g78
g59
NtRp3650
(dp3651
g62
(dp3652
sg71
g3638
sg64
(lp3653
g57
(g58
g59
NtRp3654
(dp3655
g62
(dp3656
g70
I3
ssg71
g3650
sg64
(lp3657
S''
asbasbasbag57
(g73
g59
NtRp3658
(dp3659
g62
(dp3660
sg71
g3574
sg64
(lp3661
g57
(g78
g59
NtRp3662
(dp3663
g62
(dp3664
g82
g83
ssg71
g3658
sg64
(lp3665
g367
asbag57
(g78
g59
NtRp3666
(dp3667
g62
(dp3668
g89
g90
ssg71
g3658
sg64
(lp3669
S':'
asbag57
(g78
g59
NtRp3670
(dp3671
g62
(dp3672
sg71
g3658
sg64
(lp3673
g57
(g58
g59
NtRp3674
(dp3675
g62
(dp3676
g70
I3
ssg71
g3670
sg64
(lp3677
S''
asbasbasbag57
(g73
g59
NtRp3678
(dp3679
g62
(dp3680
sg71
g3574
sg64
(lp3681
g57
(g78
g59
NtRp3682
(dp3683
g62
(dp3684
g82
g83
ssg71
g3678
sg64
(lp3685
g388
asbag57
(g78
g59
NtRp3686
(dp3687
g62
(dp3688
g89
g90
ssg71
g3678
sg64
(lp3689
S':'
asbag57
(g78
g59
NtRp3690
(dp3691
g62
(dp3692
sg71
g3678
sg64
(lp3693
g57
(g58
g59
NtRp3694
(dp3695
g62
(dp3696
g70
I3
ssg71
g3690
sg64
(lp3697
S'/'
asbasbasbag57
(g73
g59
NtRp3698
(dp3699
g62
(dp3700
sg71
g3574
sg64
(lp3701
g57
(g78
g59
NtRp3702
(dp3703
g62
(dp3704
g82
g83
ssg71
g3698
sg64
(lp3705
g409
asbag57
(g78
g59
NtRp3706
(dp3707
g62
(dp3708
g89
g90
ssg71
g3698
sg64
(lp3709
S':'
asbag57
(g78
g59
NtRp3710
(dp3711
g62
(dp3712
sg71
g3698
sg64
(lp3713
g57
(g58
g59
NtRp3714
(dp3715
g62
(dp3716
g70
I3
ssg71
g3710
sg64
(lp3717
S''
asbasbasbag57
(g73
g59
NtRp3718
(dp3719
g62
(dp3720
sg71
g3574
sg64
(lp3721
g57
(g78
g59
NtRp3722
(dp3723
g62
(dp3724
g82
g83
ssg71
g3718
sg64
(lp3725
g430
asbag57
(g78
g59
NtRp3726
(dp3727
g62
(dp3728
g89
g90
ssg71
g3718
sg64
(lp3729
S':'
asbag57
(g78
g59
NtRp3730
(dp3731
g62
(dp3732
sg71
g3718
sg64
(lp3733
g57
(g58
g59
NtRp3734
(dp3735
g62
(dp3736
g70
I3
ssg71
g3730
sg64
(lp3737
S''
asbasbasbasbasbasbasbasbasbasbasbag57
(g73
g59
NtRp3738
(dp3739
g62
(dp3740
sg71
g3504
sg64
(lp3741
g57
(g78
g59
NtRp3742
(dp3743
g62
(dp3744
g82
g83
ssg71
g3738
sg64
(lp3745
S'files'
p3746
asbag57
(g78
g59
NtRp3747
(dp3748
g62
(dp3749
g89
g90
ssg71
g3738
sg64
(lp3750
S':'
asbag57
(g78
g59
NtRp3751
(dp3752
g62
(dp3753
sg71
g3738
sg64
(lp3754
g57
(g58
g59
NtRp3755
(dp3756
g62
(dp3757
g70
I5
ssg71
g3751
sg64
(lp3758
g57
(g66
g59
NtRp3759
(dp3760
g62
(dp3761
g70
I4
ssg71
Nsg64
(lp3762
g57
(g73
g59
NtRp3763
(dp3764
g62
(dp3765
sg71
g3759
sg64
(lp3766
g57
(g78
g59
NtRp3767
(dp3768
g62
(dp3769
sg71
g3763
sg64
(lp3770
g57
(g58
g59
NtRp3771
(dp3772
g62
(dp3773
g70
I4
ssg71
g3767
sg64
(lp3774
S'/app1/static/js/jquery.js'
p3775
asbasbasbag57
(g73
g59
NtRp3776
(dp3777
g62
(dp3778
sg71
g3759
sg64
(lp3779
g57
(g78
g59
NtRp3780
(dp3781
g62
(dp3782
sg71
g3776
sg64
(lp3783
g57
(g58
g59
NtRp3784
(dp3785
g62
(dp3786
g70
I4
ssg71
g3780
sg64
(lp3787
S'/app1/static/css/calendar.css'
p3788
asbasbasbag57
(g73
g59
NtRp3789
(dp3790
g62
(dp3791
sg71
g3759
sg64
(lp3792
g57
(g78
g59
NtRp3793
(dp3794
g62
(dp3795
sg71
g3789
sg64
(lp3796
g57
(g58
g59
NtRp3797
(dp3798
g62
(dp3799
g70
I4
ssg71
g3793
sg64
(lp3800
S'/app1/static/js/calendar.js'
p3801
asbasbasbag57
(g73
g59
NtRp3802
(dp3803
g62
(dp3804
sg71
g3759
sg64
(lp3805
g57
(g78
g59
NtRp3806
(dp3807
g62
(dp3808
sg71
g3802
sg64
(lp3809
g57
(g58
g59
NtRp3810
(dp3811
g62
(dp3812
g70
I4
ssg71
g3806
sg64
(lp3813
S'/app1/static/js/web2py.js'
p3814
asbasbasbag57
(g73
g59
NtRp3815
(dp3816
g62
(dp3817
sg71
g3759
sg64
(lp3818
g57
(g78
g59
NtRp3819
(dp3820
g62
(dp3821
sg71
g3815
sg64
(lp3822
g57
(g58
g59
NtRp3823
(dp3824
g62
(dp3825
g70
I4
ssg71
g3819
sg64
(lp3826
S'/app1/static/css/skeleton.css'
p3827
asbasbasbag57
(g73
g59
NtRp3828
(dp3829
g62
(dp3830
sg71
g3759
sg64
(lp3831
g57
(g78
g59
NtRp3832
(dp3833
g62
(dp3834
sg71
g3828
sg64
(lp3835
g57
(g58
g59
NtRp3836
(dp3837
g62
(dp3838
g70
I4
ssg71
g3832
sg64
(lp3839
S'/app1/static/css/web2py.css'
p3840
asbasbasbag57
(g73
g59
NtRp3841
(dp3842
g62
(dp3843
sg71
g3759
sg64
(lp3844
g57
(g78
g59
NtRp3845
(dp3846
g62
(dp3847
sg71
g3841
sg64
(lp3848
g57
(g58
g59
NtRp3849
(dp3850
g62
(dp3851
g70
I4
ssg71
g3845
sg64
(lp3852
S'/app1/static/css/superfish.css'
p3853
asbasbasbag57
(g73
g59
NtRp3854
(dp3855
g62
(dp3856
sg71
g3759
sg64
(lp3857
g57
(g78
g59
NtRp3858
(dp3859
g62
(dp3860
sg71
g3854
sg64
(lp3861
g57
(g58
g59
NtRp3862
(dp3863
g62
(dp3864
g70
I4
ssg71
g3858
sg64
(lp3865
S'/app1/static/js/superfish.js'
p3866
asbasbasbasbasbasbasbag57
(g73
g59
NtRp3867
(dp3868
g62
(dp3869
sg71
g3504
sg64
(lp3870
g57
(g78
g59
NtRp3871
(dp3872
g62
(dp3873
g82
g83
ssg71
g3867
sg64
(lp3874
S'flash'
p3875
asbag57
(g78
g59
NtRp3876
(dp3877
g62
(dp3878
g89
g90
ssg71
g3867
sg64
(lp3879
S':'
asbag57
(g78
g59
NtRp3880
(dp3881
g62
(dp3882
sg71
g3867
sg64
(lp3883
g57
(g58
g59
NtRp3884
(dp3885
g62
(dp3886
g70
I5
ssg71
g3880
sg64
(lp3887
S''
asbasbasbag57
(g73
g59
NtRp3888
(dp3889
g62
(dp3890
sg71
g3504
sg64
(lp3891
g57
(g78
g59
NtRp3892
(dp3893
g62
(dp3894
g82
g83
ssg71
g3888
sg64
(lp3895
S'generic_patterns'
p3896
asbag57
(g78
g59
NtRp3897
(dp3898
g62
(dp3899
g89
g90
ssg71
g3888
sg64
(lp3900
S':'
asbag57
(g78
g59
NtRp3901
(dp3902
g62
(dp3903
sg71
g3888
sg64
(lp3904
g57
(g58
g59
NtRp3905
(dp3906
g62
(dp3907
g70
I5
ssg71
g3901
sg64
(lp3908
g57
(g66
g59
NtRp3909
(dp3910
g62
(dp3911
g70
I4
ssg71
Nsg64
(lp3912
g57
(g73
g59
NtRp3913
(dp3914
g62
(dp3915
sg71
g3909
sg64
(lp3916
g57
(g78
g59
NtRp3917
(dp3918
g62
(dp3919
sg71
g3913
sg64
(lp3920
g57
(g58
g59
NtRp3921
(dp3922
g62
(dp3923
g70
I4
ssg71
g3917
sg64
(lp3924
S'*'
asbasbasbasbasbasbasbag57
(g73
g59
NtRp3925
(dp3926
g62
(dp3927
sg71
g3504
sg64
(lp3928
g57
(g78
g59
NtRp3929
(dp3930
g62
(dp3931
g82
g83
ssg71
g3925
sg64
(lp3932
S'headers'
p3933
asbag57
(g78
g59
NtRp3934
(dp3935
g62
(dp3936
g89
g90
ssg71
g3925
sg64
(lp3937
S':'
asbag57
(g78
g59
NtRp3938
(dp3939
g62
(dp3940
sg71
g3925
sg64
(lp3941
g57
(g58
g59
NtRp3942
(dp3943
g62
(dp3944
g70
I5
ssg71
g3938
sg64
(lp3945
g57
(g66
g59
NtRp3946
(dp3947
g62
(dp3948
g70
I4
ssg71
Nsg64
(lp3949
g57
(g73
g59
NtRp3950
(dp3951
g62
(dp3952
sg71
g3946
sg64
(lp3953
g57
(g78
g59
NtRp3954
(dp3955
g62
(dp3956
g82
g83
ssg71
g3950
sg64
(lp3957
S'Cache-Control'
p3958
asbag57
(g78
g59
NtRp3959
(dp3960
g62
(dp3961
g89
g90
ssg71
g3950
sg64
(lp3962
S':'
asbag57
(g78
g59
NtRp3963
(dp3964
g62
(dp3965
sg71
g3950
sg64
(lp3966
g57
(g58
g59
NtRp3967
(dp3968
g62
(dp3969
g70
I4
ssg71
g3963
sg64
(lp3970
S'no-store, no-cache, must-revalidate, post-check=0, pre-check=0'
p3971
asbasbasbag57
(g73
g59
NtRp3972
(dp3973
g62
(dp3974
sg71
g3946
sg64
(lp3975
g57
(g78
g59
NtRp3976
(dp3977
g62
(dp3978
g82
g83
ssg71
g3972
sg64
(lp3979
S'Content-Type'
p3980
asbag57
(g78
g59
NtRp3981
(dp3982
g62
(dp3983
g89
g90
ssg71
g3972
sg64
(lp3984
S':'
asbag57
(g78
g59
NtRp3985
(dp3986
g62
(dp3987
sg71
g3972
sg64
(lp3988
g57
(g58
g59
NtRp3989
(dp3990
g62
(dp3991
g70
I4
ssg71
g3985
sg64
(lp3992
S'text/html; charset=utf-8'
p3993
asbasbasbag57
(g73
g59
NtRp3994
(dp3995
g62
(dp3996
sg71
g3946
sg64
(lp3997
g57
(g78
g59
NtRp3998
(dp3999
g62
(dp4000
g82
g83
ssg71
g3994
sg64
(lp4001
S'Expires'
p4002
asbag57
(g78
g59
NtRp4003
(dp4004
g62
(dp4005
g89
g90
ssg71
g3994
sg64
(lp4006
S':'
asbag57
(g78
g59
NtRp4007
(dp4008
g62
(dp4009
sg71
g3994
sg64
(lp4010
g57
(g58
g59
NtRp4011
(dp4012
g62
(dp4013
g70
I4
ssg71
g4007
sg64
(lp4014
S'Sun, 01 Sep 2013 17:56:33 GMT'
p4015
asbasbasbag57
(g73
g59
NtRp4016
(dp4017
g62
(dp4018
sg71
g3946
sg64
(lp4019
g57
(g78
g59
NtRp4020
(dp4021
g62
(dp4022
g82
g83
ssg71
g4016
sg64
(lp4023
S'Pragma'
p4024
asbag57
(g78
g59
NtRp4025
(dp4026
g62
(dp4027
g89
g90
ssg71
g4016
sg64
(lp4028
S':'
asbag57
(g78
g59
NtRp4029
(dp4030
g62
(dp4031
sg71
g4016
sg64
(lp4032
g57
(g58
g59
NtRp4033
(dp4034
g62
(dp4035
g70
I4
ssg71
g4029
sg64
(lp4036
S'no-cache'
p4037
asbasbasbag57
(g73
g59
NtRp4038
(dp4039
g62
(dp4040
sg71
g3946
sg64
(lp4041
g57
(g78
g59
NtRp4042
(dp4043
g62
(dp4044
g82
g83
ssg71
g4038
sg64
(lp4045
S'X-Powered-By'
p4046
asbag57
(g78
g59
NtRp4047
(dp4048
g62
(dp4049
g89
g90
ssg71
g4038
sg64
(lp4050
S':'
asbag57
(g78
g59
NtRp4051
(dp4052
g62
(dp4053
sg71
g4038
sg64
(lp4054
g57
(g58
g59
NtRp4055
(dp4056
g62
(dp4057
g70
I4
ssg71
g4051
sg64
(lp4058
S'web2py'
p4059
asbasbasbasbasbasbasbag57
(g73
g59
NtRp4060
(dp4061
g62
(dp4062
sg71
g3504
sg64
(lp4063
g57
(g78
g59
NtRp4064
(dp4065
g62
(dp4066
g82
g83
ssg71
g4060
sg64
(lp4067
S'menu'
p4068
asbag57
(g78
g59
NtRp4069
(dp4070
g62
(dp4071
g89
g90
ssg71
g4060
sg64
(lp4072
S':'
asbag57
(g78
g59
NtRp4073
(dp4074
g62
(dp4075
sg71
g4060
sg64
(lp4076
g57
(g58
g59
NtRp4077
(dp4078
g62
(dp4079
g70
I5
ssg71
g4073
sg64
(lp4080
g57
(g66
g59
NtRp4081
(dp4082
g62
(dp4083
g70
I4
ssg71
Nsg64
(lp4084
g57
(g73
g59
NtRp4085
(dp4086
g62
(dp4087
sg71
g4081
sg64
(lp4088
g57
(g78
g59
NtRp4089
(dp4090
g62
(dp4091
sg71
g4085
sg64
(lp4092
g57
(g58
g59
NtRp4093
(dp4094
g62
(dp4095
g70
I4
ssg71
g4089
sg64
(lp4096
g57
(g66
g59
NtRp4097
(dp4098
g62
(dp4099
g70
I3
ssg71
Nsg64
(lp4100
g57
(g73
g59
NtRp4101
(dp4102
g62
(dp4103
sg71
g4097
sg64
(lp4104
g57
(g78
g59
NtRp4105
(dp4106
g62
(dp4107
sg71
g4101
sg64
(lp4108
g57
(g58
g59
NtRp4109
(dp4110
g62
(dp4111
g70
I3
ssg71
g4105
sg64
(lp4112
cgluon.languages
lazyT_unpickle
p4113
(S't\x04\x00\x00\x00Home'
tRp4114
asbasbasbag57
(g73
g59
NtRp4115
(dp4116
g62
(dp4117
sg71
g4097
sg64
(lp4118
g57
(g78
g59
NtRp4119
(dp4120
g62
(dp4121
sg71
g4115
sg64
(lp4122
g57
(g58
g59
NtRp4123
(dp4124
g62
(dp4125
g70
I3
ssg71
g4119
sg64
(lp4126
g100
asbasbasbag57
(g73
g59
NtRp4127
(dp4128
g62
(dp4129
sg71
g4097
sg64
(lp4130
g57
(g78
g59
NtRp4131
(dp4132
g62
(dp4133
sg71
g4127
sg64
(lp4134
g57
(g58
g59
NtRp4135
(dp4136
g62
(dp4137
g70
I3
ssg71
g4131
sg64
(lp4138
S'/app1/default/lall'
p4139
asbasbasbag57
(g73
g59
NtRp4140
(dp4141
g62
(dp4142
sg71
g4097
sg64
(lp4143
g57
(g78
g59
NtRp4144
(dp4145
g62
(dp4146
sg71
g4140
sg64
(lp4147
g57
(g58
g59
NtRp4148
(dp4149
g62
(dp4150
g70
I3
ssg71
g4144
sg64
(lp4151
g57
(g66
g59
NtRp4152
(dp4153
g62
(dp4154
g70
I2
ssg71
Nsg64
(lp4155
sbasbasbasbasbasbasbasbag57
(g73
g59
NtRp4156
(dp4157
g62
(dp4158
sg71
g4081
sg64
(lp4159
g57
(g78
g59
NtRp4160
(dp4161
g62
(dp4162
sg71
g4156
sg64
(lp4163
g57
(g58
g59
NtRp4164
(dp4165
g62
(dp4166
g70
I4
ssg71
g4160
sg64
(lp4167
g57
(g66
g59
NtRp4168
(dp4169
g62
(dp4170
g70
I3
ssg71
Nsg64
(lp4171
g57
(g73
g59
NtRp4172
(dp4173
g62
(dp4174
sg71
g4168
sg64
(lp4175
g57
(g78
g59
NtRp4176
(dp4177
g62
(dp4178
sg71
g4172
sg64
(lp4179
g57
(g58
g59
NtRp4180
(dp4181
g62
(dp4182
g70
I3
ssg71
g4176
sg64
(lp4183
g4113
(S's\x08\x00\x00\x00Post it!'
tRp4184
asbasbasbag57
(g73
g59
NtRp4185
(dp4186
g62
(dp4187
sg71
g4168
sg64
(lp4188
g57
(g78
g59
NtRp4189
(dp4190
g62
(dp4191
sg71
g4185
sg64
(lp4192
g57
(g58
g59
NtRp4193
(dp4194
g62
(dp4195
g70
I3
ssg71
g4189
sg64
(lp4196
g100
asbasbasbag57
(g73
g59
NtRp4197
(dp4198
g62
(dp4199
sg71
g4168
sg64
(lp4200
g57
(g78
g59
NtRp4201
(dp4202
g62
(dp4203
sg71
g4197
sg64
(lp4204
g57
(g58
g59
NtRp4205
(dp4206
g62
(dp4207
g70
I3
ssg71
g4201
sg64
(lp4208
S'/app1/default/postnews'
p4209
asbasbasbag57
(g73
g59
NtRp4210
(dp4211
g62
(dp4212
sg71
g4168
sg64
(lp4213
g57
(g78
g59
NtRp4214
(dp4215
g62
(dp4216
sg71
g4210
sg64
(lp4217
g57
(g58
g59
NtRp4218
(dp4219
g62
(dp4220
g70
I3
ssg71
g4214
sg64
(lp4221
g57
(g66
g59
NtRp4222
(dp4223
g62
(dp4224
g70
I2
ssg71
Nsg64
(lp4225
sbasbasbasbasbasbasbasbag57
(g73
g59
NtRp4226
(dp4227
g62
(dp4228
sg71
g4081
sg64
(lp4229
g57
(g78
g59
NtRp4230
(dp4231
g62
(dp4232
sg71
g4226
sg64
(lp4233
g57
(g58
g59
NtRp4234
(dp4235
g62
(dp4236
g70
I4
ssg71
g4230
sg64
(lp4237
g57
(g66
g59
NtRp4238
(dp4239
g62
(dp4240
g70
I3
ssg71
Nsg64
(lp4241
g57
(g73
g59
NtRp4242
(dp4243
g62
(dp4244
sg71
g4238
sg64
(lp4245
g57
(g78
g59
NtRp4246
(dp4247
g62
(dp4248
sg71
g4242
sg64
(lp4249
g57
(g58
g59
NtRp4250
(dp4251
g62
(dp4252
g70
I3
ssg71
g4246
sg64
(lp4253
g57
(cgluon.html
SPAN
p4254
g59
NtRp4255
(dp4256
g62
(dp4257
g82
S'color:yellow'
p4258
ssg71
g57
(cgluon.html
A
p4259
g59
NtRp4260
(dp4261
g62
(dp4262
S'_onclick'
p4263
S'javascript:void(0);return false;'
p4264
sS'_href'
p4265
S'#'
ssg71
g57
(cgluon.html
LI
p4266
g59
NtRp4267
(dp4268
g62
(dp4269
S'_class'
p4270
S'web2py-menu-expand'
p4271
ssg71
g57
(cgluon.html
UL
p4272
g59
NtRp4273
(dp4274
g62
(dp4275
S'mobile'
p4276
I00
sS'li_class'
p4277
g4271
sg4270
S'sf-menu'
p4278
sS'ul_class'
p4279
S'web2py-menu-vertical'
p4280
sS'li_active'
p4281
S'web2py-menu-active'
p4282
ssg71
Nsg64
(lp4283
g57
(g4266
g59
NtRp4284
(dp4285
g62
(dp4286
sg71
g4273
sg64
(lp4287
g57
(g4259
g59
NtRp4288
(dp4289
g62
(dp4290
g4265
g4139
ssg71
g4284
sg64
(lp4291
g4114
asbasbag57
(g4266
g59
NtRp4292
(dp4293
g62
(dp4294
sg71
g4273
sg64
(lp4295
g57
(g4259
g59
NtRp4296
(dp4297
g62
(dp4298
g4265
g4209
ssg71
g4292
sg64
(lp4299
g4184
asbasbag4267
asbsg64
(lp4300
g4260
ag57
(g4272
g59
NtRp4301
(dp4302
g62
(dp4303
g4270
g4280
ssg71
g4267
sg64
(lp4304
g57
(g4266
g59
NtRp4305
(dp4306
g62
(dp4307
sg71
g4301
sg64
(lp4308
g57
(g4259
g59
NtRp4309
(dp4310
g62
(dp4311
g4265
S'/admin/default/site'
p4312
ssg71
g4305
sg64
(lp4313
g4113
(S's\x08\x00\x00\x00My Sites'
tRp4314
asbasbag57
(g4266
g59
NtRp4315
(dp4316
g62
(dp4317
g4270
g4271
ssg71
g4301
sg64
(lp4318
g57
(g4259
g59
NtRp4319
(dp4320
g62
(dp4321
g4265
S'/admin/default/design/app1'
p4322
ssg71
g4315
sg64
(lp4323
g4113
(S's\x08\x00\x00\x00This App'
tRp4324
asbag57
(g4272
g59
NtRp4325
(dp4326
g62
(dp4327
g4270
g4280
ssg71
g4315
sg64
(lp4328
g57
(g4266
g59
NtRp4329
(dp4330
g62
(dp4331
sg71
g4325
sg64
(lp4332
g57
(g4259
g59
NtRp4333
(dp4334
g62
(dp4335
g4265
S'/admin/default/edit/app1/controllers/default.py'
p4336
ssg71
g4329
sg64
(lp4337
g4113
(S't\n\x00\x00\x00Controller'
tRp4338
asbasbag57
(g4266
g59
NtRp4339
(dp4340
g62
(dp4341
sg71
g4325
sg64
(lp4342
g57
(g4259
g59
NtRp4343
(dp4344
g62
(dp4345
g4265
S'/admin/default/edit/app1/views/default/listcat.html'
p4346
ssg71
g4339
sg64
(lp4347
g4113
(S't\x04\x00\x00\x00View'
tRp4348
asbasbag57
(g4266
g59
NtRp4349
(dp4350
g62
(dp4351
sg71
g4325
sg64
(lp4352
g57
(g4259
g59
NtRp4353
(dp4354
g62
(dp4355
g4265
S'/admin/default/edit/app1/views/layout.html'
p4356
ssg71
g4349
sg64
(lp4357
g4113
(S't\x06\x00\x00\x00Layout'
tRp4358
asbasbag57
(g4266
g59
NtRp4359
(dp4360
g62
(dp4361
sg71
g4325
sg64
(lp4362
g57
(g4259
g59
NtRp4363
(dp4364
g62
(dp4365
g4265
S'/admin/default/edit/app1/static/css/web2py.css'
p4366
ssg71
g4359
sg64
(lp4367
g4113
(S't\n\x00\x00\x00Stylesheet'
tRp4368
asbasbag57
(g4266
g59
NtRp4369
(dp4370
g62
(dp4371
sg71
g4325
sg64
(lp4372
g57
(g4259
g59
NtRp4373
(dp4374
g62
(dp4375
g4265
S'/admin/default/edit/app1/models/db.py'
p4376
ssg71
g4369
sg64
(lp4377
g4113
(S's\x08\x00\x00\x00DB Model'
tRp4378
asbasbag57
(g4266
g59
NtRp4379
(dp4380
g62
(dp4381
sg71
g4325
sg64
(lp4382
g57
(g4259
g59
NtRp4383
(dp4384
g62
(dp4385
g4265
S'/admin/default/edit/app1/models/menu.py'
p4386
ssg71
g4379
sg64
(lp4387
g4113
(S's\n\x00\x00\x00Menu Model'
tRp4388
asbasbag57
(g4266
g59
NtRp4389
(dp4390
g62
(dp4391
sg71
g4325
sg64
(lp4392
g57
(g4259
g59
NtRp4393
(dp4394
g62
(dp4395
g4265
S'/app1/appadmin/index'
p4396
ssg71
g4389
sg64
(lp4397
g4113
(S't\x08\x00\x00\x00Database'
tRp4398
asbasbag57
(g4266
g59
NtRp4399
(dp4400
g62
(dp4401
sg71
g4325
sg64
(lp4402
g57
(g4259
g59
NtRp4403
(dp4404
g62
(dp4405
g4265
S'/admin/default/errors/app1'
p4406
ssg71
g4399
sg64
(lp4407
g4113
(S't\x06\x00\x00\x00Errors'
tRp4408
asbasbag57
(g4266
g59
NtRp4409
(dp4410
g62
(dp4411
sg71
g4325
sg64
(lp4412
g57
(g4259
g59
NtRp4413
(dp4414
g62
(dp4415
g4265
S'/admin/default/about/app1'
p4416
ssg71
g4409
sg64
(lp4417
g4113
(S't\x05\x00\x00\x00About'
tRp4418
asbasbasbasbag57
(g4266
g59
NtRp4419
(dp4420
g62
(dp4421
g4270
g4271
ssg71
g4301
sg64
(lp4422
g57
(g4259
g59
NtRp4423
(dp4424
g62
(dp4425
g4265
S'http://www.web2py.com'
p4426
ssg71
g4419
sg64
(lp4427
S'web2py.com'
p4428
asbag57
(g4272
g59
NtRp4429
(dp4430
g62
(dp4431
g4270
g4280
ssg71
g4419
sg64
(lp4432
g57
(g4266
g59
NtRp4433
(dp4434
g62
(dp4435
sg71
g4429
sg64
(lp4436
g57
(g4259
g59
NtRp4437
(dp4438
g62
(dp4439
g4265
S'http://www.web2py.com/examples/default/download'
p4440
ssg71
g4433
sg64
(lp4441
g4113
(S't\x08\x00\x00\x00Download'
tRp4442
asbasbag57
(g4266
g59
NtRp4443
(dp4444
g62
(dp4445
sg71
g4429
sg64
(lp4446
g57
(g4259
g59
NtRp4447
(dp4448
g62
(dp4449
g4265
S'http://www.web2py.com/examples/default/support'
p4450
ssg71
g4443
sg64
(lp4451
g4113
(S't\x07\x00\x00\x00Support'
tRp4452
asbasbag57
(g4266
g59
NtRp4453
(dp4454
g62
(dp4455
sg71
g4429
sg64
(lp4456
g57
(g4259
g59
NtRp4457
(dp4458
g62
(dp4459
g4265
S'http://web2py.com/demo_admin'
p4460
ssg71
g4453
sg64
(lp4461
g4113
(S't\x04\x00\x00\x00Demo'
tRp4462
asbasbag57
(g4266
g59
NtRp4463
(dp4464
g62
(dp4465
sg71
g4429
sg64
(lp4466
g57
(g4259
g59
NtRp4467
(dp4468
g62
(dp4469
g4265
S'http://web2py.com/examples/default/examples'
p4470
ssg71
g4463
sg64
(lp4471
g4113
(S's\x0e\x00\x00\x00Quick Examples'
tRp4472
asbasbag57
(g4266
g59
NtRp4473
(dp4474
g62
(dp4475
sg71
g4429
sg64
(lp4476
g57
(g4259
g59
NtRp4477
(dp4478
g62
(dp4479
g4265
S'http://web2py.com/AlterEgo'
p4480
ssg71
g4473
sg64
(lp4481
g4113
(S't\x03\x00\x00\x00FAQ'
tRp4482
asbasbag57
(g4266
g59
NtRp4483
(dp4484
g62
(dp4485
sg71
g4429
sg64
(lp4486
g57
(g4259
g59
NtRp4487
(dp4488
g62
(dp4489
g4265
S'http://www.web2py.com/examples/default/videos/'
p4490
ssg71
g4483
sg64
(lp4491
g4113
(S't\x06\x00\x00\x00Videos'
tRp4492
asbasbag57
(g4266
g59
NtRp4493
(dp4494
g62
(dp4495
sg71
g4429
sg64
(lp4496
g57
(g4259
g59
NtRp4497
(dp4498
g62
(dp4499
g4265
S'http://web2py.com/appliances'
p4500
ssg71
g4493
sg64
(lp4501
g4113
(S's\x11\x00\x00\x00Free Applications'
tRp4502
asbasbag57
(g4266
g59
NtRp4503
(dp4504
g62
(dp4505
sg71
g4429
sg64
(lp4506
g57
(g4259
g59
NtRp4507
(dp4508
g62
(dp4509
g4265
S'http://web2py.com/plugins'
p4510
ssg71
g4503
sg64
(lp4511
g4113
(S't\x07\x00\x00\x00Plugins'
tRp4512
asbasbag57
(g4266
g59
NtRp4513
(dp4514
g62
(dp4515
sg71
g4429
sg64
(lp4516
g57
(g4259
g59
NtRp4517
(dp4518
g62
(dp4519
g4265
S'http://web2py.com/layouts'
p4520
ssg71
g4513
sg64
(lp4521
g4113
(S't\x07\x00\x00\x00Layouts'
tRp4522
asbasbag57
(g4266
g59
NtRp4523
(dp4524
g62
(dp4525
sg71
g4429
sg64
(lp4526
g57
(g4259
g59
NtRp4527
(dp4528
g62
(dp4529
g4265
S'http://web2pyslices.com/'
p4530
ssg71
g4523
sg64
(lp4531
g4113
(S't\x07\x00\x00\x00Recipes'
tRp4532
asbasbag57
(g4266
g59
NtRp4533
(dp4534
g62
(dp4535
sg71
g4429
sg64
(lp4536
g57
(g4259
g59
NtRp4537
(dp4538
g62
(dp4539
g4265
S'http://web2py.com/semantic'
p4540
ssg71
g4533
sg64
(lp4541
g4113
(S't\x08\x00\x00\x00Semantic'
tRp4542
asbasbasbasbag57
(g4266
g59
NtRp4543
(dp4544
g62
(dp4545
g4270
g4271
ssg71
g4301
sg64
(lp4546
g57
(g4259
g59
NtRp4547
(dp4548
g62
(dp4549
g4265
S'http://www.web2py.com/book'
p4550
ssg71
g4543
sg64
(lp4551
g4113
(S't\r\x00\x00\x00Documentation'
tRp4552
asbag57
(g4272
g59
NtRp4553
(dp4554
g62
(dp4555
g4270
g4280
ssg71
g4543
sg64
(lp4556
g57
(g4266
g59
NtRp4557
(dp4558
g62
(dp4559
sg71
g4553
sg64
(lp4560
g57
(g4259
g59
NtRp4561
(dp4562
g62
(dp4563
g4265
S'http://www.web2py.com/book/default/chapter/00'
p4564
ssg71
g4557
sg64
(lp4565
g4113
(S't\x07\x00\x00\x00Preface'
tRp4566
asbasbag57
(g4266
g59
NtRp4567
(dp4568
g62
(dp4569
sg71
g4553
sg64
(lp4570
g57
(g4259
g59
NtRp4571
(dp4572
g62
(dp4573
g4265
S'http://www.web2py.com/book/default/chapter/01'
p4574
ssg71
g4567
sg64
(lp4575
g4113
(S't\x0c\x00\x00\x00Introduction'
tRp4576
asbasbag57
(g4266
g59
NtRp4577
(dp4578
g62
(dp4579
sg71
g4553
sg64
(lp4580
g57
(g4259
g59
NtRp4581
(dp4582
g62
(dp4583
g4265
S'http://www.web2py.com/book/default/chapter/02'
p4584
ssg71
g4577
sg64
(lp4585
g4113
(S't\x06\x00\x00\x00Python'
tRp4586
asbasbag57
(g4266
g59
NtRp4587
(dp4588
g62
(dp4589
sg71
g4553
sg64
(lp4590
g57
(g4259
g59
NtRp4591
(dp4592
g62
(dp4593
g4265
S'http://www.web2py.com/book/default/chapter/03'
p4594
ssg71
g4587
sg64
(lp4595
g4113
(S't\x08\x00\x00\x00Overview'
tRp4596
asbasbag57
(g4266
g59
NtRp4597
(dp4598
g62
(dp4599
sg71
g4553
sg64
(lp4600
g57
(g4259
g59
NtRp4601
(dp4602
g62
(dp4603
g4265
S'http://www.web2py.com/book/default/chapter/04'
p4604
ssg71
g4597
sg64
(lp4605
g4113
(S's\x08\x00\x00\x00The Core'
tRp4606
asbasbag57
(g4266
g59
NtRp4607
(dp4608
g62
(dp4609
sg71
g4553
sg64
(lp4610
g57
(g4259
g59
NtRp4611
(dp4612
g62
(dp4613
g4265
S'http://www.web2py.com/book/default/chapter/05'
p4614
ssg71
g4607
sg64
(lp4615
g4113
(S's\t\x00\x00\x00The Views'
tRp4616
asbasbag57
(g4266
g59
NtRp4617
(dp4618
g62
(dp4619
sg71
g4553
sg64
(lp4620
g57
(g4259
g59
NtRp4621
(dp4622
g62
(dp4623
g4265
S'http://www.web2py.com/book/default/chapter/06'
p4624
ssg71
g4617
sg64
(lp4625
g4113
(S't\x08\x00\x00\x00Database'
tRp4626
asbasbag57
(g4266
g59
NtRp4627
(dp4628
g62
(dp4629
sg71
g4553
sg64
(lp4630
g57
(g4259
g59
NtRp4631
(dp4632
g62
(dp4633
g4265
S'http://www.web2py.com/book/default/chapter/07'
p4634
ssg71
g4627
sg64
(lp4635
g4113
(S's\x14\x00\x00\x00Forms and Validators'
tRp4636
asbasbag57
(g4266
g59
NtRp4637
(dp4638
g62
(dp4639
sg71
g4553
sg64
(lp4640
g57
(g4259
g59
NtRp4641
(dp4642
g62
(dp4643
g4265
S'http://www.web2py.com/book/default/chapter/08'
p4644
ssg71
g4637
sg64
(lp4645
g4113
(S's\r\x00\x00\x00Email and SMS'
tRp4646
asbasbag57
(g4266
g59
NtRp4647
(dp4648
g62
(dp4649
sg71
g4553
sg64
(lp4650
g57
(g4259
g59
NtRp4651
(dp4652
g62
(dp4653
g4265
S'http://www.web2py.com/book/default/chapter/09'
p4654
ssg71
g4647
sg64
(lp4655
g4113
(S's\x0e\x00\x00\x00Access Control'
tRp4656
asbasbag57
(g4266
g59
NtRp4657
(dp4658
g62
(dp4659
sg71
g4553
sg64
(lp4660
g57
(g4259
g59
NtRp4661
(dp4662
g62
(dp4663
g4265
S'http://www.web2py.com/book/default/chapter/10'
p4664
ssg71
g4657
sg64
(lp4665
g4113
(S't\x08\x00\x00\x00Services'
tRp4666
asbasbag57
(g4266
g59
NtRp4667
(dp4668
g62
(dp4669
sg71
g4553
sg64
(lp4670
g57
(g4259
g59
NtRp4671
(dp4672
g62
(dp4673
g4265
S'http://www.web2py.com/book/default/chapter/11'
p4674
ssg71
g4667
sg64
(lp4675
g4113
(S's\x0c\x00\x00\x00Ajax Recipes'
tRp4676
asbasbag57
(g4266
g59
NtRp4677
(dp4678
g62
(dp4679
sg71
g4553
sg64
(lp4680
g57
(g4259
g59
NtRp4681
(dp4682
g62
(dp4683
g4265
S'http://www.web2py.com/book/default/chapter/12'
p4684
ssg71
g4677
sg64
(lp4685
g4113
(S's\x16\x00\x00\x00Components and Plugins'
tRp4686
asbasbag57
(g4266
g59
NtRp4687
(dp4688
g62
(dp4689
sg71
g4553
sg64
(lp4690
g57
(g4259
g59
NtRp4691
(dp4692
g62
(dp4693
g4265
S'http://www.web2py.com/book/default/chapter/13'
p4694
ssg71
g4687
sg64
(lp4695
g4113
(S's\x12\x00\x00\x00Deployment Recipes'
tRp4696
asbasbag57
(g4266
g59
NtRp4697
(dp4698
g62
(dp4699
sg71
g4553
sg64
(lp4700
g57
(g4259
g59
NtRp4701
(dp4702
g62
(dp4703
g4265
S'http://www.web2py.com/book/default/chapter/14'
p4704
ssg71
g4697
sg64
(lp4705
g4113
(S's\r\x00\x00\x00Other Recipes'
tRp4706
asbasbag57
(g4266
g59
NtRp4707
(dp4708
g62
(dp4709
sg71
g4553
sg64
(lp4710
g57
(g4259
g59
NtRp4711
(dp4712
g62
(dp4713
g4265
S'http://stores.lulu.com/web2py'
p4714
ssg71
g4707
sg64
(lp4715
g4113
(S's\r\x00\x00\x00Buy this book'
tRp4716
asbasbasbasbag57
(g4266
g59
NtRp4717
(dp4718
g62
(dp4719
g4270
g4271
ssg71
g4301
sg64
(lp4720
g57
(g4259
g59
NtRp4721
(dp4722
g62
(dp4723
g4263
g4264
sg4265
S'#'
ssg71
g4717
sg64
(lp4724
g4113
(S't\t\x00\x00\x00Community'
tRp4725
asbag57
(g4272
g59
NtRp4726
(dp4727
g62
(dp4728
g4270
g4280
ssg71
g4717
sg64
(lp4729
g57
(g4266
g59
NtRp4730
(dp4731
g62
(dp4732
sg71
g4726
sg64
(lp4733
g57
(g4259
g59
NtRp4734
(dp4735
g62
(dp4736
g4265
S'http://www.web2py.com/examples/default/usergroups'
p4737
ssg71
g4730
sg64
(lp4738
g4113
(S't\x06\x00\x00\x00Groups'
tRp4739
asbasbag57
(g4266
g59
NtRp4740
(dp4741
g62
(dp4742
sg71
g4726
sg64
(lp4743
g57
(g4259
g59
NtRp4744
(dp4745
g62
(dp4746
g4265
S'http://twitter.com/web2py'
p4747
ssg71
g4740
sg64
(lp4748
g4113
(S't\x07\x00\x00\x00Twitter'
tRp4749
asbasbag57
(g4266
g59
NtRp4750
(dp4751
g62
(dp4752
sg71
g4726
sg64
(lp4753
g57
(g4259
g59
NtRp4754
(dp4755
g62
(dp4756
g4265
S'http://webchat.freenode.net/?channels=web2py'
p4757
ssg71
g4750
sg64
(lp4758
g4113
(S's\t\x00\x00\x00Live Chat'
tRp4759
asbasbasbasbag57
(g4266
g59
NtRp4760
(dp4761
g62
(dp4762
g4270
g4271
ssg71
g4301
sg64
(lp4763
g57
(g4259
g59
NtRp4764
(dp4765
g62
(dp4766
g4263
g4264
sg4265
S'#'
ssg71
g4760
sg64
(lp4767
g4113
(S't\x07\x00\x00\x00Plugins'
tRp4768
asbag57
(g4272
g59
NtRp4769
(dp4770
g62
(dp4771
g4270
g4280
ssg71
g4760
sg64
(lp4772
g57
(g4266
g59
NtRp4773
(dp4774
g62
(dp4775
sg71
g4769
sg64
(lp4776
g57
(g4259
g59
NtRp4777
(dp4778
g62
(dp4779
g4265
S'http://web2py.com/examples/default/download'
p4780
ssg71
g4773
sg64
(lp4781
S'plugin_wiki'
p4782
asbasbag57
(g4266
g59
NtRp4783
(dp4784
g62
(dp4785
sg71
g4769
sg64
(lp4786
g57
(g4259
g59
NtRp4787
(dp4788
g62
(dp4789
g4265
g4510
ssg71
g4783
sg64
(lp4790
g4113
(S's\r\x00\x00\x00Other Plugins'
tRp4791
asbasbag57
(g4266
g59
NtRp4792
(dp4793
g62
(dp4794
sg71
g4769
sg64
(lp4795
g57
(g4259
g59
NtRp4796
(dp4797
g62
(dp4798
g4265
g4520
ssg71
g4792
sg64
(lp4799
g4113
(S's\x0e\x00\x00\x00Layout Plugins'
tRp4800
asbasbasbasbasbasbsg64
(lp4801
g4255
asbsg64
(lp4802
g4059
asbasbasbasbag57
(g73
g59
NtRp4803
(dp4804
g62
(dp4805
sg71
g4238
sg64
(lp4806
g57
(g78
g59
NtRp4807
(dp4808
g62
(dp4809
sg71
g4803
sg64
(lp4810
g57
(g58
g59
NtRp4811
(dp4812
g62
(dp4813
g70
I3
ssg71
g4807
sg64
(lp4814
g100
asbasbasbag57
(g73
g59
NtRp4815
(dp4816
g62
(dp4817
sg71
g4238
sg64
(lp4818
g57
(g78
g59
NtRp4819
(dp4820
g62
(dp4821
sg71
g4815
sg64
(lp4822
g57
(g58
g59
NtRp4823
(dp4824
g62
(dp4825
g70
I3
ssg71
g4819
sg64
(lp4826
S'None'
p4827
asbasbasbag57
(g73
g59
NtRp4828
(dp4829
g62
(dp4830
sg71
g4238
sg64
(lp4831
g57
(g78
g59
NtRp4832
(dp4833
g62
(dp4834
sg71
g4828
sg64
(lp4835
g57
(g58
g59
NtRp4836
(dp4837
g62
(dp4838
g70
I3
ssg71
g4832
sg64
(lp4839
g57
(g66
g59
NtRp4840
(dp4841
g62
(dp4842
g70
I2
ssg71
Nsg64
(lp4843
g57
(g73
g59
NtRp4844
(dp4845
g62
(dp4846
sg71
g4840
sg64
(lp4847
g57
(g78
g59
NtRp4848
(dp4849
g62
(dp4850
sg71
g4844
sg64
(lp4851
g57
(g58
g59
NtRp4852
(dp4853
g62
(dp4854
g70
I2
ssg71
g4848
sg64
(lp4855
g57
(g66
g59
NtRp4856
(dp4857
g62
(dp4858
g70
I1
ssg71
Nsg64
(lp4859
g57
(g73
g59
NtRp4860
(dp4861
g62
(dp4862
sg71
g4856
sg64
(lp4863
g57
(g78
g59
NtRp4864
(dp4865
g62
(dp4866
sg71
g4860
sg64
(lp4867
g57
(g58
g59
NtRp4868
(dp4869
g62
(dp4870
g70
I1
ssg71
g4864
sg64
(lp4871
g4314
asbasbasbag57
(g73
g59
NtRp4872
(dp4873
g62
(dp4874
sg71
g4856
sg64
(lp4875
g57
(g78
g59
NtRp4876
(dp4877
g62
(dp4878
sg71
g4872
sg64
(lp4879
g57
(g58
g59
NtRp4880
(dp4881
g62
(dp4882
g70
I1
ssg71
g4876
sg64
(lp4883
I00
asbasbasbag57
(g73
g59
NtRp4884
(dp4885
g62
(dp4886
sg71
g4856
sg64
(lp4887
g57
(g78
g59
NtRp4888
(dp4889
g62
(dp4890
sg71
g4884
sg64
(lp4891
g57
(g58
g59
NtRp4892
(dp4893
g62
(dp4894
g70
I1
ssg71
g4888
sg64
(lp4895
g4312
asbasbasbasbasbasbasbag57
(g73
g59
NtRp4896
(dp4897
g62
(dp4898
sg71
g4840
sg64
(lp4899
g57
(g78
g59
NtRp4900
(dp4901
g62
(dp4902
sg71
g4896
sg64
(lp4903
g57
(g58
g59
NtRp4904
(dp4905
g62
(dp4906
g70
I2
ssg71
g4900
sg64
(lp4907
g57
(g66
g59
NtRp4908
(dp4909
g62
(dp4910
g70
I1
ssg71
Nsg64
(lp4911
g57
(g73
g59
NtRp4912
(dp4913
g62
(dp4914
sg71
g4908
sg64
(lp4915
g57
(g78
g59
NtRp4916
(dp4917
g62
(dp4918
sg71
g4912
sg64
(lp4919
g57
(g58
g59
NtRp4920
(dp4921
g62
(dp4922
g70
I1
ssg71
g4916
sg64
(lp4923
g4324
asbasbasbag57
(g73
g59
NtRp4924
(dp4925
g62
(dp4926
sg71
g4908
sg64
(lp4927
g57
(g78
g59
NtRp4928
(dp4929
g62
(dp4930
sg71
g4924
sg64
(lp4931
g57
(g58
g59
NtRp4932
(dp4933
g62
(dp4934
g70
I1
ssg71
g4928
sg64
(lp4935
I00
asbasbasbag57
(g73
g59
NtRp4936
(dp4937
g62
(dp4938
sg71
g4908
sg64
(lp4939
g57
(g78
g59
NtRp4940
(dp4941
g62
(dp4942
sg71
g4936
sg64
(lp4943
g57
(g58
g59
NtRp4944
(dp4945
g62
(dp4946
g70
I1
ssg71
g4940
sg64
(lp4947
g4322
asbasbasbag57
(g73
g59
NtRp4948
(dp4949
g62
(dp4950
sg71
g4908
sg64
(lp4951
g57
(g78
g59
NtRp4952
(dp4953
g62
(dp4954
sg71
g4948
sg64
(lp4955
g57
(g58
g59
NtRp4956
(dp4957
g62
(dp4958
g70
I1
ssg71
g4952
sg64
(lp4959
(lp4960
(g4338
I00
g4336
tp4961
a(g4348
I00
g4346
tp4962
a(g4358
I00
g4356
tp4963
a(g4368
I00
g4366
tp4964
a(g4378
I00
g4376
tp4965
a(g4388
I00
g4386
tp4966
a(g4398
I00
g4396
tp4967
a(g4408
I00
g4406
tp4968
a(g4418
I00
g4416
tp4969
aasbasbasbasbasbasbasbag57
(g73
g59
NtRp4970
(dp4971
g62
(dp4972
sg71
g4840
sg64
(lp4973
g57
(g78
g59
NtRp4974
(dp4975
g62
(dp4976
sg71
g4970
sg64
(lp4977
g57
(g58
g59
NtRp4978
(dp4979
g62
(dp4980
g70
I2
ssg71
g4974
sg64
(lp4981
g57
(g66
g59
NtRp4982
(dp4983
g62
(dp4984
g70
I1
ssg71
Nsg64
(lp4985
g57
(g73
g59
NtRp4986
(dp4987
g62
(dp4988
sg71
g4982
sg64
(lp4989
g57
(g78
g59
NtRp4990
(dp4991
g62
(dp4992
sg71
g4986
sg64
(lp4993
g57
(g58
g59
NtRp4994
(dp4995
g62
(dp4996
g70
I1
ssg71
g4990
sg64
(lp4997
g4428
asbasbasbag57
(g73
g59
NtRp4998
(dp4999
g62
(dp5000
sg71
g4982
sg64
(lp5001
g57
(g78
g59
NtRp5002
(dp5003
g62
(dp5004
sg71
g4998
sg64
(lp5005
g57
(g58
g59
NtRp5006
(dp5007
g62
(dp5008
g70
I1
ssg71
g5002
sg64
(lp5009
I00
asbasbasbag57
(g73
g59
NtRp5010
(dp5011
g62
(dp5012
sg71
g4982
sg64
(lp5013
g57
(g78
g59
NtRp5014
(dp5015
g62
(dp5016
sg71
g5010
sg64
(lp5017
g57
(g58
g59
NtRp5018
(dp5019
g62
(dp5020
g70
I1
ssg71
g5014
sg64
(lp5021
g4426
asbasbasbag57
(g73
g59
NtRp5022
(dp5023
g62
(dp5024
sg71
g4982
sg64
(lp5025
g57
(g78
g59
NtRp5026
(dp5027
g62
(dp5028
sg71
g5022
sg64
(lp5029
g57
(g58
g59
NtRp5030
(dp5031
g62
(dp5032
g70
I1
ssg71
g5026
sg64
(lp5033
(lp5034
(g4442
I00
g4440
tp5035
a(g4452
I00
g4450
tp5036
a(g4462
I00
g4460
tp5037
a(g4472
I00
g4470
tp5038
a(g4482
I00
g4480
tp5039
a(g4492
I00
g4490
tp5040
a(g4502
I00
g4500
tp5041
a(g4512
I00
g4510
tp5042
a(g4522
I00
g4520
tp5043
a(g4532
I00
g4530
tp5044
a(g4542
I00
g4540
tp5045
aasbasbasbasbasbasbasbag57
(g73
g59
NtRp5046
(dp5047
g62
(dp5048
sg71
g4840
sg64
(lp5049
g57
(g78
g59
NtRp5050
(dp5051
g62
(dp5052
sg71
g5046
sg64
(lp5053
g57
(g58
g59
NtRp5054
(dp5055
g62
(dp5056
g70
I2
ssg71
g5050
sg64
(lp5057
g57
(g66
g59
NtRp5058
(dp5059
g62
(dp5060
g70
I1
ssg71
Nsg64
(lp5061
g57
(g73
g59
NtRp5062
(dp5063
g62
(dp5064
sg71
g5058
sg64
(lp5065
g57
(g78
g59
NtRp5066
(dp5067
g62
(dp5068
sg71
g5062
sg64
(lp5069
g57
(g58
g59
NtRp5070
(dp5071
g62
(dp5072
g70
I1
ssg71
g5066
sg64
(lp5073
g4552
asbasbasbag57
(g73
g59
NtRp5074
(dp5075
g62
(dp5076
sg71
g5058
sg64
(lp5077
g57
(g78
g59
NtRp5078
(dp5079
g62
(dp5080
sg71
g5074
sg64
(lp5081
g57
(g58
g59
NtRp5082
(dp5083
g62
(dp5084
g70
I1
ssg71
g5078
sg64
(lp5085
I00
asbasbasbag57
(g73
g59
NtRp5086
(dp5087
g62
(dp5088
sg71
g5058
sg64
(lp5089
g57
(g78
g59
NtRp5090
(dp5091
g62
(dp5092
sg71
g5086
sg64
(lp5093
g57
(g58
g59
NtRp5094
(dp5095
g62
(dp5096
g70
I1
ssg71
g5090
sg64
(lp5097
g4550
asbasbasbag57
(g73
g59
NtRp5098
(dp5099
g62
(dp5100
sg71
g5058
sg64
(lp5101
g57
(g78
g59
NtRp5102
(dp5103
g62
(dp5104
sg71
g5098
sg64
(lp5105
g57
(g58
g59
NtRp5106
(dp5107
g62
(dp5108
g70
I1
ssg71
g5102
sg64
(lp5109
(lp5110
(g4566
I00
g4564
tp5111
a(g4576
I00
g4574
tp5112
a(g4586
I00
g4584
tp5113
a(g4596
I00
g4594
tp5114
a(g4606
I00
g4604
tp5115
a(g4616
I00
g4614
tp5116
a(g4626
I00
g4624
tp5117
a(g4636
I00
g4634
tp5118
a(g4646
I00
g4644
tp5119
a(g4656
I00
g4654
tp5120
a(g4666
I00
g4664
tp5121
a(g4676
I00
g4674
tp5122
a(g4686
I00
g4684
tp5123
a(g4696
I00
g4694
tp5124
a(g4706
I00
g4704
tp5125
a(g4716
I00
g4714
tp5126
aasbasbasbasbasbasbasbag57
(g73
g59
NtRp5127
(dp5128
g62
(dp5129
sg71
g4840
sg64
(lp5130
g57
(g78
g59
NtRp5131
(dp5132
g62
(dp5133
sg71
g5127
sg64
(lp5134
g57
(g58
g59
NtRp5135
(dp5136
g62
(dp5137
g70
I2
ssg71
g5131
sg64
(lp5138
g57
(g66
g59
NtRp5139
(dp5140
g62
(dp5141
g70
I1
ssg71
Nsg64
(lp5142
g57
(g73
g59
NtRp5143
(dp5144
g62
(dp5145
sg71
g5139
sg64
(lp5146
g57
(g78
g59
NtRp5147
(dp5148
g62
(dp5149
sg71
g5143
sg64
(lp5150
g57
(g58
g59
NtRp5151
(dp5152
g62
(dp5153
g70
I1
ssg71
g5147
sg64
(lp5154
g4725
asbasbasbag57
(g73
g59
NtRp5155
(dp5156
g62
(dp5157
sg71
g5139
sg64
(lp5158
g57
(g78
g59
NtRp5159
(dp5160
g62
(dp5161
sg71
g5155
sg64
(lp5162
g57
(g58
g59
NtRp5163
(dp5164
g62
(dp5165
g70
I1
ssg71
g5159
sg64
(lp5166
I00
asbasbasbag57
(g73
g59
NtRp5167
(dp5168
g62
(dp5169
sg71
g5139
sg64
(lp5170
g57
(g78
g59
NtRp5171
(dp5172
g62
(dp5173
sg71
g5167
sg64
(lp5174
g57
(g58
g59
NtRp5175
(dp5176
g62
(dp5177
g70
I1
ssg71
g5171
sg64
(lp5178
Nasbasbasbag57
(g73
g59
NtRp5179
(dp5180
g62
(dp5181
sg71
g5139
sg64
(lp5182
g57
(g78
g59
NtRp5183
(dp5184
g62
(dp5185
sg71
g5179
sg64
(lp5186
g57
(g58
g59
NtRp5187
(dp5188
g62
(dp5189
g70
I1
ssg71
g5183
sg64
(lp5190
(lp5191
(g4739
I00
g4737
tp5192
a(g4749
I00
g4747
tp5193
a(g4759
I00
g4757
tp5194
aasbasbasbasbasbasbasbag57
(g73
g59
NtRp5195
(dp5196
g62
(dp5197
sg71
g4840
sg64
(lp5198
g57
(g78
g59
NtRp5199
(dp5200
g62
(dp5201
sg71
g5195
sg64
(lp5202
g57
(g58
g59
NtRp5203
(dp5204
g62
(dp5205
g70
I2
ssg71
g5199
sg64
(lp5206
g57
(g66
g59
NtRp5207
(dp5208
g62
(dp5209
g70
I1
ssg71
Nsg64
(lp5210
g57
(g73
g59
NtRp5211
(dp5212
g62
(dp5213
sg71
g5207
sg64
(lp5214
g57
(g78
g59
NtRp5215
(dp5216
g62
(dp5217
sg71
g5211
sg64
(lp5218
g57
(g58
g59
NtRp5219
(dp5220
g62
(dp5221
g70
I1
ssg71
g5215
sg64
(lp5222
g4768
asbasbasbag57
(g73
g59
NtRp5223
(dp5224
g62
(dp5225
sg71
g5207
sg64
(lp5226
g57
(g78
g59
NtRp5227
(dp5228
g62
(dp5229
sg71
g5223
sg64
(lp5230
g57
(g58
g59
NtRp5231
(dp5232
g62
(dp5233
g70
I1
ssg71
g5227
sg64
(lp5234
I00
asbasbasbag57
(g73
g59
NtRp5235
(dp5236
g62
(dp5237
sg71
g5207
sg64
(lp5238
g57
(g78
g59
NtRp5239
(dp5240
g62
(dp5241
sg71
g5235
sg64
(lp5242
g57
(g58
g59
NtRp5243
(dp5244
g62
(dp5245
g70
I1
ssg71
g5239
sg64
(lp5246
Nasbasbasbag57
(g73
g59
NtRp5247
(dp5248
g62
(dp5249
sg71
g5207
sg64
(lp5250
g57
(g78
g59
NtRp5251
(dp5252
g62
(dp5253
sg71
g5247
sg64
(lp5254
g57
(g58
g59
NtRp5255
(dp5256
g62
(dp5257
g70
I1
ssg71
g5251
sg64
(lp5258
(lp5259
(g4782
I00
g4780
tp5260
a(g4791
I00
g4510
tp5261
a(g4800
I00
g4520
tp5262
aasbasbasbasbasbasbasbasbasbasbasbasbasbasbasbasbasbasbasbag57
(g73
g59
NtRp5263
(dp5264
g62
(dp5265
sg71
g3504
sg64
(lp5266
g57
(g78
g59
NtRp5267
(dp5268
g62
(dp5269
g82
g83
ssg71
g5263
sg64
(lp5270
S'meta'
p5271
asbag57
(g78
g59
NtRp5272
(dp5273
g62
(dp5274
g89
g90
ssg71
g5263
sg64
(lp5275
S':'
asbag57
(g78
g59
NtRp5276
(dp5277
g62
(dp5278
sg71
g5263
sg64
(lp5279
g57
(g58
g59
NtRp5280
(dp5281
g62
(dp5282
g70
I5
ssg71
g5276
sg64
(lp5283
g57
(g66
g59
NtRp5284
(dp5285
g62
(dp5286
g70
I4
ssg71
Nsg64
(lp5287
g57
(g73
g59
NtRp5288
(dp5289
g62
(dp5290
sg71
g5284
sg64
(lp5291
g57
(g78
g59
NtRp5292
(dp5293
g62
(dp5294
g82
g83
ssg71
g5288
sg64
(lp5295
S'author'
p5296
asbag57
(g78
g59
NtRp5297
(dp5298
g62
(dp5299
g89
g90
ssg71
g5288
sg64
(lp5300
S':'
asbag57
(g78
g59
NtRp5301
(dp5302
g62
(dp5303
sg71
g5288
sg64
(lp5304
g57
(g58
g59
NtRp5305
(dp5306
g62
(dp5307
g70
I4
ssg71
g5301
sg64
(lp5308
S'Your Name <you@example.com>'
p5309
asbasbasbag57
(g73
g59
NtRp5310
(dp5311
g62
(dp5312
sg71
g5284
sg64
(lp5313
g57
(g78
g59
NtRp5314
(dp5315
g62
(dp5316
g82
g83
ssg71
g5310
sg64
(lp5317
S'copyright'
p5318
asbag57
(g78
g59
NtRp5319
(dp5320
g62
(dp5321
g89
g90
ssg71
g5310
sg64
(lp5322
S':'
asbag57
(g78
g59
NtRp5323
(dp5324
g62
(dp5325
sg71
g5310
sg64
(lp5326
g57
(g58
g59
NtRp5327
(dp5328
g62
(dp5329
g70
I4
ssg71
g5323
sg64
(lp5330
S'Copyright 2011'
p5331
asbasbasbag57
(g73
g59
NtRp5332
(dp5333
g62
(dp5334
sg71
g5284
sg64
(lp5335
g57
(g78
g59
NtRp5336
(dp5337
g62
(dp5338
g82
g83
ssg71
g5332
sg64
(lp5339
S'description'
p5340
asbag57
(g78
g59
NtRp5341
(dp5342
g62
(dp5343
g89
g90
ssg71
g5332
sg64
(lp5344
S':'
asbag57
(g78
g59
NtRp5345
(dp5346
g62
(dp5347
sg71
g5332
sg64
(lp5348
g57
(g58
g59
NtRp5349
(dp5350
g62
(dp5351
g70
I4
ssg71
g5345
sg64
(lp5352
S'a cool new app'
p5353
asbasbasbag57
(g73
g59
NtRp5354
(dp5355
g62
(dp5356
sg71
g5284
sg64
(lp5357
g57
(g78
g59
NtRp5358
(dp5359
g62
(dp5360
g82
g83
ssg71
g5354
sg64
(lp5361
S'generator'
p5362
asbag57
(g78
g59
NtRp5363
(dp5364
g62
(dp5365
g89
g90
ssg71
g5354
sg64
(lp5366
S':'
asbag57
(g78
g59
NtRp5367
(dp5368
g62
(dp5369
sg71
g5354
sg64
(lp5370
g57
(g58
g59
NtRp5371
(dp5372
g62
(dp5373
g70
I4
ssg71
g5367
sg64
(lp5374
S'Web2py Web Framework'
p5375
asbasbasbag57
(g73
g59
NtRp5376
(dp5377
g62
(dp5378
sg71
g5284
sg64
(lp5379
g57
(g78
g59
NtRp5380
(dp5381
g62
(dp5382
g82
g83
ssg71
g5376
sg64
(lp5383
S'keywords'
p5384
asbag57
(g78
g59
NtRp5385
(dp5386
g62
(dp5387
g89
g90
ssg71
g5376
sg64
(lp5388
S':'
asbag57
(g78
g59
NtRp5389
(dp5390
g62
(dp5391
sg71
g5376
sg64
(lp5392
g57
(g58
g59
NtRp5393
(dp5394
g62
(dp5395
g70
I4
ssg71
g5389
sg64
(lp5396
S'web2py, python, framework'
p5397
asbasbasbasbasbasbasbag57
(g73
g59
NtRp5398
(dp5399
g62
(dp5400
sg71
g3504
sg64
(lp5401
g57
(g78
g59
NtRp5402
(dp5403
g62
(dp5404
g82
g83
ssg71
g5398
sg64
(lp5405
S'postprocessing'
p5406
asbag57
(g78
g59
NtRp5407
(dp5408
g62
(dp5409
g89
g90
ssg71
g5398
sg64
(lp5410
S':'
asbag57
(g78
g59
NtRp5411
(dp5412
g62
(dp5413
sg71
g5398
sg64
(lp5414
g57
(g58
g59
NtRp5415
(dp5416
g62
(dp5417
g70
I5
ssg71
g5411
sg64
(lp5418
g57
(g66
g59
NtRp5419
(dp5420
g62
(dp5421
g70
I4
ssg71
Nsg64
(lp5422
sbasbasbasbag57
(g73
g59
NtRp5423
(dp5424
g62
(dp5425
sg71
g3504
sg64
(lp5426
g57
(g78
g59
NtRp5427
(dp5428
g62
(dp5429
g82
g83
ssg71
g5423
sg64
(lp5430
S'session_file'
p5431
asbag57
(g78
g59
NtRp5432
(dp5433
g62
(dp5434
g89
g90
ssg71
g5423
sg64
(lp5435
S':'
asbag57
(g78
g59
NtRp5436
(dp5437
g62
(dp5438
sg71
g5423
sg64
(lp5439
g57
(g58
g59
NtRp5440
(dp5441
g62
(dp5442
g70
I5
ssg71
g5436
sg64
(lp5443
S"<open file '/home/jigar/web2py/applications/app1/sessions/127.0.0.1-a7d133f4-acec-437f-a963-db7b5b722c49', mode 'rb+' at 0x7fb43c2c2db0>"
p5444
asbasbasbag57
(g73
g59
NtRp5445
(dp5446
g62
(dp5447
sg71
g3504
sg64
(lp5448
g57
(g78
g59
NtRp5449
(dp5450
g62
(dp5451
g82
g83
ssg71
g5445
sg64
(lp5452
S'session_filename'
p5453
asbag57
(g78
g59
NtRp5454
(dp5455
g62
(dp5456
g89
g90
ssg71
g5445
sg64
(lp5457
S':'
asbag57
(g78
g59
NtRp5458
(dp5459
g62
(dp5460
sg71
g5445
sg64
(lp5461
g57
(g58
g59
NtRp5462
(dp5463
g62
(dp5464
g70
I5
ssg71
g5458
sg64
(lp5465
S'/home/jigar/web2py/applications/app1/sessions/127.0.0.1-a7d133f4-acec-437f-a963-db7b5b722c49'
p5466
asbasbasbag57
(g73
g59
NtRp5467
(dp5468
g62
(dp5469
sg71
g3504
sg64
(lp5470
g57
(g78
g59
NtRp5471
(dp5472
g62
(dp5473
g82
g83
ssg71
g5467
sg64
(lp5474
S'session_id'
p5475
asbag57
(g78
g59
NtRp5476
(dp5477
g62
(dp5478
g89
g90
ssg71
g5467
sg64
(lp5479
S':'
asbag57
(g78
g59
NtRp5480
(dp5481
g62
(dp5482
sg71
g5467
sg64
(lp5483
g57
(g58
g59
NtRp5484
(dp5485
g62
(dp5486
g70
I5
ssg71
g5480
sg64
(lp5487
S'127.0.0.1-a7d133f4-acec-437f-a963-db7b5b722c49'
p5488
asbasbasbag57
(g73
g59
NtRp5489
(dp5490
g62
(dp5491
sg71
g3504
sg64
(lp5492
g57
(g78
g59
NtRp5493
(dp5494
g62
(dp5495
g82
g83
ssg71
g5489
sg64
(lp5496
S'session_id_name'
p5497
asbag57
(g78
g59
NtRp5498
(dp5499
g62
(dp5500
g89
g90
ssg71
g5489
sg64
(lp5501
S':'
asbag57
(g78
g59
NtRp5502
(dp5503
g62
(dp5504
sg71
g5489
sg64
(lp5505
g57
(g58
g59
NtRp5506
(dp5507
g62
(dp5508
g70
I5
ssg71
g5502
sg64
(lp5509
g3561
asbasbasbag57
(g73
g59
NtRp5510
(dp5511
g62
(dp5512
sg71
g3504
sg64
(lp5513
g57
(g78
g59
NtRp5514
(dp5515
g62
(dp5516
g82
g83
ssg71
g5510
sg64
(lp5517
S'session_locked'
p5518
asbag57
(g78
g59
NtRp5519
(dp5520
g62
(dp5521
g89
g90
ssg71
g5510
sg64
(lp5522
S':'
asbag57
(g78
g59
NtRp5523
(dp5524
g62
(dp5525
sg71
g5510
sg64
(lp5526
g57
(g58
g59
NtRp5527
(dp5528
g62
(dp5529
g70
I5
ssg71
g5523
sg64
(lp5530
g1690
asbasbasbag57
(g73
g59
NtRp5531
(dp5532
g62
(dp5533
sg71
g3504
sg64
(lp5534
g57
(g78
g59
NtRp5535
(dp5536
g62
(dp5537
g82
g83
ssg71
g5531
sg64
(lp5538
S'session_new'
p5539
asbag57
(g78
g59
NtRp5540
(dp5541
g62
(dp5542
g89
g90
ssg71
g5531
sg64
(lp5543
S':'
asbag57
(g78
g59
NtRp5544
(dp5545
g62
(dp5546
sg71
g5531
sg64
(lp5547
g57
(g58
g59
NtRp5548
(dp5549
g62
(dp5550
g70
I5
ssg71
g5544
sg64
(lp5551
g100
asbasbasbag57
(g73
g59
NtRp5552
(dp5553
g62
(dp5554
sg71
g3504
sg64
(lp5555
g57
(g78
g59
NtRp5556
(dp5557
g62
(dp5558
g82
g83
ssg71
g5552
sg64
(lp5559
S'status'
p5560
asbag57
(g78
g59
NtRp5561
(dp5562
g62
(dp5563
g89
g90
ssg71
g5552
sg64
(lp5564
S':'
asbag57
(g78
g59
NtRp5565
(dp5566
g62
(dp5567
sg71
g5552
sg64
(lp5568
g57
(g58
g59
NtRp5569
(dp5570
g62
(dp5571
g70
I5
ssg71
g5565
sg64
(lp5572
S'200'
p5573
asbasbasbag57
(g73
g59
NtRp5574
(dp5575
g62
(dp5576
sg71
g3504
sg64
(lp5577
g57
(g78
g59
NtRp5578
(dp5579
g62
(dp5580
g82
g83
ssg71
g5574
sg64
(lp5581
S'subtitle'
p5582
asbag57
(g78
g59
NtRp5583
(dp5584
g62
(dp5585
g89
g90
ssg71
g5574
sg64
(lp5586
S':'
asbag57
(g78
g59
NtRp5587
(dp5588
g62
(dp5589
sg71
g5574
sg64
(lp5590
g57
(g58
g59
NtRp5591
(dp5592
g62
(dp5593
g70
I5
ssg71
g5587
sg64
(lp5594
g4113
(S's\r\x00\x00\x00customize me!'
tRp5595
asbasbasbag57
(g73
g59
NtRp5596
(dp5597
g62
(dp5598
sg71
g3504
sg64
(lp5599
g57
(g78
g59
NtRp5600
(dp5601
g62
(dp5602
g82
g83
ssg71
g5596
sg64
(lp5603
S'title'
p5604
asbag57
(g78
g59
NtRp5605
(dp5606
g62
(dp5607
g89
g90
ssg71
g5596
sg64
(lp5608
S':'
asbag57
(g78
g59
NtRp5609
(dp5610
g62
(dp5611
sg71
g5596
sg64
(lp5612
g57
(g58
g59
NtRp5613
(dp5614
g62
(dp5615
g70
I5
ssg71
g5609
sg64
(lp5616
S'App1'
p5617
asbasbasbag57
(g73
g59
NtRp5618
(dp5619
g62
(dp5620
sg71
g3504
sg64
(lp5621
g57
(g78
g59
NtRp5622
(dp5623
g62
(dp5624
g82
g83
ssg71
g5618
sg64
(lp5625
g2375
asbag57
(g78
g59
NtRp5626
(dp5627
g62
(dp5628
g89
g90
ssg71
g5618
sg64
(lp5629
S':'
asbag57
(g78
g59
NtRp5630
(dp5631
g62
(dp5632
sg71
g5618
sg64
(lp5633
g57
(g58
g59
NtRp5634
(dp5635
g62
(dp5636
g70
I5
ssg71
g5630
sg64
(lp5637
g2388
asbasbasbag57
(g73
g59
NtRp5638
(dp5639
g62
(dp5640
sg71
g3504
sg64
(lp5641
g57
(g78
g59
NtRp5642
(dp5643
g62
(dp5644
g82
g83
ssg71
g5638
sg64
(lp5645
S'view'
p5646
asbag57
(g78
g59
NtRp5647
(dp5648
g62
(dp5649
g89
g90
ssg71
g5638
sg64
(lp5650
S':'
asbag57
(g78
g59
NtRp5651
(dp5652
g62
(dp5653
sg71
g5638
sg64
(lp5654
g57
(g58
g59
NtRp5655
(dp5656
g62
(dp5657
g70
I5
ssg71
g5651
sg64
(lp5658
S'default/listcat.html'
p5659
asbasbasbasbasbsS'locals'
p5660
(dp5661
S'Service'
p5662
S"<class 'gluon.tools.Service'>"
p5663
sS'OBJECT'
p5664
S"<class 'gluon.html.OBJECT'>"
p5665
sS'SQLDB'
p5666
S"<class 'gluon.dal.DAL'>"
p5667
sg3090
S"<Storage {'_formkey[Votes/5]': 'a20d0ad8-6139-43...login]': 'f9f1d02c-8445-46cb-9e92-45ed6af09293'}>"
p5668
sS'LINK'
p5669
S"<class 'gluon.html.LINK'>"
p5670
sS'BR'
p5671
S"<class 'gluon.html.BR'>"
p5672
sS'local_import'
p5673
S'<function <lambda>>'
p5674
sS'OPTGROUP'
p5675
S"<class 'gluon.html.OPTGROUP'>"
p5676
sS'PRE'
p5677
S"<class 'gluon.html.PRE'>"
p5678
sS'IS_INT_IN_RANGE'
p5679
S"<class 'gluon.validators.IS_INT_IN_RANGE'>"
p5680
sS'left_sidebar_enabled'
p5681
g100
sS'IS_LOWER'
p5682
S"<class 'gluon.validators.IS_LOWER'>"
p5683
sS'IS_STRONG'
p5684
S"<class 'gluon.validators.IS_STRONG'>"
p5685
sS'cache'
p5686
S'<gluon.cache.Cache object>'
p5687
sS'IS_IN_DB'
p5688
S"<class 'gluon.validators.IS_IN_DB'>"
p5689
sS'TAG'
p5690
S'<gluon.html.__TAG__ object>'
p5691
sS'SQLField'
p5692
S"<class 'gluon.dal.Field'>"
p5693
sS'mail'
p5694
S'<gluon.tools.Mail object>'
p5695
sS'BODY'
p5696
S"<class 'gluon.html.BODY'>"
p5697
sS'IS_DATE_IN_RANGE'
p5698
S"<class 'gluon.validators.IS_DATE_IN_RANGE'>"
p5699
sS'TH'
p5700
S"<class 'gluon.html.TH'>"
p5701
sS'URL'
p5702
S'<function URL>'
p5703
sS'__file__'
p5704
S"'/home/jigar/web2py/applications/app1/views/default/listcat.html'"
p5705
sS'db'
p5706
S"<DAL {'auth_event': <Table {'origin': <gluon.dal...': <gluon.dal.Field object at 0x7fb4645d4910>}>}>"
p5707
sS'auth'
p5708
S'<gluon.tools.Auth object>'
p5709
sS'P'
S"<class 'gluon.html.P'>"
p5710
sS'TFOOT'
p5711
S"<class 'gluon.html.TFOOT'>"
p5712
sS'XHTML'
p5713
S"<class 'gluon.html.XHTML'>"
p5714
sS'ON'
p5715
g1690
sS'OL'
p5716
S"<class 'gluon.html.OL'>"
p5717
sS'TEXTAREA'
p5718
S"<class 'gluon.html.TEXTAREA'>"
p5719
sS'MENU'
p5720
S"<class 'gluon.html.MENU'>"
p5721
sS'p'
S'<gluon.dal.Rows object>'
p5722
sS'x'
S'<gluon.dal.Rows object>'
p5723
sS'LOAD'
p5724
S'<function LOAD>'
p5725
sS'CODE'
p5726
S"<class 'gluon.html.CODE'>"
p5727
sS'HTTP'
p5728
S"<class 'gluon.http.HTTP'>"
p5729
sS'HR'
p5730
S"<class 'gluon.html.HR'>"
p5731
sS'IS_DATETIME'
p5732
S"<class 'gluon.validators.IS_DATETIME'>"
p5733
sS'HEAD'
p5734
S"<class 'gluon.html.HEAD'>"
p5735
sS'LABEL'
p5736
S"<class 'gluon.html.LABEL'>"
p5737
sS'CLEANUP'
p5738
S"<class 'gluon.validators.CLEANUP'>"
p5739
sS'plugins'
p5740
S'<gluon.tools.PluginManager object>'
p5741
sS'SELECT'
p5742
S"<class 'gluon.html.SELECT'>"
p5743
sS'use_janrain'
p5744
S'<function use_janrain>'
p5745
sS'CENTER'
p5746
S"<class 'gluon.html.CENTER'>"
p5747
sS'prettydate'
p5748
S'<function prettydate>'
p5749
sS'Crud'
p5750
S"<class 'gluon.tools.Crud'>"
p5751
sS'Auth'
p5752
S"<class 'gluon.tools.Auth'>"
p5753
sS'__builtins__'
p5754
S"{'ArithmeticError': <type 'exceptions.ArithmeticError'>, 'AssertionError': <type 'exceptions.AssertionError'>, 'AttributeError': <type 'exceptions.AttributeError'>, 'BaseException': <type 'exceptions.BaseException'>, 'BufferError': <type 'exceptions.BufferError'>, 'BytesWarning': <type 'exceptions.BytesWarning'>, 'DeprecationWarning': <type 'exceptions.DeprecationWarning'>, 'EOFError': <type 'exceptions.EOFError'>, 'Ellipsis': Ellipsis, 'EnvironmentError': <type 'exceptions.EnvironmentError'>, ...}"
p5755
sS'HTML'
p5756
S"<class 'gluon.html.HTML'>"
p5757
sS'SQLFORM'
p5758
S"<class 'gluon.sqlhtml.SQLFORM'>"
p5759
sS'EM'
p5760
S"<class 'gluon.html.EM'>"
p5761
sS'redirect'
p5762
S'<function redirect>'
p5763
sS'FIELDSET'
p5764
S"<class 'gluon.html.FIELDSET'>"
p5765
sS'IS_EQUAL_TO'
p5766
S"<class 'gluon.validators.IS_EQUAL_TO'>"
p5767
sS'embed64'
p5768
S'<function embed64>'
p5769
sS'IS_LIST_OF'
p5770
S"<class 'gluon.validators.IS_LIST_OF'>"
p5771
sS'INPUT'
p5772
S"<class 'gluon.html.INPUT'>"
p5773
sS'EMBED'
p5774
S"<class 'gluon.html.EMBED'>"
p5775
sS'_'
S'<function _>'
p5776
sS'FORM'
p5777
S"<class 'gluon.html.FORM'>"
p5778
sS'H2'
p5779
S"<class 'gluon.html.H2'>"
p5780
sS'H3'
p5781
S"<class 'gluon.html.H3'>"
p5782
sS'BUTTON'
p5783
S"<class 'gluon.html.BUTTON'>"
p5784
sS'H1'
p5785
S"<class 'gluon.html.H1'>"
p5786
sS'H6'
p5787
S"<class 'gluon.html.H6'>"
p5788
sS'H4'
p5789
S"<class 'gluon.html.H4'>"
p5790
sS'H5'
p5791
S"<class 'gluon.html.H5'>"
p5792
sS'UL'
p5793
S"<class 'gluon.html.UL'>"
p5794
sS'IS_UPPER'
p5795
S"<class 'gluon.validators.IS_UPPER'>"
p5796
sS'xmlescape'
p5797
S'<function xmlescape>'
p5798
sS'IS_TIME'
p5799
S"<class 'gluon.validators.IS_TIME'>"
p5800
sS'OPTION'
p5801
S"<class 'gluon.html.OPTION'>"
p5802
sS'TITLE'
p5803
S"<class 'gluon.html.TITLE'>"
p5804
sS'CRYPT'
p5805
S"<class 'gluon.validators.CRYPT'>"
p5806
sS'IS_EMPTY_OR'
p5807
S"<class 'gluon.validators.IS_EMPTY_OR'>"
p5808
sS'MARKMIN'
p5809
S"<class 'gluon.html.MARKMIN'>"
p5810
sS'COL'
p5811
S"<class 'gluon.html.COL'>"
p5812
sS'service'
p5813
S'<gluon.tools.Service object>'
p5814
sS'SCRIPT'
p5815
S"<class 'gluon.html.SCRIPT'>"
p5816
sS'is_mobile'
p5817
g100
sS'TABLE'
p5818
S"<class 'gluon.html.TABLE'>"
p5819
sS'IS_IPV4'
p5820
S"<class 'gluon.validators.IS_IPV4'>"
p5821
sS'IS_LENGTH'
p5822
S"<class 'gluon.validators.IS_LENGTH'>"
p5823
sS'XML'
p5824
S"<class 'gluon.html.XML'>"
p5825
sS'B'
S"<class 'gluon.html.B'>"
p5826
sS'IMG'
p5827
S"<class 'gluon.html.IMG'>"
p5828
sS'SQLTABLE'
p5829
S"<class 'gluon.sqlhtml.SQLTABLE'>"
p5830
sS'IS_MATCH'
p5831
S"<class 'gluon.validators.IS_MATCH'>"
p5832
sS'IS_ALPHANUMERIC'
p5833
S"<class 'gluon.validators.IS_ALPHANUMERIC'>"
p5834
sS'SPAN'
p5835
S"<class 'gluon.html.SPAN'>"
p5836
sS'IS_SLUG'
p5837
S"<class 'gluon.validators.IS_SLUG'>"
p5838
sS'BEAUTIFY'
p5839
S"<class 'gluon.html.BEAUTIFY'>"
p5840
sS'META'
p5841
S"<class 'gluon.html.META'>"
p5842
sS'IS_DATE'
p5843
S"<class 'gluon.validators.IS_DATE'>"
p5844
sS'IS_EMAIL'
p5845
S"<class 'gluon.validators.IS_EMAIL'>"
p5846
sS'IS_NOT_EMPTY'
p5847
S"<class 'gluon.validators.IS_NOT_EMPTY'>"
p5848
sS'IS_FLOAT_IN_RANGE'
p5849
S"<class 'gluon.validators.IS_FLOAT_IN_RANGE'>"
p5850
sS'TBODY'
p5851
S"<class 'gluon.html.TBODY'>"
p5852
sS'CAT'
p5853
S"<class 'gluon.html.CAT'>"
p5854
sS'Field'
p5855
S"<class 'gluon.dal.Field'>"
p5856
sS'middle_columns'
p5857
S"'sixteen'"
p5858
sS'DIV'
p5859
S"<class 'gluon.html.DIV'>"
p5860
sS'LEGEND'
p5861
S"<class 'gluon.html.LEGEND'>"
p5862
sS'COLGROUP'
p5863
S"<class 'gluon.html.COLGROUP'>"
p5864
sS'DAL'
p5865
S"<class 'gluon.dal.DAL'>"
p5866
sS'TT'
p5867
S"<class 'gluon.html.TT'>"
p5868
sS'TR'
p5869
S"<class 'gluon.html.TR'>"
p5870
sS'LI'
p5871
S"<class 'gluon.html.LI'>"
p5872
sS'right_sidebar_enabled'
p5873
g100
sS'set1'
p5874
S"['World', 'India', 'Business', 'Sports', 'Entertainment']"
p5875
sS'IFRAME'
p5876
S"<class 'gluon.html.IFRAME'>"
p5877
sS'TD'
p5878
S"<class 'gluon.html.TD'>"
p5879
sS'PluginManager'
p5880
S"<class 'gluon.tools.PluginManager'>"
p5881
sS'IS_URL'
p5882
S"<class 'gluon.validators.IS_URL'>"
p5883
sS'A'
S"<class 'gluon.html.A'>"
p5884
sS'STYLE'
p5885
S"<class 'gluon.html.STYLE'>"
p5886
sS'IS_DATETIME_IN_RANGE'
p5887
S"<class 'gluon.validators.IS_DATETIME_IN_RANGE'>"
p5888
sS'IS_IMAGE'
p5889
S"<class 'gluon.validators.IS_IMAGE'>"
p5890
sS'I'
S"<class 'gluon.html.I'>"
p5891
sS'crud'
p5892
S'<gluon.tools.Crud object>'
p5893
sS'IS_NOT_IN_DB'
p5894
S"<class 'gluon.validators.IS_NOT_IN_DB'>"
p5895
sg3499
S"<Storage {'body': <cStringIO.StringO object at 0...0x7fb43c120398>, 'view': 'default/listcat.html'}>"
p5896
sS'THEAD'
p5897
S"<class 'gluon.html.THEAD'>"
p5898
sS'IS_NULL_OR'
p5899
S"<class 'gluon.validators.IS_EMPTY_OR'>"
p5900
sg56
S"<Storage {'body': <cStringIO.StringO object at 0..._vars': <Storage {}>, 'post_vars': <Storage {}>}>"
p5901
sS'IS_EXPR'
p5902
S"<class 'gluon.validators.IS_EXPR'>"
p5903
sS'T'
S'<gluon.languages.translator object>'
p5904
sS'q'
S'<gluon.dal.Rows object>'
p5905
sS'IS_IN_SET'
p5906
S"<class 'gluon.validators.IS_IN_SET'>"
p5907
sS'IS_UPLOAD_FILENAME'
p5908
S"<class 'gluon.validators.IS_UPLOAD_FILENAME'>"
p5909
sS'y'
S"'2'"
p5910
sS'IS_DECIMAL_IN_RANGE'
p5911
S"<class 'gluon.validators.IS_DECIMAL_IN_RANGE'>"
p5912
sssS'traceback'
p5913
S'Traceback (most recent call last):\n  File "/usr/lib/pymodules/python2.7/gluon/restricted.py", line 204, in restricted\n    exec ccode in environment\n  File "/home/jigar/web2py/applications/app1/views/default/listcat.html", line 76, in <module>\nNameError: name \'ca\' is not defined\n'
p5914
s.