(dp1
S'output'
p2
S"<type 'exceptions.TypeError'> cannot concatenate 'str' and 'int' objects"
p3
sS'layer'
p4
S'/home/jigar/web2py/applications/app1/controllers/default.py'
p5
sS'code'
p6
S'# -*- coding: utf-8 -*-\n# this file is released under public domain and you can use without limitations\n\n#########################################################################\n## This is a samples controller\n## - index is the default action of any application\n## - user is required for authentication and authorization\n## - download is for downloading files uploaded in the db (does streaming)\n## - call exposes all registered services (none by default)\n#########################################################################\n\ndef index():\n    """\n    example action using the internationalization operator T and flash\n    rendered by views/default/index.html or views/generic.html\n    """\n    response.flash = "Welcome to web2py!"\n    return dict(message=T(\'Hello World\'))\n\ndef user():\n    """\n    exposes:\n    http://..../[app]/default/user/login\n    http://..../[app]/default/user/logout\n    http://..../[app]/default/user/register\n    http://..../[app]/default/user/profile\n    http://..../[app]/default/user/retrieve_password\n    http://..../[app]/default/user/change_password\n    use @auth.requires_login()\n        @auth.requires_membership(\'group name\')\n        @auth.requires_permission(\'read\',\'table name\',record_id)\n    to decorate functions that need access control\n    """\n    return dict(form=auth())\n\n\ndef download():\n    """\n    allows downloading of uploaded files\n    http://..../[app]/default/download/[filename]\n    """\n    return response.download(request,db)\n\n\ndef call():\n    """\n    exposes services. for example:\n    http://..../[app]/default/call/jsonrpc\n    decorate with @services.jsonrpc the functions to expose\n    supports xml, json, xmlrpc, jsonrpc, amfrpc, rss, csv\n    """\n    return service()\n\n\n@auth.requires_signature()\ndef data():\n    """\n    http://..../[app]/default/data/tables\n    http://..../[app]/default/data/create/[table]\n    http://..../[app]/default/data/read/[table]/[id]\n    http://..../[app]/default/data/update/[table]/[id]\n    http://..../[app]/default/data/delete/[table]/[id]\n    http://..../[app]/default/data/select/[table]\n    http://..../[app]/default/data/search/[table]\n    but URLs must be signed, i.e. linked with\n      A(\'table\',_href=URL(\'data/tables\',user_signature=True))\n    or with the signed load operator\n      LOAD(\'default\',\'data.load\',args=\'tables\',ajax=True,user_signature=True)\n    """\n    return dict(form=crud())\n\n@auth.requires_login()\ndef lall():\n\tflag=0\n\tx=db(db.Post.id>0).select()\n\ty=db(db.Post.User==db.auth_user.id).select(db.auth_user.first_name)\n\tz=db(db.auth_user.id==db.Votes.User).select()\n#\tresponse.flash= "Like karne ke liye dhanyavaad _^_!"\n\tif (len(request.args)!=0):\n\t\tr=request.args[0]\n\t\tp=request.args[1]\n#\tprint x\n#\t\tresponse.flash= "Like karne ke liye dhanyavaad _^_!"\n\t\tif (request.args[1]=="like" ):\t\n\t\t\tb=db(db.Post.id==(int(r)+1)).select()\n#\t\t\tprint db(db.Post.User_liked.contains(auth.user.id)).select()\n\t\t\trec=db(db.Post.User_liked.contains(auth.user.id)).select()\n\t\t\tif  (len(rec)):\n\t\t\t\tprint rec[0][\'id\']\n\t\t\t\tprint r\n\t\t\t\tfor j in range (len(rec)):\n\t\t\t\t\tif (rec[j][\'id\']==r+1):\n\t\t\t\t\t\tflag=1\n\t\t\t\tif (flag==1):\n\t\t\t\t\tresponse.flash= "Kitni baar like karega!!"\n\t\t\t\t\tredirect(URL("lall"))\n\t\t\t\telse:\t\t\t\n\t\t\t\t\tresponse.flash= "Like karne ke liye dhanyavaad _^_!"\n\t\t\t\t\ta=db(db.Post.id==(int(r)+1)).update(Rating=b[0][\'Rating\']+5)\t\n#\t\t\t\t\tdb.Post.User_liked.append(auth.user.id)\t\t\t\t\t\n#\t\t\t\tdb(db.Post.id==(int(r)+1)).update(User_liked=auth.user.id)\n\t\t\t\t\tredirect(URL("lall"))\n\t\t\telse:\n\t\t\t\tresponse.flash= "Like karne ke liye dhanyavaad _^_!"\n\t\t\t\ta=db(db.Post.id==(int(r)+1)).update(Rating=b[0][\'Rating\']+5)\t\n#\t\t\t\tdb.Post.User_liked.append(auth.user.id)\t\t\t\t\t\n#\t\t\t\tdb(db.Post.id==(int(r)+1)).update(User_liked=auth.user.id)\t\n\t\t\t\tredirect(URL("lall"))\n\t\telif (request.args[1]=="dislike"):\t\n\t\t\tb=db(db.Post.id==int(r)+1).select(db.Post.Rating)\n\t\t\ta=db(db.Post.id==int(r)+1).update(Rating=b[0][\'Rating\']-3)\n#\t\t\tredirect(URL("lall"))\n\treturn locals()\n\n@auth.requires_login()\ndef postnews():\n\tform=SQLFORM(db.Post)\n\tif form.process().accepts:\n\t\tresponse.flash= \'News Posted!\'\n\treturn locals()\n\n@auth.requires_login()\ndef listcat():\n\tp=db(db.Post.id>0).select()\n\tq=db(db.Post.User==db.auth_user.id).select(db.auth_user.first_name)\n\ty=request.args[0]\n\tx=db(db.Post.Category==y).select()\n\tif (len(x)>0):\n\t\treturn locals()\t\n\telse :\n\t\treturn locals()\n\ndef addcomment():\n\tr=request.args[0]\n\tr=int(r)+1\n\tform=SQLFORM(db.Comments)\n\n\n\nresponse._vars=response._caller(lall)\n'
p7
sS'snapshot'
p8
(dp9
S'exception'
p10
(dp11
S'__hash__'
p12
S"<method-wrapper '__hash__' of exceptions.TypeError object>"
p13
sS'__setattr__'
p14
S"<method-wrapper '__setattr__' of exceptions.TypeError object>"
p15
sS'__reduce_ex__'
p16
S'<built-in method __reduce_ex__ of exceptions.TypeError object>'
p17
sS'__getslice__'
p18
S"<method-wrapper '__getslice__' of exceptions.TypeError object>"
p19
sS'__getitem__'
p20
S"<method-wrapper '__getitem__' of exceptions.TypeError object>"
p21
sS'__setstate__'
p22
S'<built-in method __setstate__ of exceptions.TypeError object>'
p23
sS'args'
p24
S'("cannot concatenate \'str\' and \'int\' objects",)'
p25
sS'__reduce__'
p26
S'<built-in method __reduce__ of exceptions.TypeError object>'
p27
sS'__str__'
p28
S"<method-wrapper '__str__' of exceptions.TypeError object>"
p29
sS'__format__'
p30
S'<built-in method __format__ of exceptions.TypeError object>'
p31
sS'__getattribute__'
p32
S"<method-wrapper '__getattribute__' of exceptions.TypeError object>"
p33
sS'__class__'
p34
S"<type 'exceptions.TypeError'>"
p35
sS'__unicode__'
p36
S'<built-in method __unicode__ of exceptions.TypeError object>'
p37
sS'__delattr__'
p38
S"<method-wrapper '__delattr__' of exceptions.TypeError object>"
p39
sS'__subclasshook__'
p40
S'<built-in method __subclasshook__ of type object>'
p41
sS'__repr__'
p42
S"<method-wrapper '__repr__' of exceptions.TypeError object>"
p43
sS'__dict__'
p44
S'{}'
p45
sS'__sizeof__'
p46
S'<built-in method __sizeof__ of exceptions.TypeError object>'
p47
sS'__doc__'
p48
S"'Inappropriate argument type.'"
p49
sS'__init__'
p50
S"<method-wrapper '__init__' of exceptions.TypeError object>"
p51
sS'__new__'
p52
S'<built-in method __new__ of type object>'
p53
ssS'evalue'
p54
S"cannot concatenate 'str' and 'int' objects"
p55
sS'request'
p56
ccopy_reg
_reconstructor
p57
(cgluon.html
BEAUTIFY
p58
c__builtin__
object
p59
NtRp60
(dp61
S'attributes'
p62
(dp63
sS'components'
p64
(lp65
g57
(cgluon.html
TABLE
p66
g59
NtRp67
(dp68
g62
(dp69
S'level'
p70
I5
ssS'parent'
p71
Nsg64
(lp72
g57
(cgluon.html
TR
p73
g59
NtRp74
(dp75
g62
(dp76
sg71
g67
sg64
(lp77
g57
(cgluon.html
TD
p78
g59
NtRp79
(dp80
g62
(dp81
S'_style'
p82
S'font-weight:bold;vertical-align:top'
p83
ssg71
g74
sg64
(lp84
S'ajax'
p85
asbag57
(g78
g59
NtRp86
(dp87
g62
(dp88
S'_valign'
p89
S'top'
p90
ssg71
g74
sg64
(lp91
S':'
asbag57
(g78
g59
NtRp92
(dp93
g62
(dp94
sg71
g74
sg64
(lp95
g57
(g58
g59
NtRp96
(dp97
g62
(dp98
g70
I5
ssg71
g92
sg64
(lp99
S'False'
p100
asbasbasbag57
(g73
g59
NtRp101
(dp102
g62
(dp103
sg71
g67
sg64
(lp104
g57
(g78
g59
NtRp105
(dp106
g62
(dp107
g82
g83
ssg71
g101
sg64
(lp108
S'application'
p109
asbag57
(g78
g59
NtRp110
(dp111
g62
(dp112
g89
g90
ssg71
g101
sg64
(lp113
S':'
asbag57
(g78
g59
NtRp114
(dp115
g62
(dp116
sg71
g101
sg64
(lp117
g57
(g58
g59
NtRp118
(dp119
g62
(dp120
g70
I5
ssg71
g114
sg64
(lp121
S'app1'
p122
asbasbasbag57
(g73
g59
NtRp123
(dp124
g62
(dp125
sg71
g67
sg64
(lp126
g57
(g78
g59
NtRp127
(dp128
g62
(dp129
g82
g83
ssg71
g123
sg64
(lp130
g24
asbag57
(g78
g59
NtRp131
(dp132
g62
(dp133
g89
g90
ssg71
g123
sg64
(lp134
S':'
asbag57
(g78
g59
NtRp135
(dp136
g62
(dp137
sg71
g123
sg64
(lp138
g57
(g58
g59
NtRp139
(dp140
g62
(dp141
g70
I5
ssg71
g135
sg64
(lp142
g57
(g66
g59
NtRp143
(dp144
g62
(dp145
g70
I4
ssg71
Nsg64
(lp146
g57
(g73
g59
NtRp147
(dp148
g62
(dp149
sg71
g143
sg64
(lp150
g57
(g78
g59
NtRp151
(dp152
g62
(dp153
sg71
g147
sg64
(lp154
g57
(g58
g59
NtRp155
(dp156
g62
(dp157
g70
I4
ssg71
g151
sg64
(lp158
S'0'
asbasbasbag57
(g73
g59
NtRp159
(dp160
g62
(dp161
sg71
g143
sg64
(lp162
g57
(g78
g59
NtRp163
(dp164
g62
(dp165
sg71
g159
sg64
(lp166
g57
(g58
g59
NtRp167
(dp168
g62
(dp169
g70
I4
ssg71
g163
sg64
(lp170
S'like'
p171
asbasbasbasbasbasbasbag57
(g73
g59
NtRp172
(dp173
g62
(dp174
sg71
g67
sg64
(lp175
g57
(g78
g59
NtRp176
(dp177
g62
(dp178
g82
g83
ssg71
g172
sg64
(lp179
S'body'
p180
asbag57
(g78
g59
NtRp181
(dp182
g62
(dp183
g89
g90
ssg71
g172
sg64
(lp184
S':'
asbag57
(g78
g59
NtRp185
(dp186
g62
(dp187
sg71
g172
sg64
(lp188
g57
(g58
g59
NtRp189
(dp190
g62
(dp191
g70
I5
ssg71
g185
sg64
(lp192
S'<cStringIO.StringO object at 0x7fc71430e880>'
p193
asbasbasbag57
(g73
g59
NtRp194
(dp195
g62
(dp196
sg71
g67
sg64
(lp197
g57
(g78
g59
NtRp198
(dp199
g62
(dp200
g82
g83
ssg71
g194
sg64
(lp201
S'client'
p202
asbag57
(g78
g59
NtRp203
(dp204
g62
(dp205
g89
g90
ssg71
g194
sg64
(lp206
S':'
asbag57
(g78
g59
NtRp207
(dp208
g62
(dp209
sg71
g194
sg64
(lp210
g57
(g58
g59
NtRp211
(dp212
g62
(dp213
g70
I5
ssg71
g207
sg64
(lp214
S'127.0.0.1'
p215
asbasbasbag57
(g73
g59
NtRp216
(dp217
g62
(dp218
sg71
g67
sg64
(lp219
g57
(g78
g59
NtRp220
(dp221
g62
(dp222
g82
g83
ssg71
g216
sg64
(lp223
S'controller'
p224
asbag57
(g78
g59
NtRp225
(dp226
g62
(dp227
g89
g90
ssg71
g216
sg64
(lp228
S':'
asbag57
(g78
g59
NtRp229
(dp230
g62
(dp231
sg71
g216
sg64
(lp232
g57
(g58
g59
NtRp233
(dp234
g62
(dp235
g70
I5
ssg71
g229
sg64
(lp236
S'default'
p237
asbasbasbag57
(g73
g59
NtRp238
(dp239
g62
(dp240
sg71
g67
sg64
(lp241
g57
(g78
g59
NtRp242
(dp243
g62
(dp244
g82
g83
ssg71
g238
sg64
(lp245
S'cookies'
p246
asbag57
(g78
g59
NtRp247
(dp248
g62
(dp249
g89
g90
ssg71
g238
sg64
(lp250
S':'
asbag57
(g78
g59
NtRp251
(dp252
g62
(dp253
sg71
g238
sg64
(lp254
g57
(g58
g59
NtRp255
(dp256
g62
(dp257
g70
I5
ssg71
g251
sg64
(lp258
g57
(g66
g59
NtRp259
(dp260
g62
(dp261
g70
I4
ssg71
Nsg64
(lp262
g57
(g73
g59
NtRp263
(dp264
g62
(dp265
sg71
g259
sg64
(lp266
g57
(g78
g59
NtRp267
(dp268
g62
(dp269
g82
g83
ssg71
g263
sg64
(lp270
S'session_id_admin'
p271
asbag57
(g78
g59
NtRp272
(dp273
g62
(dp274
g89
g90
ssg71
g263
sg64
(lp275
S':'
asbag57
(g78
g59
NtRp276
(dp277
g62
(dp278
sg71
g263
sg64
(lp279
g57
(g58
g59
NtRp280
(dp281
g62
(dp282
g70
I4
ssg71
g276
sg64
(lp283
g57
(g66
g59
NtRp284
(dp285
g62
(dp286
g70
I3
ssg71
Nsg64
(lp287
g57
(g73
g59
NtRp288
(dp289
g62
(dp290
sg71
g284
sg64
(lp291
g57
(g78
g59
NtRp292
(dp293
g62
(dp294
g82
g83
ssg71
g288
sg64
(lp295
S'comment'
p296
asbag57
(g78
g59
NtRp297
(dp298
g62
(dp299
g89
g90
ssg71
g288
sg64
(lp300
S':'
asbag57
(g78
g59
NtRp301
(dp302
g62
(dp303
sg71
g288
sg64
(lp304
g57
(g58
g59
NtRp305
(dp306
g62
(dp307
g70
I3
ssg71
g301
sg64
(lp308
S''
asbasbasbag57
(g73
g59
NtRp309
(dp310
g62
(dp311
sg71
g284
sg64
(lp312
g57
(g78
g59
NtRp313
(dp314
g62
(dp315
g82
g83
ssg71
g309
sg64
(lp316
S'domain'
p317
asbag57
(g78
g59
NtRp318
(dp319
g62
(dp320
g89
g90
ssg71
g309
sg64
(lp321
S':'
asbag57
(g78
g59
NtRp322
(dp323
g62
(dp324
sg71
g309
sg64
(lp325
g57
(g58
g59
NtRp326
(dp327
g62
(dp328
g70
I3
ssg71
g322
sg64
(lp329
S''
asbasbasbag57
(g73
g59
NtRp330
(dp331
g62
(dp332
sg71
g284
sg64
(lp333
g57
(g78
g59
NtRp334
(dp335
g62
(dp336
g82
g83
ssg71
g330
sg64
(lp337
S'expires'
p338
asbag57
(g78
g59
NtRp339
(dp340
g62
(dp341
g89
g90
ssg71
g330
sg64
(lp342
S':'
asbag57
(g78
g59
NtRp343
(dp344
g62
(dp345
sg71
g330
sg64
(lp346
g57
(g58
g59
NtRp347
(dp348
g62
(dp349
g70
I3
ssg71
g343
sg64
(lp350
S''
asbasbasbag57
(g73
g59
NtRp351
(dp352
g62
(dp353
sg71
g284
sg64
(lp354
g57
(g78
g59
NtRp355
(dp356
g62
(dp357
g82
g83
ssg71
g351
sg64
(lp358
S'httponly'
p359
asbag57
(g78
g59
NtRp360
(dp361
g62
(dp362
g89
g90
ssg71
g351
sg64
(lp363
S':'
asbag57
(g78
g59
NtRp364
(dp365
g62
(dp366
sg71
g351
sg64
(lp367
g57
(g58
g59
NtRp368
(dp369
g62
(dp370
g70
I3
ssg71
g364
sg64
(lp371
S''
asbasbasbag57
(g73
g59
NtRp372
(dp373
g62
(dp374
sg71
g284
sg64
(lp375
g57
(g78
g59
NtRp376
(dp377
g62
(dp378
g82
g83
ssg71
g372
sg64
(lp379
S'max-age'
p380
asbag57
(g78
g59
NtRp381
(dp382
g62
(dp383
g89
g90
ssg71
g372
sg64
(lp384
S':'
asbag57
(g78
g59
NtRp385
(dp386
g62
(dp387
sg71
g372
sg64
(lp388
g57
(g58
g59
NtRp389
(dp390
g62
(dp391
g70
I3
ssg71
g385
sg64
(lp392
S''
asbasbasbag57
(g73
g59
NtRp393
(dp394
g62
(dp395
sg71
g284
sg64
(lp396
g57
(g78
g59
NtRp397
(dp398
g62
(dp399
g82
g83
ssg71
g393
sg64
(lp400
S'path'
p401
asbag57
(g78
g59
NtRp402
(dp403
g62
(dp404
g89
g90
ssg71
g393
sg64
(lp405
S':'
asbag57
(g78
g59
NtRp406
(dp407
g62
(dp408
sg71
g393
sg64
(lp409
g57
(g58
g59
NtRp410
(dp411
g62
(dp412
g70
I3
ssg71
g406
sg64
(lp413
S''
asbasbasbag57
(g73
g59
NtRp414
(dp415
g62
(dp416
sg71
g284
sg64
(lp417
g57
(g78
g59
NtRp418
(dp419
g62
(dp420
g82
g83
ssg71
g414
sg64
(lp421
S'secure'
p422
asbag57
(g78
g59
NtRp423
(dp424
g62
(dp425
g89
g90
ssg71
g414
sg64
(lp426
S':'
asbag57
(g78
g59
NtRp427
(dp428
g62
(dp429
sg71
g414
sg64
(lp430
g57
(g58
g59
NtRp431
(dp432
g62
(dp433
g70
I3
ssg71
g427
sg64
(lp434
S''
asbasbasbag57
(g73
g59
NtRp435
(dp436
g62
(dp437
sg71
g284
sg64
(lp438
g57
(g78
g59
NtRp439
(dp440
g62
(dp441
g82
g83
ssg71
g435
sg64
(lp442
S'version'
p443
asbag57
(g78
g59
NtRp444
(dp445
g62
(dp446
g89
g90
ssg71
g435
sg64
(lp447
S':'
asbag57
(g78
g59
NtRp448
(dp449
g62
(dp450
sg71
g435
sg64
(lp451
g57
(g58
g59
NtRp452
(dp453
g62
(dp454
g70
I3
ssg71
g448
sg64
(lp455
S''
asbasbasbasbasbasbasbag57
(g73
g59
NtRp456
(dp457
g62
(dp458
sg71
g259
sg64
(lp459
g57
(g78
g59
NtRp460
(dp461
g62
(dp462
g82
g83
ssg71
g456
sg64
(lp463
S'session_id_app1'
p464
asbag57
(g78
g59
NtRp465
(dp466
g62
(dp467
g89
g90
ssg71
g456
sg64
(lp468
S':'
asbag57
(g78
g59
NtRp469
(dp470
g62
(dp471
sg71
g456
sg64
(lp472
g57
(g58
g59
NtRp473
(dp474
g62
(dp475
g70
I4
ssg71
g469
sg64
(lp476
g57
(g66
g59
NtRp477
(dp478
g62
(dp479
g70
I3
ssg71
Nsg64
(lp480
g57
(g73
g59
NtRp481
(dp482
g62
(dp483
sg71
g477
sg64
(lp484
g57
(g78
g59
NtRp485
(dp486
g62
(dp487
g82
g83
ssg71
g481
sg64
(lp488
g296
asbag57
(g78
g59
NtRp489
(dp490
g62
(dp491
g89
g90
ssg71
g481
sg64
(lp492
S':'
asbag57
(g78
g59
NtRp493
(dp494
g62
(dp495
sg71
g481
sg64
(lp496
g57
(g58
g59
NtRp497
(dp498
g62
(dp499
g70
I3
ssg71
g493
sg64
(lp500
S''
asbasbasbag57
(g73
g59
NtRp501
(dp502
g62
(dp503
sg71
g477
sg64
(lp504
g57
(g78
g59
NtRp505
(dp506
g62
(dp507
g82
g83
ssg71
g501
sg64
(lp508
g317
asbag57
(g78
g59
NtRp509
(dp510
g62
(dp511
g89
g90
ssg71
g501
sg64
(lp512
S':'
asbag57
(g78
g59
NtRp513
(dp514
g62
(dp515
sg71
g501
sg64
(lp516
g57
(g58
g59
NtRp517
(dp518
g62
(dp519
g70
I3
ssg71
g513
sg64
(lp520
S''
asbasbasbag57
(g73
g59
NtRp521
(dp522
g62
(dp523
sg71
g477
sg64
(lp524
g57
(g78
g59
NtRp525
(dp526
g62
(dp527
g82
g83
ssg71
g521
sg64
(lp528
g338
asbag57
(g78
g59
NtRp529
(dp530
g62
(dp531
g89
g90
ssg71
g521
sg64
(lp532
S':'
asbag57
(g78
g59
NtRp533
(dp534
g62
(dp535
sg71
g521
sg64
(lp536
g57
(g58
g59
NtRp537
(dp538
g62
(dp539
g70
I3
ssg71
g533
sg64
(lp540
S''
asbasbasbag57
(g73
g59
NtRp541
(dp542
g62
(dp543
sg71
g477
sg64
(lp544
g57
(g78
g59
NtRp545
(dp546
g62
(dp547
g82
g83
ssg71
g541
sg64
(lp548
g359
asbag57
(g78
g59
NtRp549
(dp550
g62
(dp551
g89
g90
ssg71
g541
sg64
(lp552
S':'
asbag57
(g78
g59
NtRp553
(dp554
g62
(dp555
sg71
g541
sg64
(lp556
g57
(g58
g59
NtRp557
(dp558
g62
(dp559
g70
I3
ssg71
g553
sg64
(lp560
S''
asbasbasbag57
(g73
g59
NtRp561
(dp562
g62
(dp563
sg71
g477
sg64
(lp564
g57
(g78
g59
NtRp565
(dp566
g62
(dp567
g82
g83
ssg71
g561
sg64
(lp568
g380
asbag57
(g78
g59
NtRp569
(dp570
g62
(dp571
g89
g90
ssg71
g561
sg64
(lp572
S':'
asbag57
(g78
g59
NtRp573
(dp574
g62
(dp575
sg71
g561
sg64
(lp576
g57
(g58
g59
NtRp577
(dp578
g62
(dp579
g70
I3
ssg71
g573
sg64
(lp580
S''
asbasbasbag57
(g73
g59
NtRp581
(dp582
g62
(dp583
sg71
g477
sg64
(lp584
g57
(g78
g59
NtRp585
(dp586
g62
(dp587
g82
g83
ssg71
g581
sg64
(lp588
g401
asbag57
(g78
g59
NtRp589
(dp590
g62
(dp591
g89
g90
ssg71
g581
sg64
(lp592
S':'
asbag57
(g78
g59
NtRp593
(dp594
g62
(dp595
sg71
g581
sg64
(lp596
g57
(g58
g59
NtRp597
(dp598
g62
(dp599
g70
I3
ssg71
g593
sg64
(lp600
S''
asbasbasbag57
(g73
g59
NtRp601
(dp602
g62
(dp603
sg71
g477
sg64
(lp604
g57
(g78
g59
NtRp605
(dp606
g62
(dp607
g82
g83
ssg71
g601
sg64
(lp608
g422
asbag57
(g78
g59
NtRp609
(dp610
g62
(dp611
g89
g90
ssg71
g601
sg64
(lp612
S':'
asbag57
(g78
g59
NtRp613
(dp614
g62
(dp615
sg71
g601
sg64
(lp616
g57
(g58
g59
NtRp617
(dp618
g62
(dp619
g70
I3
ssg71
g613
sg64
(lp620
S''
asbasbasbag57
(g73
g59
NtRp621
(dp622
g62
(dp623
sg71
g477
sg64
(lp624
g57
(g78
g59
NtRp625
(dp626
g62
(dp627
g82
g83
ssg71
g621
sg64
(lp628
g443
asbag57
(g78
g59
NtRp629
(dp630
g62
(dp631
g89
g90
ssg71
g621
sg64
(lp632
S':'
asbag57
(g78
g59
NtRp633
(dp634
g62
(dp635
sg71
g621
sg64
(lp636
g57
(g58
g59
NtRp637
(dp638
g62
(dp639
g70
I3
ssg71
g633
sg64
(lp640
S''
asbasbasbasbasbasbasbag57
(g73
g59
NtRp641
(dp642
g62
(dp643
sg71
g259
sg64
(lp644
g57
(g78
g59
NtRp645
(dp646
g62
(dp647
g82
g83
ssg71
g641
sg64
(lp648
S'session_id_welcome'
p649
asbag57
(g78
g59
NtRp650
(dp651
g62
(dp652
g89
g90
ssg71
g641
sg64
(lp653
S':'
asbag57
(g78
g59
NtRp654
(dp655
g62
(dp656
sg71
g641
sg64
(lp657
g57
(g58
g59
NtRp658
(dp659
g62
(dp660
g70
I4
ssg71
g654
sg64
(lp661
g57
(g66
g59
NtRp662
(dp663
g62
(dp664
g70
I3
ssg71
Nsg64
(lp665
g57
(g73
g59
NtRp666
(dp667
g62
(dp668
sg71
g662
sg64
(lp669
g57
(g78
g59
NtRp670
(dp671
g62
(dp672
g82
g83
ssg71
g666
sg64
(lp673
g296
asbag57
(g78
g59
NtRp674
(dp675
g62
(dp676
g89
g90
ssg71
g666
sg64
(lp677
S':'
asbag57
(g78
g59
NtRp678
(dp679
g62
(dp680
sg71
g666
sg64
(lp681
g57
(g58
g59
NtRp682
(dp683
g62
(dp684
g70
I3
ssg71
g678
sg64
(lp685
S''
asbasbasbag57
(g73
g59
NtRp686
(dp687
g62
(dp688
sg71
g662
sg64
(lp689
g57
(g78
g59
NtRp690
(dp691
g62
(dp692
g82
g83
ssg71
g686
sg64
(lp693
g317
asbag57
(g78
g59
NtRp694
(dp695
g62
(dp696
g89
g90
ssg71
g686
sg64
(lp697
S':'
asbag57
(g78
g59
NtRp698
(dp699
g62
(dp700
sg71
g686
sg64
(lp701
g57
(g58
g59
NtRp702
(dp703
g62
(dp704
g70
I3
ssg71
g698
sg64
(lp705
S''
asbasbasbag57
(g73
g59
NtRp706
(dp707
g62
(dp708
sg71
g662
sg64
(lp709
g57
(g78
g59
NtRp710
(dp711
g62
(dp712
g82
g83
ssg71
g706
sg64
(lp713
g338
asbag57
(g78
g59
NtRp714
(dp715
g62
(dp716
g89
g90
ssg71
g706
sg64
(lp717
S':'
asbag57
(g78
g59
NtRp718
(dp719
g62
(dp720
sg71
g706
sg64
(lp721
g57
(g58
g59
NtRp722
(dp723
g62
(dp724
g70
I3
ssg71
g718
sg64
(lp725
S''
asbasbasbag57
(g73
g59
NtRp726
(dp727
g62
(dp728
sg71
g662
sg64
(lp729
g57
(g78
g59
NtRp730
(dp731
g62
(dp732
g82
g83
ssg71
g726
sg64
(lp733
g359
asbag57
(g78
g59
NtRp734
(dp735
g62
(dp736
g89
g90
ssg71
g726
sg64
(lp737
S':'
asbag57
(g78
g59
NtRp738
(dp739
g62
(dp740
sg71
g726
sg64
(lp741
g57
(g58
g59
NtRp742
(dp743
g62
(dp744
g70
I3
ssg71
g738
sg64
(lp745
S''
asbasbasbag57
(g73
g59
NtRp746
(dp747
g62
(dp748
sg71
g662
sg64
(lp749
g57
(g78
g59
NtRp750
(dp751
g62
(dp752
g82
g83
ssg71
g746
sg64
(lp753
g380
asbag57
(g78
g59
NtRp754
(dp755
g62
(dp756
g89
g90
ssg71
g746
sg64
(lp757
S':'
asbag57
(g78
g59
NtRp758
(dp759
g62
(dp760
sg71
g746
sg64
(lp761
g57
(g58
g59
NtRp762
(dp763
g62
(dp764
g70
I3
ssg71
g758
sg64
(lp765
S''
asbasbasbag57
(g73
g59
NtRp766
(dp767
g62
(dp768
sg71
g662
sg64
(lp769
g57
(g78
g59
NtRp770
(dp771
g62
(dp772
g82
g83
ssg71
g766
sg64
(lp773
g401
asbag57
(g78
g59
NtRp774
(dp775
g62
(dp776
g89
g90
ssg71
g766
sg64
(lp777
S':'
asbag57
(g78
g59
NtRp778
(dp779
g62
(dp780
sg71
g766
sg64
(lp781
g57
(g58
g59
NtRp782
(dp783
g62
(dp784
g70
I3
ssg71
g778
sg64
(lp785
S''
asbasbasbag57
(g73
g59
NtRp786
(dp787
g62
(dp788
sg71
g662
sg64
(lp789
g57
(g78
g59
NtRp790
(dp791
g62
(dp792
g82
g83
ssg71
g786
sg64
(lp793
g422
asbag57
(g78
g59
NtRp794
(dp795
g62
(dp796
g89
g90
ssg71
g786
sg64
(lp797
S':'
asbag57
(g78
g59
NtRp798
(dp799
g62
(dp800
sg71
g786
sg64
(lp801
g57
(g58
g59
NtRp802
(dp803
g62
(dp804
g70
I3
ssg71
g798
sg64
(lp805
S''
asbasbasbag57
(g73
g59
NtRp806
(dp807
g62
(dp808
sg71
g662
sg64
(lp809
g57
(g78
g59
NtRp810
(dp811
g62
(dp812
g82
g83
ssg71
g806
sg64
(lp813
g443
asbag57
(g78
g59
NtRp814
(dp815
g62
(dp816
g89
g90
ssg71
g806
sg64
(lp817
S':'
asbag57
(g78
g59
NtRp818
(dp819
g62
(dp820
sg71
g806
sg64
(lp821
g57
(g58
g59
NtRp822
(dp823
g62
(dp824
g70
I3
ssg71
g818
sg64
(lp825
S''
asbasbasbasbasbasbasbasbasbasbasbag57
(g73
g59
NtRp826
(dp827
g62
(dp828
sg71
g67
sg64
(lp829
g57
(g78
g59
NtRp830
(dp831
g62
(dp832
g82
g83
ssg71
g826
sg64
(lp833
S'env'
p834
asbag57
(g78
g59
NtRp835
(dp836
g62
(dp837
g89
g90
ssg71
g826
sg64
(lp838
S':'
asbag57
(g78
g59
NtRp839
(dp840
g62
(dp841
sg71
g826
sg64
(lp842
g57
(g58
g59
NtRp843
(dp844
g62
(dp845
g70
I5
ssg71
g839
sg64
(lp846
g57
(g66
g59
NtRp847
(dp848
g62
(dp849
g70
I4
ssg71
Nsg64
(lp850
g57
(g73
g59
NtRp851
(dp852
g62
(dp853
sg71
g847
sg64
(lp854
g57
(g78
g59
NtRp855
(dp856
g62
(dp857
g82
g83
ssg71
g851
sg64
(lp858
S'app_folders'
p859
asbag57
(g78
g59
NtRp860
(dp861
g62
(dp862
g89
g90
ssg71
g851
sg64
(lp863
S':'
asbag57
(g78
g59
NtRp864
(dp865
g62
(dp866
sg71
g851
sg64
(lp867
g57
(g58
g59
NtRp868
(dp869
g62
(dp870
g70
I4
ssg71
g864
sg64
(lp871
S"set(['/home/jigar/web2py/applications/welcome/', '/home/jigar/web2py/applications/admin/', '/home/jigar/web2py/applications/app1/'])"
p872
asbasbasbag57
(g73
g59
NtRp873
(dp874
g62
(dp875
sg71
g847
sg64
(lp876
g57
(g78
g59
NtRp877
(dp878
g62
(dp879
g82
g83
ssg71
g873
sg64
(lp880
S'applications_parent'
p881
asbag57
(g78
g59
NtRp882
(dp883
g62
(dp884
g89
g90
ssg71
g873
sg64
(lp885
S':'
asbag57
(g78
g59
NtRp886
(dp887
g62
(dp888
sg71
g873
sg64
(lp889
g57
(g58
g59
NtRp890
(dp891
g62
(dp892
g70
I4
ssg71
g886
sg64
(lp893
S'/home/jigar/web2py'
p894
asbasbasbag57
(g73
g59
NtRp895
(dp896
g62
(dp897
sg71
g847
sg64
(lp898
g57
(g78
g59
NtRp899
(dp900
g62
(dp901
g82
g83
ssg71
g895
sg64
(lp902
S'cmd_args'
p903
asbag57
(g78
g59
NtRp904
(dp905
g62
(dp906
g89
g90
ssg71
g895
sg64
(lp907
S':'
asbag57
(g78
g59
NtRp908
(dp909
g62
(dp910
sg71
g895
sg64
(lp911
g57
(g58
g59
NtRp912
(dp913
g62
(dp914
g70
I4
ssg71
g908
sg64
(lp915
g57
(g66
g59
NtRp916
(dp917
g62
(dp918
g70
I3
ssg71
Nsg64
(lp919
sbasbasbasbag57
(g73
g59
NtRp920
(dp921
g62
(dp922
sg71
g847
sg64
(lp923
g57
(g78
g59
NtRp924
(dp925
g62
(dp926
g82
g83
ssg71
g920
sg64
(lp927
S'cmd_options'
p928
asbag57
(g78
g59
NtRp929
(dp930
g62
(dp931
g89
g90
ssg71
g920
sg64
(lp932
S':'
asbag57
(g78
g59
NtRp933
(dp934
g62
(dp935
sg71
g920
sg64
(lp936
g57
(g58
g59
NtRp937
(dp938
g62
(dp939
g70
I4
ssg71
g933
sg64
(lp940
S"<Values at 0x1926c20: {'verbose': False, 'ip': '127.0.0.1', 'shutdown_timeout': 5, 'taskbar': False, 'port': 8000, 'maxthreads': None, 'softcron': False, 'server_name': 'jigar-Lenovo-Z580', 'bpython': False, 'nogui': False, 'nocron': False, 'extcron': False, 'debuglevel': 30, 'test': None, 'folder': '/home/jigar/web2py', 'config': '', 'import_models': False, 'winservice': '', 'shell': None, 'run': '', 'log_filename': 'httpserver.log', 'args': [''], 'socket_timeout': 1, 'profiler_filename': None, 'ssl_private_key': '', 'password': '<ask>', 'request_queue_size': 5, 'ssl_certificate': '', 'cronjob': False, 'plain': False, 'quiet': False, 'interfaces': None, 'minthreads': None, 'timeout': 10, 'numthreads': None, 'nobanner': False, 'pid_filename': 'httpserver.pid'}>"
p941
asbasbasbag57
(g73
g59
NtRp942
(dp943
g62
(dp944
sg71
g847
sg64
(lp945
g57
(g78
g59
NtRp946
(dp947
g62
(dp948
g82
g83
ssg71
g942
sg64
(lp949
S'db_sessions'
p950
asbag57
(g78
g59
NtRp951
(dp952
g62
(dp953
g89
g90
ssg71
g942
sg64
(lp954
S':'
asbag57
(g78
g59
NtRp955
(dp956
g62
(dp957
sg71
g942
sg64
(lp958
g57
(g58
g59
NtRp959
(dp960
g62
(dp961
g70
I4
ssg71
g955
sg64
(lp962
S'set([])'
p963
asbasbasbag57
(g73
g59
NtRp964
(dp965
g62
(dp966
sg71
g847
sg64
(lp967
g57
(g78
g59
NtRp968
(dp969
g62
(dp970
g82
g83
ssg71
g964
sg64
(lp971
S'debugging'
p972
asbag57
(g78
g59
NtRp973
(dp974
g62
(dp975
g89
g90
ssg71
g964
sg64
(lp976
S':'
asbag57
(g78
g59
NtRp977
(dp978
g62
(dp979
sg71
g964
sg64
(lp980
g57
(g58
g59
NtRp981
(dp982
g62
(dp983
g70
I4
ssg71
g977
sg64
(lp984
g100
asbasbasbag57
(g73
g59
NtRp985
(dp986
g62
(dp987
sg71
g847
sg64
(lp988
g57
(g78
g59
NtRp989
(dp990
g62
(dp991
g82
g83
ssg71
g985
sg64
(lp992
S'gluon_parent'
p993
asbag57
(g78
g59
NtRp994
(dp995
g62
(dp996
g89
g90
ssg71
g985
sg64
(lp997
S':'
asbag57
(g78
g59
NtRp998
(dp999
g62
(dp1000
sg71
g985
sg64
(lp1001
g57
(g58
g59
NtRp1002
(dp1003
g62
(dp1004
g70
I4
ssg71
g998
sg64
(lp1005
S'/usr/share/web2py'
p1006
asbasbasbag57
(g73
g59
NtRp1007
(dp1008
g62
(dp1009
sg71
g847
sg64
(lp1010
g57
(g78
g59
NtRp1011
(dp1012
g62
(dp1013
g82
g83
ssg71
g1007
sg64
(lp1014
S'http_accept'
p1015
asbag57
(g78
g59
NtRp1016
(dp1017
g62
(dp1018
g89
g90
ssg71
g1007
sg64
(lp1019
S':'
asbag57
(g78
g59
NtRp1020
(dp1021
g62
(dp1022
sg71
g1007
sg64
(lp1023
g57
(g58
g59
NtRp1024
(dp1025
g62
(dp1026
g70
I4
ssg71
g1020
sg64
(lp1027
S'text/html,application/xhtml+xml,application/xml;q=0.9,*/*;q=0.8'
p1028
asbasbasbag57
(g73
g59
NtRp1029
(dp1030
g62
(dp1031
sg71
g847
sg64
(lp1032
g57
(g78
g59
NtRp1033
(dp1034
g62
(dp1035
g82
g83
ssg71
g1029
sg64
(lp1036
S'http_accept_encoding'
p1037
asbag57
(g78
g59
NtRp1038
(dp1039
g62
(dp1040
g89
g90
ssg71
g1029
sg64
(lp1041
S':'
asbag57
(g78
g59
NtRp1042
(dp1043
g62
(dp1044
sg71
g1029
sg64
(lp1045
g57
(g58
g59
NtRp1046
(dp1047
g62
(dp1048
g70
I4
ssg71
g1042
sg64
(lp1049
S'gzip, deflate'
p1050
asbasbasbag57
(g73
g59
NtRp1051
(dp1052
g62
(dp1053
sg71
g847
sg64
(lp1054
g57
(g78
g59
NtRp1055
(dp1056
g62
(dp1057
g82
g83
ssg71
g1051
sg64
(lp1058
S'http_accept_language'
p1059
asbag57
(g78
g59
NtRp1060
(dp1061
g62
(dp1062
g89
g90
ssg71
g1051
sg64
(lp1063
S':'
asbag57
(g78
g59
NtRp1064
(dp1065
g62
(dp1066
sg71
g1051
sg64
(lp1067
g57
(g58
g59
NtRp1068
(dp1069
g62
(dp1070
g70
I4
ssg71
g1064
sg64
(lp1071
S'en-US,en;q=0.5'
p1072
asbasbasbag57
(g73
g59
NtRp1073
(dp1074
g62
(dp1075
sg71
g847
sg64
(lp1076
g57
(g78
g59
NtRp1077
(dp1078
g62
(dp1079
g82
g83
ssg71
g1073
sg64
(lp1080
S'http_connection'
p1081
asbag57
(g78
g59
NtRp1082
(dp1083
g62
(dp1084
g89
g90
ssg71
g1073
sg64
(lp1085
S':'
asbag57
(g78
g59
NtRp1086
(dp1087
g62
(dp1088
sg71
g1073
sg64
(lp1089
g57
(g58
g59
NtRp1090
(dp1091
g62
(dp1092
g70
I4
ssg71
g1086
sg64
(lp1093
S'keep-alive'
p1094
asbasbasbag57
(g73
g59
NtRp1095
(dp1096
g62
(dp1097
sg71
g847
sg64
(lp1098
g57
(g78
g59
NtRp1099
(dp1100
g62
(dp1101
g82
g83
ssg71
g1095
sg64
(lp1102
S'http_cookie'
p1103
asbag57
(g78
g59
NtRp1104
(dp1105
g62
(dp1106
g89
g90
ssg71
g1095
sg64
(lp1107
S':'
asbag57
(g78
g59
NtRp1108
(dp1109
g62
(dp1110
sg71
g1095
sg64
(lp1111
g57
(g58
g59
NtRp1112
(dp1113
g62
(dp1114
g70
I4
ssg71
g1108
sg64
(lp1115
S'session_id_welcome=127.0.0.1-b6f0729f-1b7b-417f-a0c4-729ef9448dca; session_id_admin=127.0.0.1-932cca65-c849-4cc4-aeab-720ab1480de6; session_id_app1=127.0.0.1-15782adb-a404-4b3e-868f-e60d89b9be1b'
p1116
asbasbasbag57
(g73
g59
NtRp1117
(dp1118
g62
(dp1119
sg71
g847
sg64
(lp1120
g57
(g78
g59
NtRp1121
(dp1122
g62
(dp1123
g82
g83
ssg71
g1117
sg64
(lp1124
S'http_host'
p1125
asbag57
(g78
g59
NtRp1126
(dp1127
g62
(dp1128
g89
g90
ssg71
g1117
sg64
(lp1129
S':'
asbag57
(g78
g59
NtRp1130
(dp1131
g62
(dp1132
sg71
g1117
sg64
(lp1133
g57
(g58
g59
NtRp1134
(dp1135
g62
(dp1136
g70
I4
ssg71
g1130
sg64
(lp1137
S'127.0.0.1:8000'
p1138
asbasbasbag57
(g73
g59
NtRp1139
(dp1140
g62
(dp1141
sg71
g847
sg64
(lp1142
g57
(g78
g59
NtRp1143
(dp1144
g62
(dp1145
g82
g83
ssg71
g1139
sg64
(lp1146
S'http_referer'
p1147
asbag57
(g78
g59
NtRp1148
(dp1149
g62
(dp1150
g89
g90
ssg71
g1139
sg64
(lp1151
S':'
asbag57
(g78
g59
NtRp1152
(dp1153
g62
(dp1154
sg71
g1139
sg64
(lp1155
g57
(g58
g59
NtRp1156
(dp1157
g62
(dp1158
g70
I4
ssg71
g1152
sg64
(lp1159
S'http://127.0.0.1:8000/app1/default/lall'
p1160
asbasbasbag57
(g73
g59
NtRp1161
(dp1162
g62
(dp1163
sg71
g847
sg64
(lp1164
g57
(g78
g59
NtRp1165
(dp1166
g62
(dp1167
g82
g83
ssg71
g1161
sg64
(lp1168
S'http_user_agent'
p1169
asbag57
(g78
g59
NtRp1170
(dp1171
g62
(dp1172
g89
g90
ssg71
g1161
sg64
(lp1173
S':'
asbag57
(g78
g59
NtRp1174
(dp1175
g62
(dp1176
sg71
g1161
sg64
(lp1177
g57
(g58
g59
NtRp1178
(dp1179
g62
(dp1180
g70
I4
ssg71
g1174
sg64
(lp1181
S'Mozilla/5.0 (X11; Ubuntu; Linux x86_64; rv:23.0) Gecko/20100101 Firefox/23.0'
p1182
asbasbasbag57
(g73
g59
NtRp1183
(dp1184
g62
(dp1185
sg71
g847
sg64
(lp1186
g57
(g78
g59
NtRp1187
(dp1188
g62
(dp1189
g82
g83
ssg71
g1183
sg64
(lp1190
S'is_jython'
p1191
asbag57
(g78
g59
NtRp1192
(dp1193
g62
(dp1194
g89
g90
ssg71
g1183
sg64
(lp1195
S':'
asbag57
(g78
g59
NtRp1196
(dp1197
g62
(dp1198
sg71
g1183
sg64
(lp1199
g57
(g58
g59
NtRp1200
(dp1201
g62
(dp1202
g70
I4
ssg71
g1196
sg64
(lp1203
g100
asbasbasbag57
(g73
g59
NtRp1204
(dp1205
g62
(dp1206
sg71
g847
sg64
(lp1207
g57
(g78
g59
NtRp1208
(dp1209
g62
(dp1210
g82
g83
ssg71
g1204
sg64
(lp1211
S'is_pypy'
p1212
asbag57
(g78
g59
NtRp1213
(dp1214
g62
(dp1215
g89
g90
ssg71
g1204
sg64
(lp1216
S':'
asbag57
(g78
g59
NtRp1217
(dp1218
g62
(dp1219
sg71
g1204
sg64
(lp1220
g57
(g58
g59
NtRp1221
(dp1222
g62
(dp1223
g70
I4
ssg71
g1217
sg64
(lp1224
g100
asbasbasbag57
(g73
g59
NtRp1225
(dp1226
g62
(dp1227
sg71
g847
sg64
(lp1228
g57
(g78
g59
NtRp1229
(dp1230
g62
(dp1231
g82
g83
ssg71
g1225
sg64
(lp1232
S'path_info'
p1233
asbag57
(g78
g59
NtRp1234
(dp1235
g62
(dp1236
g89
g90
ssg71
g1225
sg64
(lp1237
S':'
asbag57
(g78
g59
NtRp1238
(dp1239
g62
(dp1240
sg71
g1225
sg64
(lp1241
g57
(g58
g59
NtRp1242
(dp1243
g62
(dp1244
g70
I4
ssg71
g1238
sg64
(lp1245
S'/app1/default/lall/0/like'
p1246
asbasbasbag57
(g73
g59
NtRp1247
(dp1248
g62
(dp1249
sg71
g847
sg64
(lp1250
g57
(g78
g59
NtRp1251
(dp1252
g62
(dp1253
g82
g83
ssg71
g1247
sg64
(lp1254
S'query_string'
p1255
asbag57
(g78
g59
NtRp1256
(dp1257
g62
(dp1258
g89
g90
ssg71
g1247
sg64
(lp1259
S':'
asbag57
(g78
g59
NtRp1260
(dp1261
g62
(dp1262
sg71
g1247
sg64
(lp1263
g57
(g58
g59
NtRp1264
(dp1265
g62
(dp1266
g70
I4
ssg71
g1260
sg64
(lp1267
S''
asbasbasbag57
(g73
g59
NtRp1268
(dp1269
g62
(dp1270
sg71
g847
sg64
(lp1271
g57
(g78
g59
NtRp1272
(dp1273
g62
(dp1274
g82
g83
ssg71
g1268
sg64
(lp1275
S'remote_addr'
p1276
asbag57
(g78
g59
NtRp1277
(dp1278
g62
(dp1279
g89
g90
ssg71
g1268
sg64
(lp1280
S':'
asbag57
(g78
g59
NtRp1281
(dp1282
g62
(dp1283
sg71
g1268
sg64
(lp1284
g57
(g58
g59
NtRp1285
(dp1286
g62
(dp1287
g70
I4
ssg71
g1281
sg64
(lp1288
g215
asbasbasbag57
(g73
g59
NtRp1289
(dp1290
g62
(dp1291
sg71
g847
sg64
(lp1292
g57
(g78
g59
NtRp1293
(dp1294
g62
(dp1295
g82
g83
ssg71
g1289
sg64
(lp1296
S'remote_port'
p1297
asbag57
(g78
g59
NtRp1298
(dp1299
g62
(dp1300
g89
g90
ssg71
g1289
sg64
(lp1301
S':'
asbag57
(g78
g59
NtRp1302
(dp1303
g62
(dp1304
sg71
g1289
sg64
(lp1305
g57
(g58
g59
NtRp1306
(dp1307
g62
(dp1308
g70
I4
ssg71
g1302
sg64
(lp1309
S'57105'
p1310
asbasbasbag57
(g73
g59
NtRp1311
(dp1312
g62
(dp1313
sg71
g847
sg64
(lp1314
g57
(g78
g59
NtRp1315
(dp1316
g62
(dp1317
g82
g83
ssg71
g1311
sg64
(lp1318
S'request_method'
p1319
asbag57
(g78
g59
NtRp1320
(dp1321
g62
(dp1322
g89
g90
ssg71
g1311
sg64
(lp1323
S':'
asbag57
(g78
g59
NtRp1324
(dp1325
g62
(dp1326
sg71
g1311
sg64
(lp1327
g57
(g58
g59
NtRp1328
(dp1329
g62
(dp1330
g70
I4
ssg71
g1324
sg64
(lp1331
S'GET'
p1332
asbasbasbag57
(g73
g59
NtRp1333
(dp1334
g62
(dp1335
sg71
g847
sg64
(lp1336
g57
(g78
g59
NtRp1337
(dp1338
g62
(dp1339
g82
g83
ssg71
g1333
sg64
(lp1340
S'script_name'
p1341
asbag57
(g78
g59
NtRp1342
(dp1343
g62
(dp1344
g89
g90
ssg71
g1333
sg64
(lp1345
S':'
asbag57
(g78
g59
NtRp1346
(dp1347
g62
(dp1348
sg71
g1333
sg64
(lp1349
g57
(g58
g59
NtRp1350
(dp1351
g62
(dp1352
g70
I4
ssg71
g1346
sg64
(lp1353
S''
asbasbasbag57
(g73
g59
NtRp1354
(dp1355
g62
(dp1356
sg71
g847
sg64
(lp1357
g57
(g78
g59
NtRp1358
(dp1359
g62
(dp1360
g82
g83
ssg71
g1354
sg64
(lp1361
S'server_name'
p1362
asbag57
(g78
g59
NtRp1363
(dp1364
g62
(dp1365
g89
g90
ssg71
g1354
sg64
(lp1366
S':'
asbag57
(g78
g59
NtRp1367
(dp1368
g62
(dp1369
sg71
g1354
sg64
(lp1370
g57
(g58
g59
NtRp1371
(dp1372
g62
(dp1373
g70
I4
ssg71
g1367
sg64
(lp1374
S'jigar-Lenovo-Z580'
p1375
asbasbasbag57
(g73
g59
NtRp1376
(dp1377
g62
(dp1378
sg71
g847
sg64
(lp1379
g57
(g78
g59
NtRp1380
(dp1381
g62
(dp1382
g82
g83
ssg71
g1376
sg64
(lp1383
S'server_port'
p1384
asbag57
(g78
g59
NtRp1385
(dp1386
g62
(dp1387
g89
g90
ssg71
g1376
sg64
(lp1388
S':'
asbag57
(g78
g59
NtRp1389
(dp1390
g62
(dp1391
sg71
g1376
sg64
(lp1392
g57
(g58
g59
NtRp1393
(dp1394
g62
(dp1395
g70
I4
ssg71
g1389
sg64
(lp1396
S'8000'
p1397
asbasbasbag57
(g73
g59
NtRp1398
(dp1399
g62
(dp1400
sg71
g847
sg64
(lp1401
g57
(g78
g59
NtRp1402
(dp1403
g62
(dp1404
g82
g83
ssg71
g1398
sg64
(lp1405
S'server_protocol'
p1406
asbag57
(g78
g59
NtRp1407
(dp1408
g62
(dp1409
g89
g90
ssg71
g1398
sg64
(lp1410
S':'
asbag57
(g78
g59
NtRp1411
(dp1412
g62
(dp1413
sg71
g1398
sg64
(lp1414
g57
(g58
g59
NtRp1415
(dp1416
g62
(dp1417
g70
I4
ssg71
g1411
sg64
(lp1418
S'HTTP/1.1'
p1419
asbasbasbag57
(g73
g59
NtRp1420
(dp1421
g62
(dp1422
sg71
g847
sg64
(lp1423
g57
(g78
g59
NtRp1424
(dp1425
g62
(dp1426
g82
g83
ssg71
g1420
sg64
(lp1427
S'server_software'
p1428
asbag57
(g78
g59
NtRp1429
(dp1430
g62
(dp1431
g89
g90
ssg71
g1420
sg64
(lp1432
S':'
asbag57
(g78
g59
NtRp1433
(dp1434
g62
(dp1435
sg71
g1420
sg64
(lp1436
g57
(g58
g59
NtRp1437
(dp1438
g62
(dp1439
g70
I4
ssg71
g1433
sg64
(lp1440
S'Rocket 1.2.4'
p1441
asbasbasbag57
(g73
g59
NtRp1442
(dp1443
g62
(dp1444
sg71
g847
sg64
(lp1445
g57
(g78
g59
NtRp1446
(dp1447
g62
(dp1448
g82
g83
ssg71
g1442
sg64
(lp1449
S'web2py_crontype'
p1450
asbag57
(g78
g59
NtRp1451
(dp1452
g62
(dp1453
g89
g90
ssg71
g1442
sg64
(lp1454
S':'
asbag57
(g78
g59
NtRp1455
(dp1456
g62
(dp1457
sg71
g1442
sg64
(lp1458
g57
(g58
g59
NtRp1459
(dp1460
g62
(dp1461
g70
I4
ssg71
g1455
sg64
(lp1462
S'hard'
p1463
asbasbasbag57
(g73
g59
NtRp1464
(dp1465
g62
(dp1466
sg71
g847
sg64
(lp1467
g57
(g78
g59
NtRp1468
(dp1469
g62
(dp1470
g82
g83
ssg71
g1464
sg64
(lp1471
S'web2py_path'
p1472
asbag57
(g78
g59
NtRp1473
(dp1474
g62
(dp1475
g89
g90
ssg71
g1464
sg64
(lp1476
S':'
asbag57
(g78
g59
NtRp1477
(dp1478
g62
(dp1479
sg71
g1464
sg64
(lp1480
g57
(g58
g59
NtRp1481
(dp1482
g62
(dp1483
g70
I4
ssg71
g1477
sg64
(lp1484
g894
asbasbasbag57
(g73
g59
NtRp1485
(dp1486
g62
(dp1487
sg71
g847
sg64
(lp1488
g57
(g78
g59
NtRp1489
(dp1490
g62
(dp1491
g82
g83
ssg71
g1485
sg64
(lp1492
S'web2py_version'
p1493
asbag57
(g78
g59
NtRp1494
(dp1495
g62
(dp1496
g89
g90
ssg71
g1485
sg64
(lp1497
S':'
asbag57
(g78
g59
NtRp1498
(dp1499
g62
(dp1500
sg71
g1485
sg64
(lp1501
g57
(g58
g59
NtRp1502
(dp1503
g62
(dp1504
g70
I4
ssg71
g1498
sg64
(lp1505
g57
(g66
g59
NtRp1506
(dp1507
g62
(dp1508
g70
I3
ssg71
Nsg64
(lp1509
g57
(g73
g59
NtRp1510
(dp1511
g62
(dp1512
sg71
g1506
sg64
(lp1513
g57
(g78
g59
NtRp1514
(dp1515
g62
(dp1516
sg71
g1510
sg64
(lp1517
g57
(g58
g59
NtRp1518
(dp1519
g62
(dp1520
g70
I3
ssg71
g1514
sg64
(lp1521
S'1'
asbasbasbag57
(g73
g59
NtRp1522
(dp1523
g62
(dp1524
sg71
g1506
sg64
(lp1525
g57
(g78
g59
NtRp1526
(dp1527
g62
(dp1528
sg71
g1522
sg64
(lp1529
g57
(g58
g59
NtRp1530
(dp1531
g62
(dp1532
g70
I3
ssg71
g1526
sg64
(lp1533
S'99'
p1534
asbasbasbag57
(g73
g59
NtRp1535
(dp1536
g62
(dp1537
sg71
g1506
sg64
(lp1538
g57
(g78
g59
NtRp1539
(dp1540
g62
(dp1541
sg71
g1535
sg64
(lp1542
g57
(g58
g59
NtRp1543
(dp1544
g62
(dp1545
g70
I3
ssg71
g1539
sg64
(lp1546
S'4'
asbasbasbag57
(g73
g59
NtRp1547
(dp1548
g62
(dp1549
sg71
g1506
sg64
(lp1550
g57
(g78
g59
NtRp1551
(dp1552
g62
(dp1553
sg71
g1547
sg64
(lp1554
g57
(g58
g59
NtRp1555
(dp1556
g62
(dp1557
g70
I3
ssg71
g1551
sg64
(lp1558
S'datetime.datetime(2011, 12, 14, 14, 46, 14)'
p1559
asbasbasbag57
(g73
g59
NtRp1560
(dp1561
g62
(dp1562
sg71
g1506
sg64
(lp1563
g57
(g78
g59
NtRp1564
(dp1565
g62
(dp1566
sg71
g1560
sg64
(lp1567
g57
(g58
g59
NtRp1568
(dp1569
g62
(dp1570
g70
I3
ssg71
g1564
sg64
(lp1571
S'stable'
p1572
asbasbasbasbasbasbasbag57
(g73
g59
NtRp1573
(dp1574
g62
(dp1575
sg71
g847
sg64
(lp1576
g57
(g78
g59
NtRp1577
(dp1578
g62
(dp1579
g82
g83
ssg71
g1573
sg64
(lp1580
S'wsgi_errors'
p1581
asbag57
(g78
g59
NtRp1582
(dp1583
g62
(dp1584
g89
g90
ssg71
g1573
sg64
(lp1585
S':'
asbag57
(g78
g59
NtRp1586
(dp1587
g62
(dp1588
sg71
g1573
sg64
(lp1589
g57
(g58
g59
NtRp1590
(dp1591
g62
(dp1592
g70
I4
ssg71
g1586
sg64
(lp1593
S"<open file '<stderr>', mode 'w' at 0x7fc75bbcd270>"
p1594
asbasbasbag57
(g73
g59
NtRp1595
(dp1596
g62
(dp1597
sg71
g847
sg64
(lp1598
g57
(g78
g59
NtRp1599
(dp1600
g62
(dp1601
g82
g83
ssg71
g1595
sg64
(lp1602
S'wsgi_file_wrapper'
p1603
asbag57
(g78
g59
NtRp1604
(dp1605
g62
(dp1606
g89
g90
ssg71
g1595
sg64
(lp1607
S':'
asbag57
(g78
g59
NtRp1608
(dp1609
g62
(dp1610
sg71
g1595
sg64
(lp1611
g57
(g58
g59
NtRp1612
(dp1613
g62
(dp1614
g70
I4
ssg71
g1608
sg64
(lp1615
S'<class wsgiref.util.FileWrapper at 0x18a6328>'
p1616
asbasbasbag57
(g73
g59
NtRp1617
(dp1618
g62
(dp1619
sg71
g847
sg64
(lp1620
g57
(g78
g59
NtRp1621
(dp1622
g62
(dp1623
g82
g83
ssg71
g1617
sg64
(lp1624
S'wsgi_input'
p1625
asbag57
(g78
g59
NtRp1626
(dp1627
g62
(dp1628
g89
g90
ssg71
g1617
sg64
(lp1629
S':'
asbag57
(g78
g59
NtRp1630
(dp1631
g62
(dp1632
sg71
g1617
sg64
(lp1633
g57
(g58
g59
NtRp1634
(dp1635
g62
(dp1636
g70
I4
ssg71
g1630
sg64
(lp1637
S'<socket._fileobject object at 0x7fc7083215d0>'
p1638
asbasbasbag57
(g73
g59
NtRp1639
(dp1640
g62
(dp1641
sg71
g847
sg64
(lp1642
g57
(g78
g59
NtRp1643
(dp1644
g62
(dp1645
g82
g83
ssg71
g1639
sg64
(lp1646
S'wsgi_multiprocess'
p1647
asbag57
(g78
g59
NtRp1648
(dp1649
g62
(dp1650
g89
g90
ssg71
g1639
sg64
(lp1651
S':'
asbag57
(g78
g59
NtRp1652
(dp1653
g62
(dp1654
sg71
g1639
sg64
(lp1655
g57
(g58
g59
NtRp1656
(dp1657
g62
(dp1658
g70
I4
ssg71
g1652
sg64
(lp1659
g100
asbasbasbag57
(g73
g59
NtRp1660
(dp1661
g62
(dp1662
sg71
g847
sg64
(lp1663
g57
(g78
g59
NtRp1664
(dp1665
g62
(dp1666
g82
g83
ssg71
g1660
sg64
(lp1667
S'wsgi_multithread'
p1668
asbag57
(g78
g59
NtRp1669
(dp1670
g62
(dp1671
g89
g90
ssg71
g1660
sg64
(lp1672
S':'
asbag57
(g78
g59
NtRp1673
(dp1674
g62
(dp1675
sg71
g1660
sg64
(lp1676
g57
(g58
g59
NtRp1677
(dp1678
g62
(dp1679
g70
I4
ssg71
g1673
sg64
(lp1680
S'True'
p1681
asbasbasbag57
(g73
g59
NtRp1682
(dp1683
g62
(dp1684
sg71
g847
sg64
(lp1685
g57
(g78
g59
NtRp1686
(dp1687
g62
(dp1688
g82
g83
ssg71
g1682
sg64
(lp1689
S'wsgi_run_once'
p1690
asbag57
(g78
g59
NtRp1691
(dp1692
g62
(dp1693
g89
g90
ssg71
g1682
sg64
(lp1694
S':'
asbag57
(g78
g59
NtRp1695
(dp1696
g62
(dp1697
sg71
g1682
sg64
(lp1698
g57
(g58
g59
NtRp1699
(dp1700
g62
(dp1701
g70
I4
ssg71
g1695
sg64
(lp1702
g100
asbasbasbag57
(g73
g59
NtRp1703
(dp1704
g62
(dp1705
sg71
g847
sg64
(lp1706
g57
(g78
g59
NtRp1707
(dp1708
g62
(dp1709
g82
g83
ssg71
g1703
sg64
(lp1710
S'wsgi_url_scheme'
p1711
asbag57
(g78
g59
NtRp1712
(dp1713
g62
(dp1714
g89
g90
ssg71
g1703
sg64
(lp1715
S':'
asbag57
(g78
g59
NtRp1716
(dp1717
g62
(dp1718
sg71
g1703
sg64
(lp1719
g57
(g58
g59
NtRp1720
(dp1721
g62
(dp1722
g70
I4
ssg71
g1716
sg64
(lp1723
S'http'
p1724
asbasbasbag57
(g73
g59
NtRp1725
(dp1726
g62
(dp1727
sg71
g847
sg64
(lp1728
g57
(g78
g59
NtRp1729
(dp1730
g62
(dp1731
g82
g83
ssg71
g1725
sg64
(lp1732
S'wsgi_version'
p1733
asbag57
(g78
g59
NtRp1734
(dp1735
g62
(dp1736
g89
g90
ssg71
g1725
sg64
(lp1737
S':'
asbag57
(g78
g59
NtRp1738
(dp1739
g62
(dp1740
sg71
g1725
sg64
(lp1741
g57
(g58
g59
NtRp1742
(dp1743
g62
(dp1744
g70
I4
ssg71
g1738
sg64
(lp1745
g57
(g66
g59
NtRp1746
(dp1747
g62
(dp1748
g70
I3
ssg71
Nsg64
(lp1749
g57
(g73
g59
NtRp1750
(dp1751
g62
(dp1752
sg71
g1746
sg64
(lp1753
g57
(g78
g59
NtRp1754
(dp1755
g62
(dp1756
sg71
g1750
sg64
(lp1757
g57
(g58
g59
NtRp1758
(dp1759
g62
(dp1760
g70
I3
ssg71
g1754
sg64
(lp1761
S'1'
asbasbasbag57
(g73
g59
NtRp1762
(dp1763
g62
(dp1764
sg71
g1746
sg64
(lp1765
g57
(g78
g59
NtRp1766
(dp1767
g62
(dp1768
sg71
g1762
sg64
(lp1769
g57
(g58
g59
NtRp1770
(dp1771
g62
(dp1772
g70
I3
ssg71
g1766
sg64
(lp1773
S'0'
asbasbasbasbasbasbasbasbasbasbasbag57
(g73
g59
NtRp1774
(dp1775
g62
(dp1776
sg71
g67
sg64
(lp1777
g57
(g78
g59
NtRp1778
(dp1779
g62
(dp1780
g82
g83
ssg71
g1774
sg64
(lp1781
S'extension'
p1782
asbag57
(g78
g59
NtRp1783
(dp1784
g62
(dp1785
g89
g90
ssg71
g1774
sg64
(lp1786
S':'
asbag57
(g78
g59
NtRp1787
(dp1788
g62
(dp1789
sg71
g1774
sg64
(lp1790
g57
(g58
g59
NtRp1791
(dp1792
g62
(dp1793
g70
I5
ssg71
g1787
sg64
(lp1794
S'html'
p1795
asbasbasbag57
(g73
g59
NtRp1796
(dp1797
g62
(dp1798
sg71
g67
sg64
(lp1799
g57
(g78
g59
NtRp1800
(dp1801
g62
(dp1802
g82
g83
ssg71
g1796
sg64
(lp1803
S'folder'
p1804
asbag57
(g78
g59
NtRp1805
(dp1806
g62
(dp1807
g89
g90
ssg71
g1796
sg64
(lp1808
S':'
asbag57
(g78
g59
NtRp1809
(dp1810
g62
(dp1811
sg71
g1796
sg64
(lp1812
g57
(g58
g59
NtRp1813
(dp1814
g62
(dp1815
g70
I5
ssg71
g1809
sg64
(lp1816
S'/home/jigar/web2py/applications/app1/'
p1817
asbasbasbag57
(g73
g59
NtRp1818
(dp1819
g62
(dp1820
sg71
g67
sg64
(lp1821
g57
(g78
g59
NtRp1822
(dp1823
g62
(dp1824
g82
g83
ssg71
g1818
sg64
(lp1825
S'function'
p1826
asbag57
(g78
g59
NtRp1827
(dp1828
g62
(dp1829
g89
g90
ssg71
g1818
sg64
(lp1830
S':'
asbag57
(g78
g59
NtRp1831
(dp1832
g62
(dp1833
sg71
g1818
sg64
(lp1834
g57
(g58
g59
NtRp1835
(dp1836
g62
(dp1837
g70
I5
ssg71
g1831
sg64
(lp1838
S'lall'
p1839
asbasbasbag57
(g73
g59
NtRp1840
(dp1841
g62
(dp1842
sg71
g67
sg64
(lp1843
g57
(g78
g59
NtRp1844
(dp1845
g62
(dp1846
g82
g83
ssg71
g1840
sg64
(lp1847
S'get_vars'
p1848
asbag57
(g78
g59
NtRp1849
(dp1850
g62
(dp1851
g89
g90
ssg71
g1840
sg64
(lp1852
S':'
asbag57
(g78
g59
NtRp1853
(dp1854
g62
(dp1855
sg71
g1840
sg64
(lp1856
g57
(g58
g59
NtRp1857
(dp1858
g62
(dp1859
g70
I5
ssg71
g1853
sg64
(lp1860
g57
(g66
g59
NtRp1861
(dp1862
g62
(dp1863
g70
I4
ssg71
Nsg64
(lp1864
sbasbasbasbag57
(g73
g59
NtRp1865
(dp1866
g62
(dp1867
sg71
g67
sg64
(lp1868
g57
(g78
g59
NtRp1869
(dp1870
g62
(dp1871
g82
g83
ssg71
g1865
sg64
(lp1872
S'global_settings'
p1873
asbag57
(g78
g59
NtRp1874
(dp1875
g62
(dp1876
g89
g90
ssg71
g1865
sg64
(lp1877
S':'
asbag57
(g78
g59
NtRp1878
(dp1879
g62
(dp1880
sg71
g1865
sg64
(lp1881
g57
(g58
g59
NtRp1882
(dp1883
g62
(dp1884
g70
I5
ssg71
g1878
sg64
(lp1885
g57
(g66
g59
NtRp1886
(dp1887
g62
(dp1888
g70
I4
ssg71
Nsg64
(lp1889
g57
(g73
g59
NtRp1890
(dp1891
g62
(dp1892
sg71
g1886
sg64
(lp1893
g57
(g78
g59
NtRp1894
(dp1895
g62
(dp1896
g82
g83
ssg71
g1890
sg64
(lp1897
g859
asbag57
(g78
g59
NtRp1898
(dp1899
g62
(dp1900
g89
g90
ssg71
g1890
sg64
(lp1901
S':'
asbag57
(g78
g59
NtRp1902
(dp1903
g62
(dp1904
sg71
g1890
sg64
(lp1905
g57
(g58
g59
NtRp1906
(dp1907
g62
(dp1908
g70
I4
ssg71
g1902
sg64
(lp1909
S"set(['/home/jigar/web2py/applications/welcome/', '/home/jigar/web2py/applications/admin/', '/home/jigar/web2py/applications/app1/'])"
p1910
asbasbasbag57
(g73
g59
NtRp1911
(dp1912
g62
(dp1913
sg71
g1886
sg64
(lp1914
g57
(g78
g59
NtRp1915
(dp1916
g62
(dp1917
g82
g83
ssg71
g1911
sg64
(lp1918
g881
asbag57
(g78
g59
NtRp1919
(dp1920
g62
(dp1921
g89
g90
ssg71
g1911
sg64
(lp1922
S':'
asbag57
(g78
g59
NtRp1923
(dp1924
g62
(dp1925
sg71
g1911
sg64
(lp1926
g57
(g58
g59
NtRp1927
(dp1928
g62
(dp1929
g70
I4
ssg71
g1923
sg64
(lp1930
g894
asbasbasbag57
(g73
g59
NtRp1931
(dp1932
g62
(dp1933
sg71
g1886
sg64
(lp1934
g57
(g78
g59
NtRp1935
(dp1936
g62
(dp1937
g82
g83
ssg71
g1931
sg64
(lp1938
g903
asbag57
(g78
g59
NtRp1939
(dp1940
g62
(dp1941
g89
g90
ssg71
g1931
sg64
(lp1942
S':'
asbag57
(g78
g59
NtRp1943
(dp1944
g62
(dp1945
sg71
g1931
sg64
(lp1946
g57
(g58
g59
NtRp1947
(dp1948
g62
(dp1949
g70
I4
ssg71
g1943
sg64
(lp1950
g57
(g66
g59
NtRp1951
(dp1952
g62
(dp1953
g70
I3
ssg71
Nsg64
(lp1954
sbasbasbasbag57
(g73
g59
NtRp1955
(dp1956
g62
(dp1957
sg71
g1886
sg64
(lp1958
g57
(g78
g59
NtRp1959
(dp1960
g62
(dp1961
g82
g83
ssg71
g1955
sg64
(lp1962
g928
asbag57
(g78
g59
NtRp1963
(dp1964
g62
(dp1965
g89
g90
ssg71
g1955
sg64
(lp1966
S':'
asbag57
(g78
g59
NtRp1967
(dp1968
g62
(dp1969
sg71
g1955
sg64
(lp1970
g57
(g58
g59
NtRp1971
(dp1972
g62
(dp1973
g70
I4
ssg71
g1967
sg64
(lp1974
S"<Values at 0x1926c20: {'verbose': False, 'ip': '127.0.0.1', 'shutdown_timeout': 5, 'taskbar': False, 'port': 8000, 'maxthreads': None, 'softcron': False, 'server_name': 'jigar-Lenovo-Z580', 'bpython': False, 'nogui': False, 'nocron': False, 'extcron': False, 'debuglevel': 30, 'test': None, 'folder': '/home/jigar/web2py', 'config': '', 'import_models': False, 'winservice': '', 'shell': None, 'run': '', 'log_filename': 'httpserver.log', 'args': [''], 'socket_timeout': 1, 'profiler_filename': None, 'ssl_private_key': '', 'password': '<ask>', 'request_queue_size': 5, 'ssl_certificate': '', 'cronjob': False, 'plain': False, 'quiet': False, 'interfaces': None, 'minthreads': None, 'timeout': 10, 'numthreads': None, 'nobanner': False, 'pid_filename': 'httpserver.pid'}>"
p1975
asbasbasbag57
(g73
g59
NtRp1976
(dp1977
g62
(dp1978
sg71
g1886
sg64
(lp1979
g57
(g78
g59
NtRp1980
(dp1981
g62
(dp1982
g82
g83
ssg71
g1976
sg64
(lp1983
g950
asbag57
(g78
g59
NtRp1984
(dp1985
g62
(dp1986
g89
g90
ssg71
g1976
sg64
(lp1987
S':'
asbag57
(g78
g59
NtRp1988
(dp1989
g62
(dp1990
sg71
g1976
sg64
(lp1991
g57
(g58
g59
NtRp1992
(dp1993
g62
(dp1994
g70
I4
ssg71
g1988
sg64
(lp1995
S'set([])'
p1996
asbasbasbag57
(g73
g59
NtRp1997
(dp1998
g62
(dp1999
sg71
g1886
sg64
(lp2000
g57
(g78
g59
NtRp2001
(dp2002
g62
(dp2003
g82
g83
ssg71
g1997
sg64
(lp2004
g972
asbag57
(g78
g59
NtRp2005
(dp2006
g62
(dp2007
g89
g90
ssg71
g1997
sg64
(lp2008
S':'
asbag57
(g78
g59
NtRp2009
(dp2010
g62
(dp2011
sg71
g1997
sg64
(lp2012
g57
(g58
g59
NtRp2013
(dp2014
g62
(dp2015
g70
I4
ssg71
g2009
sg64
(lp2016
g100
asbasbasbag57
(g73
g59
NtRp2017
(dp2018
g62
(dp2019
sg71
g1886
sg64
(lp2020
g57
(g78
g59
NtRp2021
(dp2022
g62
(dp2023
g82
g83
ssg71
g2017
sg64
(lp2024
g993
asbag57
(g78
g59
NtRp2025
(dp2026
g62
(dp2027
g89
g90
ssg71
g2017
sg64
(lp2028
S':'
asbag57
(g78
g59
NtRp2029
(dp2030
g62
(dp2031
sg71
g2017
sg64
(lp2032
g57
(g58
g59
NtRp2033
(dp2034
g62
(dp2035
g70
I4
ssg71
g2029
sg64
(lp2036
g1006
asbasbasbag57
(g73
g59
NtRp2037
(dp2038
g62
(dp2039
sg71
g1886
sg64
(lp2040
g57
(g78
g59
NtRp2041
(dp2042
g62
(dp2043
g82
g83
ssg71
g2037
sg64
(lp2044
g1191
asbag57
(g78
g59
NtRp2045
(dp2046
g62
(dp2047
g89
g90
ssg71
g2037
sg64
(lp2048
S':'
asbag57
(g78
g59
NtRp2049
(dp2050
g62
(dp2051
sg71
g2037
sg64
(lp2052
g57
(g58
g59
NtRp2053
(dp2054
g62
(dp2055
g70
I4
ssg71
g2049
sg64
(lp2056
g100
asbasbasbag57
(g73
g59
NtRp2057
(dp2058
g62
(dp2059
sg71
g1886
sg64
(lp2060
g57
(g78
g59
NtRp2061
(dp2062
g62
(dp2063
g82
g83
ssg71
g2057
sg64
(lp2064
g1212
asbag57
(g78
g59
NtRp2065
(dp2066
g62
(dp2067
g89
g90
ssg71
g2057
sg64
(lp2068
S':'
asbag57
(g78
g59
NtRp2069
(dp2070
g62
(dp2071
sg71
g2057
sg64
(lp2072
g57
(g58
g59
NtRp2073
(dp2074
g62
(dp2075
g70
I4
ssg71
g2069
sg64
(lp2076
g100
asbasbasbag57
(g73
g59
NtRp2077
(dp2078
g62
(dp2079
sg71
g1886
sg64
(lp2080
g57
(g78
g59
NtRp2081
(dp2082
g62
(dp2083
g82
g83
ssg71
g2077
sg64
(lp2084
g1450
asbag57
(g78
g59
NtRp2085
(dp2086
g62
(dp2087
g89
g90
ssg71
g2077
sg64
(lp2088
S':'
asbag57
(g78
g59
NtRp2089
(dp2090
g62
(dp2091
sg71
g2077
sg64
(lp2092
g57
(g58
g59
NtRp2093
(dp2094
g62
(dp2095
g70
I4
ssg71
g2089
sg64
(lp2096
g1463
asbasbasbag57
(g73
g59
NtRp2097
(dp2098
g62
(dp2099
sg71
g1886
sg64
(lp2100
g57
(g78
g59
NtRp2101
(dp2102
g62
(dp2103
g82
g83
ssg71
g2097
sg64
(lp2104
g1493
asbag57
(g78
g59
NtRp2105
(dp2106
g62
(dp2107
g89
g90
ssg71
g2097
sg64
(lp2108
S':'
asbag57
(g78
g59
NtRp2109
(dp2110
g62
(dp2111
sg71
g2097
sg64
(lp2112
g57
(g58
g59
NtRp2113
(dp2114
g62
(dp2115
g70
I4
ssg71
g2109
sg64
(lp2116
g57
(g66
g59
NtRp2117
(dp2118
g62
(dp2119
g70
I3
ssg71
Nsg64
(lp2120
g57
(g73
g59
NtRp2121
(dp2122
g62
(dp2123
sg71
g2117
sg64
(lp2124
g57
(g78
g59
NtRp2125
(dp2126
g62
(dp2127
sg71
g2121
sg64
(lp2128
g57
(g58
g59
NtRp2129
(dp2130
g62
(dp2131
g70
I3
ssg71
g2125
sg64
(lp2132
S'1'
asbasbasbag57
(g73
g59
NtRp2133
(dp2134
g62
(dp2135
sg71
g2117
sg64
(lp2136
g57
(g78
g59
NtRp2137
(dp2138
g62
(dp2139
sg71
g2133
sg64
(lp2140
g57
(g58
g59
NtRp2141
(dp2142
g62
(dp2143
g70
I3
ssg71
g2137
sg64
(lp2144
S'99'
p2145
asbasbasbag57
(g73
g59
NtRp2146
(dp2147
g62
(dp2148
sg71
g2117
sg64
(lp2149
g57
(g78
g59
NtRp2150
(dp2151
g62
(dp2152
sg71
g2146
sg64
(lp2153
g57
(g58
g59
NtRp2154
(dp2155
g62
(dp2156
g70
I3
ssg71
g2150
sg64
(lp2157
S'4'
asbasbasbag57
(g73
g59
NtRp2158
(dp2159
g62
(dp2160
sg71
g2117
sg64
(lp2161
g57
(g78
g59
NtRp2162
(dp2163
g62
(dp2164
sg71
g2158
sg64
(lp2165
g57
(g58
g59
NtRp2166
(dp2167
g62
(dp2168
g70
I3
ssg71
g2162
sg64
(lp2169
S'datetime.datetime(2011, 12, 14, 14, 46, 14)'
p2170
asbasbasbag57
(g73
g59
NtRp2171
(dp2172
g62
(dp2173
sg71
g2117
sg64
(lp2174
g57
(g78
g59
NtRp2175
(dp2176
g62
(dp2177
sg71
g2171
sg64
(lp2178
g57
(g58
g59
NtRp2179
(dp2180
g62
(dp2181
g70
I3
ssg71
g2175
sg64
(lp2182
g1572
asbasbasbasbasbasbasbasbasbasbasbag57
(g73
g59
NtRp2183
(dp2184
g62
(dp2185
sg71
g67
sg64
(lp2186
g57
(g78
g59
NtRp2187
(dp2188
g62
(dp2189
g82
g83
ssg71
g2183
sg64
(lp2190
S'is_https'
p2191
asbag57
(g78
g59
NtRp2192
(dp2193
g62
(dp2194
g89
g90
ssg71
g2183
sg64
(lp2195
S':'
asbag57
(g78
g59
NtRp2196
(dp2197
g62
(dp2198
sg71
g2183
sg64
(lp2199
g57
(g58
g59
NtRp2200
(dp2201
g62
(dp2202
g70
I5
ssg71
g2196
sg64
(lp2203
g100
asbasbasbag57
(g73
g59
NtRp2204
(dp2205
g62
(dp2206
sg71
g67
sg64
(lp2207
g57
(g78
g59
NtRp2208
(dp2209
g62
(dp2210
g82
g83
ssg71
g2204
sg64
(lp2211
S'is_local'
p2212
asbag57
(g78
g59
NtRp2213
(dp2214
g62
(dp2215
g89
g90
ssg71
g2204
sg64
(lp2216
S':'
asbag57
(g78
g59
NtRp2217
(dp2218
g62
(dp2219
sg71
g2204
sg64
(lp2220
g57
(g58
g59
NtRp2221
(dp2222
g62
(dp2223
g70
I5
ssg71
g2217
sg64
(lp2224
g1681
asbasbasbag57
(g73
g59
NtRp2225
(dp2226
g62
(dp2227
sg71
g67
sg64
(lp2228
g57
(g78
g59
NtRp2229
(dp2230
g62
(dp2231
g82
g83
ssg71
g2225
sg64
(lp2232
S'is_restful'
p2233
asbag57
(g78
g59
NtRp2234
(dp2235
g62
(dp2236
g89
g90
ssg71
g2225
sg64
(lp2237
S':'
asbag57
(g78
g59
NtRp2238
(dp2239
g62
(dp2240
sg71
g2225
sg64
(lp2241
g57
(g58
g59
NtRp2242
(dp2243
g62
(dp2244
g70
I5
ssg71
g2238
sg64
(lp2245
g100
asbasbasbag57
(g73
g59
NtRp2246
(dp2247
g62
(dp2248
sg71
g67
sg64
(lp2249
g57
(g78
g59
NtRp2250
(dp2251
g62
(dp2252
g82
g83
ssg71
g2246
sg64
(lp2253
S'now'
p2254
asbag57
(g78
g59
NtRp2255
(dp2256
g62
(dp2257
g89
g90
ssg71
g2246
sg64
(lp2258
S':'
asbag57
(g78
g59
NtRp2259
(dp2260
g62
(dp2261
sg71
g2246
sg64
(lp2262
g57
(g58
g59
NtRp2263
(dp2264
g62
(dp2265
g70
I5
ssg71
g2259
sg64
(lp2266
S'datetime.datetime(2013, 8, 30, 1, 45, 20, 629747)'
p2267
asbasbasbag57
(g73
g59
NtRp2268
(dp2269
g62
(dp2270
sg71
g67
sg64
(lp2271
g57
(g78
g59
NtRp2272
(dp2273
g62
(dp2274
g82
g83
ssg71
g2268
sg64
(lp2275
S'post_vars'
p2276
asbag57
(g78
g59
NtRp2277
(dp2278
g62
(dp2279
g89
g90
ssg71
g2268
sg64
(lp2280
S':'
asbag57
(g78
g59
NtRp2281
(dp2282
g62
(dp2283
sg71
g2268
sg64
(lp2284
g57
(g58
g59
NtRp2285
(dp2286
g62
(dp2287
g70
I5
ssg71
g2281
sg64
(lp2288
g57
(g66
g59
NtRp2289
(dp2290
g62
(dp2291
g70
I4
ssg71
Nsg64
(lp2292
sbasbasbasbag57
(g73
g59
NtRp2293
(dp2294
g62
(dp2295
sg71
g67
sg64
(lp2296
g57
(g78
g59
NtRp2297
(dp2298
g62
(dp2299
g82
g83
ssg71
g2293
sg64
(lp2300
S'raw_args'
p2301
asbag57
(g78
g59
NtRp2302
(dp2303
g62
(dp2304
g89
g90
ssg71
g2293
sg64
(lp2305
S':'
asbag57
(g78
g59
NtRp2306
(dp2307
g62
(dp2308
sg71
g2293
sg64
(lp2309
g57
(g58
g59
NtRp2310
(dp2311
g62
(dp2312
g70
I5
ssg71
g2306
sg64
(lp2313
S'0/like'
p2314
asbasbasbag57
(g73
g59
NtRp2315
(dp2316
g62
(dp2317
sg71
g67
sg64
(lp2318
g57
(g78
g59
NtRp2319
(dp2320
g62
(dp2321
g82
g83
ssg71
g2315
sg64
(lp2322
S'url'
p2323
asbag57
(g78
g59
NtRp2324
(dp2325
g62
(dp2326
g89
g90
ssg71
g2315
sg64
(lp2327
S':'
asbag57
(g78
g59
NtRp2328
(dp2329
g62
(dp2330
sg71
g2315
sg64
(lp2331
g57
(g58
g59
NtRp2332
(dp2333
g62
(dp2334
g70
I5
ssg71
g2328
sg64
(lp2335
S'/app1/default/lall/0/like'
p2336
asbasbasbag57
(g73
g59
NtRp2337
(dp2338
g62
(dp2339
sg71
g67
sg64
(lp2340
g57
(g78
g59
NtRp2341
(dp2342
g62
(dp2343
g82
g83
ssg71
g2337
sg64
(lp2344
S'utcnow'
p2345
asbag57
(g78
g59
NtRp2346
(dp2347
g62
(dp2348
g89
g90
ssg71
g2337
sg64
(lp2349
S':'
asbag57
(g78
g59
NtRp2350
(dp2351
g62
(dp2352
sg71
g2337
sg64
(lp2353
g57
(g58
g59
NtRp2354
(dp2355
g62
(dp2356
g70
I5
ssg71
g2350
sg64
(lp2357
S'datetime.datetime(2013, 8, 29, 20, 15, 20, 629796)'
p2358
asbasbasbag57
(g73
g59
NtRp2359
(dp2360
g62
(dp2361
sg71
g67
sg64
(lp2362
g57
(g78
g59
NtRp2363
(dp2364
g62
(dp2365
g82
g83
ssg71
g2359
sg64
(lp2366
S'uuid'
p2367
asbag57
(g78
g59
NtRp2368
(dp2369
g62
(dp2370
g89
g90
ssg71
g2359
sg64
(lp2371
S':'
asbag57
(g78
g59
NtRp2372
(dp2373
g62
(dp2374
sg71
g2359
sg64
(lp2375
g57
(g58
g59
NtRp2376
(dp2377
g62
(dp2378
g70
I5
ssg71
g2372
sg64
(lp2379
S'app1/127.0.0.1.2013-08-30.01-45-20.1441b46b-6450-4efa-8e68-568c48761a62'
p2380
asbasbasbag57
(g73
g59
NtRp2381
(dp2382
g62
(dp2383
sg71
g67
sg64
(lp2384
g57
(g78
g59
NtRp2385
(dp2386
g62
(dp2387
g82
g83
ssg71
g2381
sg64
(lp2388
S'vars'
p2389
asbag57
(g78
g59
NtRp2390
(dp2391
g62
(dp2392
g89
g90
ssg71
g2381
sg64
(lp2393
S':'
asbag57
(g78
g59
NtRp2394
(dp2395
g62
(dp2396
sg71
g2381
sg64
(lp2397
g57
(g58
g59
NtRp2398
(dp2399
g62
(dp2400
g70
I5
ssg71
g2394
sg64
(lp2401
g57
(g66
g59
NtRp2402
(dp2403
g62
(dp2404
g70
I4
ssg71
Nsg64
(lp2405
sbasbasbasbag57
(g73
g59
NtRp2406
(dp2407
g62
(dp2408
sg71
g67
sg64
(lp2409
g57
(g78
g59
NtRp2410
(dp2411
g62
(dp2412
g82
g83
ssg71
g2406
sg64
(lp2413
S'wsgi'
p2414
asbag57
(g78
g59
NtRp2415
(dp2416
g62
(dp2417
g89
g90
ssg71
g2406
sg64
(lp2418
S':'
asbag57
(g78
g59
NtRp2419
(dp2420
g62
(dp2421
sg71
g2406
sg64
(lp2422
g57
(g58
g59
NtRp2423
(dp2424
g62
(dp2425
g70
I5
ssg71
g2419
sg64
(lp2426
g57
(g66
g59
NtRp2427
(dp2428
g62
(dp2429
g70
I4
ssg71
Nsg64
(lp2430
g57
(g73
g59
NtRp2431
(dp2432
g62
(dp2433
sg71
g2427
sg64
(lp2434
g57
(g78
g59
NtRp2435
(dp2436
g62
(dp2437
g82
g83
ssg71
g2431
sg64
(lp2438
S'environ'
p2439
asbag57
(g78
g59
NtRp2440
(dp2441
g62
(dp2442
g89
g90
ssg71
g2431
sg64
(lp2443
S':'
asbag57
(g78
g59
NtRp2444
(dp2445
g62
(dp2446
sg71
g2431
sg64
(lp2447
g57
(g58
g59
NtRp2448
(dp2449
g62
(dp2450
g70
I4
ssg71
g2444
sg64
(lp2451
g57
(g66
g59
NtRp2452
(dp2453
g62
(dp2454
g70
I3
ssg71
Nsg64
(lp2455
g57
(g73
g59
NtRp2456
(dp2457
g62
(dp2458
sg71
g2452
sg64
(lp2459
g57
(g78
g59
NtRp2460
(dp2461
g62
(dp2462
g82
g83
ssg71
g2456
sg64
(lp2463
S'HTTP_ACCEPT'
p2464
asbag57
(g78
g59
NtRp2465
(dp2466
g62
(dp2467
g89
g90
ssg71
g2456
sg64
(lp2468
S':'
asbag57
(g78
g59
NtRp2469
(dp2470
g62
(dp2471
sg71
g2456
sg64
(lp2472
g57
(g58
g59
NtRp2473
(dp2474
g62
(dp2475
g70
I3
ssg71
g2469
sg64
(lp2476
g1028
asbasbasbag57
(g73
g59
NtRp2477
(dp2478
g62
(dp2479
sg71
g2452
sg64
(lp2480
g57
(g78
g59
NtRp2481
(dp2482
g62
(dp2483
g82
g83
ssg71
g2477
sg64
(lp2484
S'HTTP_ACCEPT_ENCODING'
p2485
asbag57
(g78
g59
NtRp2486
(dp2487
g62
(dp2488
g89
g90
ssg71
g2477
sg64
(lp2489
S':'
asbag57
(g78
g59
NtRp2490
(dp2491
g62
(dp2492
sg71
g2477
sg64
(lp2493
g57
(g58
g59
NtRp2494
(dp2495
g62
(dp2496
g70
I3
ssg71
g2490
sg64
(lp2497
g1050
asbasbasbag57
(g73
g59
NtRp2498
(dp2499
g62
(dp2500
sg71
g2452
sg64
(lp2501
g57
(g78
g59
NtRp2502
(dp2503
g62
(dp2504
g82
g83
ssg71
g2498
sg64
(lp2505
S'HTTP_ACCEPT_LANGUAGE'
p2506
asbag57
(g78
g59
NtRp2507
(dp2508
g62
(dp2509
g89
g90
ssg71
g2498
sg64
(lp2510
S':'
asbag57
(g78
g59
NtRp2511
(dp2512
g62
(dp2513
sg71
g2498
sg64
(lp2514
g57
(g58
g59
NtRp2515
(dp2516
g62
(dp2517
g70
I3
ssg71
g2511
sg64
(lp2518
g1072
asbasbasbag57
(g73
g59
NtRp2519
(dp2520
g62
(dp2521
sg71
g2452
sg64
(lp2522
g57
(g78
g59
NtRp2523
(dp2524
g62
(dp2525
g82
g83
ssg71
g2519
sg64
(lp2526
S'HTTP_CONNECTION'
p2527
asbag57
(g78
g59
NtRp2528
(dp2529
g62
(dp2530
g89
g90
ssg71
g2519
sg64
(lp2531
S':'
asbag57
(g78
g59
NtRp2532
(dp2533
g62
(dp2534
sg71
g2519
sg64
(lp2535
g57
(g58
g59
NtRp2536
(dp2537
g62
(dp2538
g70
I3
ssg71
g2532
sg64
(lp2539
g1094
asbasbasbag57
(g73
g59
NtRp2540
(dp2541
g62
(dp2542
sg71
g2452
sg64
(lp2543
g57
(g78
g59
NtRp2544
(dp2545
g62
(dp2546
g82
g83
ssg71
g2540
sg64
(lp2547
S'HTTP_COOKIE'
p2548
asbag57
(g78
g59
NtRp2549
(dp2550
g62
(dp2551
g89
g90
ssg71
g2540
sg64
(lp2552
S':'
asbag57
(g78
g59
NtRp2553
(dp2554
g62
(dp2555
sg71
g2540
sg64
(lp2556
g57
(g58
g59
NtRp2557
(dp2558
g62
(dp2559
g70
I3
ssg71
g2553
sg64
(lp2560
g1116
asbasbasbag57
(g73
g59
NtRp2561
(dp2562
g62
(dp2563
sg71
g2452
sg64
(lp2564
g57
(g78
g59
NtRp2565
(dp2566
g62
(dp2567
g82
g83
ssg71
g2561
sg64
(lp2568
S'HTTP_HOST'
p2569
asbag57
(g78
g59
NtRp2570
(dp2571
g62
(dp2572
g89
g90
ssg71
g2561
sg64
(lp2573
S':'
asbag57
(g78
g59
NtRp2574
(dp2575
g62
(dp2576
sg71
g2561
sg64
(lp2577
g57
(g58
g59
NtRp2578
(dp2579
g62
(dp2580
g70
I3
ssg71
g2574
sg64
(lp2581
g1138
asbasbasbag57
(g73
g59
NtRp2582
(dp2583
g62
(dp2584
sg71
g2452
sg64
(lp2585
g57
(g78
g59
NtRp2586
(dp2587
g62
(dp2588
g82
g83
ssg71
g2582
sg64
(lp2589
S'HTTP_REFERER'
p2590
asbag57
(g78
g59
NtRp2591
(dp2592
g62
(dp2593
g89
g90
ssg71
g2582
sg64
(lp2594
S':'
asbag57
(g78
g59
NtRp2595
(dp2596
g62
(dp2597
sg71
g2582
sg64
(lp2598
g57
(g58
g59
NtRp2599
(dp2600
g62
(dp2601
g70
I3
ssg71
g2595
sg64
(lp2602
g1160
asbasbasbag57
(g73
g59
NtRp2603
(dp2604
g62
(dp2605
sg71
g2452
sg64
(lp2606
g57
(g78
g59
NtRp2607
(dp2608
g62
(dp2609
g82
g83
ssg71
g2603
sg64
(lp2610
S'HTTP_USER_AGENT'
p2611
asbag57
(g78
g59
NtRp2612
(dp2613
g62
(dp2614
g89
g90
ssg71
g2603
sg64
(lp2615
S':'
asbag57
(g78
g59
NtRp2616
(dp2617
g62
(dp2618
sg71
g2603
sg64
(lp2619
g57
(g58
g59
NtRp2620
(dp2621
g62
(dp2622
g70
I3
ssg71
g2616
sg64
(lp2623
g1182
asbasbasbag57
(g73
g59
NtRp2624
(dp2625
g62
(dp2626
sg71
g2452
sg64
(lp2627
g57
(g78
g59
NtRp2628
(dp2629
g62
(dp2630
g82
g83
ssg71
g2624
sg64
(lp2631
S'PATH_INFO'
p2632
asbag57
(g78
g59
NtRp2633
(dp2634
g62
(dp2635
g89
g90
ssg71
g2624
sg64
(lp2636
S':'
asbag57
(g78
g59
NtRp2637
(dp2638
g62
(dp2639
sg71
g2624
sg64
(lp2640
g57
(g58
g59
NtRp2641
(dp2642
g62
(dp2643
g70
I3
ssg71
g2637
sg64
(lp2644
g1246
asbasbasbag57
(g73
g59
NtRp2645
(dp2646
g62
(dp2647
sg71
g2452
sg64
(lp2648
g57
(g78
g59
NtRp2649
(dp2650
g62
(dp2651
g82
g83
ssg71
g2645
sg64
(lp2652
S'QUERY_STRING'
p2653
asbag57
(g78
g59
NtRp2654
(dp2655
g62
(dp2656
g89
g90
ssg71
g2645
sg64
(lp2657
S':'
asbag57
(g78
g59
NtRp2658
(dp2659
g62
(dp2660
sg71
g2645
sg64
(lp2661
g57
(g58
g59
NtRp2662
(dp2663
g62
(dp2664
g70
I3
ssg71
g2658
sg64
(lp2665
S''
asbasbasbag57
(g73
g59
NtRp2666
(dp2667
g62
(dp2668
sg71
g2452
sg64
(lp2669
g57
(g78
g59
NtRp2670
(dp2671
g62
(dp2672
g82
g83
ssg71
g2666
sg64
(lp2673
S'REMOTE_ADDR'
p2674
asbag57
(g78
g59
NtRp2675
(dp2676
g62
(dp2677
g89
g90
ssg71
g2666
sg64
(lp2678
S':'
asbag57
(g78
g59
NtRp2679
(dp2680
g62
(dp2681
sg71
g2666
sg64
(lp2682
g57
(g58
g59
NtRp2683
(dp2684
g62
(dp2685
g70
I3
ssg71
g2679
sg64
(lp2686
g215
asbasbasbag57
(g73
g59
NtRp2687
(dp2688
g62
(dp2689
sg71
g2452
sg64
(lp2690
g57
(g78
g59
NtRp2691
(dp2692
g62
(dp2693
g82
g83
ssg71
g2687
sg64
(lp2694
S'REMOTE_PORT'
p2695
asbag57
(g78
g59
NtRp2696
(dp2697
g62
(dp2698
g89
g90
ssg71
g2687
sg64
(lp2699
S':'
asbag57
(g78
g59
NtRp2700
(dp2701
g62
(dp2702
sg71
g2687
sg64
(lp2703
g57
(g58
g59
NtRp2704
(dp2705
g62
(dp2706
g70
I3
ssg71
g2700
sg64
(lp2707
g1310
asbasbasbag57
(g73
g59
NtRp2708
(dp2709
g62
(dp2710
sg71
g2452
sg64
(lp2711
g57
(g78
g59
NtRp2712
(dp2713
g62
(dp2714
g82
g83
ssg71
g2708
sg64
(lp2715
S'REQUEST_METHOD'
p2716
asbag57
(g78
g59
NtRp2717
(dp2718
g62
(dp2719
g89
g90
ssg71
g2708
sg64
(lp2720
S':'
asbag57
(g78
g59
NtRp2721
(dp2722
g62
(dp2723
sg71
g2708
sg64
(lp2724
g57
(g58
g59
NtRp2725
(dp2726
g62
(dp2727
g70
I3
ssg71
g2721
sg64
(lp2728
g1332
asbasbasbag57
(g73
g59
NtRp2729
(dp2730
g62
(dp2731
sg71
g2452
sg64
(lp2732
g57
(g78
g59
NtRp2733
(dp2734
g62
(dp2735
g82
g83
ssg71
g2729
sg64
(lp2736
S'SCRIPT_NAME'
p2737
asbag57
(g78
g59
NtRp2738
(dp2739
g62
(dp2740
g89
g90
ssg71
g2729
sg64
(lp2741
S':'
asbag57
(g78
g59
NtRp2742
(dp2743
g62
(dp2744
sg71
g2729
sg64
(lp2745
g57
(g58
g59
NtRp2746
(dp2747
g62
(dp2748
g70
I3
ssg71
g2742
sg64
(lp2749
S''
asbasbasbag57
(g73
g59
NtRp2750
(dp2751
g62
(dp2752
sg71
g2452
sg64
(lp2753
g57
(g78
g59
NtRp2754
(dp2755
g62
(dp2756
g82
g83
ssg71
g2750
sg64
(lp2757
S'SERVER_NAME'
p2758
asbag57
(g78
g59
NtRp2759
(dp2760
g62
(dp2761
g89
g90
ssg71
g2750
sg64
(lp2762
S':'
asbag57
(g78
g59
NtRp2763
(dp2764
g62
(dp2765
sg71
g2750
sg64
(lp2766
g57
(g58
g59
NtRp2767
(dp2768
g62
(dp2769
g70
I3
ssg71
g2763
sg64
(lp2770
g1375
asbasbasbag57
(g73
g59
NtRp2771
(dp2772
g62
(dp2773
sg71
g2452
sg64
(lp2774
g57
(g78
g59
NtRp2775
(dp2776
g62
(dp2777
g82
g83
ssg71
g2771
sg64
(lp2778
S'SERVER_PORT'
p2779
asbag57
(g78
g59
NtRp2780
(dp2781
g62
(dp2782
g89
g90
ssg71
g2771
sg64
(lp2783
S':'
asbag57
(g78
g59
NtRp2784
(dp2785
g62
(dp2786
sg71
g2771
sg64
(lp2787
g57
(g58
g59
NtRp2788
(dp2789
g62
(dp2790
g70
I3
ssg71
g2784
sg64
(lp2791
g1397
asbasbasbag57
(g73
g59
NtRp2792
(dp2793
g62
(dp2794
sg71
g2452
sg64
(lp2795
g57
(g78
g59
NtRp2796
(dp2797
g62
(dp2798
g82
g83
ssg71
g2792
sg64
(lp2799
S'SERVER_PROTOCOL'
p2800
asbag57
(g78
g59
NtRp2801
(dp2802
g62
(dp2803
g89
g90
ssg71
g2792
sg64
(lp2804
S':'
asbag57
(g78
g59
NtRp2805
(dp2806
g62
(dp2807
sg71
g2792
sg64
(lp2808
g57
(g58
g59
NtRp2809
(dp2810
g62
(dp2811
g70
I3
ssg71
g2805
sg64
(lp2812
g1419
asbasbasbag57
(g73
g59
NtRp2813
(dp2814
g62
(dp2815
sg71
g2452
sg64
(lp2816
g57
(g78
g59
NtRp2817
(dp2818
g62
(dp2819
g82
g83
ssg71
g2813
sg64
(lp2820
S'SERVER_SOFTWARE'
p2821
asbag57
(g78
g59
NtRp2822
(dp2823
g62
(dp2824
g89
g90
ssg71
g2813
sg64
(lp2825
S':'
asbag57
(g78
g59
NtRp2826
(dp2827
g62
(dp2828
sg71
g2813
sg64
(lp2829
g57
(g58
g59
NtRp2830
(dp2831
g62
(dp2832
g70
I3
ssg71
g2826
sg64
(lp2833
g1441
asbasbasbag57
(g73
g59
NtRp2834
(dp2835
g62
(dp2836
sg71
g2452
sg64
(lp2837
g57
(g78
g59
NtRp2838
(dp2839
g62
(dp2840
g82
g83
ssg71
g2834
sg64
(lp2841
S'wsgi.errors'
p2842
asbag57
(g78
g59
NtRp2843
(dp2844
g62
(dp2845
g89
g90
ssg71
g2834
sg64
(lp2846
S':'
asbag57
(g78
g59
NtRp2847
(dp2848
g62
(dp2849
sg71
g2834
sg64
(lp2850
g57
(g58
g59
NtRp2851
(dp2852
g62
(dp2853
g70
I3
ssg71
g2847
sg64
(lp2854
S"<open file '<stderr>', mode 'w' at 0x7fc75bbcd270>"
p2855
asbasbasbag57
(g73
g59
NtRp2856
(dp2857
g62
(dp2858
sg71
g2452
sg64
(lp2859
g57
(g78
g59
NtRp2860
(dp2861
g62
(dp2862
g82
g83
ssg71
g2856
sg64
(lp2863
S'wsgi.file_wrapper'
p2864
asbag57
(g78
g59
NtRp2865
(dp2866
g62
(dp2867
g89
g90
ssg71
g2856
sg64
(lp2868
S':'
asbag57
(g78
g59
NtRp2869
(dp2870
g62
(dp2871
sg71
g2856
sg64
(lp2872
g57
(g58
g59
NtRp2873
(dp2874
g62
(dp2875
g70
I3
ssg71
g2869
sg64
(lp2876
S'<class wsgiref.util.FileWrapper at 0x18a6328>'
p2877
asbasbasbag57
(g73
g59
NtRp2878
(dp2879
g62
(dp2880
sg71
g2452
sg64
(lp2881
g57
(g78
g59
NtRp2882
(dp2883
g62
(dp2884
g82
g83
ssg71
g2878
sg64
(lp2885
S'wsgi.input'
p2886
asbag57
(g78
g59
NtRp2887
(dp2888
g62
(dp2889
g89
g90
ssg71
g2878
sg64
(lp2890
S':'
asbag57
(g78
g59
NtRp2891
(dp2892
g62
(dp2893
sg71
g2878
sg64
(lp2894
g57
(g58
g59
NtRp2895
(dp2896
g62
(dp2897
g70
I3
ssg71
g2891
sg64
(lp2898
S'<cStringIO.StringO object at 0x7fc71430e880>'
p2899
asbasbasbag57
(g73
g59
NtRp2900
(dp2901
g62
(dp2902
sg71
g2452
sg64
(lp2903
g57
(g78
g59
NtRp2904
(dp2905
g62
(dp2906
g82
g83
ssg71
g2900
sg64
(lp2907
S'wsgi.multiprocess'
p2908
asbag57
(g78
g59
NtRp2909
(dp2910
g62
(dp2911
g89
g90
ssg71
g2900
sg64
(lp2912
S':'
asbag57
(g78
g59
NtRp2913
(dp2914
g62
(dp2915
sg71
g2900
sg64
(lp2916
g57
(g58
g59
NtRp2917
(dp2918
g62
(dp2919
g70
I3
ssg71
g2913
sg64
(lp2920
g100
asbasbasbag57
(g73
g59
NtRp2921
(dp2922
g62
(dp2923
sg71
g2452
sg64
(lp2924
g57
(g78
g59
NtRp2925
(dp2926
g62
(dp2927
g82
g83
ssg71
g2921
sg64
(lp2928
S'wsgi.multithread'
p2929
asbag57
(g78
g59
NtRp2930
(dp2931
g62
(dp2932
g89
g90
ssg71
g2921
sg64
(lp2933
S':'
asbag57
(g78
g59
NtRp2934
(dp2935
g62
(dp2936
sg71
g2921
sg64
(lp2937
g57
(g58
g59
NtRp2938
(dp2939
g62
(dp2940
g70
I3
ssg71
g2934
sg64
(lp2941
g1681
asbasbasbag57
(g73
g59
NtRp2942
(dp2943
g62
(dp2944
sg71
g2452
sg64
(lp2945
g57
(g78
g59
NtRp2946
(dp2947
g62
(dp2948
g82
g83
ssg71
g2942
sg64
(lp2949
S'wsgi.run_once'
p2950
asbag57
(g78
g59
NtRp2951
(dp2952
g62
(dp2953
g89
g90
ssg71
g2942
sg64
(lp2954
S':'
asbag57
(g78
g59
NtRp2955
(dp2956
g62
(dp2957
sg71
g2942
sg64
(lp2958
g57
(g58
g59
NtRp2959
(dp2960
g62
(dp2961
g70
I3
ssg71
g2955
sg64
(lp2962
g100
asbasbasbag57
(g73
g59
NtRp2963
(dp2964
g62
(dp2965
sg71
g2452
sg64
(lp2966
g57
(g78
g59
NtRp2967
(dp2968
g62
(dp2969
g82
g83
ssg71
g2963
sg64
(lp2970
S'wsgi.url_scheme'
p2971
asbag57
(g78
g59
NtRp2972
(dp2973
g62
(dp2974
g89
g90
ssg71
g2963
sg64
(lp2975
S':'
asbag57
(g78
g59
NtRp2976
(dp2977
g62
(dp2978
sg71
g2963
sg64
(lp2979
g57
(g58
g59
NtRp2980
(dp2981
g62
(dp2982
g70
I3
ssg71
g2976
sg64
(lp2983
g1724
asbasbasbag57
(g73
g59
NtRp2984
(dp2985
g62
(dp2986
sg71
g2452
sg64
(lp2987
g57
(g78
g59
NtRp2988
(dp2989
g62
(dp2990
g82
g83
ssg71
g2984
sg64
(lp2991
S'wsgi.version'
p2992
asbag57
(g78
g59
NtRp2993
(dp2994
g62
(dp2995
g89
g90
ssg71
g2984
sg64
(lp2996
S':'
asbag57
(g78
g59
NtRp2997
(dp2998
g62
(dp2999
sg71
g2984
sg64
(lp3000
g57
(g58
g59
NtRp3001
(dp3002
g62
(dp3003
g70
I3
ssg71
g2997
sg64
(lp3004
S'1'
asbasbasbasbasbasbasbasbasbasbasbasbasbsS'frames'
p3005
(lp3006
(dp3007
S'file'
p3008
S'/usr/lib/pymodules/python2.7/gluon/restricted.py'
p3009
sS'dump'
p3010
(dp3011
S'environment'
p3012
S"{'A': <class 'gluon.html.A'>, 'Auth': <class 'gluon.tools.Auth'>, 'B': <class 'gluon.html.B'>, 'BEAUTIFY': <class 'gluon.html.BEAUTIFY'>, 'BODY': <class 'gluon.html.BODY'>, 'BR': <class 'gluon.html.BR'>, 'BUTTON': <class 'gluon.html.BUTTON'>, 'CAT': <class 'gluon.html.CAT'>, 'CENTER': <class 'gluon.html.CENTER'>, 'CLEANUP': <class 'gluon.validators.CLEANUP'>, ...}"
p3013
sS'ccode'
p3014
S'<code object <module> at 0x7fc7242c2030, file "/...plications/app1/controllers/default.py", line 12>'
p3015
ssS'lnum'
p3016
I204
sS'lines'
p3017
(dp3018
I199
S'    try:'
p3019
sI200
S'        if type(code) == types.CodeType:'
p3020
sI201
S'            ccode = code'
p3021
sI202
S'        else:'
p3022
sI203
S'            ccode = compile2(code,layer)'
p3023
sI204
S'        exec ccode in environment'
p3024
sI205
S'    except HTTP:'
p3025
sI206
S'        raise'
p3026
sI207
S'    except RestrictedError:'
p3027
sI208
S'        # do not encapsulate (obfuscate) the original RestrictedError'
p3028
ssS'call'
p3029
S"(code='# -*- coding: utf-8 -*-\\n# this file is released ...mments)\\n\\n\\n\\nresponse._vars=response._caller(lall)\\n', environment={'A': <class 'gluon.html.A'>, 'Auth': <class 'gluon.tools.Auth'>, 'B': <class 'gluon.html.B'>, 'BEAUTIFY': <class 'gluon.html.BEAUTIFY'>, 'BODY': <class 'gluon.html.BODY'>, 'BR': <class 'gluon.html.BR'>, 'BUTTON': <class 'gluon.html.BUTTON'>, 'CAT': <class 'gluon.html.CAT'>, 'CENTER': <class 'gluon.html.CENTER'>, 'CLEANUP': <class 'gluon.validators.CLEANUP'>, ...}, layer='/home/jigar/web2py/applications/app1/controllers/default.py')"
p3030
sS'func'
p3031
S'restricted'
p3032
sa(dp3033
g3008
S'/home/jigar/web2py/applications/app1/controllers/default.py'
p3034
sg3010
(dp3035
sg3016
I140
sg3017
(dp3036
I129
S'\t\treturn locals()'
p3037
sI130
S'\telse :'
p3038
sI131
S'\t\treturn locals()'
p3039
sI132
S''
sI133
S'def addcomment():'
p3040
sI134
S'\tr=request.args[0]'
p3041
sI135
S'\tr=int(r)+1'
p3042
sI136
S'\tform=SQLFORM(db.Comments)'
p3043
sI137
S''
sI138
S''
ssg3029
S'()'
p3044
sg3031
S'<module>'
p3045
sa(dp3046
g3008
S'/usr/lib/pymodules/python2.7/gluon/globals.py'
p3047
sg3010
(dp3048
S'self'
p3049
S'undefined'
p3050
sS'f'
S'<function lall>'
p3051
ssg3016
I172
sg3017
(dp3052
I167
S'        self.meta = Storage()      # used by web2py_ajax.html'
p3053
sI168
S'        self.menu = []             # used by the default view layout'
p3054
sI169
S'        self.files = []            # used by web2py_ajax.html'
p3055
sI170
S'        self.generic_patterns = [] # patterns to allow generic views'
p3056
sI171
S'        self._vars = None'
p3057
sI172
S'        self._caller = lambda f: f()'
p3058
sI173
S'        self._view_environment = None'
p3059
sI174
S'        self._custom_commit = None'
p3060
sI175
S'        self._custom_rollback = None'
p3061
sI176
S''
ssg3029
S'(f=<function lall>)'
p3062
sg3031
S'<lambda>'
p3063
sa(dp3064
g3008
S'/usr/lib/pymodules/python2.7/gluon/tools.py'
p3065
sg3010
(dp3066
S'action'
p3067
S'<function lall>'
p3068
sS'a'
S'()'
p3069
sS'b'
g45
ssg3016
I2533
sg3017
(dp3070
I2528
S'                # otherwise case 3 would be ok.'
p3071
sI2529
S'                if not (callable(condition) and condition() == True) and not condition == True:'
p3072
sI2530
S'                    current.session.flash = self.messages.access_denied'
p3073
sI2531
S'                    return call_or_redirect('
p3074
sI2532
S'                        self.settings.on_failed_authorization)'
p3075
sI2533
S'                return action(*a, **b)'
p3076
sI2534
S'            f.__doc__ = action.__doc__'
p3077
sI2535
S'            f.__name__ = action.__name__'
p3078
sI2536
S'            f.__dict__.update(action.__dict__)'
p3079
sI2537
S'            return f'
p3080
ssg3029
S'(*a=(), **b={})'
p3081
sg3031
S'f'
sa(dp3082
g3008
S'/home/jigar/web2py/applications/app1/controllers/default.py'
p3083
sg3010
(dp3084
S'rec'
p3085
S'<gluon.dal.Rows object>'
p3086
sS'r'
S"'0'"
p3087
sS'j'
S'0'
ssg3016
I92
sg3017
(dp3088
I96
S'\t\t\t\t\tredirect(URL("lall"))'
p3089
sI87
S'\t\t\trec=db(db.Post.User_liked.contains(auth.user.id)).select()'
p3090
sI88
S'\t\t\tif  (len(rec)):'
p3091
sI89
S"\t\t\t\tprint rec[0]['id']"
p3092
sI90
S'\t\t\t\tprint r'
p3093
sI91
S'\t\t\t\tfor j in range (len(rec)):'
p3094
sI92
S"\t\t\t\t\tif (rec[j]['id']==r+1):"
p3095
sI93
S'\t\t\t\t\t\tflag=1'
p3096
sI94
S'\t\t\t\tif (flag==1):'
p3097
sI95
S'\t\t\t\t\tresponse.flash= "Kitni baar like karega!!"'
p3098
ssg3029
S'()'
p3099
sg3031
S'lall'
p3100
sasS'pyver'
p3101
S'Python 2.7.3: /usr/bin/python'
p3102
sS'session'
p3103
g57
(g58
g59
NtRp3104
(dp3105
g62
(dp3106
sg64
(lp3107
g57
(g66
g59
NtRp3108
(dp3109
g62
(dp3110
g70
I5
ssg71
Nsg64
(lp3111
g57
(g73
g59
NtRp3112
(dp3113
g62
(dp3114
sg71
g3108
sg64
(lp3115
g57
(g78
g59
NtRp3116
(dp3117
g62
(dp3118
g82
g83
ssg71
g3112
sg64
(lp3119
S'auth'
p3120
asbag57
(g78
g59
NtRp3121
(dp3122
g62
(dp3123
g89
g90
ssg71
g3112
sg64
(lp3124
S':'
asbag57
(g78
g59
NtRp3125
(dp3126
g62
(dp3127
sg71
g3112
sg64
(lp3128
g57
(g58
g59
NtRp3129
(dp3130
g62
(dp3131
g70
I5
ssg71
g3125
sg64
(lp3132
g57
(g66
g59
NtRp3133
(dp3134
g62
(dp3135
g70
I4
ssg71
Nsg64
(lp3136
g57
(g73
g59
NtRp3137
(dp3138
g62
(dp3139
sg71
g3133
sg64
(lp3140
g57
(g78
g59
NtRp3141
(dp3142
g62
(dp3143
g82
g83
ssg71
g3137
sg64
(lp3144
S'expiration'
p3145
asbag57
(g78
g59
NtRp3146
(dp3147
g62
(dp3148
g89
g90
ssg71
g3137
sg64
(lp3149
S':'
asbag57
(g78
g59
NtRp3150
(dp3151
g62
(dp3152
sg71
g3137
sg64
(lp3153
g57
(g58
g59
NtRp3154
(dp3155
g62
(dp3156
g70
I4
ssg71
g3150
sg64
(lp3157
S'3600'
p3158
asbasbasbag57
(g73
g59
NtRp3159
(dp3160
g62
(dp3161
sg71
g3133
sg64
(lp3162
g57
(g78
g59
NtRp3163
(dp3164
g62
(dp3165
g82
g83
ssg71
g3159
sg64
(lp3166
S'hmac_key'
p3167
asbag57
(g78
g59
NtRp3168
(dp3169
g62
(dp3170
g89
g90
ssg71
g3159
sg64
(lp3171
S':'
asbag57
(g78
g59
NtRp3172
(dp3173
g62
(dp3174
sg71
g3159
sg64
(lp3175
g57
(g58
g59
NtRp3176
(dp3177
g62
(dp3178
g70
I4
ssg71
g3172
sg64
(lp3179
S'0ddad532-70a2-43e6-8a4d-3444202d04d2'
p3180
asbasbasbag57
(g73
g59
NtRp3181
(dp3182
g62
(dp3183
sg71
g3133
sg64
(lp3184
g57
(g78
g59
NtRp3185
(dp3186
g62
(dp3187
g82
g83
ssg71
g3181
sg64
(lp3188
S'last_visit'
p3189
asbag57
(g78
g59
NtRp3190
(dp3191
g62
(dp3192
g89
g90
ssg71
g3181
sg64
(lp3193
S':'
asbag57
(g78
g59
NtRp3194
(dp3195
g62
(dp3196
sg71
g3181
sg64
(lp3197
g57
(g58
g59
NtRp3198
(dp3199
g62
(dp3200
g70
I4
ssg71
g3194
sg64
(lp3201
S'datetime.datetime(2013, 8, 30, 1, 39, 43, 474189)'
p3202
asbasbasbag57
(g73
g59
NtRp3203
(dp3204
g62
(dp3205
sg71
g3133
sg64
(lp3206
g57
(g78
g59
NtRp3207
(dp3208
g62
(dp3209
g82
g83
ssg71
g3203
sg64
(lp3210
S'user'
p3211
asbag57
(g78
g59
NtRp3212
(dp3213
g62
(dp3214
g89
g90
ssg71
g3203
sg64
(lp3215
S':'
asbag57
(g78
g59
NtRp3216
(dp3217
g62
(dp3218
sg71
g3203
sg64
(lp3219
g57
(g58
g59
NtRp3220
(dp3221
g62
(dp3222
g70
I4
ssg71
g3216
sg64
(lp3223
g57
(g66
g59
NtRp3224
(dp3225
g62
(dp3226
g70
I3
ssg71
Nsg64
(lp3227
g57
(g73
g59
NtRp3228
(dp3229
g62
(dp3230
sg71
g3224
sg64
(lp3231
g57
(g78
g59
NtRp3232
(dp3233
g62
(dp3234
g82
g83
ssg71
g3228
sg64
(lp3235
S'City'
p3236
asbag57
(g78
g59
NtRp3237
(dp3238
g62
(dp3239
g89
g90
ssg71
g3228
sg64
(lp3240
S':'
asbag57
(g78
g59
NtRp3241
(dp3242
g62
(dp3243
sg71
g3228
sg64
(lp3244
g57
(g58
g59
NtRp3245
(dp3246
g62
(dp3247
g70
I3
ssg71
g3241
sg64
(lp3248
S'Rajkot'
p3249
asbasbasbag57
(g73
g59
NtRp3250
(dp3251
g62
(dp3252
sg71
g3224
sg64
(lp3253
g57
(g78
g59
NtRp3254
(dp3255
g62
(dp3256
g82
g83
ssg71
g3250
sg64
(lp3257
S'Member_type'
p3258
asbag57
(g78
g59
NtRp3259
(dp3260
g62
(dp3261
g89
g90
ssg71
g3250
sg64
(lp3262
S':'
asbag57
(g78
g59
NtRp3263
(dp3264
g62
(dp3265
sg71
g3250
sg64
(lp3266
g57
(g58
g59
NtRp3267
(dp3268
g62
(dp3269
g70
I3
ssg71
g3263
sg64
(lp3270
S'User'
p3271
asbasbasbag57
(g73
g59
NtRp3272
(dp3273
g62
(dp3274
sg71
g3224
sg64
(lp3275
g57
(g78
g59
NtRp3276
(dp3277
g62
(dp3278
g82
g83
ssg71
g3272
sg64
(lp3279
S'Profile_Pic'
p3280
asbag57
(g78
g59
NtRp3281
(dp3282
g62
(dp3283
g89
g90
ssg71
g3272
sg64
(lp3284
S':'
asbag57
(g78
g59
NtRp3285
(dp3286
g62
(dp3287
sg71
g3272
sg64
(lp3288
g57
(g58
g59
NtRp3289
(dp3290
g62
(dp3291
g70
I3
ssg71
g3285
sg64
(lp3292
S''
asbasbasbag57
(g73
g59
NtRp3293
(dp3294
g62
(dp3295
sg71
g3224
sg64
(lp3296
g57
(g78
g59
NtRp3297
(dp3298
g62
(dp3299
g82
g83
ssg71
g3293
sg64
(lp3300
S'email'
p3301
asbag57
(g78
g59
NtRp3302
(dp3303
g62
(dp3304
g89
g90
ssg71
g3293
sg64
(lp3305
S':'
asbag57
(g78
g59
NtRp3306
(dp3307
g62
(dp3308
sg71
g3293
sg64
(lp3309
g57
(g58
g59
NtRp3310
(dp3311
g62
(dp3312
g70
I3
ssg71
g3306
sg64
(lp3313
S'kotak.ankit@gmail.com'
p3314
asbasbasbag57
(g73
g59
NtRp3315
(dp3316
g62
(dp3317
sg71
g3224
sg64
(lp3318
g57
(g78
g59
NtRp3319
(dp3320
g62
(dp3321
g82
g83
ssg71
g3315
sg64
(lp3322
S'first_name'
p3323
asbag57
(g78
g59
NtRp3324
(dp3325
g62
(dp3326
g89
g90
ssg71
g3315
sg64
(lp3327
S':'
asbag57
(g78
g59
NtRp3328
(dp3329
g62
(dp3330
sg71
g3315
sg64
(lp3331
g57
(g58
g59
NtRp3332
(dp3333
g62
(dp3334
g70
I3
ssg71
g3328
sg64
(lp3335
S'Kotak'
p3336
asbasbasbag57
(g73
g59
NtRp3337
(dp3338
g62
(dp3339
sg71
g3224
sg64
(lp3340
g57
(g78
g59
NtRp3341
(dp3342
g62
(dp3343
g82
g83
ssg71
g3337
sg64
(lp3344
S'id'
p3345
asbag57
(g78
g59
NtRp3346
(dp3347
g62
(dp3348
g89
g90
ssg71
g3337
sg64
(lp3349
S':'
asbag57
(g78
g59
NtRp3350
(dp3351
g62
(dp3352
sg71
g3337
sg64
(lp3353
g57
(g58
g59
NtRp3354
(dp3355
g62
(dp3356
g70
I3
ssg71
g3350
sg64
(lp3357
S'3'
asbasbasbag57
(g73
g59
NtRp3358
(dp3359
g62
(dp3360
sg71
g3224
sg64
(lp3361
g57
(g78
g59
NtRp3362
(dp3363
g62
(dp3364
g82
g83
ssg71
g3358
sg64
(lp3365
S'last_name'
p3366
asbag57
(g78
g59
NtRp3367
(dp3368
g62
(dp3369
g89
g90
ssg71
g3358
sg64
(lp3370
S':'
asbag57
(g78
g59
NtRp3371
(dp3372
g62
(dp3373
sg71
g3358
sg64
(lp3374
g57
(g58
g59
NtRp3375
(dp3376
g62
(dp3377
g70
I3
ssg71
g3371
sg64
(lp3378
S'Ankit'
p3379
asbasbasbag57
(g73
g59
NtRp3380
(dp3381
g62
(dp3382
sg71
g3224
sg64
(lp3383
g57
(g78
g59
NtRp3384
(dp3385
g62
(dp3386
g82
g83
ssg71
g3380
sg64
(lp3387
S'password'
p3388
asbag57
(g78
g59
NtRp3389
(dp3390
g62
(dp3391
g89
g90
ssg71
g3380
sg64
(lp3392
S':'
asbag57
(g78
g59
NtRp3393
(dp3394
g62
(dp3395
sg71
g3380
sg64
(lp3396
g57
(g58
g59
NtRp3397
(dp3398
g62
(dp3399
g70
I3
ssg71
g3393
sg64
(lp3400
S'322411aa1b7b437bab6c1ef957bd636d'
p3401
asbasbasbag57
(g73
g59
NtRp3402
(dp3403
g62
(dp3404
sg71
g3224
sg64
(lp3405
g57
(g78
g59
NtRp3406
(dp3407
g62
(dp3408
g82
g83
ssg71
g3402
sg64
(lp3409
S'registration_id'
p3410
asbag57
(g78
g59
NtRp3411
(dp3412
g62
(dp3413
g89
g90
ssg71
g3402
sg64
(lp3414
S':'
asbag57
(g78
g59
NtRp3415
(dp3416
g62
(dp3417
sg71
g3402
sg64
(lp3418
g57
(g58
g59
NtRp3419
(dp3420
g62
(dp3421
g70
I3
ssg71
g3415
sg64
(lp3422
S''
asbasbasbag57
(g73
g59
NtRp3423
(dp3424
g62
(dp3425
sg71
g3224
sg64
(lp3426
g57
(g78
g59
NtRp3427
(dp3428
g62
(dp3429
g82
g83
ssg71
g3423
sg64
(lp3430
S'registration_key'
p3431
asbag57
(g78
g59
NtRp3432
(dp3433
g62
(dp3434
g89
g90
ssg71
g3423
sg64
(lp3435
S':'
asbag57
(g78
g59
NtRp3436
(dp3437
g62
(dp3438
sg71
g3423
sg64
(lp3439
g57
(g58
g59
NtRp3440
(dp3441
g62
(dp3442
g70
I3
ssg71
g3436
sg64
(lp3443
S''
asbasbasbag57
(g73
g59
NtRp3444
(dp3445
g62
(dp3446
sg71
g3224
sg64
(lp3447
g57
(g78
g59
NtRp3448
(dp3449
g62
(dp3450
g82
g83
ssg71
g3444
sg64
(lp3451
S'reset_password_key'
p3452
asbag57
(g78
g59
NtRp3453
(dp3454
g62
(dp3455
g89
g90
ssg71
g3444
sg64
(lp3456
S':'
asbag57
(g78
g59
NtRp3457
(dp3458
g62
(dp3459
sg71
g3444
sg64
(lp3460
g57
(g58
g59
NtRp3461
(dp3462
g62
(dp3463
g70
I3
ssg71
g3457
sg64
(lp3464
S''
asbasbasbasbasbasbasbasbasbasbasbag57
(g73
g59
NtRp3465
(dp3466
g62
(dp3467
sg71
g3108
sg64
(lp3468
g57
(g78
g59
NtRp3469
(dp3470
g62
(dp3471
g82
g83
ssg71
g3465
sg64
(lp3472
S'last_query'
p3473
asbag57
(g78
g59
NtRp3474
(dp3475
g62
(dp3476
g89
g90
ssg71
g3465
sg64
(lp3477
S':'
asbag57
(g78
g59
NtRp3478
(dp3479
g62
(dp3480
sg71
g3465
sg64
(lp3481
g57
(g58
g59
NtRp3482
(dp3483
g62
(dp3484
g70
I5
ssg71
g3478
sg64
(lp3485
S'db.Post.id>0'
p3486
asbasbasbasbasbsS'etype'
p3487
S"<type 'exceptions.TypeError'>"
p3488
sS'date'
p3489
S'Fri Aug 30 01:45:20 2013'
p3490
sS'response'
p3491
g57
(g58
g59
NtRp3492
(dp3493
g62
(dp3494
sg64
(lp3495
g57
(g66
g59
NtRp3496
(dp3497
g62
(dp3498
g70
I5
ssg71
Nsg64
(lp3499
g57
(g73
g59
NtRp3500
(dp3501
g62
(dp3502
sg71
g3496
sg64
(lp3503
g57
(g78
g59
NtRp3504
(dp3505
g62
(dp3506
g82
g83
ssg71
g3500
sg64
(lp3507
g180
asbag57
(g78
g59
NtRp3508
(dp3509
g62
(dp3510
g89
g90
ssg71
g3500
sg64
(lp3511
S':'
asbag57
(g78
g59
NtRp3512
(dp3513
g62
(dp3514
sg71
g3500
sg64
(lp3515
g57
(g58
g59
NtRp3516
(dp3517
g62
(dp3518
g70
I5
ssg71
g3512
sg64
(lp3519
S'<cStringIO.StringO object at 0x7fc724106ab0>'
p3520
asbasbasbag57
(g73
g59
NtRp3521
(dp3522
g62
(dp3523
sg71
g3496
sg64
(lp3524
g57
(g78
g59
NtRp3525
(dp3526
g62
(dp3527
g82
g83
ssg71
g3521
sg64
(lp3528
g246
asbag57
(g78
g59
NtRp3529
(dp3530
g62
(dp3531
g89
g90
ssg71
g3521
sg64
(lp3532
S':'
asbag57
(g78
g59
NtRp3533
(dp3534
g62
(dp3535
sg71
g3521
sg64
(lp3536
g57
(g58
g59
NtRp3537
(dp3538
g62
(dp3539
g70
I5
ssg71
g3533
sg64
(lp3540
g57
(g66
g59
NtRp3541
(dp3542
g62
(dp3543
g70
I4
ssg71
Nsg64
(lp3544
g57
(g73
g59
NtRp3545
(dp3546
g62
(dp3547
sg71
g3541
sg64
(lp3548
g57
(g78
g59
NtRp3549
(dp3550
g62
(dp3551
g82
g83
ssg71
g3545
sg64
(lp3552
S'session_id_app1'
p3553
asbag57
(g78
g59
NtRp3554
(dp3555
g62
(dp3556
g89
g90
ssg71
g3545
sg64
(lp3557
S':'
asbag57
(g78
g59
NtRp3558
(dp3559
g62
(dp3560
sg71
g3545
sg64
(lp3561
g57
(g58
g59
NtRp3562
(dp3563
g62
(dp3564
g70
I4
ssg71
g3558
sg64
(lp3565
g57
(g66
g59
NtRp3566
(dp3567
g62
(dp3568
g70
I3
ssg71
Nsg64
(lp3569
g57
(g73
g59
NtRp3570
(dp3571
g62
(dp3572
sg71
g3566
sg64
(lp3573
g57
(g78
g59
NtRp3574
(dp3575
g62
(dp3576
g82
g83
ssg71
g3570
sg64
(lp3577
g296
asbag57
(g78
g59
NtRp3578
(dp3579
g62
(dp3580
g89
g90
ssg71
g3570
sg64
(lp3581
S':'
asbag57
(g78
g59
NtRp3582
(dp3583
g62
(dp3584
sg71
g3570
sg64
(lp3585
g57
(g58
g59
NtRp3586
(dp3587
g62
(dp3588
g70
I3
ssg71
g3582
sg64
(lp3589
S''
asbasbasbag57
(g73
g59
NtRp3590
(dp3591
g62
(dp3592
sg71
g3566
sg64
(lp3593
g57
(g78
g59
NtRp3594
(dp3595
g62
(dp3596
g82
g83
ssg71
g3590
sg64
(lp3597
g317
asbag57
(g78
g59
NtRp3598
(dp3599
g62
(dp3600
g89
g90
ssg71
g3590
sg64
(lp3601
S':'
asbag57
(g78
g59
NtRp3602
(dp3603
g62
(dp3604
sg71
g3590
sg64
(lp3605
g57
(g58
g59
NtRp3606
(dp3607
g62
(dp3608
g70
I3
ssg71
g3602
sg64
(lp3609
S''
asbasbasbag57
(g73
g59
NtRp3610
(dp3611
g62
(dp3612
sg71
g3566
sg64
(lp3613
g57
(g78
g59
NtRp3614
(dp3615
g62
(dp3616
g82
g83
ssg71
g3610
sg64
(lp3617
g338
asbag57
(g78
g59
NtRp3618
(dp3619
g62
(dp3620
g89
g90
ssg71
g3610
sg64
(lp3621
S':'
asbag57
(g78
g59
NtRp3622
(dp3623
g62
(dp3624
sg71
g3610
sg64
(lp3625
g57
(g58
g59
NtRp3626
(dp3627
g62
(dp3628
g70
I3
ssg71
g3622
sg64
(lp3629
S''
asbasbasbag57
(g73
g59
NtRp3630
(dp3631
g62
(dp3632
sg71
g3566
sg64
(lp3633
g57
(g78
g59
NtRp3634
(dp3635
g62
(dp3636
g82
g83
ssg71
g3630
sg64
(lp3637
g359
asbag57
(g78
g59
NtRp3638
(dp3639
g62
(dp3640
g89
g90
ssg71
g3630
sg64
(lp3641
S':'
asbag57
(g78
g59
NtRp3642
(dp3643
g62
(dp3644
sg71
g3630
sg64
(lp3645
g57
(g58
g59
NtRp3646
(dp3647
g62
(dp3648
g70
I3
ssg71
g3642
sg64
(lp3649
S''
asbasbasbag57
(g73
g59
NtRp3650
(dp3651
g62
(dp3652
sg71
g3566
sg64
(lp3653
g57
(g78
g59
NtRp3654
(dp3655
g62
(dp3656
g82
g83
ssg71
g3650
sg64
(lp3657
g380
asbag57
(g78
g59
NtRp3658
(dp3659
g62
(dp3660
g89
g90
ssg71
g3650
sg64
(lp3661
S':'
asbag57
(g78
g59
NtRp3662
(dp3663
g62
(dp3664
sg71
g3650
sg64
(lp3665
g57
(g58
g59
NtRp3666
(dp3667
g62
(dp3668
g70
I3
ssg71
g3662
sg64
(lp3669
S''
asbasbasbag57
(g73
g59
NtRp3670
(dp3671
g62
(dp3672
sg71
g3566
sg64
(lp3673
g57
(g78
g59
NtRp3674
(dp3675
g62
(dp3676
g82
g83
ssg71
g3670
sg64
(lp3677
g401
asbag57
(g78
g59
NtRp3678
(dp3679
g62
(dp3680
g89
g90
ssg71
g3670
sg64
(lp3681
S':'
asbag57
(g78
g59
NtRp3682
(dp3683
g62
(dp3684
sg71
g3670
sg64
(lp3685
g57
(g58
g59
NtRp3686
(dp3687
g62
(dp3688
g70
I3
ssg71
g3682
sg64
(lp3689
S'/'
asbasbasbag57
(g73
g59
NtRp3690
(dp3691
g62
(dp3692
sg71
g3566
sg64
(lp3693
g57
(g78
g59
NtRp3694
(dp3695
g62
(dp3696
g82
g83
ssg71
g3690
sg64
(lp3697
g422
asbag57
(g78
g59
NtRp3698
(dp3699
g62
(dp3700
g89
g90
ssg71
g3690
sg64
(lp3701
S':'
asbag57
(g78
g59
NtRp3702
(dp3703
g62
(dp3704
sg71
g3690
sg64
(lp3705
g57
(g58
g59
NtRp3706
(dp3707
g62
(dp3708
g70
I3
ssg71
g3702
sg64
(lp3709
S''
asbasbasbag57
(g73
g59
NtRp3710
(dp3711
g62
(dp3712
sg71
g3566
sg64
(lp3713
g57
(g78
g59
NtRp3714
(dp3715
g62
(dp3716
g82
g83
ssg71
g3710
sg64
(lp3717
g443
asbag57
(g78
g59
NtRp3718
(dp3719
g62
(dp3720
g89
g90
ssg71
g3710
sg64
(lp3721
S':'
asbag57
(g78
g59
NtRp3722
(dp3723
g62
(dp3724
sg71
g3710
sg64
(lp3725
g57
(g58
g59
NtRp3726
(dp3727
g62
(dp3728
g70
I3
ssg71
g3722
sg64
(lp3729
S''
asbasbasbasbasbasbasbasbasbasbasbag57
(g73
g59
NtRp3730
(dp3731
g62
(dp3732
sg71
g3496
sg64
(lp3733
g57
(g78
g59
NtRp3734
(dp3735
g62
(dp3736
g82
g83
ssg71
g3730
sg64
(lp3737
S'files'
p3738
asbag57
(g78
g59
NtRp3739
(dp3740
g62
(dp3741
g89
g90
ssg71
g3730
sg64
(lp3742
S':'
asbag57
(g78
g59
NtRp3743
(dp3744
g62
(dp3745
sg71
g3730
sg64
(lp3746
g57
(g58
g59
NtRp3747
(dp3748
g62
(dp3749
g70
I5
ssg71
g3743
sg64
(lp3750
g57
(g66
g59
NtRp3751
(dp3752
g62
(dp3753
g70
I4
ssg71
Nsg64
(lp3754
sbasbasbasbag57
(g73
g59
NtRp3755
(dp3756
g62
(dp3757
sg71
g3496
sg64
(lp3758
g57
(g78
g59
NtRp3759
(dp3760
g62
(dp3761
g82
g83
ssg71
g3755
sg64
(lp3762
S'flash'
p3763
asbag57
(g78
g59
NtRp3764
(dp3765
g62
(dp3766
g89
g90
ssg71
g3755
sg64
(lp3767
S':'
asbag57
(g78
g59
NtRp3768
(dp3769
g62
(dp3770
sg71
g3755
sg64
(lp3771
g57
(g58
g59
NtRp3772
(dp3773
g62
(dp3774
g70
I5
ssg71
g3768
sg64
(lp3775
S''
asbasbasbag57
(g73
g59
NtRp3776
(dp3777
g62
(dp3778
sg71
g3496
sg64
(lp3779
g57
(g78
g59
NtRp3780
(dp3781
g62
(dp3782
g82
g83
ssg71
g3776
sg64
(lp3783
S'generic_patterns'
p3784
asbag57
(g78
g59
NtRp3785
(dp3786
g62
(dp3787
g89
g90
ssg71
g3776
sg64
(lp3788
S':'
asbag57
(g78
g59
NtRp3789
(dp3790
g62
(dp3791
sg71
g3776
sg64
(lp3792
g57
(g58
g59
NtRp3793
(dp3794
g62
(dp3795
g70
I5
ssg71
g3789
sg64
(lp3796
g57
(g66
g59
NtRp3797
(dp3798
g62
(dp3799
g70
I4
ssg71
Nsg64
(lp3800
g57
(g73
g59
NtRp3801
(dp3802
g62
(dp3803
sg71
g3797
sg64
(lp3804
g57
(g78
g59
NtRp3805
(dp3806
g62
(dp3807
sg71
g3801
sg64
(lp3808
g57
(g58
g59
NtRp3809
(dp3810
g62
(dp3811
g70
I4
ssg71
g3805
sg64
(lp3812
S'*'
asbasbasbasbasbasbasbag57
(g73
g59
NtRp3813
(dp3814
g62
(dp3815
sg71
g3496
sg64
(lp3816
g57
(g78
g59
NtRp3817
(dp3818
g62
(dp3819
g82
g83
ssg71
g3813
sg64
(lp3820
S'headers'
p3821
asbag57
(g78
g59
NtRp3822
(dp3823
g62
(dp3824
g89
g90
ssg71
g3813
sg64
(lp3825
S':'
asbag57
(g78
g59
NtRp3826
(dp3827
g62
(dp3828
sg71
g3813
sg64
(lp3829
g57
(g58
g59
NtRp3830
(dp3831
g62
(dp3832
g70
I5
ssg71
g3826
sg64
(lp3833
g57
(g66
g59
NtRp3834
(dp3835
g62
(dp3836
g70
I4
ssg71
Nsg64
(lp3837
g57
(g73
g59
NtRp3838
(dp3839
g62
(dp3840
sg71
g3834
sg64
(lp3841
g57
(g78
g59
NtRp3842
(dp3843
g62
(dp3844
g82
g83
ssg71
g3838
sg64
(lp3845
S'Cache-Control'
p3846
asbag57
(g78
g59
NtRp3847
(dp3848
g62
(dp3849
g89
g90
ssg71
g3838
sg64
(lp3850
S':'
asbag57
(g78
g59
NtRp3851
(dp3852
g62
(dp3853
sg71
g3838
sg64
(lp3854
g57
(g58
g59
NtRp3855
(dp3856
g62
(dp3857
g70
I4
ssg71
g3851
sg64
(lp3858
S'no-store, no-cache, must-revalidate, post-check=0, pre-check=0'
p3859
asbasbasbag57
(g73
g59
NtRp3860
(dp3861
g62
(dp3862
sg71
g3834
sg64
(lp3863
g57
(g78
g59
NtRp3864
(dp3865
g62
(dp3866
g82
g83
ssg71
g3860
sg64
(lp3867
S'Content-Type'
p3868
asbag57
(g78
g59
NtRp3869
(dp3870
g62
(dp3871
g89
g90
ssg71
g3860
sg64
(lp3872
S':'
asbag57
(g78
g59
NtRp3873
(dp3874
g62
(dp3875
sg71
g3860
sg64
(lp3876
g57
(g58
g59
NtRp3877
(dp3878
g62
(dp3879
g70
I4
ssg71
g3873
sg64
(lp3880
S'text/html; charset=utf-8'
p3881
asbasbasbag57
(g73
g59
NtRp3882
(dp3883
g62
(dp3884
sg71
g3834
sg64
(lp3885
g57
(g78
g59
NtRp3886
(dp3887
g62
(dp3888
g82
g83
ssg71
g3882
sg64
(lp3889
S'Expires'
p3890
asbag57
(g78
g59
NtRp3891
(dp3892
g62
(dp3893
g89
g90
ssg71
g3882
sg64
(lp3894
S':'
asbag57
(g78
g59
NtRp3895
(dp3896
g62
(dp3897
sg71
g3882
sg64
(lp3898
g57
(g58
g59
NtRp3899
(dp3900
g62
(dp3901
g70
I4
ssg71
g3895
sg64
(lp3902
S'Thu, 29 Aug 2013 20:15:20 GMT'
p3903
asbasbasbag57
(g73
g59
NtRp3904
(dp3905
g62
(dp3906
sg71
g3834
sg64
(lp3907
g57
(g78
g59
NtRp3908
(dp3909
g62
(dp3910
g82
g83
ssg71
g3904
sg64
(lp3911
S'Pragma'
p3912
asbag57
(g78
g59
NtRp3913
(dp3914
g62
(dp3915
g89
g90
ssg71
g3904
sg64
(lp3916
S':'
asbag57
(g78
g59
NtRp3917
(dp3918
g62
(dp3919
sg71
g3904
sg64
(lp3920
g57
(g58
g59
NtRp3921
(dp3922
g62
(dp3923
g70
I4
ssg71
g3917
sg64
(lp3924
S'no-cache'
p3925
asbasbasbag57
(g73
g59
NtRp3926
(dp3927
g62
(dp3928
sg71
g3834
sg64
(lp3929
g57
(g78
g59
NtRp3930
(dp3931
g62
(dp3932
g82
g83
ssg71
g3926
sg64
(lp3933
S'X-Powered-By'
p3934
asbag57
(g78
g59
NtRp3935
(dp3936
g62
(dp3937
g89
g90
ssg71
g3926
sg64
(lp3938
S':'
asbag57
(g78
g59
NtRp3939
(dp3940
g62
(dp3941
sg71
g3926
sg64
(lp3942
g57
(g58
g59
NtRp3943
(dp3944
g62
(dp3945
g70
I4
ssg71
g3939
sg64
(lp3946
S'web2py'
p3947
asbasbasbasbasbasbasbag57
(g73
g59
NtRp3948
(dp3949
g62
(dp3950
sg71
g3496
sg64
(lp3951
g57
(g78
g59
NtRp3952
(dp3953
g62
(dp3954
g82
g83
ssg71
g3948
sg64
(lp3955
S'menu'
p3956
asbag57
(g78
g59
NtRp3957
(dp3958
g62
(dp3959
g89
g90
ssg71
g3948
sg64
(lp3960
S':'
asbag57
(g78
g59
NtRp3961
(dp3962
g62
(dp3963
sg71
g3948
sg64
(lp3964
g57
(g58
g59
NtRp3965
(dp3966
g62
(dp3967
g70
I5
ssg71
g3961
sg64
(lp3968
g57
(g66
g59
NtRp3969
(dp3970
g62
(dp3971
g70
I4
ssg71
Nsg64
(lp3972
g57
(g73
g59
NtRp3973
(dp3974
g62
(dp3975
sg71
g3969
sg64
(lp3976
g57
(g78
g59
NtRp3977
(dp3978
g62
(dp3979
sg71
g3973
sg64
(lp3980
g57
(g58
g59
NtRp3981
(dp3982
g62
(dp3983
g70
I4
ssg71
g3977
sg64
(lp3984
g57
(g66
g59
NtRp3985
(dp3986
g62
(dp3987
g70
I3
ssg71
Nsg64
(lp3988
g57
(g73
g59
NtRp3989
(dp3990
g62
(dp3991
sg71
g3985
sg64
(lp3992
g57
(g78
g59
NtRp3993
(dp3994
g62
(dp3995
sg71
g3989
sg64
(lp3996
g57
(g58
g59
NtRp3997
(dp3998
g62
(dp3999
g70
I3
ssg71
g3993
sg64
(lp4000
cgluon.languages
lazyT_unpickle
p4001
(S't\x04\x00\x00\x00Home'
tRp4002
asbasbasbag57
(g73
g59
NtRp4003
(dp4004
g62
(dp4005
sg71
g3985
sg64
(lp4006
g57
(g78
g59
NtRp4007
(dp4008
g62
(dp4009
sg71
g4003
sg64
(lp4010
g57
(g58
g59
NtRp4011
(dp4012
g62
(dp4013
g70
I3
ssg71
g4007
sg64
(lp4014
g100
asbasbasbag57
(g73
g59
NtRp4015
(dp4016
g62
(dp4017
sg71
g3985
sg64
(lp4018
g57
(g78
g59
NtRp4019
(dp4020
g62
(dp4021
sg71
g4015
sg64
(lp4022
g57
(g58
g59
NtRp4023
(dp4024
g62
(dp4025
g70
I3
ssg71
g4019
sg64
(lp4026
S'/app1/default/index'
p4027
asbasbasbag57
(g73
g59
NtRp4028
(dp4029
g62
(dp4030
sg71
g3985
sg64
(lp4031
g57
(g78
g59
NtRp4032
(dp4033
g62
(dp4034
sg71
g4028
sg64
(lp4035
g57
(g58
g59
NtRp4036
(dp4037
g62
(dp4038
g70
I3
ssg71
g4032
sg64
(lp4039
g57
(g66
g59
NtRp4040
(dp4041
g62
(dp4042
g70
I2
ssg71
Nsg64
(lp4043
sbasbasbasbasbasbasbasbag57
(g73
g59
NtRp4044
(dp4045
g62
(dp4046
sg71
g3969
sg64
(lp4047
g57
(g78
g59
NtRp4048
(dp4049
g62
(dp4050
sg71
g4044
sg64
(lp4051
g57
(g58
g59
NtRp4052
(dp4053
g62
(dp4054
g70
I4
ssg71
g4048
sg64
(lp4055
g57
(g66
g59
NtRp4056
(dp4057
g62
(dp4058
g70
I3
ssg71
Nsg64
(lp4059
g57
(g73
g59
NtRp4060
(dp4061
g62
(dp4062
sg71
g4056
sg64
(lp4063
g57
(g78
g59
NtRp4064
(dp4065
g62
(dp4066
sg71
g4060
sg64
(lp4067
g57
(g58
g59
NtRp4068
(dp4069
g62
(dp4070
g70
I3
ssg71
g4064
sg64
(lp4071
g57
(cgluon.html
SPAN
p4072
g59
NtRp4073
(dp4074
g62
(dp4075
g82
S'color:yellow'
p4076
ssg71
Nsg64
(lp4077
g3947
asbasbasbasbag57
(g73
g59
NtRp4078
(dp4079
g62
(dp4080
sg71
g4056
sg64
(lp4081
g57
(g78
g59
NtRp4082
(dp4083
g62
(dp4084
sg71
g4078
sg64
(lp4085
g57
(g58
g59
NtRp4086
(dp4087
g62
(dp4088
g70
I3
ssg71
g4082
sg64
(lp4089
g100
asbasbasbag57
(g73
g59
NtRp4090
(dp4091
g62
(dp4092
sg71
g4056
sg64
(lp4093
g57
(g78
g59
NtRp4094
(dp4095
g62
(dp4096
sg71
g4090
sg64
(lp4097
g57
(g58
g59
NtRp4098
(dp4099
g62
(dp4100
g70
I3
ssg71
g4094
sg64
(lp4101
S'None'
p4102
asbasbasbag57
(g73
g59
NtRp4103
(dp4104
g62
(dp4105
sg71
g4056
sg64
(lp4106
g57
(g78
g59
NtRp4107
(dp4108
g62
(dp4109
sg71
g4103
sg64
(lp4110
g57
(g58
g59
NtRp4111
(dp4112
g62
(dp4113
g70
I3
ssg71
g4107
sg64
(lp4114
g57
(g66
g59
NtRp4115
(dp4116
g62
(dp4117
g70
I2
ssg71
Nsg64
(lp4118
g57
(g73
g59
NtRp4119
(dp4120
g62
(dp4121
sg71
g4115
sg64
(lp4122
g57
(g78
g59
NtRp4123
(dp4124
g62
(dp4125
sg71
g4119
sg64
(lp4126
g57
(g58
g59
NtRp4127
(dp4128
g62
(dp4129
g70
I2
ssg71
g4123
sg64
(lp4130
g57
(g66
g59
NtRp4131
(dp4132
g62
(dp4133
g70
I1
ssg71
Nsg64
(lp4134
g57
(g73
g59
NtRp4135
(dp4136
g62
(dp4137
sg71
g4131
sg64
(lp4138
g57
(g78
g59
NtRp4139
(dp4140
g62
(dp4141
sg71
g4135
sg64
(lp4142
g57
(g58
g59
NtRp4143
(dp4144
g62
(dp4145
g70
I1
ssg71
g4139
sg64
(lp4146
g4001
(S's\x08\x00\x00\x00My Sites'
tRp4147
asbasbasbag57
(g73
g59
NtRp4148
(dp4149
g62
(dp4150
sg71
g4131
sg64
(lp4151
g57
(g78
g59
NtRp4152
(dp4153
g62
(dp4154
sg71
g4148
sg64
(lp4155
g57
(g58
g59
NtRp4156
(dp4157
g62
(dp4158
g70
I1
ssg71
g4152
sg64
(lp4159
I00
asbasbasbag57
(g73
g59
NtRp4160
(dp4161
g62
(dp4162
sg71
g4131
sg64
(lp4163
g57
(g78
g59
NtRp4164
(dp4165
g62
(dp4166
sg71
g4160
sg64
(lp4167
g57
(g58
g59
NtRp4168
(dp4169
g62
(dp4170
g70
I1
ssg71
g4164
sg64
(lp4171
S'/admin/default/site'
p4172
asbasbasbasbasbasbasbag57
(g73
g59
NtRp4173
(dp4174
g62
(dp4175
sg71
g4115
sg64
(lp4176
g57
(g78
g59
NtRp4177
(dp4178
g62
(dp4179
sg71
g4173
sg64
(lp4180
g57
(g58
g59
NtRp4181
(dp4182
g62
(dp4183
g70
I2
ssg71
g4177
sg64
(lp4184
g57
(g66
g59
NtRp4185
(dp4186
g62
(dp4187
g70
I1
ssg71
Nsg64
(lp4188
g57
(g73
g59
NtRp4189
(dp4190
g62
(dp4191
sg71
g4185
sg64
(lp4192
g57
(g78
g59
NtRp4193
(dp4194
g62
(dp4195
sg71
g4189
sg64
(lp4196
g57
(g58
g59
NtRp4197
(dp4198
g62
(dp4199
g70
I1
ssg71
g4193
sg64
(lp4200
g4001
(S's\x08\x00\x00\x00This App'
tRp4201
asbasbasbag57
(g73
g59
NtRp4202
(dp4203
g62
(dp4204
sg71
g4185
sg64
(lp4205
g57
(g78
g59
NtRp4206
(dp4207
g62
(dp4208
sg71
g4202
sg64
(lp4209
g57
(g58
g59
NtRp4210
(dp4211
g62
(dp4212
g70
I1
ssg71
g4206
sg64
(lp4213
I00
asbasbasbag57
(g73
g59
NtRp4214
(dp4215
g62
(dp4216
sg71
g4185
sg64
(lp4217
g57
(g78
g59
NtRp4218
(dp4219
g62
(dp4220
sg71
g4214
sg64
(lp4221
g57
(g58
g59
NtRp4222
(dp4223
g62
(dp4224
g70
I1
ssg71
g4218
sg64
(lp4225
S'/admin/default/design/app1'
p4226
asbasbasbag57
(g73
g59
NtRp4227
(dp4228
g62
(dp4229
sg71
g4185
sg64
(lp4230
g57
(g78
g59
NtRp4231
(dp4232
g62
(dp4233
sg71
g4227
sg64
(lp4234
g57
(g58
g59
NtRp4235
(dp4236
g62
(dp4237
g70
I1
ssg71
g4231
sg64
(lp4238
(lp4239
(g4001
(S't\n\x00\x00\x00Controller'
tRp4240
I00
S'/admin/default/edit/app1/controllers/default.py'
tp4241
a(g4001
(S't\x04\x00\x00\x00View'
tRp4242
I00
S'/admin/default/edit/app1/views/default/lall.html'
tp4243
a(g4001
(S't\x06\x00\x00\x00Layout'
tRp4244
I00
S'/admin/default/edit/app1/views/layout.html'
tp4245
a(g4001
(S't\n\x00\x00\x00Stylesheet'
tRp4246
I00
S'/admin/default/edit/app1/static/css/web2py.css'
tp4247
a(g4001
(S's\x08\x00\x00\x00DB Model'
tRp4248
I00
S'/admin/default/edit/app1/models/db.py'
tp4249
a(g4001
(S's\n\x00\x00\x00Menu Model'
tRp4250
I00
S'/admin/default/edit/app1/models/menu.py'
tp4251
a(g4001
(S't\x08\x00\x00\x00Database'
tRp4252
I00
S'/app1/appadmin/index'
tp4253
a(g4001
(S't\x06\x00\x00\x00Errors'
tRp4254
I00
S'/admin/default/errors/app1'
tp4255
a(g4001
(S't\x05\x00\x00\x00About'
tRp4256
I00
S'/admin/default/about/app1'
tp4257
aasbasbasbasbasbasbasbag57
(g73
g59
NtRp4258
(dp4259
g62
(dp4260
sg71
g4115
sg64
(lp4261
g57
(g78
g59
NtRp4262
(dp4263
g62
(dp4264
sg71
g4258
sg64
(lp4265
g57
(g58
g59
NtRp4266
(dp4267
g62
(dp4268
g70
I2
ssg71
g4262
sg64
(lp4269
g57
(g66
g59
NtRp4270
(dp4271
g62
(dp4272
g70
I1
ssg71
Nsg64
(lp4273
g57
(g73
g59
NtRp4274
(dp4275
g62
(dp4276
sg71
g4270
sg64
(lp4277
g57
(g78
g59
NtRp4278
(dp4279
g62
(dp4280
sg71
g4274
sg64
(lp4281
g57
(g58
g59
NtRp4282
(dp4283
g62
(dp4284
g70
I1
ssg71
g4278
sg64
(lp4285
S'web2py.com'
p4286
asbasbasbag57
(g73
g59
NtRp4287
(dp4288
g62
(dp4289
sg71
g4270
sg64
(lp4290
g57
(g78
g59
NtRp4291
(dp4292
g62
(dp4293
sg71
g4287
sg64
(lp4294
g57
(g58
g59
NtRp4295
(dp4296
g62
(dp4297
g70
I1
ssg71
g4291
sg64
(lp4298
I00
asbasbasbag57
(g73
g59
NtRp4299
(dp4300
g62
(dp4301
sg71
g4270
sg64
(lp4302
g57
(g78
g59
NtRp4303
(dp4304
g62
(dp4305
sg71
g4299
sg64
(lp4306
g57
(g58
g59
NtRp4307
(dp4308
g62
(dp4309
g70
I1
ssg71
g4303
sg64
(lp4310
S'http://www.web2py.com'
p4311
asbasbasbag57
(g73
g59
NtRp4312
(dp4313
g62
(dp4314
sg71
g4270
sg64
(lp4315
g57
(g78
g59
NtRp4316
(dp4317
g62
(dp4318
sg71
g4312
sg64
(lp4319
g57
(g58
g59
NtRp4320
(dp4321
g62
(dp4322
g70
I1
ssg71
g4316
sg64
(lp4323
(lp4324
(g4001
(S't\x08\x00\x00\x00Download'
tRp4325
I00
S'http://www.web2py.com/examples/default/download'
p4326
tp4327
a(g4001
(S't\x07\x00\x00\x00Support'
tRp4328
I00
S'http://www.web2py.com/examples/default/support'
p4329
tp4330
a(g4001
(S't\x04\x00\x00\x00Demo'
tRp4331
I00
S'http://web2py.com/demo_admin'
p4332
tp4333
a(g4001
(S's\x0e\x00\x00\x00Quick Examples'
tRp4334
I00
S'http://web2py.com/examples/default/examples'
p4335
tp4336
a(g4001
(S't\x03\x00\x00\x00FAQ'
tRp4337
I00
S'http://web2py.com/AlterEgo'
p4338
tp4339
a(g4001
(S't\x06\x00\x00\x00Videos'
tRp4340
I00
S'http://www.web2py.com/examples/default/videos/'
p4341
tp4342
a(g4001
(S's\x11\x00\x00\x00Free Applications'
tRp4343
I00
S'http://web2py.com/appliances'
p4344
tp4345
a(g4001
(S't\x07\x00\x00\x00Plugins'
tRp4346
I00
S'http://web2py.com/plugins'
p4347
tp4348
a(g4001
(S't\x07\x00\x00\x00Layouts'
tRp4349
I00
S'http://web2py.com/layouts'
p4350
tp4351
a(g4001
(S't\x07\x00\x00\x00Recipes'
tRp4352
I00
S'http://web2pyslices.com/'
p4353
tp4354
a(g4001
(S't\x08\x00\x00\x00Semantic'
tRp4355
I00
S'http://web2py.com/semantic'
p4356
tp4357
aasbasbasbasbasbasbasbag57
(g73
g59
NtRp4358
(dp4359
g62
(dp4360
sg71
g4115
sg64
(lp4361
g57
(g78
g59
NtRp4362
(dp4363
g62
(dp4364
sg71
g4358
sg64
(lp4365
g57
(g58
g59
NtRp4366
(dp4367
g62
(dp4368
g70
I2
ssg71
g4362
sg64
(lp4369
g57
(g66
g59
NtRp4370
(dp4371
g62
(dp4372
g70
I1
ssg71
Nsg64
(lp4373
g57
(g73
g59
NtRp4374
(dp4375
g62
(dp4376
sg71
g4370
sg64
(lp4377
g57
(g78
g59
NtRp4378
(dp4379
g62
(dp4380
sg71
g4374
sg64
(lp4381
g57
(g58
g59
NtRp4382
(dp4383
g62
(dp4384
g70
I1
ssg71
g4378
sg64
(lp4385
g4001
(S't\r\x00\x00\x00Documentation'
tRp4386
asbasbasbag57
(g73
g59
NtRp4387
(dp4388
g62
(dp4389
sg71
g4370
sg64
(lp4390
g57
(g78
g59
NtRp4391
(dp4392
g62
(dp4393
sg71
g4387
sg64
(lp4394
g57
(g58
g59
NtRp4395
(dp4396
g62
(dp4397
g70
I1
ssg71
g4391
sg64
(lp4398
I00
asbasbasbag57
(g73
g59
NtRp4399
(dp4400
g62
(dp4401
sg71
g4370
sg64
(lp4402
g57
(g78
g59
NtRp4403
(dp4404
g62
(dp4405
sg71
g4399
sg64
(lp4406
g57
(g58
g59
NtRp4407
(dp4408
g62
(dp4409
g70
I1
ssg71
g4403
sg64
(lp4410
S'http://www.web2py.com/book'
p4411
asbasbasbag57
(g73
g59
NtRp4412
(dp4413
g62
(dp4414
sg71
g4370
sg64
(lp4415
g57
(g78
g59
NtRp4416
(dp4417
g62
(dp4418
sg71
g4412
sg64
(lp4419
g57
(g58
g59
NtRp4420
(dp4421
g62
(dp4422
g70
I1
ssg71
g4416
sg64
(lp4423
(lp4424
(g4001
(S't\x07\x00\x00\x00Preface'
tRp4425
I00
S'http://www.web2py.com/book/default/chapter/00'
p4426
tp4427
a(g4001
(S't\x0c\x00\x00\x00Introduction'
tRp4428
I00
S'http://www.web2py.com/book/default/chapter/01'
p4429
tp4430
a(g4001
(S't\x06\x00\x00\x00Python'
tRp4431
I00
S'http://www.web2py.com/book/default/chapter/02'
p4432
tp4433
a(g4001
(S't\x08\x00\x00\x00Overview'
tRp4434
I00
S'http://www.web2py.com/book/default/chapter/03'
p4435
tp4436
a(g4001
(S's\x08\x00\x00\x00The Core'
tRp4437
I00
S'http://www.web2py.com/book/default/chapter/04'
p4438
tp4439
a(g4001
(S's\t\x00\x00\x00The Views'
tRp4440
I00
S'http://www.web2py.com/book/default/chapter/05'
p4441
tp4442
a(g4001
(S't\x08\x00\x00\x00Database'
tRp4443
I00
S'http://www.web2py.com/book/default/chapter/06'
p4444
tp4445
a(g4001
(S's\x14\x00\x00\x00Forms and Validators'
tRp4446
I00
S'http://www.web2py.com/book/default/chapter/07'
p4447
tp4448
a(g4001
(S's\r\x00\x00\x00Email and SMS'
tRp4449
I00
S'http://www.web2py.com/book/default/chapter/08'
p4450
tp4451
a(g4001
(S's\x0e\x00\x00\x00Access Control'
tRp4452
I00
S'http://www.web2py.com/book/default/chapter/09'
p4453
tp4454
a(g4001
(S't\x08\x00\x00\x00Services'
tRp4455
I00
S'http://www.web2py.com/book/default/chapter/10'
p4456
tp4457
a(g4001
(S's\x0c\x00\x00\x00Ajax Recipes'
tRp4458
I00
S'http://www.web2py.com/book/default/chapter/11'
p4459
tp4460
a(g4001
(S's\x16\x00\x00\x00Components and Plugins'
tRp4461
I00
S'http://www.web2py.com/book/default/chapter/12'
p4462
tp4463
a(g4001
(S's\x12\x00\x00\x00Deployment Recipes'
tRp4464
I00
S'http://www.web2py.com/book/default/chapter/13'
p4465
tp4466
a(g4001
(S's\r\x00\x00\x00Other Recipes'
tRp4467
I00
S'http://www.web2py.com/book/default/chapter/14'
p4468
tp4469
a(g4001
(S's\r\x00\x00\x00Buy this book'
tRp4470
I00
S'http://stores.lulu.com/web2py'
p4471
tp4472
aasbasbasbasbasbasbasbag57
(g73
g59
NtRp4473
(dp4474
g62
(dp4475
sg71
g4115
sg64
(lp4476
g57
(g78
g59
NtRp4477
(dp4478
g62
(dp4479
sg71
g4473
sg64
(lp4480
g57
(g58
g59
NtRp4481
(dp4482
g62
(dp4483
g70
I2
ssg71
g4477
sg64
(lp4484
g57
(g66
g59
NtRp4485
(dp4486
g62
(dp4487
g70
I1
ssg71
Nsg64
(lp4488
g57
(g73
g59
NtRp4489
(dp4490
g62
(dp4491
sg71
g4485
sg64
(lp4492
g57
(g78
g59
NtRp4493
(dp4494
g62
(dp4495
sg71
g4489
sg64
(lp4496
g57
(g58
g59
NtRp4497
(dp4498
g62
(dp4499
g70
I1
ssg71
g4493
sg64
(lp4500
g4001
(S't\t\x00\x00\x00Community'
tRp4501
asbasbasbag57
(g73
g59
NtRp4502
(dp4503
g62
(dp4504
sg71
g4485
sg64
(lp4505
g57
(g78
g59
NtRp4506
(dp4507
g62
(dp4508
sg71
g4502
sg64
(lp4509
g57
(g58
g59
NtRp4510
(dp4511
g62
(dp4512
g70
I1
ssg71
g4506
sg64
(lp4513
I00
asbasbasbag57
(g73
g59
NtRp4514
(dp4515
g62
(dp4516
sg71
g4485
sg64
(lp4517
g57
(g78
g59
NtRp4518
(dp4519
g62
(dp4520
sg71
g4514
sg64
(lp4521
g57
(g58
g59
NtRp4522
(dp4523
g62
(dp4524
g70
I1
ssg71
g4518
sg64
(lp4525
Nasbasbasbag57
(g73
g59
NtRp4526
(dp4527
g62
(dp4528
sg71
g4485
sg64
(lp4529
g57
(g78
g59
NtRp4530
(dp4531
g62
(dp4532
sg71
g4526
sg64
(lp4533
g57
(g58
g59
NtRp4534
(dp4535
g62
(dp4536
g70
I1
ssg71
g4530
sg64
(lp4537
(lp4538
(g4001
(S't\x06\x00\x00\x00Groups'
tRp4539
I00
S'http://www.web2py.com/examples/default/usergroups'
p4540
tp4541
a(g4001
(S't\x07\x00\x00\x00Twitter'
tRp4542
I00
S'http://twitter.com/web2py'
p4543
tp4544
a(g4001
(S's\t\x00\x00\x00Live Chat'
tRp4545
I00
S'http://webchat.freenode.net/?channels=web2py'
p4546
tp4547
aasbasbasbasbasbasbasbag57
(g73
g59
NtRp4548
(dp4549
g62
(dp4550
sg71
g4115
sg64
(lp4551
g57
(g78
g59
NtRp4552
(dp4553
g62
(dp4554
sg71
g4548
sg64
(lp4555
g57
(g58
g59
NtRp4556
(dp4557
g62
(dp4558
g70
I2
ssg71
g4552
sg64
(lp4559
g57
(g66
g59
NtRp4560
(dp4561
g62
(dp4562
g70
I1
ssg71
Nsg64
(lp4563
g57
(g73
g59
NtRp4564
(dp4565
g62
(dp4566
sg71
g4560
sg64
(lp4567
g57
(g78
g59
NtRp4568
(dp4569
g62
(dp4570
sg71
g4564
sg64
(lp4571
g57
(g58
g59
NtRp4572
(dp4573
g62
(dp4574
g70
I1
ssg71
g4568
sg64
(lp4575
g4001
(S't\x07\x00\x00\x00Plugins'
tRp4576
asbasbasbag57
(g73
g59
NtRp4577
(dp4578
g62
(dp4579
sg71
g4560
sg64
(lp4580
g57
(g78
g59
NtRp4581
(dp4582
g62
(dp4583
sg71
g4577
sg64
(lp4584
g57
(g58
g59
NtRp4585
(dp4586
g62
(dp4587
g70
I1
ssg71
g4581
sg64
(lp4588
I00
asbasbasbag57
(g73
g59
NtRp4589
(dp4590
g62
(dp4591
sg71
g4560
sg64
(lp4592
g57
(g78
g59
NtRp4593
(dp4594
g62
(dp4595
sg71
g4589
sg64
(lp4596
g57
(g58
g59
NtRp4597
(dp4598
g62
(dp4599
g70
I1
ssg71
g4593
sg64
(lp4600
Nasbasbasbag57
(g73
g59
NtRp4601
(dp4602
g62
(dp4603
sg71
g4560
sg64
(lp4604
g57
(g78
g59
NtRp4605
(dp4606
g62
(dp4607
sg71
g4601
sg64
(lp4608
g57
(g58
g59
NtRp4609
(dp4610
g62
(dp4611
g70
I1
ssg71
g4605
sg64
(lp4612
(lp4613
(S'plugin_wiki'
p4614
I00
S'http://web2py.com/examples/default/download'
p4615
tp4616
a(g4001
(S's\r\x00\x00\x00Other Plugins'
tRp4617
I00
g4347
tp4618
a(g4001
(S's\x0e\x00\x00\x00Layout Plugins'
tRp4619
I00
g4350
tp4620
aasbasbasbasbasbasbasbasbasbasbasbasbasbasbasbasbasbasbasbag57
(g73
g59
NtRp4621
(dp4622
g62
(dp4623
sg71
g3496
sg64
(lp4624
g57
(g78
g59
NtRp4625
(dp4626
g62
(dp4627
g82
g83
ssg71
g4621
sg64
(lp4628
S'meta'
p4629
asbag57
(g78
g59
NtRp4630
(dp4631
g62
(dp4632
g89
g90
ssg71
g4621
sg64
(lp4633
S':'
asbag57
(g78
g59
NtRp4634
(dp4635
g62
(dp4636
sg71
g4621
sg64
(lp4637
g57
(g58
g59
NtRp4638
(dp4639
g62
(dp4640
g70
I5
ssg71
g4634
sg64
(lp4641
g57
(g66
g59
NtRp4642
(dp4643
g62
(dp4644
g70
I4
ssg71
Nsg64
(lp4645
g57
(g73
g59
NtRp4646
(dp4647
g62
(dp4648
sg71
g4642
sg64
(lp4649
g57
(g78
g59
NtRp4650
(dp4651
g62
(dp4652
g82
g83
ssg71
g4646
sg64
(lp4653
S'author'
p4654
asbag57
(g78
g59
NtRp4655
(dp4656
g62
(dp4657
g89
g90
ssg71
g4646
sg64
(lp4658
S':'
asbag57
(g78
g59
NtRp4659
(dp4660
g62
(dp4661
sg71
g4646
sg64
(lp4662
g57
(g58
g59
NtRp4663
(dp4664
g62
(dp4665
g70
I4
ssg71
g4659
sg64
(lp4666
S'Your Name <you@example.com>'
p4667
asbasbasbag57
(g73
g59
NtRp4668
(dp4669
g62
(dp4670
sg71
g4642
sg64
(lp4671
g57
(g78
g59
NtRp4672
(dp4673
g62
(dp4674
g82
g83
ssg71
g4668
sg64
(lp4675
S'copyright'
p4676
asbag57
(g78
g59
NtRp4677
(dp4678
g62
(dp4679
g89
g90
ssg71
g4668
sg64
(lp4680
S':'
asbag57
(g78
g59
NtRp4681
(dp4682
g62
(dp4683
sg71
g4668
sg64
(lp4684
g57
(g58
g59
NtRp4685
(dp4686
g62
(dp4687
g70
I4
ssg71
g4681
sg64
(lp4688
S'Copyright 2011'
p4689
asbasbasbag57
(g73
g59
NtRp4690
(dp4691
g62
(dp4692
sg71
g4642
sg64
(lp4693
g57
(g78
g59
NtRp4694
(dp4695
g62
(dp4696
g82
g83
ssg71
g4690
sg64
(lp4697
S'description'
p4698
asbag57
(g78
g59
NtRp4699
(dp4700
g62
(dp4701
g89
g90
ssg71
g4690
sg64
(lp4702
S':'
asbag57
(g78
g59
NtRp4703
(dp4704
g62
(dp4705
sg71
g4690
sg64
(lp4706
g57
(g58
g59
NtRp4707
(dp4708
g62
(dp4709
g70
I4
ssg71
g4703
sg64
(lp4710
S'a cool new app'
p4711
asbasbasbag57
(g73
g59
NtRp4712
(dp4713
g62
(dp4714
sg71
g4642
sg64
(lp4715
g57
(g78
g59
NtRp4716
(dp4717
g62
(dp4718
g82
g83
ssg71
g4712
sg64
(lp4719
S'generator'
p4720
asbag57
(g78
g59
NtRp4721
(dp4722
g62
(dp4723
g89
g90
ssg71
g4712
sg64
(lp4724
S':'
asbag57
(g78
g59
NtRp4725
(dp4726
g62
(dp4727
sg71
g4712
sg64
(lp4728
g57
(g58
g59
NtRp4729
(dp4730
g62
(dp4731
g70
I4
ssg71
g4725
sg64
(lp4732
S'Web2py Web Framework'
p4733
asbasbasbag57
(g73
g59
NtRp4734
(dp4735
g62
(dp4736
sg71
g4642
sg64
(lp4737
g57
(g78
g59
NtRp4738
(dp4739
g62
(dp4740
g82
g83
ssg71
g4734
sg64
(lp4741
S'keywords'
p4742
asbag57
(g78
g59
NtRp4743
(dp4744
g62
(dp4745
g89
g90
ssg71
g4734
sg64
(lp4746
S':'
asbag57
(g78
g59
NtRp4747
(dp4748
g62
(dp4749
sg71
g4734
sg64
(lp4750
g57
(g58
g59
NtRp4751
(dp4752
g62
(dp4753
g70
I4
ssg71
g4747
sg64
(lp4754
S'web2py, python, framework'
p4755
asbasbasbasbasbasbasbag57
(g73
g59
NtRp4756
(dp4757
g62
(dp4758
sg71
g3496
sg64
(lp4759
g57
(g78
g59
NtRp4760
(dp4761
g62
(dp4762
g82
g83
ssg71
g4756
sg64
(lp4763
S'postprocessing'
p4764
asbag57
(g78
g59
NtRp4765
(dp4766
g62
(dp4767
g89
g90
ssg71
g4756
sg64
(lp4768
S':'
asbag57
(g78
g59
NtRp4769
(dp4770
g62
(dp4771
sg71
g4756
sg64
(lp4772
g57
(g58
g59
NtRp4773
(dp4774
g62
(dp4775
g70
I5
ssg71
g4769
sg64
(lp4776
g57
(g66
g59
NtRp4777
(dp4778
g62
(dp4779
g70
I4
ssg71
Nsg64
(lp4780
sbasbasbasbag57
(g73
g59
NtRp4781
(dp4782
g62
(dp4783
sg71
g3496
sg64
(lp4784
g57
(g78
g59
NtRp4785
(dp4786
g62
(dp4787
g82
g83
ssg71
g4781
sg64
(lp4788
S'session_file'
p4789
asbag57
(g78
g59
NtRp4790
(dp4791
g62
(dp4792
g89
g90
ssg71
g4781
sg64
(lp4793
S':'
asbag57
(g78
g59
NtRp4794
(dp4795
g62
(dp4796
sg71
g4781
sg64
(lp4797
g57
(g58
g59
NtRp4798
(dp4799
g62
(dp4800
g70
I5
ssg71
g4794
sg64
(lp4801
S"<open file '/home/jigar/web2py/applications/app1/sessions/127.0.0.1-15782adb-a404-4b3e-868f-e60d89b9be1b', mode 'rb+' at 0x7fc7202a9030>"
p4802
asbasbasbag57
(g73
g59
NtRp4803
(dp4804
g62
(dp4805
sg71
g3496
sg64
(lp4806
g57
(g78
g59
NtRp4807
(dp4808
g62
(dp4809
g82
g83
ssg71
g4803
sg64
(lp4810
S'session_filename'
p4811
asbag57
(g78
g59
NtRp4812
(dp4813
g62
(dp4814
g89
g90
ssg71
g4803
sg64
(lp4815
S':'
asbag57
(g78
g59
NtRp4816
(dp4817
g62
(dp4818
sg71
g4803
sg64
(lp4819
g57
(g58
g59
NtRp4820
(dp4821
g62
(dp4822
g70
I5
ssg71
g4816
sg64
(lp4823
S'/home/jigar/web2py/applications/app1/sessions/127.0.0.1-15782adb-a404-4b3e-868f-e60d89b9be1b'
p4824
asbasbasbag57
(g73
g59
NtRp4825
(dp4826
g62
(dp4827
sg71
g3496
sg64
(lp4828
g57
(g78
g59
NtRp4829
(dp4830
g62
(dp4831
g82
g83
ssg71
g4825
sg64
(lp4832
S'session_id'
p4833
asbag57
(g78
g59
NtRp4834
(dp4835
g62
(dp4836
g89
g90
ssg71
g4825
sg64
(lp4837
S':'
asbag57
(g78
g59
NtRp4838
(dp4839
g62
(dp4840
sg71
g4825
sg64
(lp4841
g57
(g58
g59
NtRp4842
(dp4843
g62
(dp4844
g70
I5
ssg71
g4838
sg64
(lp4845
S'127.0.0.1-15782adb-a404-4b3e-868f-e60d89b9be1b'
p4846
asbasbasbag57
(g73
g59
NtRp4847
(dp4848
g62
(dp4849
sg71
g3496
sg64
(lp4850
g57
(g78
g59
NtRp4851
(dp4852
g62
(dp4853
g82
g83
ssg71
g4847
sg64
(lp4854
S'session_id_name'
p4855
asbag57
(g78
g59
NtRp4856
(dp4857
g62
(dp4858
g89
g90
ssg71
g4847
sg64
(lp4859
S':'
asbag57
(g78
g59
NtRp4860
(dp4861
g62
(dp4862
sg71
g4847
sg64
(lp4863
g57
(g58
g59
NtRp4864
(dp4865
g62
(dp4866
g70
I5
ssg71
g4860
sg64
(lp4867
g3553
asbasbasbag57
(g73
g59
NtRp4868
(dp4869
g62
(dp4870
sg71
g3496
sg64
(lp4871
g57
(g78
g59
NtRp4872
(dp4873
g62
(dp4874
g82
g83
ssg71
g4868
sg64
(lp4875
S'session_locked'
p4876
asbag57
(g78
g59
NtRp4877
(dp4878
g62
(dp4879
g89
g90
ssg71
g4868
sg64
(lp4880
S':'
asbag57
(g78
g59
NtRp4881
(dp4882
g62
(dp4883
sg71
g4868
sg64
(lp4884
g57
(g58
g59
NtRp4885
(dp4886
g62
(dp4887
g70
I5
ssg71
g4881
sg64
(lp4888
g1681
asbasbasbag57
(g73
g59
NtRp4889
(dp4890
g62
(dp4891
sg71
g3496
sg64
(lp4892
g57
(g78
g59
NtRp4893
(dp4894
g62
(dp4895
g82
g83
ssg71
g4889
sg64
(lp4896
S'session_new'
p4897
asbag57
(g78
g59
NtRp4898
(dp4899
g62
(dp4900
g89
g90
ssg71
g4889
sg64
(lp4901
S':'
asbag57
(g78
g59
NtRp4902
(dp4903
g62
(dp4904
sg71
g4889
sg64
(lp4905
g57
(g58
g59
NtRp4906
(dp4907
g62
(dp4908
g70
I5
ssg71
g4902
sg64
(lp4909
g100
asbasbasbag57
(g73
g59
NtRp4910
(dp4911
g62
(dp4912
sg71
g3496
sg64
(lp4913
g57
(g78
g59
NtRp4914
(dp4915
g62
(dp4916
g82
g83
ssg71
g4910
sg64
(lp4917
S'status'
p4918
asbag57
(g78
g59
NtRp4919
(dp4920
g62
(dp4921
g89
g90
ssg71
g4910
sg64
(lp4922
S':'
asbag57
(g78
g59
NtRp4923
(dp4924
g62
(dp4925
sg71
g4910
sg64
(lp4926
g57
(g58
g59
NtRp4927
(dp4928
g62
(dp4929
g70
I5
ssg71
g4923
sg64
(lp4930
S'200'
p4931
asbasbasbag57
(g73
g59
NtRp4932
(dp4933
g62
(dp4934
sg71
g3496
sg64
(lp4935
g57
(g78
g59
NtRp4936
(dp4937
g62
(dp4938
g82
g83
ssg71
g4932
sg64
(lp4939
S'subtitle'
p4940
asbag57
(g78
g59
NtRp4941
(dp4942
g62
(dp4943
g89
g90
ssg71
g4932
sg64
(lp4944
S':'
asbag57
(g78
g59
NtRp4945
(dp4946
g62
(dp4947
sg71
g4932
sg64
(lp4948
g57
(g58
g59
NtRp4949
(dp4950
g62
(dp4951
g70
I5
ssg71
g4945
sg64
(lp4952
g4001
(S's\r\x00\x00\x00customize me!'
tRp4953
asbasbasbag57
(g73
g59
NtRp4954
(dp4955
g62
(dp4956
sg71
g3496
sg64
(lp4957
g57
(g78
g59
NtRp4958
(dp4959
g62
(dp4960
g82
g83
ssg71
g4954
sg64
(lp4961
S'title'
p4962
asbag57
(g78
g59
NtRp4963
(dp4964
g62
(dp4965
g89
g90
ssg71
g4954
sg64
(lp4966
S':'
asbag57
(g78
g59
NtRp4967
(dp4968
g62
(dp4969
sg71
g4954
sg64
(lp4970
g57
(g58
g59
NtRp4971
(dp4972
g62
(dp4973
g70
I5
ssg71
g4967
sg64
(lp4974
S'App1'
p4975
asbasbasbag57
(g73
g59
NtRp4976
(dp4977
g62
(dp4978
sg71
g3496
sg64
(lp4979
g57
(g78
g59
NtRp4980
(dp4981
g62
(dp4982
g82
g83
ssg71
g4976
sg64
(lp4983
g2367
asbag57
(g78
g59
NtRp4984
(dp4985
g62
(dp4986
g89
g90
ssg71
g4976
sg64
(lp4987
S':'
asbag57
(g78
g59
NtRp4988
(dp4989
g62
(dp4990
sg71
g4976
sg64
(lp4991
g57
(g58
g59
NtRp4992
(dp4993
g62
(dp4994
g70
I5
ssg71
g4988
sg64
(lp4995
g2380
asbasbasbag57
(g73
g59
NtRp4996
(dp4997
g62
(dp4998
sg71
g3496
sg64
(lp4999
g57
(g78
g59
NtRp5000
(dp5001
g62
(dp5002
g82
g83
ssg71
g4996
sg64
(lp5003
S'view'
p5004
asbag57
(g78
g59
NtRp5005
(dp5006
g62
(dp5007
g89
g90
ssg71
g4996
sg64
(lp5008
S':'
asbag57
(g78
g59
NtRp5009
(dp5010
g62
(dp5011
sg71
g4996
sg64
(lp5012
g57
(g58
g59
NtRp5013
(dp5014
g62
(dp5015
g70
I5
ssg71
g5009
sg64
(lp5016
S'default/lall.html'
p5017
asbasbasbasbasbsS'locals'
p5018
(dp5019
S'b'
S'<gluon.dal.Rows object>'
p5020
sS'j'
S'0'
sS'p'
S"'like'"
p5021
sS'flag'
p5022
S'0'
sS'r'
S"'0'"
p5023
sS'rec'
p5024
S'<gluon.dal.Rows object>'
p5025
sS'y'
S'<gluon.dal.Rows object>'
p5026
sS'x'
S'<gluon.dal.Rows object>'
p5027
sS'z'
S'<gluon.dal.Rows object>'
p5028
sssS'traceback'
p5029
S'Traceback (most recent call last):\n  File "/usr/lib/pymodules/python2.7/gluon/restricted.py", line 204, in restricted\n    exec ccode in environment\n  File "/home/jigar/web2py/applications/app1/controllers/default.py", line 140, in <module>\n  File "/usr/lib/pymodules/python2.7/gluon/globals.py", line 172, in <lambda>\n    self._caller = lambda f: f()\n  File "/usr/lib/pymodules/python2.7/gluon/tools.py", line 2533, in f\n    return action(*a, **b)\n  File "/home/jigar/web2py/applications/app1/controllers/default.py", line 92, in lall\n    if (rec[j][\'id\']==r+1):\nTypeError: cannot concatenate \'str\' and \'int\' objects\n'
p5030
s.