(dp1
S'output'
p2
S"<type 'exceptions.KeyError'> 'Category'"
p3
sS'layer'
p4
S'/home/jigar/web2py/applications/app1/models/db.py'
p5
sS'code'
p6
S"# -*- coding: utf-8 -*-\n\n#########################################################################\n## This scaffolding model makes your app work on Google App Engine too\n## File is released under public domain and you can use without limitations\n#########################################################################\n\n## if SSL/HTTPS is properly configured and you want all HTTP requests to\n## be redirected to HTTPS, uncomment the line below:\n# request.requires_https()\n\nif not request.env.web2py_runtime_gae:\n    ## if NOT running on Google App Engine use SQLite or other DB\n    db = DAL('sqlite://storage.sqlite')\nelse:\n    ## connect to Google BigTable (optional 'google:datastore://namespace')\n    db = DAL('google:datastore')\n    ## store sessions and tickets there\n    session.connect(request, response, db = db)\n    ## or store session in Memcache, Redis, etc.\n    ## from gluon.contrib.memdb import MEMDB\n    ## from google.appengine.api.memcache import Client\n    ## session.connect(request, response, db = MEMDB(Client()))\n\n## by default give a view/generic.extension to all actions from localhost\n## none otherwise. a pattern can be 'controller/function.extension'\nresponse.generic_patterns = ['*'] if request.is_local else []\n## (optional) optimize handling of static files\n# response.optimize_css = 'concat,minify,inline'\n# response.optimize_js = 'concat,minify,inline'\n\n#########################################################################\n## Here is sample code if you need for\n## - email capabilities\n## - authentication (registration, login, logout, ... )\n## - authorization (role based authorization)\n## - services (xml, csv, json, xmlrpc, jsonrpc, amf, rss)\n## - old style crud actions\n## (more options discussed in gluon/tools.py)\n#########################################################################\n\nfrom gluon.tools import Auth, Crud, Service, PluginManager, prettydate\nauth = Auth(db, hmac_key=Auth.get_or_create_key())\ncrud, service, plugins = Crud(db), Service(), PluginManager()\n\n## create all tables needed by auth if not custom tables\nauth.settings.extra_fields['auth_user']=[\n\tField('Member_type','string',requires=IS_IN_SET(['User','Admin'])),\n\tField('City','string'),\n\tField('Profile_Pic','upload'),\n\t]\n\nauth.define_tables()\n## configure email\nmail=auth.settings.mailer\nmail.settings.server = 'logging' or 'smtp.gmail.com:587'\nmail.settings.sender = 'you@gmail.com'\nmail.settings.login = 'username:password'\n\n## configure auth policy\nauth.settings.registration_requires_verification = False\nauth.settings.registration_requires_approval = False\nauth.settings.reset_password_requires_verification = True\n\n## if you need to use OpenID, Facebook, MySpace, Twitter, Linkedin, etc.\n## register with janrain.com, write your domain:api_key in private/janrain.key\nfrom gluon.contrib.login_methods.rpx_account import use_janrain\nuse_janrain(auth,filename='private/janrain.key')\n\n#########################################################################\n## Define your tables below (or better in another model file) for example\n##\n## >>> db.define_table('mytable',Field('myfield','string'))\n##\n## Fields can be 'string','text','password','integer','double','boolean'\n##       'date','time','datetime','blob','upload', 'reference TABLENAME'\n## There is an implicit 'id integer autoincrement' field\n## Consult manual for more options, validators, etc.\n##\n## More API examples for controllers:\n##\n## >>> db.mytable.insert(myfield='value')\n## >>> rows=db(db.mytable.myfield=='value').select(db.mytable.ALL)\n## >>> for row in rows: print row.id, row.myfield\n#########################################################################\n\nset1=['World','India','Business','Sports','Entertainment']\n\ndb.define_table('Post',\n\t\tField('Heading','string',required=True),\n\t\tField('Category',db.Category,requires=IS_IN_DB(db,'Category.Name','Category.Name'),required=True),\n\t\tField('Post_details','text'),\n\t\tField('User',default=auth.user_id,readable=False,writable=False),\n\t\tField('Time','datetime',default=request.now,writable=False),\n\t\tField('URL','string',notnull=True,requires=IS_URL()),\n\t\tField('Rating','integer',default=100,required=True),\n\t\tField('Image','upload'),\n\t\tField('Video','string'),\n\t\tField('User_liked','list:integer',readable=False)\t\n\t\t)\n\ndb.define_table('Category',\n\t\tField('Name','string')\n\t       )\n\ndb.define_table('Votes',\n\t\tField('User',readable=False,writable=False),\n\t\tField('Likes','integer',default=0,readable=False),\n\t\tField('Dislikes','integer',default=0,readable=False)\n\t       )\n\ndb.define_table('Comment',\n\t\tField('Post_no',db.Post,requires=IS_IN_DB(db,'Post.id','Post.id')),\n\t\tField('Comment','text'),\n\t\tField('By_user',default=auth.user_id,writable=False,readable=False)\n\t       )\n"
p7
sS'snapshot'
p8
(dp9
sS'traceback'
p10
S'Traceback (most recent call last):\n  File "/usr/lib/pymodules/python2.7/gluon/restricted.py", line 204, in restricted\n    exec ccode in environment\n  File "/home/jigar/web2py/applications/app1/models/db.py", line 91, in <module>\n    Field(\'Category\',db.Category,requires=IS_IN_DB(db,\'Category.Name\',\'Category.Name\'),required=True),\n  File "/usr/lib/pymodules/python2.7/gluon/dal.py", line 5119, in __getattr__\n    return self[key]\n  File "/usr/lib/pymodules/python2.7/gluon/dal.py", line 5113, in __getitem__\n    return dict.__getitem__(self, str(key))\nKeyError: \'Category\'\n'
p11
s.