(dp1
S'output'
p2
S"<type 'exceptions.ValueError'> invalid literal for int() with base 10: 'app1'"
p3
sS'layer'
p4
S'/home/jigar/web2py/applications/app1/controllers/default.py'
p5
sS'code'
p6
S'# -*- coding: utf-8 -*-\n# this file is released under public domain and you can use without limitations\n\n#########################################################################\n## This is a samples controller\n## - index is the default action of any application\n## - user is required for authentication and authorization\n## - download is for downloading files uploaded in the db (does streaming)\n## - call exposes all registered services (none by default)\n#########################################################################\n\ndef index():\n    """\n    example action using the internationalization operator T and flash\n    rendered by views/default/index.html or views/generic.html\n    """\n    response.flash = "Welcome to web2py!"\n    return dict(message=T(\'Hello World\'))\n\ndef user():\n    """\n    exposes:\n    http://..../[app]/default/user/login\n    http://..../[app]/default/user/logout\n    http://..../[app]/default/user/register\n    http://..../[app]/default/user/profile\n    http://..../[app]/default/user/retrieve_password\n    http://..../[app]/default/user/change_password\n    use @auth.requires_login()\n        @auth.requires_membership(\'group name\')\n        @auth.requires_permission(\'read\',\'table name\',record_id)\n    to decorate functions that need access control\n    """\n    return dict(form=auth())\n\n\ndef download():\n    """\n    allows downloading of uploaded files\n    http://..../[app]/default/download/[filename]\n    """\n    return response.download(request,db)\n\n\ndef call():\n    """\n    exposes services. for example:\n    http://..../[app]/default/call/jsonrpc\n    decorate with @services.jsonrpc the functions to expose\n    supports xml, json, xmlrpc, jsonrpc, amfrpc, rss, csv\n    """\n    return service()\n\n\n@auth.requires_signature()\ndef data():\n    """\n    http://..../[app]/default/data/tables\n    http://..../[app]/default/data/create/[table]\n    http://..../[app]/default/data/read/[table]/[id]\n    http://..../[app]/default/data/update/[table]/[id]\n    http://..../[app]/default/data/delete/[table]/[id]\n    http://..../[app]/default/data/select/[table]\n    http://..../[app]/default/data/search/[table]\n    but URLs must be signed, i.e. linked with\n      A(\'table\',_href=URL(\'data/tables\',user_signature=True))\n    or with the signed load operator\n      LOAD(\'default\',\'data.load\',args=\'tables\',ajax=True,user_signature=True)\n    """\n    return dict(form=crud())\n\n@auth.requires_login()\ndef lall():\n\tflag=0\n\tca=db(db.cat.id>0).select()\n\tx=db(db.Post.id>0).select(orderby=db.Post.Rating)\n\ty=db(db.Post.User==db.auth_user.id).select(db.auth_user.first_name)\n#z=db(db.auth_user.id==db.Votes.By_user).select()\n#\tresponse.flash= "Like karne ke liye dhanyavaad _^_!"\n#\tif (len(request.args)!=0):\n#\t\tr=request.args[0]\n#\t\tp=request.args[1]\n#\t\tb=db(db.Post.id==(int(r)+1)).select()\t\n#\tprint x\n#\t\tresponse.flash= "Like karne ke liye dhanyavaad _^_!"\n#\t\tif (request.args[1]=="like" ):\t\n#\t\t\tb=db(db.Post.id==(int(r)+1)).select()\n#\t\t\tprint db(db.Post.User_liked.contains(auth.user.id)).select()\n#\t\t\trec=db(db.Post.User_liked.contains(auth.user.id)).select()\n#\t\t\tif  (len(rec)):\n#\t\t\t\tprint rec[0][\'id\']\n#\t\t\t\tprint r\n#\t\t\t\tfor j in range (len(rec)):\n#\t\t\t\t\tif (rec[j][\'id\']==int(r)+1):\n#\t\t\t\t\t\tflag=1\n#\t\t\t\tif (flag==1):\n#\t\t\t\t\tredirect(URL("lall"))\n#\t\t\t\t\tresponse.flash= "Kitni baar like karega!!"\n\t\t\t\t\n#\t\t\t\telse:\t\t\t\n#\t\t\t\t\tresponse.flash= "Like karne ke liye dhanyavaad _^_!"\n#\t\t\t\t\ta=db(db.Post.id==(int(r)+1)).update(Rating=b[0][\'Rating\']+5)\t\n#\t\t\t\t\tdb.Post.User_liked.append(auth.user.id)\t\t\t\t\t\n#\t\t\t\tdb(db.Post.id==(int(r)+1)).update(User_liked=auth.user.id)\n#\t\t\t\t\tredirect(URL("lall"))\n#\t\t\telse:\n#\t\t\t\tresponse.flash= "Like karne ke liye dhanyavaad _^_!"\n#\t\t\t\ta=db(db.Post.id==(int(r)+1)).update(Rating=b[0][\'Rating\']+5)\t\n#\t\t\t\tdb.Post.User_liked.append(auth.user.id)\t\t\t\t\t\n#\t\t\t\tdb(db.Post.id==(int(r)+1)).update(User_liked=auth.user.id)\t\n#\t\t\t\tredirect(URL("lall"))\n#\t\telif (request.args[1]=="dislike"):\t\n#\t\t\tb=db(db.Post.id==int(r)+1).select(db.Post.Rating)\n#\t\t\ta=db(db.Post.id==int(r)+1).update(Rating=b[0][\'Rating\']-3)\n#\t\t\tredirect(URL("lall"))\n\treturn locals()\n\n@auth.requires_login()\ndef l():\n\tr=request.args[0]\n\tp=request.args[1]\n\tp=int(p)\n\tr= int(r)\n#\tVotes.Post_id=r\n\tif (len(db((db.Votes.Post_id==r) & (db.Votes.B_User==auth.user.id)).select())!=0):\n\t\tresponse.flash=\'Kitni baar like karegai bey!!\'\n#\t\tredirect(URL(\'lall\'))\n\n\telif ((len(db((db.Votes.Post_id==r) & (db.Votes.B_User==auth.user.id)).select())==0) or (len(db(db.Votes.id>0).select())==0)):\n\t \tdb.Votes.insert(B_User=auth.user.id,Likes=p,Post_id=r)\n\t\trating=100\n\t\trec=db(db.Votes.Post_id==r).select()\n\t\tfor i in range (len(rec)):\n\t\t\tprint rec[i][\'Likes\']\n\t\t\trating=rating+rec[i][\'Likes\']\n\t\t\tprint rating\n\t\tdb(db.Post.id==r).update(Rating=rating)\n\t\tresponse.flash=\'Like ya dislike karne ke liye dhanyawaad _^_!\'\n#\t\tredirect(URL(\'lall\'))\n\treturn locals()\n\n@auth.requires_login()\ndef postnews():\n\tform=SQLFORM(db.Post)\n\tif form.process().accepted:\n\t\tresponse.flash= \'News Posted!\'\n\treturn locals()\n\n@auth.requires_login()\ndef listcat():\t\n\tp=db(db.Post.id>0).select()\n\tq=db(db.Post.User==db.auth_user.id).select(db.auth_user.first_name)\n\ty=request.args[0]\n\tx=db(db.Post.Category==y).select(orderby=db.Post.Rating)\n\tcat=db(db.cat.id==y).select()\n\tif (len(x)>0):\t\t\n\t\tca=db(db.cat.id>0).select()\n\t\treturn locals()\t\n\telse :\n\t\tca=db(db.cat.id>0).select()\n\t\treturn locals()\n\n@auth.requires_login()\ndef addcomment():\n\tr=request.args[0]\n\tr=int(r)\n\tform=SQLFORM(db.Comment)\n\tform.vars.Post_no=r\n#\tform.vars.Post_no.writable=False\n\tif form.process().accepted :\n\t\tresponse.flash= \'Comment Recorded\'\n\t\tredirect(URL(\'showcomments\', args=(r)))\n\treturn locals()\n\n@auth.requires_login()\ndef showcomments():\n\tr=request.args[0]\n\tr=int(r)\n\ta=db(db.Comment.Post_no==r).select()\n\tb=db((db.Comment.Post_no==r) & (db.auth_user.id==db.Comment.By_user)).select(db.auth_user.first_name,db.Comment.Time)\n\treturn locals()\n\n@auth.requires_login()\ndef deletepost():\n\tif (len(request.args)!=0):\n\t\tr=request.args[0]\n\t\tp=request.args[1]\n\t\tr=int(r)\n\t\trec=db(db.Post.id==r).select(db.Post.User)\n\t\tprint r\n\t\tprint auth.user.id\n\t\tprint rec[0][\'User\']\n\t\tif (auth.user.id==rec[0][\'User\'] or auth.user.Member_type==\'Admin\'):\n\t\t\tdb(db.Post.id==r).delete()\n\t\t\tredirect(URL(p))\n\t\telse:\n\t\t\tresponse.flash=\'You cannot delete others\\\' post\'\n\t\t\tredirect(URL(p))\n\treturn locals()\n\n@auth.requires_login()\ndef delaccount():\n\tif (auth.user.Member_type!=\'Admin\'):\n\t\tresponse.flash=\'You cant do this! :(\'\n\t\tredirect(URL(\'lall\'))\n\telse:\n\t\tacc=db(db.auth_user.Member_type==\'User\').select()\n\treturn locals()\n\n@auth.requires_login()\ndef d():\n\tif (auth.user.Member_type!=\'Admin\'):\n\t\tresponse.flash=\'You cant do this! :(\'\n\t\tredirect(URL(\'lall\'))\n\telse :\n\t\tr=request.args[0]\n\t\tdb(r==db.auth_user.id).delete()\n\t\tredirect(URL(\'delaccount\'))\n\treturn locals()\n\n@auth.requires_login()\ndef addcat():\n\tif (auth.user.Member_type==\'User\'):\n\t\tform=""\n\t\tresponse.flash= \'Only the Admin can add categories\'\n\telse :\n\t\tform=SQLFORM(db.cat)\n\t\tif form.process().accepted :\n\t\t\tresponse.flash= \'Category registered!\'\n\treturn locals()\n\n@auth.requires_login()\ndef updatepost():\n\tif (len(request.args)!=0):\n\t\tr=request.args[0]\n\t\tr=int(r)\n\t\trec=db(db.Post.id==r).select(db.Post.User)\n\t\tif (auth.user.id==rec[0][\'User\']):\n\t\t\tform= crud.update(db.Post,r)\n\t\t\tif form.process().accepted :\n\t\t\t\tresponse.flash= \'Post Updated\'\n#\t\t\treturn dict(form=form)\n\t\telse:\n\t\t\tredirect(URL(\'lall\'))\n\telse :\n\t\tredirect(URL(\'lall\'))\n#\t\tresponse.flash=\'Sorry please enter through the link for updating a post!\'\n\treturn locals()\n\n\n\nresponse._vars=response._caller(showcomments)\n'
p7
sS'snapshot'
p8
(dp9
S'exception'
p10
(dp11
S'__hash__'
p12
S"<method-wrapper '__hash__' of exceptions.ValueError object>"
p13
sS'__setattr__'
p14
S"<method-wrapper '__setattr__' of exceptions.ValueError object>"
p15
sS'__reduce_ex__'
p16
S'<built-in method __reduce_ex__ of exceptions.ValueError object>'
p17
sS'__getslice__'
p18
S"<method-wrapper '__getslice__' of exceptions.ValueError object>"
p19
sS'__getitem__'
p20
S"<method-wrapper '__getitem__' of exceptions.ValueError object>"
p21
sS'__setstate__'
p22
S'<built-in method __setstate__ of exceptions.ValueError object>'
p23
sS'args'
p24
S'("invalid literal for int() with base 10: \'app1\'",)'
p25
sS'__reduce__'
p26
S'<built-in method __reduce__ of exceptions.ValueError object>'
p27
sS'__str__'
p28
S"<method-wrapper '__str__' of exceptions.ValueError object>"
p29
sS'__format__'
p30
S'<built-in method __format__ of exceptions.ValueError object>'
p31
sS'__getattribute__'
p32
S"<method-wrapper '__getattribute__' of exceptions.ValueError object>"
p33
sS'__class__'
p34
S"<type 'exceptions.ValueError'>"
p35
sS'__unicode__'
p36
S'<built-in method __unicode__ of exceptions.ValueError object>'
p37
sS'__delattr__'
p38
S"<method-wrapper '__delattr__' of exceptions.ValueError object>"
p39
sS'__subclasshook__'
p40
S'<built-in method __subclasshook__ of type object>'
p41
sS'__repr__'
p42
S"<method-wrapper '__repr__' of exceptions.ValueError object>"
p43
sS'__dict__'
p44
S'{}'
p45
sS'__sizeof__'
p46
S'<built-in method __sizeof__ of exceptions.ValueError object>'
p47
sS'__doc__'
p48
S"'Inappropriate argument value (of correct type).'"
p49
sS'__init__'
p50
S"<method-wrapper '__init__' of exceptions.ValueError object>"
p51
sS'__new__'
p52
S'<built-in method __new__ of type object>'
p53
ssS'evalue'
p54
S"invalid literal for int() with base 10: 'app1'"
p55
sS'request'
p56
ccopy_reg
_reconstructor
p57
(cgluon.html
BEAUTIFY
p58
c__builtin__
object
p59
NtRp60
(dp61
S'attributes'
p62
(dp63
sS'components'
p64
(lp65
g57
(cgluon.html
TABLE
p66
g59
NtRp67
(dp68
g62
(dp69
S'level'
p70
I5
ssS'parent'
p71
Nsg64
(lp72
g57
(cgluon.html
TR
p73
g59
NtRp74
(dp75
g62
(dp76
sg71
g67
sg64
(lp77
g57
(cgluon.html
TD
p78
g59
NtRp79
(dp80
g62
(dp81
S'_style'
p82
S'font-weight:bold;vertical-align:top'
p83
ssg71
g74
sg64
(lp84
S'ajax'
p85
asbag57
(g78
g59
NtRp86
(dp87
g62
(dp88
S'_valign'
p89
S'top'
p90
ssg71
g74
sg64
(lp91
S':'
asbag57
(g78
g59
NtRp92
(dp93
g62
(dp94
sg71
g74
sg64
(lp95
g57
(g58
g59
NtRp96
(dp97
g62
(dp98
g70
I5
ssg71
g92
sg64
(lp99
S'False'
p100
asbasbasbag57
(g73
g59
NtRp101
(dp102
g62
(dp103
sg71
g67
sg64
(lp104
g57
(g78
g59
NtRp105
(dp106
g62
(dp107
g82
g83
ssg71
g101
sg64
(lp108
S'application'
p109
asbag57
(g78
g59
NtRp110
(dp111
g62
(dp112
g89
g90
ssg71
g101
sg64
(lp113
S':'
asbag57
(g78
g59
NtRp114
(dp115
g62
(dp116
sg71
g101
sg64
(lp117
g57
(g58
g59
NtRp118
(dp119
g62
(dp120
g70
I5
ssg71
g114
sg64
(lp121
S'app1'
p122
asbasbasbag57
(g73
g59
NtRp123
(dp124
g62
(dp125
sg71
g67
sg64
(lp126
g57
(g78
g59
NtRp127
(dp128
g62
(dp129
g82
g83
ssg71
g123
sg64
(lp130
g24
asbag57
(g78
g59
NtRp131
(dp132
g62
(dp133
g89
g90
ssg71
g123
sg64
(lp134
S':'
asbag57
(g78
g59
NtRp135
(dp136
g62
(dp137
sg71
g123
sg64
(lp138
g57
(g58
g59
NtRp139
(dp140
g62
(dp141
g70
I5
ssg71
g135
sg64
(lp142
g57
(g66
g59
NtRp143
(dp144
g62
(dp145
g70
I4
ssg71
Nsg64
(lp146
g57
(g73
g59
NtRp147
(dp148
g62
(dp149
sg71
g143
sg64
(lp150
g57
(g78
g59
NtRp151
(dp152
g62
(dp153
sg71
g147
sg64
(lp154
g57
(g58
g59
NtRp155
(dp156
g62
(dp157
g70
I4
ssg71
g151
sg64
(lp158
S'app1'
p159
asbasbasbag57
(g73
g59
NtRp160
(dp161
g62
(dp162
sg71
g143
sg64
(lp163
g57
(g78
g59
NtRp164
(dp165
g62
(dp166
sg71
g160
sg64
(lp167
g57
(g58
g59
NtRp168
(dp169
g62
(dp170
g70
I4
ssg71
g164
sg64
(lp171
S'default'
p172
asbasbasbag57
(g73
g59
NtRp173
(dp174
g62
(dp175
sg71
g143
sg64
(lp176
g57
(g78
g59
NtRp177
(dp178
g62
(dp179
sg71
g173
sg64
(lp180
g57
(g58
g59
NtRp181
(dp182
g62
(dp183
g70
I4
ssg71
g177
sg64
(lp184
S'addcomment'
p185
asbasbasbag57
(g73
g59
NtRp186
(dp187
g62
(dp188
sg71
g143
sg64
(lp189
g57
(g78
g59
NtRp190
(dp191
g62
(dp192
sg71
g186
sg64
(lp193
g57
(g58
g59
NtRp194
(dp195
g62
(dp196
g70
I4
ssg71
g190
sg64
(lp197
S'8'
asbasbasbasbasbasbasbag57
(g73
g59
NtRp198
(dp199
g62
(dp200
sg71
g67
sg64
(lp201
g57
(g78
g59
NtRp202
(dp203
g62
(dp204
g82
g83
ssg71
g198
sg64
(lp205
S'body'
p206
asbag57
(g78
g59
NtRp207
(dp208
g62
(dp209
g89
g90
ssg71
g198
sg64
(lp210
S':'
asbag57
(g78
g59
NtRp211
(dp212
g62
(dp213
sg71
g198
sg64
(lp214
g57
(g58
g59
NtRp215
(dp216
g62
(dp217
g70
I5
ssg71
g211
sg64
(lp218
S'<cStringIO.StringO object at 0x7fb4342d52d0>'
p219
asbasbasbag57
(g73
g59
NtRp220
(dp221
g62
(dp222
sg71
g67
sg64
(lp223
g57
(g78
g59
NtRp224
(dp225
g62
(dp226
g82
g83
ssg71
g220
sg64
(lp227
S'client'
p228
asbag57
(g78
g59
NtRp229
(dp230
g62
(dp231
g89
g90
ssg71
g220
sg64
(lp232
S':'
asbag57
(g78
g59
NtRp233
(dp234
g62
(dp235
sg71
g220
sg64
(lp236
g57
(g58
g59
NtRp237
(dp238
g62
(dp239
g70
I5
ssg71
g233
sg64
(lp240
S'127.0.0.1'
p241
asbasbasbag57
(g73
g59
NtRp242
(dp243
g62
(dp244
sg71
g67
sg64
(lp245
g57
(g78
g59
NtRp246
(dp247
g62
(dp248
g82
g83
ssg71
g242
sg64
(lp249
S'controller'
p250
asbag57
(g78
g59
NtRp251
(dp252
g62
(dp253
g89
g90
ssg71
g242
sg64
(lp254
S':'
asbag57
(g78
g59
NtRp255
(dp256
g62
(dp257
sg71
g242
sg64
(lp258
g57
(g58
g59
NtRp259
(dp260
g62
(dp261
g70
I5
ssg71
g255
sg64
(lp262
S'default'
p263
asbasbasbag57
(g73
g59
NtRp264
(dp265
g62
(dp266
sg71
g67
sg64
(lp267
g57
(g78
g59
NtRp268
(dp269
g62
(dp270
g82
g83
ssg71
g264
sg64
(lp271
S'cookies'
p272
asbag57
(g78
g59
NtRp273
(dp274
g62
(dp275
g89
g90
ssg71
g264
sg64
(lp276
S':'
asbag57
(g78
g59
NtRp277
(dp278
g62
(dp279
sg71
g264
sg64
(lp280
g57
(g58
g59
NtRp281
(dp282
g62
(dp283
g70
I5
ssg71
g277
sg64
(lp284
g57
(g66
g59
NtRp285
(dp286
g62
(dp287
g70
I4
ssg71
Nsg64
(lp288
g57
(g73
g59
NtRp289
(dp290
g62
(dp291
sg71
g285
sg64
(lp292
g57
(g78
g59
NtRp293
(dp294
g62
(dp295
g82
g83
ssg71
g289
sg64
(lp296
S'session_id_admin'
p297
asbag57
(g78
g59
NtRp298
(dp299
g62
(dp300
g89
g90
ssg71
g289
sg64
(lp301
S':'
asbag57
(g78
g59
NtRp302
(dp303
g62
(dp304
sg71
g289
sg64
(lp305
g57
(g58
g59
NtRp306
(dp307
g62
(dp308
g70
I4
ssg71
g302
sg64
(lp309
g57
(g66
g59
NtRp310
(dp311
g62
(dp312
g70
I3
ssg71
Nsg64
(lp313
g57
(g73
g59
NtRp314
(dp315
g62
(dp316
sg71
g310
sg64
(lp317
g57
(g78
g59
NtRp318
(dp319
g62
(dp320
g82
g83
ssg71
g314
sg64
(lp321
S'comment'
p322
asbag57
(g78
g59
NtRp323
(dp324
g62
(dp325
g89
g90
ssg71
g314
sg64
(lp326
S':'
asbag57
(g78
g59
NtRp327
(dp328
g62
(dp329
sg71
g314
sg64
(lp330
g57
(g58
g59
NtRp331
(dp332
g62
(dp333
g70
I3
ssg71
g327
sg64
(lp334
S''
asbasbasbag57
(g73
g59
NtRp335
(dp336
g62
(dp337
sg71
g310
sg64
(lp338
g57
(g78
g59
NtRp339
(dp340
g62
(dp341
g82
g83
ssg71
g335
sg64
(lp342
S'domain'
p343
asbag57
(g78
g59
NtRp344
(dp345
g62
(dp346
g89
g90
ssg71
g335
sg64
(lp347
S':'
asbag57
(g78
g59
NtRp348
(dp349
g62
(dp350
sg71
g335
sg64
(lp351
g57
(g58
g59
NtRp352
(dp353
g62
(dp354
g70
I3
ssg71
g348
sg64
(lp355
S''
asbasbasbag57
(g73
g59
NtRp356
(dp357
g62
(dp358
sg71
g310
sg64
(lp359
g57
(g78
g59
NtRp360
(dp361
g62
(dp362
g82
g83
ssg71
g356
sg64
(lp363
S'expires'
p364
asbag57
(g78
g59
NtRp365
(dp366
g62
(dp367
g89
g90
ssg71
g356
sg64
(lp368
S':'
asbag57
(g78
g59
NtRp369
(dp370
g62
(dp371
sg71
g356
sg64
(lp372
g57
(g58
g59
NtRp373
(dp374
g62
(dp375
g70
I3
ssg71
g369
sg64
(lp376
S''
asbasbasbag57
(g73
g59
NtRp377
(dp378
g62
(dp379
sg71
g310
sg64
(lp380
g57
(g78
g59
NtRp381
(dp382
g62
(dp383
g82
g83
ssg71
g377
sg64
(lp384
S'httponly'
p385
asbag57
(g78
g59
NtRp386
(dp387
g62
(dp388
g89
g90
ssg71
g377
sg64
(lp389
S':'
asbag57
(g78
g59
NtRp390
(dp391
g62
(dp392
sg71
g377
sg64
(lp393
g57
(g58
g59
NtRp394
(dp395
g62
(dp396
g70
I3
ssg71
g390
sg64
(lp397
S''
asbasbasbag57
(g73
g59
NtRp398
(dp399
g62
(dp400
sg71
g310
sg64
(lp401
g57
(g78
g59
NtRp402
(dp403
g62
(dp404
g82
g83
ssg71
g398
sg64
(lp405
S'max-age'
p406
asbag57
(g78
g59
NtRp407
(dp408
g62
(dp409
g89
g90
ssg71
g398
sg64
(lp410
S':'
asbag57
(g78
g59
NtRp411
(dp412
g62
(dp413
sg71
g398
sg64
(lp414
g57
(g58
g59
NtRp415
(dp416
g62
(dp417
g70
I3
ssg71
g411
sg64
(lp418
S''
asbasbasbag57
(g73
g59
NtRp419
(dp420
g62
(dp421
sg71
g310
sg64
(lp422
g57
(g78
g59
NtRp423
(dp424
g62
(dp425
g82
g83
ssg71
g419
sg64
(lp426
S'path'
p427
asbag57
(g78
g59
NtRp428
(dp429
g62
(dp430
g89
g90
ssg71
g419
sg64
(lp431
S':'
asbag57
(g78
g59
NtRp432
(dp433
g62
(dp434
sg71
g419
sg64
(lp435
g57
(g58
g59
NtRp436
(dp437
g62
(dp438
g70
I3
ssg71
g432
sg64
(lp439
S''
asbasbasbag57
(g73
g59
NtRp440
(dp441
g62
(dp442
sg71
g310
sg64
(lp443
g57
(g78
g59
NtRp444
(dp445
g62
(dp446
g82
g83
ssg71
g440
sg64
(lp447
S'secure'
p448
asbag57
(g78
g59
NtRp449
(dp450
g62
(dp451
g89
g90
ssg71
g440
sg64
(lp452
S':'
asbag57
(g78
g59
NtRp453
(dp454
g62
(dp455
sg71
g440
sg64
(lp456
g57
(g58
g59
NtRp457
(dp458
g62
(dp459
g70
I3
ssg71
g453
sg64
(lp460
S''
asbasbasbag57
(g73
g59
NtRp461
(dp462
g62
(dp463
sg71
g310
sg64
(lp464
g57
(g78
g59
NtRp465
(dp466
g62
(dp467
g82
g83
ssg71
g461
sg64
(lp468
S'version'
p469
asbag57
(g78
g59
NtRp470
(dp471
g62
(dp472
g89
g90
ssg71
g461
sg64
(lp473
S':'
asbag57
(g78
g59
NtRp474
(dp475
g62
(dp476
sg71
g461
sg64
(lp477
g57
(g58
g59
NtRp478
(dp479
g62
(dp480
g70
I3
ssg71
g474
sg64
(lp481
S''
asbasbasbasbasbasbasbag57
(g73
g59
NtRp482
(dp483
g62
(dp484
sg71
g285
sg64
(lp485
g57
(g78
g59
NtRp486
(dp487
g62
(dp488
g82
g83
ssg71
g482
sg64
(lp489
S'session_id_app1'
p490
asbag57
(g78
g59
NtRp491
(dp492
g62
(dp493
g89
g90
ssg71
g482
sg64
(lp494
S':'
asbag57
(g78
g59
NtRp495
(dp496
g62
(dp497
sg71
g482
sg64
(lp498
g57
(g58
g59
NtRp499
(dp500
g62
(dp501
g70
I4
ssg71
g495
sg64
(lp502
g57
(g66
g59
NtRp503
(dp504
g62
(dp505
g70
I3
ssg71
Nsg64
(lp506
g57
(g73
g59
NtRp507
(dp508
g62
(dp509
sg71
g503
sg64
(lp510
g57
(g78
g59
NtRp511
(dp512
g62
(dp513
g82
g83
ssg71
g507
sg64
(lp514
g322
asbag57
(g78
g59
NtRp515
(dp516
g62
(dp517
g89
g90
ssg71
g507
sg64
(lp518
S':'
asbag57
(g78
g59
NtRp519
(dp520
g62
(dp521
sg71
g507
sg64
(lp522
g57
(g58
g59
NtRp523
(dp524
g62
(dp525
g70
I3
ssg71
g519
sg64
(lp526
S''
asbasbasbag57
(g73
g59
NtRp527
(dp528
g62
(dp529
sg71
g503
sg64
(lp530
g57
(g78
g59
NtRp531
(dp532
g62
(dp533
g82
g83
ssg71
g527
sg64
(lp534
g343
asbag57
(g78
g59
NtRp535
(dp536
g62
(dp537
g89
g90
ssg71
g527
sg64
(lp538
S':'
asbag57
(g78
g59
NtRp539
(dp540
g62
(dp541
sg71
g527
sg64
(lp542
g57
(g58
g59
NtRp543
(dp544
g62
(dp545
g70
I3
ssg71
g539
sg64
(lp546
S''
asbasbasbag57
(g73
g59
NtRp547
(dp548
g62
(dp549
sg71
g503
sg64
(lp550
g57
(g78
g59
NtRp551
(dp552
g62
(dp553
g82
g83
ssg71
g547
sg64
(lp554
g364
asbag57
(g78
g59
NtRp555
(dp556
g62
(dp557
g89
g90
ssg71
g547
sg64
(lp558
S':'
asbag57
(g78
g59
NtRp559
(dp560
g62
(dp561
sg71
g547
sg64
(lp562
g57
(g58
g59
NtRp563
(dp564
g62
(dp565
g70
I3
ssg71
g559
sg64
(lp566
S''
asbasbasbag57
(g73
g59
NtRp567
(dp568
g62
(dp569
sg71
g503
sg64
(lp570
g57
(g78
g59
NtRp571
(dp572
g62
(dp573
g82
g83
ssg71
g567
sg64
(lp574
g385
asbag57
(g78
g59
NtRp575
(dp576
g62
(dp577
g89
g90
ssg71
g567
sg64
(lp578
S':'
asbag57
(g78
g59
NtRp579
(dp580
g62
(dp581
sg71
g567
sg64
(lp582
g57
(g58
g59
NtRp583
(dp584
g62
(dp585
g70
I3
ssg71
g579
sg64
(lp586
S''
asbasbasbag57
(g73
g59
NtRp587
(dp588
g62
(dp589
sg71
g503
sg64
(lp590
g57
(g78
g59
NtRp591
(dp592
g62
(dp593
g82
g83
ssg71
g587
sg64
(lp594
g406
asbag57
(g78
g59
NtRp595
(dp596
g62
(dp597
g89
g90
ssg71
g587
sg64
(lp598
S':'
asbag57
(g78
g59
NtRp599
(dp600
g62
(dp601
sg71
g587
sg64
(lp602
g57
(g58
g59
NtRp603
(dp604
g62
(dp605
g70
I3
ssg71
g599
sg64
(lp606
S''
asbasbasbag57
(g73
g59
NtRp607
(dp608
g62
(dp609
sg71
g503
sg64
(lp610
g57
(g78
g59
NtRp611
(dp612
g62
(dp613
g82
g83
ssg71
g607
sg64
(lp614
g427
asbag57
(g78
g59
NtRp615
(dp616
g62
(dp617
g89
g90
ssg71
g607
sg64
(lp618
S':'
asbag57
(g78
g59
NtRp619
(dp620
g62
(dp621
sg71
g607
sg64
(lp622
g57
(g58
g59
NtRp623
(dp624
g62
(dp625
g70
I3
ssg71
g619
sg64
(lp626
S''
asbasbasbag57
(g73
g59
NtRp627
(dp628
g62
(dp629
sg71
g503
sg64
(lp630
g57
(g78
g59
NtRp631
(dp632
g62
(dp633
g82
g83
ssg71
g627
sg64
(lp634
g448
asbag57
(g78
g59
NtRp635
(dp636
g62
(dp637
g89
g90
ssg71
g627
sg64
(lp638
S':'
asbag57
(g78
g59
NtRp639
(dp640
g62
(dp641
sg71
g627
sg64
(lp642
g57
(g58
g59
NtRp643
(dp644
g62
(dp645
g70
I3
ssg71
g639
sg64
(lp646
S''
asbasbasbag57
(g73
g59
NtRp647
(dp648
g62
(dp649
sg71
g503
sg64
(lp650
g57
(g78
g59
NtRp651
(dp652
g62
(dp653
g82
g83
ssg71
g647
sg64
(lp654
g469
asbag57
(g78
g59
NtRp655
(dp656
g62
(dp657
g89
g90
ssg71
g647
sg64
(lp658
S':'
asbag57
(g78
g59
NtRp659
(dp660
g62
(dp661
sg71
g647
sg64
(lp662
g57
(g58
g59
NtRp663
(dp664
g62
(dp665
g70
I3
ssg71
g659
sg64
(lp666
S''
asbasbasbasbasbasbasbag57
(g73
g59
NtRp667
(dp668
g62
(dp669
sg71
g285
sg64
(lp670
g57
(g78
g59
NtRp671
(dp672
g62
(dp673
g82
g83
ssg71
g667
sg64
(lp674
S'session_id_welcome'
p675
asbag57
(g78
g59
NtRp676
(dp677
g62
(dp678
g89
g90
ssg71
g667
sg64
(lp679
S':'
asbag57
(g78
g59
NtRp680
(dp681
g62
(dp682
sg71
g667
sg64
(lp683
g57
(g58
g59
NtRp684
(dp685
g62
(dp686
g70
I4
ssg71
g680
sg64
(lp687
g57
(g66
g59
NtRp688
(dp689
g62
(dp690
g70
I3
ssg71
Nsg64
(lp691
g57
(g73
g59
NtRp692
(dp693
g62
(dp694
sg71
g688
sg64
(lp695
g57
(g78
g59
NtRp696
(dp697
g62
(dp698
g82
g83
ssg71
g692
sg64
(lp699
g322
asbag57
(g78
g59
NtRp700
(dp701
g62
(dp702
g89
g90
ssg71
g692
sg64
(lp703
S':'
asbag57
(g78
g59
NtRp704
(dp705
g62
(dp706
sg71
g692
sg64
(lp707
g57
(g58
g59
NtRp708
(dp709
g62
(dp710
g70
I3
ssg71
g704
sg64
(lp711
S''
asbasbasbag57
(g73
g59
NtRp712
(dp713
g62
(dp714
sg71
g688
sg64
(lp715
g57
(g78
g59
NtRp716
(dp717
g62
(dp718
g82
g83
ssg71
g712
sg64
(lp719
g343
asbag57
(g78
g59
NtRp720
(dp721
g62
(dp722
g89
g90
ssg71
g712
sg64
(lp723
S':'
asbag57
(g78
g59
NtRp724
(dp725
g62
(dp726
sg71
g712
sg64
(lp727
g57
(g58
g59
NtRp728
(dp729
g62
(dp730
g70
I3
ssg71
g724
sg64
(lp731
S''
asbasbasbag57
(g73
g59
NtRp732
(dp733
g62
(dp734
sg71
g688
sg64
(lp735
g57
(g78
g59
NtRp736
(dp737
g62
(dp738
g82
g83
ssg71
g732
sg64
(lp739
g364
asbag57
(g78
g59
NtRp740
(dp741
g62
(dp742
g89
g90
ssg71
g732
sg64
(lp743
S':'
asbag57
(g78
g59
NtRp744
(dp745
g62
(dp746
sg71
g732
sg64
(lp747
g57
(g58
g59
NtRp748
(dp749
g62
(dp750
g70
I3
ssg71
g744
sg64
(lp751
S''
asbasbasbag57
(g73
g59
NtRp752
(dp753
g62
(dp754
sg71
g688
sg64
(lp755
g57
(g78
g59
NtRp756
(dp757
g62
(dp758
g82
g83
ssg71
g752
sg64
(lp759
g385
asbag57
(g78
g59
NtRp760
(dp761
g62
(dp762
g89
g90
ssg71
g752
sg64
(lp763
S':'
asbag57
(g78
g59
NtRp764
(dp765
g62
(dp766
sg71
g752
sg64
(lp767
g57
(g58
g59
NtRp768
(dp769
g62
(dp770
g70
I3
ssg71
g764
sg64
(lp771
S''
asbasbasbag57
(g73
g59
NtRp772
(dp773
g62
(dp774
sg71
g688
sg64
(lp775
g57
(g78
g59
NtRp776
(dp777
g62
(dp778
g82
g83
ssg71
g772
sg64
(lp779
g406
asbag57
(g78
g59
NtRp780
(dp781
g62
(dp782
g89
g90
ssg71
g772
sg64
(lp783
S':'
asbag57
(g78
g59
NtRp784
(dp785
g62
(dp786
sg71
g772
sg64
(lp787
g57
(g58
g59
NtRp788
(dp789
g62
(dp790
g70
I3
ssg71
g784
sg64
(lp791
S''
asbasbasbag57
(g73
g59
NtRp792
(dp793
g62
(dp794
sg71
g688
sg64
(lp795
g57
(g78
g59
NtRp796
(dp797
g62
(dp798
g82
g83
ssg71
g792
sg64
(lp799
g427
asbag57
(g78
g59
NtRp800
(dp801
g62
(dp802
g89
g90
ssg71
g792
sg64
(lp803
S':'
asbag57
(g78
g59
NtRp804
(dp805
g62
(dp806
sg71
g792
sg64
(lp807
g57
(g58
g59
NtRp808
(dp809
g62
(dp810
g70
I3
ssg71
g804
sg64
(lp811
S''
asbasbasbag57
(g73
g59
NtRp812
(dp813
g62
(dp814
sg71
g688
sg64
(lp815
g57
(g78
g59
NtRp816
(dp817
g62
(dp818
g82
g83
ssg71
g812
sg64
(lp819
g448
asbag57
(g78
g59
NtRp820
(dp821
g62
(dp822
g89
g90
ssg71
g812
sg64
(lp823
S':'
asbag57
(g78
g59
NtRp824
(dp825
g62
(dp826
sg71
g812
sg64
(lp827
g57
(g58
g59
NtRp828
(dp829
g62
(dp830
g70
I3
ssg71
g824
sg64
(lp831
S''
asbasbasbag57
(g73
g59
NtRp832
(dp833
g62
(dp834
sg71
g688
sg64
(lp835
g57
(g78
g59
NtRp836
(dp837
g62
(dp838
g82
g83
ssg71
g832
sg64
(lp839
g469
asbag57
(g78
g59
NtRp840
(dp841
g62
(dp842
g89
g90
ssg71
g832
sg64
(lp843
S':'
asbag57
(g78
g59
NtRp844
(dp845
g62
(dp846
sg71
g832
sg64
(lp847
g57
(g58
g59
NtRp848
(dp849
g62
(dp850
g70
I3
ssg71
g844
sg64
(lp851
S''
asbasbasbasbasbasbasbasbasbasbasbag57
(g73
g59
NtRp852
(dp853
g62
(dp854
sg71
g67
sg64
(lp855
g57
(g78
g59
NtRp856
(dp857
g62
(dp858
g82
g83
ssg71
g852
sg64
(lp859
S'env'
p860
asbag57
(g78
g59
NtRp861
(dp862
g62
(dp863
g89
g90
ssg71
g852
sg64
(lp864
S':'
asbag57
(g78
g59
NtRp865
(dp866
g62
(dp867
sg71
g852
sg64
(lp868
g57
(g58
g59
NtRp869
(dp870
g62
(dp871
g70
I5
ssg71
g865
sg64
(lp872
g57
(g66
g59
NtRp873
(dp874
g62
(dp875
g70
I4
ssg71
Nsg64
(lp876
g57
(g73
g59
NtRp877
(dp878
g62
(dp879
sg71
g873
sg64
(lp880
g57
(g78
g59
NtRp881
(dp882
g62
(dp883
g82
g83
ssg71
g877
sg64
(lp884
S'app_folders'
p885
asbag57
(g78
g59
NtRp886
(dp887
g62
(dp888
g89
g90
ssg71
g877
sg64
(lp889
S':'
asbag57
(g78
g59
NtRp890
(dp891
g62
(dp892
sg71
g877
sg64
(lp893
g57
(g58
g59
NtRp894
(dp895
g62
(dp896
g70
I4
ssg71
g890
sg64
(lp897
S"set(['/home/jigar/web2py/applications/welcome/', '/home/jigar/web2py/applications/admin/', '/home/jigar/web2py/applications/app1/'])"
p898
asbasbasbag57
(g73
g59
NtRp899
(dp900
g62
(dp901
sg71
g873
sg64
(lp902
g57
(g78
g59
NtRp903
(dp904
g62
(dp905
g82
g83
ssg71
g899
sg64
(lp906
S'applications_parent'
p907
asbag57
(g78
g59
NtRp908
(dp909
g62
(dp910
g89
g90
ssg71
g899
sg64
(lp911
S':'
asbag57
(g78
g59
NtRp912
(dp913
g62
(dp914
sg71
g899
sg64
(lp915
g57
(g58
g59
NtRp916
(dp917
g62
(dp918
g70
I4
ssg71
g912
sg64
(lp919
S'/home/jigar/web2py'
p920
asbasbasbag57
(g73
g59
NtRp921
(dp922
g62
(dp923
sg71
g873
sg64
(lp924
g57
(g78
g59
NtRp925
(dp926
g62
(dp927
g82
g83
ssg71
g921
sg64
(lp928
S'cmd_args'
p929
asbag57
(g78
g59
NtRp930
(dp931
g62
(dp932
g89
g90
ssg71
g921
sg64
(lp933
S':'
asbag57
(g78
g59
NtRp934
(dp935
g62
(dp936
sg71
g921
sg64
(lp937
g57
(g58
g59
NtRp938
(dp939
g62
(dp940
g70
I4
ssg71
g934
sg64
(lp941
g57
(g66
g59
NtRp942
(dp943
g62
(dp944
g70
I3
ssg71
Nsg64
(lp945
sbasbasbasbag57
(g73
g59
NtRp946
(dp947
g62
(dp948
sg71
g873
sg64
(lp949
g57
(g78
g59
NtRp950
(dp951
g62
(dp952
g82
g83
ssg71
g946
sg64
(lp953
S'cmd_options'
p954
asbag57
(g78
g59
NtRp955
(dp956
g62
(dp957
g89
g90
ssg71
g946
sg64
(lp958
S':'
asbag57
(g78
g59
NtRp959
(dp960
g62
(dp961
sg71
g946
sg64
(lp962
g57
(g58
g59
NtRp963
(dp964
g62
(dp965
g70
I4
ssg71
g959
sg64
(lp966
S"<Values at 0x2fd1c20: {'verbose': False, 'ip': '127.0.0.1', 'shutdown_timeout': 5, 'taskbar': False, 'port': 8000, 'maxthreads': None, 'softcron': False, 'server_name': 'jigar-Lenovo-Z580', 'bpython': False, 'nogui': False, 'nocron': False, 'extcron': False, 'debuglevel': 30, 'test': None, 'folder': '/home/jigar/web2py', 'config': '', 'import_models': False, 'winservice': '', 'shell': None, 'run': '', 'log_filename': 'httpserver.log', 'args': [''], 'socket_timeout': 1, 'profiler_filename': None, 'ssl_private_key': '', 'password': '<ask>', 'request_queue_size': 5, 'ssl_certificate': '', 'cronjob': False, 'plain': False, 'quiet': False, 'interfaces': None, 'minthreads': None, 'timeout': 10, 'numthreads': None, 'nobanner': False, 'pid_filename': 'httpserver.pid'}>"
p967
asbasbasbag57
(g73
g59
NtRp968
(dp969
g62
(dp970
sg71
g873
sg64
(lp971
g57
(g78
g59
NtRp972
(dp973
g62
(dp974
g82
g83
ssg71
g968
sg64
(lp975
S'db_sessions'
p976
asbag57
(g78
g59
NtRp977
(dp978
g62
(dp979
g89
g90
ssg71
g968
sg64
(lp980
S':'
asbag57
(g78
g59
NtRp981
(dp982
g62
(dp983
sg71
g968
sg64
(lp984
g57
(g58
g59
NtRp985
(dp986
g62
(dp987
g70
I4
ssg71
g981
sg64
(lp988
S'set([])'
p989
asbasbasbag57
(g73
g59
NtRp990
(dp991
g62
(dp992
sg71
g873
sg64
(lp993
g57
(g78
g59
NtRp994
(dp995
g62
(dp996
g82
g83
ssg71
g990
sg64
(lp997
S'debugging'
p998
asbag57
(g78
g59
NtRp999
(dp1000
g62
(dp1001
g89
g90
ssg71
g990
sg64
(lp1002
S':'
asbag57
(g78
g59
NtRp1003
(dp1004
g62
(dp1005
sg71
g990
sg64
(lp1006
g57
(g58
g59
NtRp1007
(dp1008
g62
(dp1009
g70
I4
ssg71
g1003
sg64
(lp1010
g100
asbasbasbag57
(g73
g59
NtRp1011
(dp1012
g62
(dp1013
sg71
g873
sg64
(lp1014
g57
(g78
g59
NtRp1015
(dp1016
g62
(dp1017
g82
g83
ssg71
g1011
sg64
(lp1018
S'gluon_parent'
p1019
asbag57
(g78
g59
NtRp1020
(dp1021
g62
(dp1022
g89
g90
ssg71
g1011
sg64
(lp1023
S':'
asbag57
(g78
g59
NtRp1024
(dp1025
g62
(dp1026
sg71
g1011
sg64
(lp1027
g57
(g58
g59
NtRp1028
(dp1029
g62
(dp1030
g70
I4
ssg71
g1024
sg64
(lp1031
S'/usr/share/web2py'
p1032
asbasbasbag57
(g73
g59
NtRp1033
(dp1034
g62
(dp1035
sg71
g873
sg64
(lp1036
g57
(g78
g59
NtRp1037
(dp1038
g62
(dp1039
g82
g83
ssg71
g1033
sg64
(lp1040
S'http_accept'
p1041
asbag57
(g78
g59
NtRp1042
(dp1043
g62
(dp1044
g89
g90
ssg71
g1033
sg64
(lp1045
S':'
asbag57
(g78
g59
NtRp1046
(dp1047
g62
(dp1048
sg71
g1033
sg64
(lp1049
g57
(g58
g59
NtRp1050
(dp1051
g62
(dp1052
g70
I4
ssg71
g1046
sg64
(lp1053
S'text/html,application/xhtml+xml,application/xml;q=0.9,*/*;q=0.8'
p1054
asbasbasbag57
(g73
g59
NtRp1055
(dp1056
g62
(dp1057
sg71
g873
sg64
(lp1058
g57
(g78
g59
NtRp1059
(dp1060
g62
(dp1061
g82
g83
ssg71
g1055
sg64
(lp1062
S'http_accept_encoding'
p1063
asbag57
(g78
g59
NtRp1064
(dp1065
g62
(dp1066
g89
g90
ssg71
g1055
sg64
(lp1067
S':'
asbag57
(g78
g59
NtRp1068
(dp1069
g62
(dp1070
sg71
g1055
sg64
(lp1071
g57
(g58
g59
NtRp1072
(dp1073
g62
(dp1074
g70
I4
ssg71
g1068
sg64
(lp1075
S'gzip, deflate'
p1076
asbasbasbag57
(g73
g59
NtRp1077
(dp1078
g62
(dp1079
sg71
g873
sg64
(lp1080
g57
(g78
g59
NtRp1081
(dp1082
g62
(dp1083
g82
g83
ssg71
g1077
sg64
(lp1084
S'http_accept_language'
p1085
asbag57
(g78
g59
NtRp1086
(dp1087
g62
(dp1088
g89
g90
ssg71
g1077
sg64
(lp1089
S':'
asbag57
(g78
g59
NtRp1090
(dp1091
g62
(dp1092
sg71
g1077
sg64
(lp1093
g57
(g58
g59
NtRp1094
(dp1095
g62
(dp1096
g70
I4
ssg71
g1090
sg64
(lp1097
S'en-US,en;q=0.5'
p1098
asbasbasbag57
(g73
g59
NtRp1099
(dp1100
g62
(dp1101
sg71
g873
sg64
(lp1102
g57
(g78
g59
NtRp1103
(dp1104
g62
(dp1105
g82
g83
ssg71
g1099
sg64
(lp1106
S'http_connection'
p1107
asbag57
(g78
g59
NtRp1108
(dp1109
g62
(dp1110
g89
g90
ssg71
g1099
sg64
(lp1111
S':'
asbag57
(g78
g59
NtRp1112
(dp1113
g62
(dp1114
sg71
g1099
sg64
(lp1115
g57
(g58
g59
NtRp1116
(dp1117
g62
(dp1118
g70
I4
ssg71
g1112
sg64
(lp1119
S'keep-alive'
p1120
asbasbasbag57
(g73
g59
NtRp1121
(dp1122
g62
(dp1123
sg71
g873
sg64
(lp1124
g57
(g78
g59
NtRp1125
(dp1126
g62
(dp1127
g82
g83
ssg71
g1121
sg64
(lp1128
S'http_cookie'
p1129
asbag57
(g78
g59
NtRp1130
(dp1131
g62
(dp1132
g89
g90
ssg71
g1121
sg64
(lp1133
S':'
asbag57
(g78
g59
NtRp1134
(dp1135
g62
(dp1136
sg71
g1121
sg64
(lp1137
g57
(g58
g59
NtRp1138
(dp1139
g62
(dp1140
g70
I4
ssg71
g1134
sg64
(lp1141
S'session_id_welcome=127.0.0.1-0f223b6f-37a0-4134-96f9-344b5b82abf2; session_id_admin=127.0.0.1-9d94419c-3c0e-43d2-aae5-f86b38fccfce; session_id_app1=127.0.0.1-a7d133f4-acec-437f-a963-db7b5b722c49'
p1142
asbasbasbag57
(g73
g59
NtRp1143
(dp1144
g62
(dp1145
sg71
g873
sg64
(lp1146
g57
(g78
g59
NtRp1147
(dp1148
g62
(dp1149
g82
g83
ssg71
g1143
sg64
(lp1150
S'http_host'
p1151
asbag57
(g78
g59
NtRp1152
(dp1153
g62
(dp1154
g89
g90
ssg71
g1143
sg64
(lp1155
S':'
asbag57
(g78
g59
NtRp1156
(dp1157
g62
(dp1158
sg71
g1143
sg64
(lp1159
g57
(g58
g59
NtRp1160
(dp1161
g62
(dp1162
g70
I4
ssg71
g1156
sg64
(lp1163
S'127.0.0.1:8000'
p1164
asbasbasbag57
(g73
g59
NtRp1165
(dp1166
g62
(dp1167
sg71
g873
sg64
(lp1168
g57
(g78
g59
NtRp1169
(dp1170
g62
(dp1171
g82
g83
ssg71
g1165
sg64
(lp1172
S'http_referer'
p1173
asbag57
(g78
g59
NtRp1174
(dp1175
g62
(dp1176
g89
g90
ssg71
g1165
sg64
(lp1177
S':'
asbag57
(g78
g59
NtRp1178
(dp1179
g62
(dp1180
sg71
g1165
sg64
(lp1181
g57
(g58
g59
NtRp1182
(dp1183
g62
(dp1184
g70
I4
ssg71
g1178
sg64
(lp1185
S'http://127.0.0.1:8000/app1/default/showcomments/8'
p1186
asbasbasbag57
(g73
g59
NtRp1187
(dp1188
g62
(dp1189
sg71
g873
sg64
(lp1190
g57
(g78
g59
NtRp1191
(dp1192
g62
(dp1193
g82
g83
ssg71
g1187
sg64
(lp1194
S'http_user_agent'
p1195
asbag57
(g78
g59
NtRp1196
(dp1197
g62
(dp1198
g89
g90
ssg71
g1187
sg64
(lp1199
S':'
asbag57
(g78
g59
NtRp1200
(dp1201
g62
(dp1202
sg71
g1187
sg64
(lp1203
g57
(g58
g59
NtRp1204
(dp1205
g62
(dp1206
g70
I4
ssg71
g1200
sg64
(lp1207
S'Mozilla/5.0 (X11; Ubuntu; Linux x86_64; rv:23.0) Gecko/20100101 Firefox/23.0'
p1208
asbasbasbag57
(g73
g59
NtRp1209
(dp1210
g62
(dp1211
sg71
g873
sg64
(lp1212
g57
(g78
g59
NtRp1213
(dp1214
g62
(dp1215
g82
g83
ssg71
g1209
sg64
(lp1216
S'is_jython'
p1217
asbag57
(g78
g59
NtRp1218
(dp1219
g62
(dp1220
g89
g90
ssg71
g1209
sg64
(lp1221
S':'
asbag57
(g78
g59
NtRp1222
(dp1223
g62
(dp1224
sg71
g1209
sg64
(lp1225
g57
(g58
g59
NtRp1226
(dp1227
g62
(dp1228
g70
I4
ssg71
g1222
sg64
(lp1229
g100
asbasbasbag57
(g73
g59
NtRp1230
(dp1231
g62
(dp1232
sg71
g873
sg64
(lp1233
g57
(g78
g59
NtRp1234
(dp1235
g62
(dp1236
g82
g83
ssg71
g1230
sg64
(lp1237
S'is_pypy'
p1238
asbag57
(g78
g59
NtRp1239
(dp1240
g62
(dp1241
g89
g90
ssg71
g1230
sg64
(lp1242
S':'
asbag57
(g78
g59
NtRp1243
(dp1244
g62
(dp1245
sg71
g1230
sg64
(lp1246
g57
(g58
g59
NtRp1247
(dp1248
g62
(dp1249
g70
I4
ssg71
g1243
sg64
(lp1250
g100
asbasbasbag57
(g73
g59
NtRp1251
(dp1252
g62
(dp1253
sg71
g873
sg64
(lp1254
g57
(g78
g59
NtRp1255
(dp1256
g62
(dp1257
g82
g83
ssg71
g1251
sg64
(lp1258
S'path_info'
p1259
asbag57
(g78
g59
NtRp1260
(dp1261
g62
(dp1262
g89
g90
ssg71
g1251
sg64
(lp1263
S':'
asbag57
(g78
g59
NtRp1264
(dp1265
g62
(dp1266
sg71
g1251
sg64
(lp1267
g57
(g58
g59
NtRp1268
(dp1269
g62
(dp1270
g70
I4
ssg71
g1264
sg64
(lp1271
S'/app1/default/showcomments/app1/default/addcomment/8'
p1272
asbasbasbag57
(g73
g59
NtRp1273
(dp1274
g62
(dp1275
sg71
g873
sg64
(lp1276
g57
(g78
g59
NtRp1277
(dp1278
g62
(dp1279
g82
g83
ssg71
g1273
sg64
(lp1280
S'query_string'
p1281
asbag57
(g78
g59
NtRp1282
(dp1283
g62
(dp1284
g89
g90
ssg71
g1273
sg64
(lp1285
S':'
asbag57
(g78
g59
NtRp1286
(dp1287
g62
(dp1288
sg71
g1273
sg64
(lp1289
g57
(g58
g59
NtRp1290
(dp1291
g62
(dp1292
g70
I4
ssg71
g1286
sg64
(lp1293
S''
asbasbasbag57
(g73
g59
NtRp1294
(dp1295
g62
(dp1296
sg71
g873
sg64
(lp1297
g57
(g78
g59
NtRp1298
(dp1299
g62
(dp1300
g82
g83
ssg71
g1294
sg64
(lp1301
S'remote_addr'
p1302
asbag57
(g78
g59
NtRp1303
(dp1304
g62
(dp1305
g89
g90
ssg71
g1294
sg64
(lp1306
S':'
asbag57
(g78
g59
NtRp1307
(dp1308
g62
(dp1309
sg71
g1294
sg64
(lp1310
g57
(g58
g59
NtRp1311
(dp1312
g62
(dp1313
g70
I4
ssg71
g1307
sg64
(lp1314
g241
asbasbasbag57
(g73
g59
NtRp1315
(dp1316
g62
(dp1317
sg71
g873
sg64
(lp1318
g57
(g78
g59
NtRp1319
(dp1320
g62
(dp1321
g82
g83
ssg71
g1315
sg64
(lp1322
S'remote_port'
p1323
asbag57
(g78
g59
NtRp1324
(dp1325
g62
(dp1326
g89
g90
ssg71
g1315
sg64
(lp1327
S':'
asbag57
(g78
g59
NtRp1328
(dp1329
g62
(dp1330
sg71
g1315
sg64
(lp1331
g57
(g58
g59
NtRp1332
(dp1333
g62
(dp1334
g70
I4
ssg71
g1328
sg64
(lp1335
S'35912'
p1336
asbasbasbag57
(g73
g59
NtRp1337
(dp1338
g62
(dp1339
sg71
g873
sg64
(lp1340
g57
(g78
g59
NtRp1341
(dp1342
g62
(dp1343
g82
g83
ssg71
g1337
sg64
(lp1344
S'request_method'
p1345
asbag57
(g78
g59
NtRp1346
(dp1347
g62
(dp1348
g89
g90
ssg71
g1337
sg64
(lp1349
S':'
asbag57
(g78
g59
NtRp1350
(dp1351
g62
(dp1352
sg71
g1337
sg64
(lp1353
g57
(g58
g59
NtRp1354
(dp1355
g62
(dp1356
g70
I4
ssg71
g1350
sg64
(lp1357
S'GET'
p1358
asbasbasbag57
(g73
g59
NtRp1359
(dp1360
g62
(dp1361
sg71
g873
sg64
(lp1362
g57
(g78
g59
NtRp1363
(dp1364
g62
(dp1365
g82
g83
ssg71
g1359
sg64
(lp1366
S'script_name'
p1367
asbag57
(g78
g59
NtRp1368
(dp1369
g62
(dp1370
g89
g90
ssg71
g1359
sg64
(lp1371
S':'
asbag57
(g78
g59
NtRp1372
(dp1373
g62
(dp1374
sg71
g1359
sg64
(lp1375
g57
(g58
g59
NtRp1376
(dp1377
g62
(dp1378
g70
I4
ssg71
g1372
sg64
(lp1379
S''
asbasbasbag57
(g73
g59
NtRp1380
(dp1381
g62
(dp1382
sg71
g873
sg64
(lp1383
g57
(g78
g59
NtRp1384
(dp1385
g62
(dp1386
g82
g83
ssg71
g1380
sg64
(lp1387
S'server_name'
p1388
asbag57
(g78
g59
NtRp1389
(dp1390
g62
(dp1391
g89
g90
ssg71
g1380
sg64
(lp1392
S':'
asbag57
(g78
g59
NtRp1393
(dp1394
g62
(dp1395
sg71
g1380
sg64
(lp1396
g57
(g58
g59
NtRp1397
(dp1398
g62
(dp1399
g70
I4
ssg71
g1393
sg64
(lp1400
S'jigar-Lenovo-Z580'
p1401
asbasbasbag57
(g73
g59
NtRp1402
(dp1403
g62
(dp1404
sg71
g873
sg64
(lp1405
g57
(g78
g59
NtRp1406
(dp1407
g62
(dp1408
g82
g83
ssg71
g1402
sg64
(lp1409
S'server_port'
p1410
asbag57
(g78
g59
NtRp1411
(dp1412
g62
(dp1413
g89
g90
ssg71
g1402
sg64
(lp1414
S':'
asbag57
(g78
g59
NtRp1415
(dp1416
g62
(dp1417
sg71
g1402
sg64
(lp1418
g57
(g58
g59
NtRp1419
(dp1420
g62
(dp1421
g70
I4
ssg71
g1415
sg64
(lp1422
S'8000'
p1423
asbasbasbag57
(g73
g59
NtRp1424
(dp1425
g62
(dp1426
sg71
g873
sg64
(lp1427
g57
(g78
g59
NtRp1428
(dp1429
g62
(dp1430
g82
g83
ssg71
g1424
sg64
(lp1431
S'server_protocol'
p1432
asbag57
(g78
g59
NtRp1433
(dp1434
g62
(dp1435
g89
g90
ssg71
g1424
sg64
(lp1436
S':'
asbag57
(g78
g59
NtRp1437
(dp1438
g62
(dp1439
sg71
g1424
sg64
(lp1440
g57
(g58
g59
NtRp1441
(dp1442
g62
(dp1443
g70
I4
ssg71
g1437
sg64
(lp1444
S'HTTP/1.1'
p1445
asbasbasbag57
(g73
g59
NtRp1446
(dp1447
g62
(dp1448
sg71
g873
sg64
(lp1449
g57
(g78
g59
NtRp1450
(dp1451
g62
(dp1452
g82
g83
ssg71
g1446
sg64
(lp1453
S'server_software'
p1454
asbag57
(g78
g59
NtRp1455
(dp1456
g62
(dp1457
g89
g90
ssg71
g1446
sg64
(lp1458
S':'
asbag57
(g78
g59
NtRp1459
(dp1460
g62
(dp1461
sg71
g1446
sg64
(lp1462
g57
(g58
g59
NtRp1463
(dp1464
g62
(dp1465
g70
I4
ssg71
g1459
sg64
(lp1466
S'Rocket 1.2.4'
p1467
asbasbasbag57
(g73
g59
NtRp1468
(dp1469
g62
(dp1470
sg71
g873
sg64
(lp1471
g57
(g78
g59
NtRp1472
(dp1473
g62
(dp1474
g82
g83
ssg71
g1468
sg64
(lp1475
S'web2py_crontype'
p1476
asbag57
(g78
g59
NtRp1477
(dp1478
g62
(dp1479
g89
g90
ssg71
g1468
sg64
(lp1480
S':'
asbag57
(g78
g59
NtRp1481
(dp1482
g62
(dp1483
sg71
g1468
sg64
(lp1484
g57
(g58
g59
NtRp1485
(dp1486
g62
(dp1487
g70
I4
ssg71
g1481
sg64
(lp1488
S'hard'
p1489
asbasbasbag57
(g73
g59
NtRp1490
(dp1491
g62
(dp1492
sg71
g873
sg64
(lp1493
g57
(g78
g59
NtRp1494
(dp1495
g62
(dp1496
g82
g83
ssg71
g1490
sg64
(lp1497
S'web2py_path'
p1498
asbag57
(g78
g59
NtRp1499
(dp1500
g62
(dp1501
g89
g90
ssg71
g1490
sg64
(lp1502
S':'
asbag57
(g78
g59
NtRp1503
(dp1504
g62
(dp1505
sg71
g1490
sg64
(lp1506
g57
(g58
g59
NtRp1507
(dp1508
g62
(dp1509
g70
I4
ssg71
g1503
sg64
(lp1510
g920
asbasbasbag57
(g73
g59
NtRp1511
(dp1512
g62
(dp1513
sg71
g873
sg64
(lp1514
g57
(g78
g59
NtRp1515
(dp1516
g62
(dp1517
g82
g83
ssg71
g1511
sg64
(lp1518
S'web2py_version'
p1519
asbag57
(g78
g59
NtRp1520
(dp1521
g62
(dp1522
g89
g90
ssg71
g1511
sg64
(lp1523
S':'
asbag57
(g78
g59
NtRp1524
(dp1525
g62
(dp1526
sg71
g1511
sg64
(lp1527
g57
(g58
g59
NtRp1528
(dp1529
g62
(dp1530
g70
I4
ssg71
g1524
sg64
(lp1531
g57
(g66
g59
NtRp1532
(dp1533
g62
(dp1534
g70
I3
ssg71
Nsg64
(lp1535
g57
(g73
g59
NtRp1536
(dp1537
g62
(dp1538
sg71
g1532
sg64
(lp1539
g57
(g78
g59
NtRp1540
(dp1541
g62
(dp1542
sg71
g1536
sg64
(lp1543
g57
(g58
g59
NtRp1544
(dp1545
g62
(dp1546
g70
I3
ssg71
g1540
sg64
(lp1547
S'1'
asbasbasbag57
(g73
g59
NtRp1548
(dp1549
g62
(dp1550
sg71
g1532
sg64
(lp1551
g57
(g78
g59
NtRp1552
(dp1553
g62
(dp1554
sg71
g1548
sg64
(lp1555
g57
(g58
g59
NtRp1556
(dp1557
g62
(dp1558
g70
I3
ssg71
g1552
sg64
(lp1559
S'99'
p1560
asbasbasbag57
(g73
g59
NtRp1561
(dp1562
g62
(dp1563
sg71
g1532
sg64
(lp1564
g57
(g78
g59
NtRp1565
(dp1566
g62
(dp1567
sg71
g1561
sg64
(lp1568
g57
(g58
g59
NtRp1569
(dp1570
g62
(dp1571
g70
I3
ssg71
g1565
sg64
(lp1572
S'4'
asbasbasbag57
(g73
g59
NtRp1573
(dp1574
g62
(dp1575
sg71
g1532
sg64
(lp1576
g57
(g78
g59
NtRp1577
(dp1578
g62
(dp1579
sg71
g1573
sg64
(lp1580
g57
(g58
g59
NtRp1581
(dp1582
g62
(dp1583
g70
I3
ssg71
g1577
sg64
(lp1584
S'datetime.datetime(2011, 12, 14, 14, 46, 14)'
p1585
asbasbasbag57
(g73
g59
NtRp1586
(dp1587
g62
(dp1588
sg71
g1532
sg64
(lp1589
g57
(g78
g59
NtRp1590
(dp1591
g62
(dp1592
sg71
g1586
sg64
(lp1593
g57
(g58
g59
NtRp1594
(dp1595
g62
(dp1596
g70
I3
ssg71
g1590
sg64
(lp1597
S'stable'
p1598
asbasbasbasbasbasbasbag57
(g73
g59
NtRp1599
(dp1600
g62
(dp1601
sg71
g873
sg64
(lp1602
g57
(g78
g59
NtRp1603
(dp1604
g62
(dp1605
g82
g83
ssg71
g1599
sg64
(lp1606
S'wsgi_errors'
p1607
asbag57
(g78
g59
NtRp1608
(dp1609
g62
(dp1610
g89
g90
ssg71
g1599
sg64
(lp1611
S':'
asbag57
(g78
g59
NtRp1612
(dp1613
g62
(dp1614
sg71
g1599
sg64
(lp1615
g57
(g58
g59
NtRp1616
(dp1617
g62
(dp1618
g70
I4
ssg71
g1612
sg64
(lp1619
S"<open file '<stderr>', mode 'w' at 0x7fb48f9e6270>"
p1620
asbasbasbag57
(g73
g59
NtRp1621
(dp1622
g62
(dp1623
sg71
g873
sg64
(lp1624
g57
(g78
g59
NtRp1625
(dp1626
g62
(dp1627
g82
g83
ssg71
g1621
sg64
(lp1628
S'wsgi_file_wrapper'
p1629
asbag57
(g78
g59
NtRp1630
(dp1631
g62
(dp1632
g89
g90
ssg71
g1621
sg64
(lp1633
S':'
asbag57
(g78
g59
NtRp1634
(dp1635
g62
(dp1636
sg71
g1621
sg64
(lp1637
g57
(g58
g59
NtRp1638
(dp1639
g62
(dp1640
g70
I4
ssg71
g1634
sg64
(lp1641
S'<class wsgiref.util.FileWrapper at 0x2f52328>'
p1642
asbasbasbag57
(g73
g59
NtRp1643
(dp1644
g62
(dp1645
sg71
g873
sg64
(lp1646
g57
(g78
g59
NtRp1647
(dp1648
g62
(dp1649
g82
g83
ssg71
g1643
sg64
(lp1650
S'wsgi_input'
p1651
asbag57
(g78
g59
NtRp1652
(dp1653
g62
(dp1654
g89
g90
ssg71
g1643
sg64
(lp1655
S':'
asbag57
(g78
g59
NtRp1656
(dp1657
g62
(dp1658
sg71
g1643
sg64
(lp1659
g57
(g58
g59
NtRp1660
(dp1661
g62
(dp1662
g70
I4
ssg71
g1656
sg64
(lp1663
S'<socket._fileobject object at 0x7fb4404909d0>'
p1664
asbasbasbag57
(g73
g59
NtRp1665
(dp1666
g62
(dp1667
sg71
g873
sg64
(lp1668
g57
(g78
g59
NtRp1669
(dp1670
g62
(dp1671
g82
g83
ssg71
g1665
sg64
(lp1672
S'wsgi_multiprocess'
p1673
asbag57
(g78
g59
NtRp1674
(dp1675
g62
(dp1676
g89
g90
ssg71
g1665
sg64
(lp1677
S':'
asbag57
(g78
g59
NtRp1678
(dp1679
g62
(dp1680
sg71
g1665
sg64
(lp1681
g57
(g58
g59
NtRp1682
(dp1683
g62
(dp1684
g70
I4
ssg71
g1678
sg64
(lp1685
g100
asbasbasbag57
(g73
g59
NtRp1686
(dp1687
g62
(dp1688
sg71
g873
sg64
(lp1689
g57
(g78
g59
NtRp1690
(dp1691
g62
(dp1692
g82
g83
ssg71
g1686
sg64
(lp1693
S'wsgi_multithread'
p1694
asbag57
(g78
g59
NtRp1695
(dp1696
g62
(dp1697
g89
g90
ssg71
g1686
sg64
(lp1698
S':'
asbag57
(g78
g59
NtRp1699
(dp1700
g62
(dp1701
sg71
g1686
sg64
(lp1702
g57
(g58
g59
NtRp1703
(dp1704
g62
(dp1705
g70
I4
ssg71
g1699
sg64
(lp1706
S'True'
p1707
asbasbasbag57
(g73
g59
NtRp1708
(dp1709
g62
(dp1710
sg71
g873
sg64
(lp1711
g57
(g78
g59
NtRp1712
(dp1713
g62
(dp1714
g82
g83
ssg71
g1708
sg64
(lp1715
S'wsgi_run_once'
p1716
asbag57
(g78
g59
NtRp1717
(dp1718
g62
(dp1719
g89
g90
ssg71
g1708
sg64
(lp1720
S':'
asbag57
(g78
g59
NtRp1721
(dp1722
g62
(dp1723
sg71
g1708
sg64
(lp1724
g57
(g58
g59
NtRp1725
(dp1726
g62
(dp1727
g70
I4
ssg71
g1721
sg64
(lp1728
g100
asbasbasbag57
(g73
g59
NtRp1729
(dp1730
g62
(dp1731
sg71
g873
sg64
(lp1732
g57
(g78
g59
NtRp1733
(dp1734
g62
(dp1735
g82
g83
ssg71
g1729
sg64
(lp1736
S'wsgi_url_scheme'
p1737
asbag57
(g78
g59
NtRp1738
(dp1739
g62
(dp1740
g89
g90
ssg71
g1729
sg64
(lp1741
S':'
asbag57
(g78
g59
NtRp1742
(dp1743
g62
(dp1744
sg71
g1729
sg64
(lp1745
g57
(g58
g59
NtRp1746
(dp1747
g62
(dp1748
g70
I4
ssg71
g1742
sg64
(lp1749
S'http'
p1750
asbasbasbag57
(g73
g59
NtRp1751
(dp1752
g62
(dp1753
sg71
g873
sg64
(lp1754
g57
(g78
g59
NtRp1755
(dp1756
g62
(dp1757
g82
g83
ssg71
g1751
sg64
(lp1758
S'wsgi_version'
p1759
asbag57
(g78
g59
NtRp1760
(dp1761
g62
(dp1762
g89
g90
ssg71
g1751
sg64
(lp1763
S':'
asbag57
(g78
g59
NtRp1764
(dp1765
g62
(dp1766
sg71
g1751
sg64
(lp1767
g57
(g58
g59
NtRp1768
(dp1769
g62
(dp1770
g70
I4
ssg71
g1764
sg64
(lp1771
g57
(g66
g59
NtRp1772
(dp1773
g62
(dp1774
g70
I3
ssg71
Nsg64
(lp1775
g57
(g73
g59
NtRp1776
(dp1777
g62
(dp1778
sg71
g1772
sg64
(lp1779
g57
(g78
g59
NtRp1780
(dp1781
g62
(dp1782
sg71
g1776
sg64
(lp1783
g57
(g58
g59
NtRp1784
(dp1785
g62
(dp1786
g70
I3
ssg71
g1780
sg64
(lp1787
S'1'
asbasbasbag57
(g73
g59
NtRp1788
(dp1789
g62
(dp1790
sg71
g1772
sg64
(lp1791
g57
(g78
g59
NtRp1792
(dp1793
g62
(dp1794
sg71
g1788
sg64
(lp1795
g57
(g58
g59
NtRp1796
(dp1797
g62
(dp1798
g70
I3
ssg71
g1792
sg64
(lp1799
S'0'
asbasbasbasbasbasbasbasbasbasbasbag57
(g73
g59
NtRp1800
(dp1801
g62
(dp1802
sg71
g67
sg64
(lp1803
g57
(g78
g59
NtRp1804
(dp1805
g62
(dp1806
g82
g83
ssg71
g1800
sg64
(lp1807
S'extension'
p1808
asbag57
(g78
g59
NtRp1809
(dp1810
g62
(dp1811
g89
g90
ssg71
g1800
sg64
(lp1812
S':'
asbag57
(g78
g59
NtRp1813
(dp1814
g62
(dp1815
sg71
g1800
sg64
(lp1816
g57
(g58
g59
NtRp1817
(dp1818
g62
(dp1819
g70
I5
ssg71
g1813
sg64
(lp1820
S'html'
p1821
asbasbasbag57
(g73
g59
NtRp1822
(dp1823
g62
(dp1824
sg71
g67
sg64
(lp1825
g57
(g78
g59
NtRp1826
(dp1827
g62
(dp1828
g82
g83
ssg71
g1822
sg64
(lp1829
S'folder'
p1830
asbag57
(g78
g59
NtRp1831
(dp1832
g62
(dp1833
g89
g90
ssg71
g1822
sg64
(lp1834
S':'
asbag57
(g78
g59
NtRp1835
(dp1836
g62
(dp1837
sg71
g1822
sg64
(lp1838
g57
(g58
g59
NtRp1839
(dp1840
g62
(dp1841
g70
I5
ssg71
g1835
sg64
(lp1842
S'/home/jigar/web2py/applications/app1/'
p1843
asbasbasbag57
(g73
g59
NtRp1844
(dp1845
g62
(dp1846
sg71
g67
sg64
(lp1847
g57
(g78
g59
NtRp1848
(dp1849
g62
(dp1850
g82
g83
ssg71
g1844
sg64
(lp1851
S'function'
p1852
asbag57
(g78
g59
NtRp1853
(dp1854
g62
(dp1855
g89
g90
ssg71
g1844
sg64
(lp1856
S':'
asbag57
(g78
g59
NtRp1857
(dp1858
g62
(dp1859
sg71
g1844
sg64
(lp1860
g57
(g58
g59
NtRp1861
(dp1862
g62
(dp1863
g70
I5
ssg71
g1857
sg64
(lp1864
S'showcomments'
p1865
asbasbasbag57
(g73
g59
NtRp1866
(dp1867
g62
(dp1868
sg71
g67
sg64
(lp1869
g57
(g78
g59
NtRp1870
(dp1871
g62
(dp1872
g82
g83
ssg71
g1866
sg64
(lp1873
S'get_vars'
p1874
asbag57
(g78
g59
NtRp1875
(dp1876
g62
(dp1877
g89
g90
ssg71
g1866
sg64
(lp1878
S':'
asbag57
(g78
g59
NtRp1879
(dp1880
g62
(dp1881
sg71
g1866
sg64
(lp1882
g57
(g58
g59
NtRp1883
(dp1884
g62
(dp1885
g70
I5
ssg71
g1879
sg64
(lp1886
g57
(g66
g59
NtRp1887
(dp1888
g62
(dp1889
g70
I4
ssg71
Nsg64
(lp1890
sbasbasbasbag57
(g73
g59
NtRp1891
(dp1892
g62
(dp1893
sg71
g67
sg64
(lp1894
g57
(g78
g59
NtRp1895
(dp1896
g62
(dp1897
g82
g83
ssg71
g1891
sg64
(lp1898
S'global_settings'
p1899
asbag57
(g78
g59
NtRp1900
(dp1901
g62
(dp1902
g89
g90
ssg71
g1891
sg64
(lp1903
S':'
asbag57
(g78
g59
NtRp1904
(dp1905
g62
(dp1906
sg71
g1891
sg64
(lp1907
g57
(g58
g59
NtRp1908
(dp1909
g62
(dp1910
g70
I5
ssg71
g1904
sg64
(lp1911
g57
(g66
g59
NtRp1912
(dp1913
g62
(dp1914
g70
I4
ssg71
Nsg64
(lp1915
g57
(g73
g59
NtRp1916
(dp1917
g62
(dp1918
sg71
g1912
sg64
(lp1919
g57
(g78
g59
NtRp1920
(dp1921
g62
(dp1922
g82
g83
ssg71
g1916
sg64
(lp1923
g885
asbag57
(g78
g59
NtRp1924
(dp1925
g62
(dp1926
g89
g90
ssg71
g1916
sg64
(lp1927
S':'
asbag57
(g78
g59
NtRp1928
(dp1929
g62
(dp1930
sg71
g1916
sg64
(lp1931
g57
(g58
g59
NtRp1932
(dp1933
g62
(dp1934
g70
I4
ssg71
g1928
sg64
(lp1935
S"set(['/home/jigar/web2py/applications/welcome/', '/home/jigar/web2py/applications/admin/', '/home/jigar/web2py/applications/app1/'])"
p1936
asbasbasbag57
(g73
g59
NtRp1937
(dp1938
g62
(dp1939
sg71
g1912
sg64
(lp1940
g57
(g78
g59
NtRp1941
(dp1942
g62
(dp1943
g82
g83
ssg71
g1937
sg64
(lp1944
g907
asbag57
(g78
g59
NtRp1945
(dp1946
g62
(dp1947
g89
g90
ssg71
g1937
sg64
(lp1948
S':'
asbag57
(g78
g59
NtRp1949
(dp1950
g62
(dp1951
sg71
g1937
sg64
(lp1952
g57
(g58
g59
NtRp1953
(dp1954
g62
(dp1955
g70
I4
ssg71
g1949
sg64
(lp1956
g920
asbasbasbag57
(g73
g59
NtRp1957
(dp1958
g62
(dp1959
sg71
g1912
sg64
(lp1960
g57
(g78
g59
NtRp1961
(dp1962
g62
(dp1963
g82
g83
ssg71
g1957
sg64
(lp1964
g929
asbag57
(g78
g59
NtRp1965
(dp1966
g62
(dp1967
g89
g90
ssg71
g1957
sg64
(lp1968
S':'
asbag57
(g78
g59
NtRp1969
(dp1970
g62
(dp1971
sg71
g1957
sg64
(lp1972
g57
(g58
g59
NtRp1973
(dp1974
g62
(dp1975
g70
I4
ssg71
g1969
sg64
(lp1976
g57
(g66
g59
NtRp1977
(dp1978
g62
(dp1979
g70
I3
ssg71
Nsg64
(lp1980
sbasbasbasbag57
(g73
g59
NtRp1981
(dp1982
g62
(dp1983
sg71
g1912
sg64
(lp1984
g57
(g78
g59
NtRp1985
(dp1986
g62
(dp1987
g82
g83
ssg71
g1981
sg64
(lp1988
g954
asbag57
(g78
g59
NtRp1989
(dp1990
g62
(dp1991
g89
g90
ssg71
g1981
sg64
(lp1992
S':'
asbag57
(g78
g59
NtRp1993
(dp1994
g62
(dp1995
sg71
g1981
sg64
(lp1996
g57
(g58
g59
NtRp1997
(dp1998
g62
(dp1999
g70
I4
ssg71
g1993
sg64
(lp2000
S"<Values at 0x2fd1c20: {'verbose': False, 'ip': '127.0.0.1', 'shutdown_timeout': 5, 'taskbar': False, 'port': 8000, 'maxthreads': None, 'softcron': False, 'server_name': 'jigar-Lenovo-Z580', 'bpython': False, 'nogui': False, 'nocron': False, 'extcron': False, 'debuglevel': 30, 'test': None, 'folder': '/home/jigar/web2py', 'config': '', 'import_models': False, 'winservice': '', 'shell': None, 'run': '', 'log_filename': 'httpserver.log', 'args': [''], 'socket_timeout': 1, 'profiler_filename': None, 'ssl_private_key': '', 'password': '<ask>', 'request_queue_size': 5, 'ssl_certificate': '', 'cronjob': False, 'plain': False, 'quiet': False, 'interfaces': None, 'minthreads': None, 'timeout': 10, 'numthreads': None, 'nobanner': False, 'pid_filename': 'httpserver.pid'}>"
p2001
asbasbasbag57
(g73
g59
NtRp2002
(dp2003
g62
(dp2004
sg71
g1912
sg64
(lp2005
g57
(g78
g59
NtRp2006
(dp2007
g62
(dp2008
g82
g83
ssg71
g2002
sg64
(lp2009
g976
asbag57
(g78
g59
NtRp2010
(dp2011
g62
(dp2012
g89
g90
ssg71
g2002
sg64
(lp2013
S':'
asbag57
(g78
g59
NtRp2014
(dp2015
g62
(dp2016
sg71
g2002
sg64
(lp2017
g57
(g58
g59
NtRp2018
(dp2019
g62
(dp2020
g70
I4
ssg71
g2014
sg64
(lp2021
S'set([])'
p2022
asbasbasbag57
(g73
g59
NtRp2023
(dp2024
g62
(dp2025
sg71
g1912
sg64
(lp2026
g57
(g78
g59
NtRp2027
(dp2028
g62
(dp2029
g82
g83
ssg71
g2023
sg64
(lp2030
g998
asbag57
(g78
g59
NtRp2031
(dp2032
g62
(dp2033
g89
g90
ssg71
g2023
sg64
(lp2034
S':'
asbag57
(g78
g59
NtRp2035
(dp2036
g62
(dp2037
sg71
g2023
sg64
(lp2038
g57
(g58
g59
NtRp2039
(dp2040
g62
(dp2041
g70
I4
ssg71
g2035
sg64
(lp2042
g100
asbasbasbag57
(g73
g59
NtRp2043
(dp2044
g62
(dp2045
sg71
g1912
sg64
(lp2046
g57
(g78
g59
NtRp2047
(dp2048
g62
(dp2049
g82
g83
ssg71
g2043
sg64
(lp2050
g1019
asbag57
(g78
g59
NtRp2051
(dp2052
g62
(dp2053
g89
g90
ssg71
g2043
sg64
(lp2054
S':'
asbag57
(g78
g59
NtRp2055
(dp2056
g62
(dp2057
sg71
g2043
sg64
(lp2058
g57
(g58
g59
NtRp2059
(dp2060
g62
(dp2061
g70
I4
ssg71
g2055
sg64
(lp2062
g1032
asbasbasbag57
(g73
g59
NtRp2063
(dp2064
g62
(dp2065
sg71
g1912
sg64
(lp2066
g57
(g78
g59
NtRp2067
(dp2068
g62
(dp2069
g82
g83
ssg71
g2063
sg64
(lp2070
g1217
asbag57
(g78
g59
NtRp2071
(dp2072
g62
(dp2073
g89
g90
ssg71
g2063
sg64
(lp2074
S':'
asbag57
(g78
g59
NtRp2075
(dp2076
g62
(dp2077
sg71
g2063
sg64
(lp2078
g57
(g58
g59
NtRp2079
(dp2080
g62
(dp2081
g70
I4
ssg71
g2075
sg64
(lp2082
g100
asbasbasbag57
(g73
g59
NtRp2083
(dp2084
g62
(dp2085
sg71
g1912
sg64
(lp2086
g57
(g78
g59
NtRp2087
(dp2088
g62
(dp2089
g82
g83
ssg71
g2083
sg64
(lp2090
g1238
asbag57
(g78
g59
NtRp2091
(dp2092
g62
(dp2093
g89
g90
ssg71
g2083
sg64
(lp2094
S':'
asbag57
(g78
g59
NtRp2095
(dp2096
g62
(dp2097
sg71
g2083
sg64
(lp2098
g57
(g58
g59
NtRp2099
(dp2100
g62
(dp2101
g70
I4
ssg71
g2095
sg64
(lp2102
g100
asbasbasbag57
(g73
g59
NtRp2103
(dp2104
g62
(dp2105
sg71
g1912
sg64
(lp2106
g57
(g78
g59
NtRp2107
(dp2108
g62
(dp2109
g82
g83
ssg71
g2103
sg64
(lp2110
g1476
asbag57
(g78
g59
NtRp2111
(dp2112
g62
(dp2113
g89
g90
ssg71
g2103
sg64
(lp2114
S':'
asbag57
(g78
g59
NtRp2115
(dp2116
g62
(dp2117
sg71
g2103
sg64
(lp2118
g57
(g58
g59
NtRp2119
(dp2120
g62
(dp2121
g70
I4
ssg71
g2115
sg64
(lp2122
g1489
asbasbasbag57
(g73
g59
NtRp2123
(dp2124
g62
(dp2125
sg71
g1912
sg64
(lp2126
g57
(g78
g59
NtRp2127
(dp2128
g62
(dp2129
g82
g83
ssg71
g2123
sg64
(lp2130
g1519
asbag57
(g78
g59
NtRp2131
(dp2132
g62
(dp2133
g89
g90
ssg71
g2123
sg64
(lp2134
S':'
asbag57
(g78
g59
NtRp2135
(dp2136
g62
(dp2137
sg71
g2123
sg64
(lp2138
g57
(g58
g59
NtRp2139
(dp2140
g62
(dp2141
g70
I4
ssg71
g2135
sg64
(lp2142
g57
(g66
g59
NtRp2143
(dp2144
g62
(dp2145
g70
I3
ssg71
Nsg64
(lp2146
g57
(g73
g59
NtRp2147
(dp2148
g62
(dp2149
sg71
g2143
sg64
(lp2150
g57
(g78
g59
NtRp2151
(dp2152
g62
(dp2153
sg71
g2147
sg64
(lp2154
g57
(g58
g59
NtRp2155
(dp2156
g62
(dp2157
g70
I3
ssg71
g2151
sg64
(lp2158
S'1'
asbasbasbag57
(g73
g59
NtRp2159
(dp2160
g62
(dp2161
sg71
g2143
sg64
(lp2162
g57
(g78
g59
NtRp2163
(dp2164
g62
(dp2165
sg71
g2159
sg64
(lp2166
g57
(g58
g59
NtRp2167
(dp2168
g62
(dp2169
g70
I3
ssg71
g2163
sg64
(lp2170
S'99'
p2171
asbasbasbag57
(g73
g59
NtRp2172
(dp2173
g62
(dp2174
sg71
g2143
sg64
(lp2175
g57
(g78
g59
NtRp2176
(dp2177
g62
(dp2178
sg71
g2172
sg64
(lp2179
g57
(g58
g59
NtRp2180
(dp2181
g62
(dp2182
g70
I3
ssg71
g2176
sg64
(lp2183
S'4'
asbasbasbag57
(g73
g59
NtRp2184
(dp2185
g62
(dp2186
sg71
g2143
sg64
(lp2187
g57
(g78
g59
NtRp2188
(dp2189
g62
(dp2190
sg71
g2184
sg64
(lp2191
g57
(g58
g59
NtRp2192
(dp2193
g62
(dp2194
g70
I3
ssg71
g2188
sg64
(lp2195
S'datetime.datetime(2011, 12, 14, 14, 46, 14)'
p2196
asbasbasbag57
(g73
g59
NtRp2197
(dp2198
g62
(dp2199
sg71
g2143
sg64
(lp2200
g57
(g78
g59
NtRp2201
(dp2202
g62
(dp2203
sg71
g2197
sg64
(lp2204
g57
(g58
g59
NtRp2205
(dp2206
g62
(dp2207
g70
I3
ssg71
g2201
sg64
(lp2208
g1598
asbasbasbasbasbasbasbasbasbasbasbag57
(g73
g59
NtRp2209
(dp2210
g62
(dp2211
sg71
g67
sg64
(lp2212
g57
(g78
g59
NtRp2213
(dp2214
g62
(dp2215
g82
g83
ssg71
g2209
sg64
(lp2216
S'is_https'
p2217
asbag57
(g78
g59
NtRp2218
(dp2219
g62
(dp2220
g89
g90
ssg71
g2209
sg64
(lp2221
S':'
asbag57
(g78
g59
NtRp2222
(dp2223
g62
(dp2224
sg71
g2209
sg64
(lp2225
g57
(g58
g59
NtRp2226
(dp2227
g62
(dp2228
g70
I5
ssg71
g2222
sg64
(lp2229
g100
asbasbasbag57
(g73
g59
NtRp2230
(dp2231
g62
(dp2232
sg71
g67
sg64
(lp2233
g57
(g78
g59
NtRp2234
(dp2235
g62
(dp2236
g82
g83
ssg71
g2230
sg64
(lp2237
S'is_local'
p2238
asbag57
(g78
g59
NtRp2239
(dp2240
g62
(dp2241
g89
g90
ssg71
g2230
sg64
(lp2242
S':'
asbag57
(g78
g59
NtRp2243
(dp2244
g62
(dp2245
sg71
g2230
sg64
(lp2246
g57
(g58
g59
NtRp2247
(dp2248
g62
(dp2249
g70
I5
ssg71
g2243
sg64
(lp2250
g1707
asbasbasbag57
(g73
g59
NtRp2251
(dp2252
g62
(dp2253
sg71
g67
sg64
(lp2254
g57
(g78
g59
NtRp2255
(dp2256
g62
(dp2257
g82
g83
ssg71
g2251
sg64
(lp2258
S'is_restful'
p2259
asbag57
(g78
g59
NtRp2260
(dp2261
g62
(dp2262
g89
g90
ssg71
g2251
sg64
(lp2263
S':'
asbag57
(g78
g59
NtRp2264
(dp2265
g62
(dp2266
sg71
g2251
sg64
(lp2267
g57
(g58
g59
NtRp2268
(dp2269
g62
(dp2270
g70
I5
ssg71
g2264
sg64
(lp2271
g100
asbasbasbag57
(g73
g59
NtRp2272
(dp2273
g62
(dp2274
sg71
g67
sg64
(lp2275
g57
(g78
g59
NtRp2276
(dp2277
g62
(dp2278
g82
g83
ssg71
g2272
sg64
(lp2279
S'now'
p2280
asbag57
(g78
g59
NtRp2281
(dp2282
g62
(dp2283
g89
g90
ssg71
g2272
sg64
(lp2284
S':'
asbag57
(g78
g59
NtRp2285
(dp2286
g62
(dp2287
sg71
g2272
sg64
(lp2288
g57
(g58
g59
NtRp2289
(dp2290
g62
(dp2291
g70
I5
ssg71
g2285
sg64
(lp2292
S'datetime.datetime(2013, 9, 2, 0, 11, 30, 471356)'
p2293
asbasbasbag57
(g73
g59
NtRp2294
(dp2295
g62
(dp2296
sg71
g67
sg64
(lp2297
g57
(g78
g59
NtRp2298
(dp2299
g62
(dp2300
g82
g83
ssg71
g2294
sg64
(lp2301
S'post_vars'
p2302
asbag57
(g78
g59
NtRp2303
(dp2304
g62
(dp2305
g89
g90
ssg71
g2294
sg64
(lp2306
S':'
asbag57
(g78
g59
NtRp2307
(dp2308
g62
(dp2309
sg71
g2294
sg64
(lp2310
g57
(g58
g59
NtRp2311
(dp2312
g62
(dp2313
g70
I5
ssg71
g2307
sg64
(lp2314
g57
(g66
g59
NtRp2315
(dp2316
g62
(dp2317
g70
I4
ssg71
Nsg64
(lp2318
sbasbasbasbag57
(g73
g59
NtRp2319
(dp2320
g62
(dp2321
sg71
g67
sg64
(lp2322
g57
(g78
g59
NtRp2323
(dp2324
g62
(dp2325
g82
g83
ssg71
g2319
sg64
(lp2326
S'raw_args'
p2327
asbag57
(g78
g59
NtRp2328
(dp2329
g62
(dp2330
g89
g90
ssg71
g2319
sg64
(lp2331
S':'
asbag57
(g78
g59
NtRp2332
(dp2333
g62
(dp2334
sg71
g2319
sg64
(lp2335
g57
(g58
g59
NtRp2336
(dp2337
g62
(dp2338
g70
I5
ssg71
g2332
sg64
(lp2339
S'app1/default/addcomment/8'
p2340
asbasbasbag57
(g73
g59
NtRp2341
(dp2342
g62
(dp2343
sg71
g67
sg64
(lp2344
g57
(g78
g59
NtRp2345
(dp2346
g62
(dp2347
g82
g83
ssg71
g2341
sg64
(lp2348
S'url'
p2349
asbag57
(g78
g59
NtRp2350
(dp2351
g62
(dp2352
g89
g90
ssg71
g2341
sg64
(lp2353
S':'
asbag57
(g78
g59
NtRp2354
(dp2355
g62
(dp2356
sg71
g2341
sg64
(lp2357
g57
(g58
g59
NtRp2358
(dp2359
g62
(dp2360
g70
I5
ssg71
g2354
sg64
(lp2361
S'/app1/default/showcomments/app1/default/addcomment/8'
p2362
asbasbasbag57
(g73
g59
NtRp2363
(dp2364
g62
(dp2365
sg71
g67
sg64
(lp2366
g57
(g78
g59
NtRp2367
(dp2368
g62
(dp2369
g82
g83
ssg71
g2363
sg64
(lp2370
S'utcnow'
p2371
asbag57
(g78
g59
NtRp2372
(dp2373
g62
(dp2374
g89
g90
ssg71
g2363
sg64
(lp2375
S':'
asbag57
(g78
g59
NtRp2376
(dp2377
g62
(dp2378
sg71
g2363
sg64
(lp2379
g57
(g58
g59
NtRp2380
(dp2381
g62
(dp2382
g70
I5
ssg71
g2376
sg64
(lp2383
S'datetime.datetime(2013, 9, 1, 18, 41, 30, 471412)'
p2384
asbasbasbag57
(g73
g59
NtRp2385
(dp2386
g62
(dp2387
sg71
g67
sg64
(lp2388
g57
(g78
g59
NtRp2389
(dp2390
g62
(dp2391
g82
g83
ssg71
g2385
sg64
(lp2392
S'uuid'
p2393
asbag57
(g78
g59
NtRp2394
(dp2395
g62
(dp2396
g89
g90
ssg71
g2385
sg64
(lp2397
S':'
asbag57
(g78
g59
NtRp2398
(dp2399
g62
(dp2400
sg71
g2385
sg64
(lp2401
g57
(g58
g59
NtRp2402
(dp2403
g62
(dp2404
g70
I5
ssg71
g2398
sg64
(lp2405
S'app1/127.0.0.1.2013-09-02.00-11-30.3e2e488b-1dd1-44f7-8008-b82ff35a0c02'
p2406
asbasbasbag57
(g73
g59
NtRp2407
(dp2408
g62
(dp2409
sg71
g67
sg64
(lp2410
g57
(g78
g59
NtRp2411
(dp2412
g62
(dp2413
g82
g83
ssg71
g2407
sg64
(lp2414
S'vars'
p2415
asbag57
(g78
g59
NtRp2416
(dp2417
g62
(dp2418
g89
g90
ssg71
g2407
sg64
(lp2419
S':'
asbag57
(g78
g59
NtRp2420
(dp2421
g62
(dp2422
sg71
g2407
sg64
(lp2423
g57
(g58
g59
NtRp2424
(dp2425
g62
(dp2426
g70
I5
ssg71
g2420
sg64
(lp2427
g57
(g66
g59
NtRp2428
(dp2429
g62
(dp2430
g70
I4
ssg71
Nsg64
(lp2431
sbasbasbasbag57
(g73
g59
NtRp2432
(dp2433
g62
(dp2434
sg71
g67
sg64
(lp2435
g57
(g78
g59
NtRp2436
(dp2437
g62
(dp2438
g82
g83
ssg71
g2432
sg64
(lp2439
S'wsgi'
p2440
asbag57
(g78
g59
NtRp2441
(dp2442
g62
(dp2443
g89
g90
ssg71
g2432
sg64
(lp2444
S':'
asbag57
(g78
g59
NtRp2445
(dp2446
g62
(dp2447
sg71
g2432
sg64
(lp2448
g57
(g58
g59
NtRp2449
(dp2450
g62
(dp2451
g70
I5
ssg71
g2445
sg64
(lp2452
g57
(g66
g59
NtRp2453
(dp2454
g62
(dp2455
g70
I4
ssg71
Nsg64
(lp2456
g57
(g73
g59
NtRp2457
(dp2458
g62
(dp2459
sg71
g2453
sg64
(lp2460
g57
(g78
g59
NtRp2461
(dp2462
g62
(dp2463
g82
g83
ssg71
g2457
sg64
(lp2464
S'environ'
p2465
asbag57
(g78
g59
NtRp2466
(dp2467
g62
(dp2468
g89
g90
ssg71
g2457
sg64
(lp2469
S':'
asbag57
(g78
g59
NtRp2470
(dp2471
g62
(dp2472
sg71
g2457
sg64
(lp2473
g57
(g58
g59
NtRp2474
(dp2475
g62
(dp2476
g70
I4
ssg71
g2470
sg64
(lp2477
g57
(g66
g59
NtRp2478
(dp2479
g62
(dp2480
g70
I3
ssg71
Nsg64
(lp2481
g57
(g73
g59
NtRp2482
(dp2483
g62
(dp2484
sg71
g2478
sg64
(lp2485
g57
(g78
g59
NtRp2486
(dp2487
g62
(dp2488
g82
g83
ssg71
g2482
sg64
(lp2489
S'HTTP_ACCEPT'
p2490
asbag57
(g78
g59
NtRp2491
(dp2492
g62
(dp2493
g89
g90
ssg71
g2482
sg64
(lp2494
S':'
asbag57
(g78
g59
NtRp2495
(dp2496
g62
(dp2497
sg71
g2482
sg64
(lp2498
g57
(g58
g59
NtRp2499
(dp2500
g62
(dp2501
g70
I3
ssg71
g2495
sg64
(lp2502
g1054
asbasbasbag57
(g73
g59
NtRp2503
(dp2504
g62
(dp2505
sg71
g2478
sg64
(lp2506
g57
(g78
g59
NtRp2507
(dp2508
g62
(dp2509
g82
g83
ssg71
g2503
sg64
(lp2510
S'HTTP_ACCEPT_ENCODING'
p2511
asbag57
(g78
g59
NtRp2512
(dp2513
g62
(dp2514
g89
g90
ssg71
g2503
sg64
(lp2515
S':'
asbag57
(g78
g59
NtRp2516
(dp2517
g62
(dp2518
sg71
g2503
sg64
(lp2519
g57
(g58
g59
NtRp2520
(dp2521
g62
(dp2522
g70
I3
ssg71
g2516
sg64
(lp2523
g1076
asbasbasbag57
(g73
g59
NtRp2524
(dp2525
g62
(dp2526
sg71
g2478
sg64
(lp2527
g57
(g78
g59
NtRp2528
(dp2529
g62
(dp2530
g82
g83
ssg71
g2524
sg64
(lp2531
S'HTTP_ACCEPT_LANGUAGE'
p2532
asbag57
(g78
g59
NtRp2533
(dp2534
g62
(dp2535
g89
g90
ssg71
g2524
sg64
(lp2536
S':'
asbag57
(g78
g59
NtRp2537
(dp2538
g62
(dp2539
sg71
g2524
sg64
(lp2540
g57
(g58
g59
NtRp2541
(dp2542
g62
(dp2543
g70
I3
ssg71
g2537
sg64
(lp2544
g1098
asbasbasbag57
(g73
g59
NtRp2545
(dp2546
g62
(dp2547
sg71
g2478
sg64
(lp2548
g57
(g78
g59
NtRp2549
(dp2550
g62
(dp2551
g82
g83
ssg71
g2545
sg64
(lp2552
S'HTTP_CONNECTION'
p2553
asbag57
(g78
g59
NtRp2554
(dp2555
g62
(dp2556
g89
g90
ssg71
g2545
sg64
(lp2557
S':'
asbag57
(g78
g59
NtRp2558
(dp2559
g62
(dp2560
sg71
g2545
sg64
(lp2561
g57
(g58
g59
NtRp2562
(dp2563
g62
(dp2564
g70
I3
ssg71
g2558
sg64
(lp2565
g1120
asbasbasbag57
(g73
g59
NtRp2566
(dp2567
g62
(dp2568
sg71
g2478
sg64
(lp2569
g57
(g78
g59
NtRp2570
(dp2571
g62
(dp2572
g82
g83
ssg71
g2566
sg64
(lp2573
S'HTTP_COOKIE'
p2574
asbag57
(g78
g59
NtRp2575
(dp2576
g62
(dp2577
g89
g90
ssg71
g2566
sg64
(lp2578
S':'
asbag57
(g78
g59
NtRp2579
(dp2580
g62
(dp2581
sg71
g2566
sg64
(lp2582
g57
(g58
g59
NtRp2583
(dp2584
g62
(dp2585
g70
I3
ssg71
g2579
sg64
(lp2586
g1142
asbasbasbag57
(g73
g59
NtRp2587
(dp2588
g62
(dp2589
sg71
g2478
sg64
(lp2590
g57
(g78
g59
NtRp2591
(dp2592
g62
(dp2593
g82
g83
ssg71
g2587
sg64
(lp2594
S'HTTP_HOST'
p2595
asbag57
(g78
g59
NtRp2596
(dp2597
g62
(dp2598
g89
g90
ssg71
g2587
sg64
(lp2599
S':'
asbag57
(g78
g59
NtRp2600
(dp2601
g62
(dp2602
sg71
g2587
sg64
(lp2603
g57
(g58
g59
NtRp2604
(dp2605
g62
(dp2606
g70
I3
ssg71
g2600
sg64
(lp2607
g1164
asbasbasbag57
(g73
g59
NtRp2608
(dp2609
g62
(dp2610
sg71
g2478
sg64
(lp2611
g57
(g78
g59
NtRp2612
(dp2613
g62
(dp2614
g82
g83
ssg71
g2608
sg64
(lp2615
S'HTTP_REFERER'
p2616
asbag57
(g78
g59
NtRp2617
(dp2618
g62
(dp2619
g89
g90
ssg71
g2608
sg64
(lp2620
S':'
asbag57
(g78
g59
NtRp2621
(dp2622
g62
(dp2623
sg71
g2608
sg64
(lp2624
g57
(g58
g59
NtRp2625
(dp2626
g62
(dp2627
g70
I3
ssg71
g2621
sg64
(lp2628
g1186
asbasbasbag57
(g73
g59
NtRp2629
(dp2630
g62
(dp2631
sg71
g2478
sg64
(lp2632
g57
(g78
g59
NtRp2633
(dp2634
g62
(dp2635
g82
g83
ssg71
g2629
sg64
(lp2636
S'HTTP_USER_AGENT'
p2637
asbag57
(g78
g59
NtRp2638
(dp2639
g62
(dp2640
g89
g90
ssg71
g2629
sg64
(lp2641
S':'
asbag57
(g78
g59
NtRp2642
(dp2643
g62
(dp2644
sg71
g2629
sg64
(lp2645
g57
(g58
g59
NtRp2646
(dp2647
g62
(dp2648
g70
I3
ssg71
g2642
sg64
(lp2649
g1208
asbasbasbag57
(g73
g59
NtRp2650
(dp2651
g62
(dp2652
sg71
g2478
sg64
(lp2653
g57
(g78
g59
NtRp2654
(dp2655
g62
(dp2656
g82
g83
ssg71
g2650
sg64
(lp2657
S'PATH_INFO'
p2658
asbag57
(g78
g59
NtRp2659
(dp2660
g62
(dp2661
g89
g90
ssg71
g2650
sg64
(lp2662
S':'
asbag57
(g78
g59
NtRp2663
(dp2664
g62
(dp2665
sg71
g2650
sg64
(lp2666
g57
(g58
g59
NtRp2667
(dp2668
g62
(dp2669
g70
I3
ssg71
g2663
sg64
(lp2670
g1272
asbasbasbag57
(g73
g59
NtRp2671
(dp2672
g62
(dp2673
sg71
g2478
sg64
(lp2674
g57
(g78
g59
NtRp2675
(dp2676
g62
(dp2677
g82
g83
ssg71
g2671
sg64
(lp2678
S'QUERY_STRING'
p2679
asbag57
(g78
g59
NtRp2680
(dp2681
g62
(dp2682
g89
g90
ssg71
g2671
sg64
(lp2683
S':'
asbag57
(g78
g59
NtRp2684
(dp2685
g62
(dp2686
sg71
g2671
sg64
(lp2687
g57
(g58
g59
NtRp2688
(dp2689
g62
(dp2690
g70
I3
ssg71
g2684
sg64
(lp2691
S''
asbasbasbag57
(g73
g59
NtRp2692
(dp2693
g62
(dp2694
sg71
g2478
sg64
(lp2695
g57
(g78
g59
NtRp2696
(dp2697
g62
(dp2698
g82
g83
ssg71
g2692
sg64
(lp2699
S'REMOTE_ADDR'
p2700
asbag57
(g78
g59
NtRp2701
(dp2702
g62
(dp2703
g89
g90
ssg71
g2692
sg64
(lp2704
S':'
asbag57
(g78
g59
NtRp2705
(dp2706
g62
(dp2707
sg71
g2692
sg64
(lp2708
g57
(g58
g59
NtRp2709
(dp2710
g62
(dp2711
g70
I3
ssg71
g2705
sg64
(lp2712
g241
asbasbasbag57
(g73
g59
NtRp2713
(dp2714
g62
(dp2715
sg71
g2478
sg64
(lp2716
g57
(g78
g59
NtRp2717
(dp2718
g62
(dp2719
g82
g83
ssg71
g2713
sg64
(lp2720
S'REMOTE_PORT'
p2721
asbag57
(g78
g59
NtRp2722
(dp2723
g62
(dp2724
g89
g90
ssg71
g2713
sg64
(lp2725
S':'
asbag57
(g78
g59
NtRp2726
(dp2727
g62
(dp2728
sg71
g2713
sg64
(lp2729
g57
(g58
g59
NtRp2730
(dp2731
g62
(dp2732
g70
I3
ssg71
g2726
sg64
(lp2733
g1336
asbasbasbag57
(g73
g59
NtRp2734
(dp2735
g62
(dp2736
sg71
g2478
sg64
(lp2737
g57
(g78
g59
NtRp2738
(dp2739
g62
(dp2740
g82
g83
ssg71
g2734
sg64
(lp2741
S'REQUEST_METHOD'
p2742
asbag57
(g78
g59
NtRp2743
(dp2744
g62
(dp2745
g89
g90
ssg71
g2734
sg64
(lp2746
S':'
asbag57
(g78
g59
NtRp2747
(dp2748
g62
(dp2749
sg71
g2734
sg64
(lp2750
g57
(g58
g59
NtRp2751
(dp2752
g62
(dp2753
g70
I3
ssg71
g2747
sg64
(lp2754
g1358
asbasbasbag57
(g73
g59
NtRp2755
(dp2756
g62
(dp2757
sg71
g2478
sg64
(lp2758
g57
(g78
g59
NtRp2759
(dp2760
g62
(dp2761
g82
g83
ssg71
g2755
sg64
(lp2762
S'SCRIPT_NAME'
p2763
asbag57
(g78
g59
NtRp2764
(dp2765
g62
(dp2766
g89
g90
ssg71
g2755
sg64
(lp2767
S':'
asbag57
(g78
g59
NtRp2768
(dp2769
g62
(dp2770
sg71
g2755
sg64
(lp2771
g57
(g58
g59
NtRp2772
(dp2773
g62
(dp2774
g70
I3
ssg71
g2768
sg64
(lp2775
S''
asbasbasbag57
(g73
g59
NtRp2776
(dp2777
g62
(dp2778
sg71
g2478
sg64
(lp2779
g57
(g78
g59
NtRp2780
(dp2781
g62
(dp2782
g82
g83
ssg71
g2776
sg64
(lp2783
S'SERVER_NAME'
p2784
asbag57
(g78
g59
NtRp2785
(dp2786
g62
(dp2787
g89
g90
ssg71
g2776
sg64
(lp2788
S':'
asbag57
(g78
g59
NtRp2789
(dp2790
g62
(dp2791
sg71
g2776
sg64
(lp2792
g57
(g58
g59
NtRp2793
(dp2794
g62
(dp2795
g70
I3
ssg71
g2789
sg64
(lp2796
g1401
asbasbasbag57
(g73
g59
NtRp2797
(dp2798
g62
(dp2799
sg71
g2478
sg64
(lp2800
g57
(g78
g59
NtRp2801
(dp2802
g62
(dp2803
g82
g83
ssg71
g2797
sg64
(lp2804
S'SERVER_PORT'
p2805
asbag57
(g78
g59
NtRp2806
(dp2807
g62
(dp2808
g89
g90
ssg71
g2797
sg64
(lp2809
S':'
asbag57
(g78
g59
NtRp2810
(dp2811
g62
(dp2812
sg71
g2797
sg64
(lp2813
g57
(g58
g59
NtRp2814
(dp2815
g62
(dp2816
g70
I3
ssg71
g2810
sg64
(lp2817
g1423
asbasbasbag57
(g73
g59
NtRp2818
(dp2819
g62
(dp2820
sg71
g2478
sg64
(lp2821
g57
(g78
g59
NtRp2822
(dp2823
g62
(dp2824
g82
g83
ssg71
g2818
sg64
(lp2825
S'SERVER_PROTOCOL'
p2826
asbag57
(g78
g59
NtRp2827
(dp2828
g62
(dp2829
g89
g90
ssg71
g2818
sg64
(lp2830
S':'
asbag57
(g78
g59
NtRp2831
(dp2832
g62
(dp2833
sg71
g2818
sg64
(lp2834
g57
(g58
g59
NtRp2835
(dp2836
g62
(dp2837
g70
I3
ssg71
g2831
sg64
(lp2838
g1445
asbasbasbag57
(g73
g59
NtRp2839
(dp2840
g62
(dp2841
sg71
g2478
sg64
(lp2842
g57
(g78
g59
NtRp2843
(dp2844
g62
(dp2845
g82
g83
ssg71
g2839
sg64
(lp2846
S'SERVER_SOFTWARE'
p2847
asbag57
(g78
g59
NtRp2848
(dp2849
g62
(dp2850
g89
g90
ssg71
g2839
sg64
(lp2851
S':'
asbag57
(g78
g59
NtRp2852
(dp2853
g62
(dp2854
sg71
g2839
sg64
(lp2855
g57
(g58
g59
NtRp2856
(dp2857
g62
(dp2858
g70
I3
ssg71
g2852
sg64
(lp2859
g1467
asbasbasbag57
(g73
g59
NtRp2860
(dp2861
g62
(dp2862
sg71
g2478
sg64
(lp2863
g57
(g78
g59
NtRp2864
(dp2865
g62
(dp2866
g82
g83
ssg71
g2860
sg64
(lp2867
S'wsgi.errors'
p2868
asbag57
(g78
g59
NtRp2869
(dp2870
g62
(dp2871
g89
g90
ssg71
g2860
sg64
(lp2872
S':'
asbag57
(g78
g59
NtRp2873
(dp2874
g62
(dp2875
sg71
g2860
sg64
(lp2876
g57
(g58
g59
NtRp2877
(dp2878
g62
(dp2879
g70
I3
ssg71
g2873
sg64
(lp2880
S"<open file '<stderr>', mode 'w' at 0x7fb48f9e6270>"
p2881
asbasbasbag57
(g73
g59
NtRp2882
(dp2883
g62
(dp2884
sg71
g2478
sg64
(lp2885
g57
(g78
g59
NtRp2886
(dp2887
g62
(dp2888
g82
g83
ssg71
g2882
sg64
(lp2889
S'wsgi.file_wrapper'
p2890
asbag57
(g78
g59
NtRp2891
(dp2892
g62
(dp2893
g89
g90
ssg71
g2882
sg64
(lp2894
S':'
asbag57
(g78
g59
NtRp2895
(dp2896
g62
(dp2897
sg71
g2882
sg64
(lp2898
g57
(g58
g59
NtRp2899
(dp2900
g62
(dp2901
g70
I3
ssg71
g2895
sg64
(lp2902
S'<class wsgiref.util.FileWrapper at 0x2f52328>'
p2903
asbasbasbag57
(g73
g59
NtRp2904
(dp2905
g62
(dp2906
sg71
g2478
sg64
(lp2907
g57
(g78
g59
NtRp2908
(dp2909
g62
(dp2910
g82
g83
ssg71
g2904
sg64
(lp2911
S'wsgi.input'
p2912
asbag57
(g78
g59
NtRp2913
(dp2914
g62
(dp2915
g89
g90
ssg71
g2904
sg64
(lp2916
S':'
asbag57
(g78
g59
NtRp2917
(dp2918
g62
(dp2919
sg71
g2904
sg64
(lp2920
g57
(g58
g59
NtRp2921
(dp2922
g62
(dp2923
g70
I3
ssg71
g2917
sg64
(lp2924
S'<cStringIO.StringO object at 0x7fb4342d52d0>'
p2925
asbasbasbag57
(g73
g59
NtRp2926
(dp2927
g62
(dp2928
sg71
g2478
sg64
(lp2929
g57
(g78
g59
NtRp2930
(dp2931
g62
(dp2932
g82
g83
ssg71
g2926
sg64
(lp2933
S'wsgi.multiprocess'
p2934
asbag57
(g78
g59
NtRp2935
(dp2936
g62
(dp2937
g89
g90
ssg71
g2926
sg64
(lp2938
S':'
asbag57
(g78
g59
NtRp2939
(dp2940
g62
(dp2941
sg71
g2926
sg64
(lp2942
g57
(g58
g59
NtRp2943
(dp2944
g62
(dp2945
g70
I3
ssg71
g2939
sg64
(lp2946
g100
asbasbasbag57
(g73
g59
NtRp2947
(dp2948
g62
(dp2949
sg71
g2478
sg64
(lp2950
g57
(g78
g59
NtRp2951
(dp2952
g62
(dp2953
g82
g83
ssg71
g2947
sg64
(lp2954
S'wsgi.multithread'
p2955
asbag57
(g78
g59
NtRp2956
(dp2957
g62
(dp2958
g89
g90
ssg71
g2947
sg64
(lp2959
S':'
asbag57
(g78
g59
NtRp2960
(dp2961
g62
(dp2962
sg71
g2947
sg64
(lp2963
g57
(g58
g59
NtRp2964
(dp2965
g62
(dp2966
g70
I3
ssg71
g2960
sg64
(lp2967
g1707
asbasbasbag57
(g73
g59
NtRp2968
(dp2969
g62
(dp2970
sg71
g2478
sg64
(lp2971
g57
(g78
g59
NtRp2972
(dp2973
g62
(dp2974
g82
g83
ssg71
g2968
sg64
(lp2975
S'wsgi.run_once'
p2976
asbag57
(g78
g59
NtRp2977
(dp2978
g62
(dp2979
g89
g90
ssg71
g2968
sg64
(lp2980
S':'
asbag57
(g78
g59
NtRp2981
(dp2982
g62
(dp2983
sg71
g2968
sg64
(lp2984
g57
(g58
g59
NtRp2985
(dp2986
g62
(dp2987
g70
I3
ssg71
g2981
sg64
(lp2988
g100
asbasbasbag57
(g73
g59
NtRp2989
(dp2990
g62
(dp2991
sg71
g2478
sg64
(lp2992
g57
(g78
g59
NtRp2993
(dp2994
g62
(dp2995
g82
g83
ssg71
g2989
sg64
(lp2996
S'wsgi.url_scheme'
p2997
asbag57
(g78
g59
NtRp2998
(dp2999
g62
(dp3000
g89
g90
ssg71
g2989
sg64
(lp3001
S':'
asbag57
(g78
g59
NtRp3002
(dp3003
g62
(dp3004
sg71
g2989
sg64
(lp3005
g57
(g58
g59
NtRp3006
(dp3007
g62
(dp3008
g70
I3
ssg71
g3002
sg64
(lp3009
g1750
asbasbasbag57
(g73
g59
NtRp3010
(dp3011
g62
(dp3012
sg71
g2478
sg64
(lp3013
g57
(g78
g59
NtRp3014
(dp3015
g62
(dp3016
g82
g83
ssg71
g3010
sg64
(lp3017
S'wsgi.version'
p3018
asbag57
(g78
g59
NtRp3019
(dp3020
g62
(dp3021
g89
g90
ssg71
g3010
sg64
(lp3022
S':'
asbag57
(g78
g59
NtRp3023
(dp3024
g62
(dp3025
sg71
g3010
sg64
(lp3026
g57
(g58
g59
NtRp3027
(dp3028
g62
(dp3029
g70
I3
ssg71
g3023
sg64
(lp3030
S'1'
asbasbasbasbasbasbasbasbasbasbasbasbasbsS'frames'
p3031
(lp3032
(dp3033
S'file'
p3034
S'/usr/lib/pymodules/python2.7/gluon/restricted.py'
p3035
sS'dump'
p3036
(dp3037
S'environment'
p3038
S"{'A': <class 'gluon.html.A'>, 'Auth': <class 'gluon.tools.Auth'>, 'B': <class 'gluon.html.B'>, 'BEAUTIFY': <class 'gluon.html.BEAUTIFY'>, 'BODY': <class 'gluon.html.BODY'>, 'BR': <class 'gluon.html.BR'>, 'BUTTON': <class 'gluon.html.BUTTON'>, 'CAT': <class 'gluon.html.CAT'>, 'CENTER': <class 'gluon.html.CENTER'>, 'CLEANUP': <class 'gluon.validators.CLEANUP'>, ...}"
p3039
sS'ccode'
p3040
S'<code object <module> at 0x7fb4480efd30, file "/...plications/app1/controllers/default.py", line 12>'
p3041
ssS'lnum'
p3042
I204
sS'lines'
p3043
(dp3044
I199
S'    try:'
p3045
sI200
S'        if type(code) == types.CodeType:'
p3046
sI201
S'            ccode = code'
p3047
sI202
S'        else:'
p3048
sI203
S'            ccode = compile2(code,layer)'
p3049
sI204
S'        exec ccode in environment'
p3050
sI205
S'    except HTTP:'
p3051
sI206
S'        raise'
p3052
sI207
S'    except RestrictedError:'
p3053
sI208
S'        # do not encapsulate (obfuscate) the original RestrictedError'
p3054
ssS'call'
p3055
S"(code='# -*- coding: utf-8 -*-\\n# this file is released ...\\n\\n\\nresponse._vars=response._caller(showcomments)\\n', environment={'A': <class 'gluon.html.A'>, 'Auth': <class 'gluon.tools.Auth'>, 'B': <class 'gluon.html.B'>, 'BEAUTIFY': <class 'gluon.html.BEAUTIFY'>, 'BODY': <class 'gluon.html.BODY'>, 'BR': <class 'gluon.html.BR'>, 'BUTTON': <class 'gluon.html.BUTTON'>, 'CAT': <class 'gluon.html.CAT'>, 'CENTER': <class 'gluon.html.CENTER'>, 'CLEANUP': <class 'gluon.validators.CLEANUP'>, ...}, layer='/home/jigar/web2py/applications/app1/controllers/default.py')"
p3056
sS'func'
p3057
S'restricted'
p3058
sa(dp3059
g3034
S'/home/jigar/web2py/applications/app1/controllers/default.py'
p3060
sg3036
(dp3061
sg3042
I252
sg3043
(dp3062
I241
S"\t\t\t\tresponse.flash= 'Post Updated'"
p3063
sI242
S'#\t\t\treturn dict(form=form)'
p3064
sI243
S'\t\telse:'
p3065
sI244
S"\t\t\tredirect(URL('lall'))"
p3066
sI245
S'\telse :'
p3067
sI246
S"\t\tredirect(URL('lall'))"
p3068
sI247
S"#\t\tresponse.flash='Sorry please enter through the link for updating a post!'"
p3069
sI248
S'\treturn locals()'
p3070
sI249
S''
sI250
S''
ssg3055
S'()'
p3071
sg3057
S'<module>'
p3072
sa(dp3073
g3034
S'/usr/lib/pymodules/python2.7/gluon/globals.py'
p3074
sg3036
(dp3075
S'self'
p3076
S'undefined'
p3077
sS'f'
S'<function showcomments>'
p3078
ssg3042
I172
sg3043
(dp3079
I167
S'        self.meta = Storage()      # used by web2py_ajax.html'
p3080
sI168
S'        self.menu = []             # used by the default view layout'
p3081
sI169
S'        self.files = []            # used by web2py_ajax.html'
p3082
sI170
S'        self.generic_patterns = [] # patterns to allow generic views'
p3083
sI171
S'        self._vars = None'
p3084
sI172
S'        self._caller = lambda f: f()'
p3085
sI173
S'        self._view_environment = None'
p3086
sI174
S'        self._custom_commit = None'
p3087
sI175
S'        self._custom_rollback = None'
p3088
sI176
S''
ssg3055
S'(f=<function showcomments>)'
p3089
sg3057
S'<lambda>'
p3090
sa(dp3091
g3034
S'/usr/lib/pymodules/python2.7/gluon/tools.py'
p3092
sg3036
(dp3093
S'action'
p3094
S'<function showcomments>'
p3095
sS'a'
S'()'
p3096
sS'b'
g45
ssg3042
I2533
sg3043
(dp3097
I2528
S'                # otherwise case 3 would be ok.'
p3098
sI2529
S'                if not (callable(condition) and condition() == True) and not condition == True:'
p3099
sI2530
S'                    current.session.flash = self.messages.access_denied'
p3100
sI2531
S'                    return call_or_redirect('
p3101
sI2532
S'                        self.settings.on_failed_authorization)'
p3102
sI2533
S'                return action(*a, **b)'
p3103
sI2534
S'            f.__doc__ = action.__doc__'
p3104
sI2535
S'            f.__name__ = action.__name__'
p3105
sI2536
S'            f.__dict__.update(action.__dict__)'
p3106
sI2537
S'            return f'
p3107
ssg3055
S'(*a=(), **b={})'
p3108
sg3057
S'f'
sa(dp3109
g3034
S'/home/jigar/web2py/applications/app1/controllers/default.py'
p3110
sg3036
(dp3111
S'builtinint'
p3112
S"<type 'int'>"
p3113
sS'r'
S"'app1'"
p3114
ssg3042
I178
sg3043
(dp3115
I173
S'\treturn locals()'
p3116
sI174
S''
sI175
S'@auth.requires_login()'
p3117
sI176
S'def showcomments():'
p3118
sI177
S'\tr=request.args[0]'
p3119
sI178
S'\tr=int(r)'
p3120
sI179
S'\ta=db(db.Comment.Post_no==r).select()'
p3121
sI180
S'\tb=db((db.Comment.Post_no==r) & (db.auth_user.id==db.Comment.By_user)).select(db.auth_user.first_name,db.Comment.Time)'
p3122
sI181
S'\treturn locals()'
p3123
sI182
S''
ssg3055
S'()'
p3124
sg3057
S'showcomments'
p3125
sasS'pyver'
p3126
S'Python 2.7.3: /usr/bin/python'
p3127
sS'session'
p3128
g57
(g58
g59
NtRp3129
(dp3130
g62
(dp3131
sg64
(lp3132
g57
(g66
g59
NtRp3133
(dp3134
g62
(dp3135
g70
I5
ssg71
Nsg64
(lp3136
g57
(g73
g59
NtRp3137
(dp3138
g62
(dp3139
sg71
g3133
sg64
(lp3140
g57
(g78
g59
NtRp3141
(dp3142
g62
(dp3143
g82
g83
ssg71
g3137
sg64
(lp3144
S'auth'
p3145
asbag57
(g78
g59
NtRp3146
(dp3147
g62
(dp3148
g89
g90
ssg71
g3137
sg64
(lp3149
S':'
asbag57
(g78
g59
NtRp3150
(dp3151
g62
(dp3152
sg71
g3137
sg64
(lp3153
g57
(g58
g59
NtRp3154
(dp3155
g62
(dp3156
g70
I5
ssg71
g3150
sg64
(lp3157
g57
(g66
g59
NtRp3158
(dp3159
g62
(dp3160
g70
I4
ssg71
Nsg64
(lp3161
g57
(g73
g59
NtRp3162
(dp3163
g62
(dp3164
sg71
g3158
sg64
(lp3165
g57
(g78
g59
NtRp3166
(dp3167
g62
(dp3168
g82
g83
ssg71
g3162
sg64
(lp3169
S'expiration'
p3170
asbag57
(g78
g59
NtRp3171
(dp3172
g62
(dp3173
g89
g90
ssg71
g3162
sg64
(lp3174
S':'
asbag57
(g78
g59
NtRp3175
(dp3176
g62
(dp3177
sg71
g3162
sg64
(lp3178
g57
(g58
g59
NtRp3179
(dp3180
g62
(dp3181
g70
I4
ssg71
g3175
sg64
(lp3182
S'2592000'
p3183
asbasbasbag57
(g73
g59
NtRp3184
(dp3185
g62
(dp3186
sg71
g3158
sg64
(lp3187
g57
(g78
g59
NtRp3188
(dp3189
g62
(dp3190
g82
g83
ssg71
g3184
sg64
(lp3191
S'hmac_key'
p3192
asbag57
(g78
g59
NtRp3193
(dp3194
g62
(dp3195
g89
g90
ssg71
g3184
sg64
(lp3196
S':'
asbag57
(g78
g59
NtRp3197
(dp3198
g62
(dp3199
sg71
g3184
sg64
(lp3200
g57
(g58
g59
NtRp3201
(dp3202
g62
(dp3203
g70
I4
ssg71
g3197
sg64
(lp3204
S'210b6841-395e-49ba-88a4-cda1ccfaea82'
p3205
asbasbasbag57
(g73
g59
NtRp3206
(dp3207
g62
(dp3208
sg71
g3158
sg64
(lp3209
g57
(g78
g59
NtRp3210
(dp3211
g62
(dp3212
g82
g83
ssg71
g3206
sg64
(lp3213
S'last_visit'
p3214
asbag57
(g78
g59
NtRp3215
(dp3216
g62
(dp3217
g89
g90
ssg71
g3206
sg64
(lp3218
S':'
asbag57
(g78
g59
NtRp3219
(dp3220
g62
(dp3221
sg71
g3206
sg64
(lp3222
g57
(g58
g59
NtRp3223
(dp3224
g62
(dp3225
g70
I4
ssg71
g3219
sg64
(lp3226
S'datetime.datetime(2013, 9, 1, 22, 16, 48, 472619)'
p3227
asbasbasbag57
(g73
g59
NtRp3228
(dp3229
g62
(dp3230
sg71
g3158
sg64
(lp3231
g57
(g78
g59
NtRp3232
(dp3233
g62
(dp3234
g82
g83
ssg71
g3228
sg64
(lp3235
S'remember'
p3236
asbag57
(g78
g59
NtRp3237
(dp3238
g62
(dp3239
g89
g90
ssg71
g3228
sg64
(lp3240
S':'
asbag57
(g78
g59
NtRp3241
(dp3242
g62
(dp3243
sg71
g3228
sg64
(lp3244
g57
(g58
g59
NtRp3245
(dp3246
g62
(dp3247
g70
I4
ssg71
g3241
sg64
(lp3248
g100
asbasbasbag57
(g73
g59
NtRp3249
(dp3250
g62
(dp3251
sg71
g3158
sg64
(lp3252
g57
(g78
g59
NtRp3253
(dp3254
g62
(dp3255
g82
g83
ssg71
g3249
sg64
(lp3256
S'user'
p3257
asbag57
(g78
g59
NtRp3258
(dp3259
g62
(dp3260
g89
g90
ssg71
g3249
sg64
(lp3261
S':'
asbag57
(g78
g59
NtRp3262
(dp3263
g62
(dp3264
sg71
g3249
sg64
(lp3265
g57
(g58
g59
NtRp3266
(dp3267
g62
(dp3268
g70
I4
ssg71
g3262
sg64
(lp3269
g57
(g66
g59
NtRp3270
(dp3271
g62
(dp3272
g70
I3
ssg71
Nsg64
(lp3273
g57
(g73
g59
NtRp3274
(dp3275
g62
(dp3276
sg71
g3270
sg64
(lp3277
g57
(g78
g59
NtRp3278
(dp3279
g62
(dp3280
g82
g83
ssg71
g3274
sg64
(lp3281
S'City'
p3282
asbag57
(g78
g59
NtRp3283
(dp3284
g62
(dp3285
g89
g90
ssg71
g3274
sg64
(lp3286
S':'
asbag57
(g78
g59
NtRp3287
(dp3288
g62
(dp3289
sg71
g3274
sg64
(lp3290
g57
(g58
g59
NtRp3291
(dp3292
g62
(dp3293
g70
I3
ssg71
g3287
sg64
(lp3294
S'Rajkot'
p3295
asbasbasbag57
(g73
g59
NtRp3296
(dp3297
g62
(dp3298
sg71
g3270
sg64
(lp3299
g57
(g78
g59
NtRp3300
(dp3301
g62
(dp3302
g82
g83
ssg71
g3296
sg64
(lp3303
S'Member_type'
p3304
asbag57
(g78
g59
NtRp3305
(dp3306
g62
(dp3307
g89
g90
ssg71
g3296
sg64
(lp3308
S':'
asbag57
(g78
g59
NtRp3309
(dp3310
g62
(dp3311
sg71
g3296
sg64
(lp3312
g57
(g58
g59
NtRp3313
(dp3314
g62
(dp3315
g70
I3
ssg71
g3309
sg64
(lp3316
S'User'
p3317
asbasbasbag57
(g73
g59
NtRp3318
(dp3319
g62
(dp3320
sg71
g3270
sg64
(lp3321
g57
(g78
g59
NtRp3322
(dp3323
g62
(dp3324
g82
g83
ssg71
g3318
sg64
(lp3325
S'Profile_Pic'
p3326
asbag57
(g78
g59
NtRp3327
(dp3328
g62
(dp3329
g89
g90
ssg71
g3318
sg64
(lp3330
S':'
asbag57
(g78
g59
NtRp3331
(dp3332
g62
(dp3333
sg71
g3318
sg64
(lp3334
g57
(g58
g59
NtRp3335
(dp3336
g62
(dp3337
g70
I3
ssg71
g3331
sg64
(lp3338
S''
asbasbasbag57
(g73
g59
NtRp3339
(dp3340
g62
(dp3341
sg71
g3270
sg64
(lp3342
g57
(g78
g59
NtRp3343
(dp3344
g62
(dp3345
g82
g83
ssg71
g3339
sg64
(lp3346
S'email'
p3347
asbag57
(g78
g59
NtRp3348
(dp3349
g62
(dp3350
g89
g90
ssg71
g3339
sg64
(lp3351
S':'
asbag57
(g78
g59
NtRp3352
(dp3353
g62
(dp3354
sg71
g3339
sg64
(lp3355
g57
(g58
g59
NtRp3356
(dp3357
g62
(dp3358
g70
I3
ssg71
g3352
sg64
(lp3359
S'kotak.ankit@gmail.com'
p3360
asbasbasbag57
(g73
g59
NtRp3361
(dp3362
g62
(dp3363
sg71
g3270
sg64
(lp3364
g57
(g78
g59
NtRp3365
(dp3366
g62
(dp3367
g82
g83
ssg71
g3361
sg64
(lp3368
S'first_name'
p3369
asbag57
(g78
g59
NtRp3370
(dp3371
g62
(dp3372
g89
g90
ssg71
g3361
sg64
(lp3373
S':'
asbag57
(g78
g59
NtRp3374
(dp3375
g62
(dp3376
sg71
g3361
sg64
(lp3377
g57
(g58
g59
NtRp3378
(dp3379
g62
(dp3380
g70
I3
ssg71
g3374
sg64
(lp3381
S'Kotak'
p3382
asbasbasbag57
(g73
g59
NtRp3383
(dp3384
g62
(dp3385
sg71
g3270
sg64
(lp3386
g57
(g78
g59
NtRp3387
(dp3388
g62
(dp3389
g82
g83
ssg71
g3383
sg64
(lp3390
S'id'
p3391
asbag57
(g78
g59
NtRp3392
(dp3393
g62
(dp3394
g89
g90
ssg71
g3383
sg64
(lp3395
S':'
asbag57
(g78
g59
NtRp3396
(dp3397
g62
(dp3398
sg71
g3383
sg64
(lp3399
g57
(g58
g59
NtRp3400
(dp3401
g62
(dp3402
g70
I3
ssg71
g3396
sg64
(lp3403
S'3'
asbasbasbag57
(g73
g59
NtRp3404
(dp3405
g62
(dp3406
sg71
g3270
sg64
(lp3407
g57
(g78
g59
NtRp3408
(dp3409
g62
(dp3410
g82
g83
ssg71
g3404
sg64
(lp3411
S'last_name'
p3412
asbag57
(g78
g59
NtRp3413
(dp3414
g62
(dp3415
g89
g90
ssg71
g3404
sg64
(lp3416
S':'
asbag57
(g78
g59
NtRp3417
(dp3418
g62
(dp3419
sg71
g3404
sg64
(lp3420
g57
(g58
g59
NtRp3421
(dp3422
g62
(dp3423
g70
I3
ssg71
g3417
sg64
(lp3424
S'Ankit'
p3425
asbasbasbag57
(g73
g59
NtRp3426
(dp3427
g62
(dp3428
sg71
g3270
sg64
(lp3429
g57
(g78
g59
NtRp3430
(dp3431
g62
(dp3432
g82
g83
ssg71
g3426
sg64
(lp3433
S'password'
p3434
asbag57
(g78
g59
NtRp3435
(dp3436
g62
(dp3437
g89
g90
ssg71
g3426
sg64
(lp3438
S':'
asbag57
(g78
g59
NtRp3439
(dp3440
g62
(dp3441
sg71
g3426
sg64
(lp3442
g57
(g58
g59
NtRp3443
(dp3444
g62
(dp3445
g70
I3
ssg71
g3439
sg64
(lp3446
S'322411aa1b7b437bab6c1ef957bd636d'
p3447
asbasbasbag57
(g73
g59
NtRp3448
(dp3449
g62
(dp3450
sg71
g3270
sg64
(lp3451
g57
(g78
g59
NtRp3452
(dp3453
g62
(dp3454
g82
g83
ssg71
g3448
sg64
(lp3455
S'registration_id'
p3456
asbag57
(g78
g59
NtRp3457
(dp3458
g62
(dp3459
g89
g90
ssg71
g3448
sg64
(lp3460
S':'
asbag57
(g78
g59
NtRp3461
(dp3462
g62
(dp3463
sg71
g3448
sg64
(lp3464
g57
(g58
g59
NtRp3465
(dp3466
g62
(dp3467
g70
I3
ssg71
g3461
sg64
(lp3468
S''
asbasbasbag57
(g73
g59
NtRp3469
(dp3470
g62
(dp3471
sg71
g3270
sg64
(lp3472
g57
(g78
g59
NtRp3473
(dp3474
g62
(dp3475
g82
g83
ssg71
g3469
sg64
(lp3476
S'registration_key'
p3477
asbag57
(g78
g59
NtRp3478
(dp3479
g62
(dp3480
g89
g90
ssg71
g3469
sg64
(lp3481
S':'
asbag57
(g78
g59
NtRp3482
(dp3483
g62
(dp3484
sg71
g3469
sg64
(lp3485
g57
(g58
g59
NtRp3486
(dp3487
g62
(dp3488
g70
I3
ssg71
g3482
sg64
(lp3489
S''
asbasbasbag57
(g73
g59
NtRp3490
(dp3491
g62
(dp3492
sg71
g3270
sg64
(lp3493
g57
(g78
g59
NtRp3494
(dp3495
g62
(dp3496
g82
g83
ssg71
g3490
sg64
(lp3497
S'reset_password_key'
p3498
asbag57
(g78
g59
NtRp3499
(dp3500
g62
(dp3501
g89
g90
ssg71
g3490
sg64
(lp3502
S':'
asbag57
(g78
g59
NtRp3503
(dp3504
g62
(dp3505
sg71
g3490
sg64
(lp3506
g57
(g58
g59
NtRp3507
(dp3508
g62
(dp3509
g70
I3
ssg71
g3503
sg64
(lp3510
S''
asbasbasbasbasbasbasbasbasbasbasbag57
(g73
g59
NtRp3511
(dp3512
g62
(dp3513
sg71
g3133
sg64
(lp3514
g57
(g78
g59
NtRp3515
(dp3516
g62
(dp3517
g82
g83
ssg71
g3511
sg64
(lp3518
S'last_query'
p3519
asbag57
(g78
g59
NtRp3520
(dp3521
g62
(dp3522
g89
g90
ssg71
g3511
sg64
(lp3523
S':'
asbag57
(g78
g59
NtRp3524
(dp3525
g62
(dp3526
sg71
g3511
sg64
(lp3527
g57
(g58
g59
NtRp3528
(dp3529
g62
(dp3530
g70
I5
ssg71
g3524
sg64
(lp3531
S'db.Post.id>0'
p3532
asbasbasbasbasbsS'etype'
p3533
S"<type 'exceptions.ValueError'>"
p3534
sS'date'
p3535
S'Mon Sep  2 00:11:30 2013'
p3536
sS'response'
p3537
g57
(g58
g59
NtRp3538
(dp3539
g62
(dp3540
sg64
(lp3541
g57
(g66
g59
NtRp3542
(dp3543
g62
(dp3544
g70
I5
ssg71
Nsg64
(lp3545
g57
(g73
g59
NtRp3546
(dp3547
g62
(dp3548
sg71
g3542
sg64
(lp3549
g57
(g78
g59
NtRp3550
(dp3551
g62
(dp3552
g82
g83
ssg71
g3546
sg64
(lp3553
g206
asbag57
(g78
g59
NtRp3554
(dp3555
g62
(dp3556
g89
g90
ssg71
g3546
sg64
(lp3557
S':'
asbag57
(g78
g59
NtRp3558
(dp3559
g62
(dp3560
sg71
g3546
sg64
(lp3561
g57
(g58
g59
NtRp3562
(dp3563
g62
(dp3564
g70
I5
ssg71
g3558
sg64
(lp3565
S'<cStringIO.StringO object at 0x7fb44c56ea78>'
p3566
asbasbasbag57
(g73
g59
NtRp3567
(dp3568
g62
(dp3569
sg71
g3542
sg64
(lp3570
g57
(g78
g59
NtRp3571
(dp3572
g62
(dp3573
g82
g83
ssg71
g3567
sg64
(lp3574
g272
asbag57
(g78
g59
NtRp3575
(dp3576
g62
(dp3577
g89
g90
ssg71
g3567
sg64
(lp3578
S':'
asbag57
(g78
g59
NtRp3579
(dp3580
g62
(dp3581
sg71
g3567
sg64
(lp3582
g57
(g58
g59
NtRp3583
(dp3584
g62
(dp3585
g70
I5
ssg71
g3579
sg64
(lp3586
g57
(g66
g59
NtRp3587
(dp3588
g62
(dp3589
g70
I4
ssg71
Nsg64
(lp3590
g57
(g73
g59
NtRp3591
(dp3592
g62
(dp3593
sg71
g3587
sg64
(lp3594
g57
(g78
g59
NtRp3595
(dp3596
g62
(dp3597
g82
g83
ssg71
g3591
sg64
(lp3598
S'session_id_app1'
p3599
asbag57
(g78
g59
NtRp3600
(dp3601
g62
(dp3602
g89
g90
ssg71
g3591
sg64
(lp3603
S':'
asbag57
(g78
g59
NtRp3604
(dp3605
g62
(dp3606
sg71
g3591
sg64
(lp3607
g57
(g58
g59
NtRp3608
(dp3609
g62
(dp3610
g70
I4
ssg71
g3604
sg64
(lp3611
g57
(g66
g59
NtRp3612
(dp3613
g62
(dp3614
g70
I3
ssg71
Nsg64
(lp3615
g57
(g73
g59
NtRp3616
(dp3617
g62
(dp3618
sg71
g3612
sg64
(lp3619
g57
(g78
g59
NtRp3620
(dp3621
g62
(dp3622
g82
g83
ssg71
g3616
sg64
(lp3623
g322
asbag57
(g78
g59
NtRp3624
(dp3625
g62
(dp3626
g89
g90
ssg71
g3616
sg64
(lp3627
S':'
asbag57
(g78
g59
NtRp3628
(dp3629
g62
(dp3630
sg71
g3616
sg64
(lp3631
g57
(g58
g59
NtRp3632
(dp3633
g62
(dp3634
g70
I3
ssg71
g3628
sg64
(lp3635
S''
asbasbasbag57
(g73
g59
NtRp3636
(dp3637
g62
(dp3638
sg71
g3612
sg64
(lp3639
g57
(g78
g59
NtRp3640
(dp3641
g62
(dp3642
g82
g83
ssg71
g3636
sg64
(lp3643
g343
asbag57
(g78
g59
NtRp3644
(dp3645
g62
(dp3646
g89
g90
ssg71
g3636
sg64
(lp3647
S':'
asbag57
(g78
g59
NtRp3648
(dp3649
g62
(dp3650
sg71
g3636
sg64
(lp3651
g57
(g58
g59
NtRp3652
(dp3653
g62
(dp3654
g70
I3
ssg71
g3648
sg64
(lp3655
S''
asbasbasbag57
(g73
g59
NtRp3656
(dp3657
g62
(dp3658
sg71
g3612
sg64
(lp3659
g57
(g78
g59
NtRp3660
(dp3661
g62
(dp3662
g82
g83
ssg71
g3656
sg64
(lp3663
g364
asbag57
(g78
g59
NtRp3664
(dp3665
g62
(dp3666
g89
g90
ssg71
g3656
sg64
(lp3667
S':'
asbag57
(g78
g59
NtRp3668
(dp3669
g62
(dp3670
sg71
g3656
sg64
(lp3671
g57
(g58
g59
NtRp3672
(dp3673
g62
(dp3674
g70
I3
ssg71
g3668
sg64
(lp3675
S''
asbasbasbag57
(g73
g59
NtRp3676
(dp3677
g62
(dp3678
sg71
g3612
sg64
(lp3679
g57
(g78
g59
NtRp3680
(dp3681
g62
(dp3682
g82
g83
ssg71
g3676
sg64
(lp3683
g385
asbag57
(g78
g59
NtRp3684
(dp3685
g62
(dp3686
g89
g90
ssg71
g3676
sg64
(lp3687
S':'
asbag57
(g78
g59
NtRp3688
(dp3689
g62
(dp3690
sg71
g3676
sg64
(lp3691
g57
(g58
g59
NtRp3692
(dp3693
g62
(dp3694
g70
I3
ssg71
g3688
sg64
(lp3695
S''
asbasbasbag57
(g73
g59
NtRp3696
(dp3697
g62
(dp3698
sg71
g3612
sg64
(lp3699
g57
(g78
g59
NtRp3700
(dp3701
g62
(dp3702
g82
g83
ssg71
g3696
sg64
(lp3703
g406
asbag57
(g78
g59
NtRp3704
(dp3705
g62
(dp3706
g89
g90
ssg71
g3696
sg64
(lp3707
S':'
asbag57
(g78
g59
NtRp3708
(dp3709
g62
(dp3710
sg71
g3696
sg64
(lp3711
g57
(g58
g59
NtRp3712
(dp3713
g62
(dp3714
g70
I3
ssg71
g3708
sg64
(lp3715
S''
asbasbasbag57
(g73
g59
NtRp3716
(dp3717
g62
(dp3718
sg71
g3612
sg64
(lp3719
g57
(g78
g59
NtRp3720
(dp3721
g62
(dp3722
g82
g83
ssg71
g3716
sg64
(lp3723
g427
asbag57
(g78
g59
NtRp3724
(dp3725
g62
(dp3726
g89
g90
ssg71
g3716
sg64
(lp3727
S':'
asbag57
(g78
g59
NtRp3728
(dp3729
g62
(dp3730
sg71
g3716
sg64
(lp3731
g57
(g58
g59
NtRp3732
(dp3733
g62
(dp3734
g70
I3
ssg71
g3728
sg64
(lp3735
S'/'
asbasbasbag57
(g73
g59
NtRp3736
(dp3737
g62
(dp3738
sg71
g3612
sg64
(lp3739
g57
(g78
g59
NtRp3740
(dp3741
g62
(dp3742
g82
g83
ssg71
g3736
sg64
(lp3743
g448
asbag57
(g78
g59
NtRp3744
(dp3745
g62
(dp3746
g89
g90
ssg71
g3736
sg64
(lp3747
S':'
asbag57
(g78
g59
NtRp3748
(dp3749
g62
(dp3750
sg71
g3736
sg64
(lp3751
g57
(g58
g59
NtRp3752
(dp3753
g62
(dp3754
g70
I3
ssg71
g3748
sg64
(lp3755
S''
asbasbasbag57
(g73
g59
NtRp3756
(dp3757
g62
(dp3758
sg71
g3612
sg64
(lp3759
g57
(g78
g59
NtRp3760
(dp3761
g62
(dp3762
g82
g83
ssg71
g3756
sg64
(lp3763
g469
asbag57
(g78
g59
NtRp3764
(dp3765
g62
(dp3766
g89
g90
ssg71
g3756
sg64
(lp3767
S':'
asbag57
(g78
g59
NtRp3768
(dp3769
g62
(dp3770
sg71
g3756
sg64
(lp3771
g57
(g58
g59
NtRp3772
(dp3773
g62
(dp3774
g70
I3
ssg71
g3768
sg64
(lp3775
S''
asbasbasbasbasbasbasbasbasbasbasbag57
(g73
g59
NtRp3776
(dp3777
g62
(dp3778
sg71
g3542
sg64
(lp3779
g57
(g78
g59
NtRp3780
(dp3781
g62
(dp3782
g82
g83
ssg71
g3776
sg64
(lp3783
S'files'
p3784
asbag57
(g78
g59
NtRp3785
(dp3786
g62
(dp3787
g89
g90
ssg71
g3776
sg64
(lp3788
S':'
asbag57
(g78
g59
NtRp3789
(dp3790
g62
(dp3791
sg71
g3776
sg64
(lp3792
g57
(g58
g59
NtRp3793
(dp3794
g62
(dp3795
g70
I5
ssg71
g3789
sg64
(lp3796
g57
(g66
g59
NtRp3797
(dp3798
g62
(dp3799
g70
I4
ssg71
Nsg64
(lp3800
sbasbasbasbag57
(g73
g59
NtRp3801
(dp3802
g62
(dp3803
sg71
g3542
sg64
(lp3804
g57
(g78
g59
NtRp3805
(dp3806
g62
(dp3807
g82
g83
ssg71
g3801
sg64
(lp3808
S'flash'
p3809
asbag57
(g78
g59
NtRp3810
(dp3811
g62
(dp3812
g89
g90
ssg71
g3801
sg64
(lp3813
S':'
asbag57
(g78
g59
NtRp3814
(dp3815
g62
(dp3816
sg71
g3801
sg64
(lp3817
g57
(g58
g59
NtRp3818
(dp3819
g62
(dp3820
g70
I5
ssg71
g3814
sg64
(lp3821
S''
asbasbasbag57
(g73
g59
NtRp3822
(dp3823
g62
(dp3824
sg71
g3542
sg64
(lp3825
g57
(g78
g59
NtRp3826
(dp3827
g62
(dp3828
g82
g83
ssg71
g3822
sg64
(lp3829
S'generic_patterns'
p3830
asbag57
(g78
g59
NtRp3831
(dp3832
g62
(dp3833
g89
g90
ssg71
g3822
sg64
(lp3834
S':'
asbag57
(g78
g59
NtRp3835
(dp3836
g62
(dp3837
sg71
g3822
sg64
(lp3838
g57
(g58
g59
NtRp3839
(dp3840
g62
(dp3841
g70
I5
ssg71
g3835
sg64
(lp3842
g57
(g66
g59
NtRp3843
(dp3844
g62
(dp3845
g70
I4
ssg71
Nsg64
(lp3846
g57
(g73
g59
NtRp3847
(dp3848
g62
(dp3849
sg71
g3843
sg64
(lp3850
g57
(g78
g59
NtRp3851
(dp3852
g62
(dp3853
sg71
g3847
sg64
(lp3854
g57
(g58
g59
NtRp3855
(dp3856
g62
(dp3857
g70
I4
ssg71
g3851
sg64
(lp3858
S'*'
asbasbasbasbasbasbasbag57
(g73
g59
NtRp3859
(dp3860
g62
(dp3861
sg71
g3542
sg64
(lp3862
g57
(g78
g59
NtRp3863
(dp3864
g62
(dp3865
g82
g83
ssg71
g3859
sg64
(lp3866
S'headers'
p3867
asbag57
(g78
g59
NtRp3868
(dp3869
g62
(dp3870
g89
g90
ssg71
g3859
sg64
(lp3871
S':'
asbag57
(g78
g59
NtRp3872
(dp3873
g62
(dp3874
sg71
g3859
sg64
(lp3875
g57
(g58
g59
NtRp3876
(dp3877
g62
(dp3878
g70
I5
ssg71
g3872
sg64
(lp3879
g57
(g66
g59
NtRp3880
(dp3881
g62
(dp3882
g70
I4
ssg71
Nsg64
(lp3883
g57
(g73
g59
NtRp3884
(dp3885
g62
(dp3886
sg71
g3880
sg64
(lp3887
g57
(g78
g59
NtRp3888
(dp3889
g62
(dp3890
g82
g83
ssg71
g3884
sg64
(lp3891
S'Cache-Control'
p3892
asbag57
(g78
g59
NtRp3893
(dp3894
g62
(dp3895
g89
g90
ssg71
g3884
sg64
(lp3896
S':'
asbag57
(g78
g59
NtRp3897
(dp3898
g62
(dp3899
sg71
g3884
sg64
(lp3900
g57
(g58
g59
NtRp3901
(dp3902
g62
(dp3903
g70
I4
ssg71
g3897
sg64
(lp3904
S'no-store, no-cache, must-revalidate, post-check=0, pre-check=0'
p3905
asbasbasbag57
(g73
g59
NtRp3906
(dp3907
g62
(dp3908
sg71
g3880
sg64
(lp3909
g57
(g78
g59
NtRp3910
(dp3911
g62
(dp3912
g82
g83
ssg71
g3906
sg64
(lp3913
S'Content-Type'
p3914
asbag57
(g78
g59
NtRp3915
(dp3916
g62
(dp3917
g89
g90
ssg71
g3906
sg64
(lp3918
S':'
asbag57
(g78
g59
NtRp3919
(dp3920
g62
(dp3921
sg71
g3906
sg64
(lp3922
g57
(g58
g59
NtRp3923
(dp3924
g62
(dp3925
g70
I4
ssg71
g3919
sg64
(lp3926
S'text/html; charset=utf-8'
p3927
asbasbasbag57
(g73
g59
NtRp3928
(dp3929
g62
(dp3930
sg71
g3880
sg64
(lp3931
g57
(g78
g59
NtRp3932
(dp3933
g62
(dp3934
g82
g83
ssg71
g3928
sg64
(lp3935
S'Expires'
p3936
asbag57
(g78
g59
NtRp3937
(dp3938
g62
(dp3939
g89
g90
ssg71
g3928
sg64
(lp3940
S':'
asbag57
(g78
g59
NtRp3941
(dp3942
g62
(dp3943
sg71
g3928
sg64
(lp3944
g57
(g58
g59
NtRp3945
(dp3946
g62
(dp3947
g70
I4
ssg71
g3941
sg64
(lp3948
S'Sun, 01 Sep 2013 18:41:30 GMT'
p3949
asbasbasbag57
(g73
g59
NtRp3950
(dp3951
g62
(dp3952
sg71
g3880
sg64
(lp3953
g57
(g78
g59
NtRp3954
(dp3955
g62
(dp3956
g82
g83
ssg71
g3950
sg64
(lp3957
S'Pragma'
p3958
asbag57
(g78
g59
NtRp3959
(dp3960
g62
(dp3961
g89
g90
ssg71
g3950
sg64
(lp3962
S':'
asbag57
(g78
g59
NtRp3963
(dp3964
g62
(dp3965
sg71
g3950
sg64
(lp3966
g57
(g58
g59
NtRp3967
(dp3968
g62
(dp3969
g70
I4
ssg71
g3963
sg64
(lp3970
S'no-cache'
p3971
asbasbasbag57
(g73
g59
NtRp3972
(dp3973
g62
(dp3974
sg71
g3880
sg64
(lp3975
g57
(g78
g59
NtRp3976
(dp3977
g62
(dp3978
g82
g83
ssg71
g3972
sg64
(lp3979
S'X-Powered-By'
p3980
asbag57
(g78
g59
NtRp3981
(dp3982
g62
(dp3983
g89
g90
ssg71
g3972
sg64
(lp3984
S':'
asbag57
(g78
g59
NtRp3985
(dp3986
g62
(dp3987
sg71
g3972
sg64
(lp3988
g57
(g58
g59
NtRp3989
(dp3990
g62
(dp3991
g70
I4
ssg71
g3985
sg64
(lp3992
S'web2py'
p3993
asbasbasbasbasbasbasbag57
(g73
g59
NtRp3994
(dp3995
g62
(dp3996
sg71
g3542
sg64
(lp3997
g57
(g78
g59
NtRp3998
(dp3999
g62
(dp4000
g82
g83
ssg71
g3994
sg64
(lp4001
S'menu'
p4002
asbag57
(g78
g59
NtRp4003
(dp4004
g62
(dp4005
g89
g90
ssg71
g3994
sg64
(lp4006
S':'
asbag57
(g78
g59
NtRp4007
(dp4008
g62
(dp4009
sg71
g3994
sg64
(lp4010
g57
(g58
g59
NtRp4011
(dp4012
g62
(dp4013
g70
I5
ssg71
g4007
sg64
(lp4014
g57
(g66
g59
NtRp4015
(dp4016
g62
(dp4017
g70
I4
ssg71
Nsg64
(lp4018
g57
(g73
g59
NtRp4019
(dp4020
g62
(dp4021
sg71
g4015
sg64
(lp4022
g57
(g78
g59
NtRp4023
(dp4024
g62
(dp4025
sg71
g4019
sg64
(lp4026
g57
(g58
g59
NtRp4027
(dp4028
g62
(dp4029
g70
I4
ssg71
g4023
sg64
(lp4030
g57
(g66
g59
NtRp4031
(dp4032
g62
(dp4033
g70
I3
ssg71
Nsg64
(lp4034
g57
(g73
g59
NtRp4035
(dp4036
g62
(dp4037
sg71
g4031
sg64
(lp4038
g57
(g78
g59
NtRp4039
(dp4040
g62
(dp4041
sg71
g4035
sg64
(lp4042
g57
(g58
g59
NtRp4043
(dp4044
g62
(dp4045
g70
I3
ssg71
g4039
sg64
(lp4046
cgluon.languages
lazyT_unpickle
p4047
(S't\x04\x00\x00\x00Home'
tRp4048
asbasbasbag57
(g73
g59
NtRp4049
(dp4050
g62
(dp4051
sg71
g4031
sg64
(lp4052
g57
(g78
g59
NtRp4053
(dp4054
g62
(dp4055
sg71
g4049
sg64
(lp4056
g57
(g58
g59
NtRp4057
(dp4058
g62
(dp4059
g70
I3
ssg71
g4053
sg64
(lp4060
g100
asbasbasbag57
(g73
g59
NtRp4061
(dp4062
g62
(dp4063
sg71
g4031
sg64
(lp4064
g57
(g78
g59
NtRp4065
(dp4066
g62
(dp4067
sg71
g4061
sg64
(lp4068
g57
(g58
g59
NtRp4069
(dp4070
g62
(dp4071
g70
I3
ssg71
g4065
sg64
(lp4072
S'/app1/default/lall'
p4073
asbasbasbag57
(g73
g59
NtRp4074
(dp4075
g62
(dp4076
sg71
g4031
sg64
(lp4077
g57
(g78
g59
NtRp4078
(dp4079
g62
(dp4080
sg71
g4074
sg64
(lp4081
g57
(g58
g59
NtRp4082
(dp4083
g62
(dp4084
g70
I3
ssg71
g4078
sg64
(lp4085
g57
(g66
g59
NtRp4086
(dp4087
g62
(dp4088
g70
I2
ssg71
Nsg64
(lp4089
sbasbasbasbasbasbasbasbag57
(g73
g59
NtRp4090
(dp4091
g62
(dp4092
sg71
g4015
sg64
(lp4093
g57
(g78
g59
NtRp4094
(dp4095
g62
(dp4096
sg71
g4090
sg64
(lp4097
g57
(g58
g59
NtRp4098
(dp4099
g62
(dp4100
g70
I4
ssg71
g4094
sg64
(lp4101
g57
(g66
g59
NtRp4102
(dp4103
g62
(dp4104
g70
I3
ssg71
Nsg64
(lp4105
g57
(g73
g59
NtRp4106
(dp4107
g62
(dp4108
sg71
g4102
sg64
(lp4109
g57
(g78
g59
NtRp4110
(dp4111
g62
(dp4112
sg71
g4106
sg64
(lp4113
g57
(g58
g59
NtRp4114
(dp4115
g62
(dp4116
g70
I3
ssg71
g4110
sg64
(lp4117
g4047
(S's\x08\x00\x00\x00Post it!'
tRp4118
asbasbasbag57
(g73
g59
NtRp4119
(dp4120
g62
(dp4121
sg71
g4102
sg64
(lp4122
g57
(g78
g59
NtRp4123
(dp4124
g62
(dp4125
sg71
g4119
sg64
(lp4126
g57
(g58
g59
NtRp4127
(dp4128
g62
(dp4129
g70
I3
ssg71
g4123
sg64
(lp4130
g100
asbasbasbag57
(g73
g59
NtRp4131
(dp4132
g62
(dp4133
sg71
g4102
sg64
(lp4134
g57
(g78
g59
NtRp4135
(dp4136
g62
(dp4137
sg71
g4131
sg64
(lp4138
g57
(g58
g59
NtRp4139
(dp4140
g62
(dp4141
g70
I3
ssg71
g4135
sg64
(lp4142
S'/app1/default/postnews'
p4143
asbasbasbag57
(g73
g59
NtRp4144
(dp4145
g62
(dp4146
sg71
g4102
sg64
(lp4147
g57
(g78
g59
NtRp4148
(dp4149
g62
(dp4150
sg71
g4144
sg64
(lp4151
g57
(g58
g59
NtRp4152
(dp4153
g62
(dp4154
g70
I3
ssg71
g4148
sg64
(lp4155
g57
(g66
g59
NtRp4156
(dp4157
g62
(dp4158
g70
I2
ssg71
Nsg64
(lp4159
sbasbasbasbasbasbasbasbag57
(g73
g59
NtRp4160
(dp4161
g62
(dp4162
sg71
g4015
sg64
(lp4163
g57
(g78
g59
NtRp4164
(dp4165
g62
(dp4166
sg71
g4160
sg64
(lp4167
g57
(g58
g59
NtRp4168
(dp4169
g62
(dp4170
g70
I4
ssg71
g4164
sg64
(lp4171
g57
(g66
g59
NtRp4172
(dp4173
g62
(dp4174
g70
I3
ssg71
Nsg64
(lp4175
g57
(g73
g59
NtRp4176
(dp4177
g62
(dp4178
sg71
g4172
sg64
(lp4179
g57
(g78
g59
NtRp4180
(dp4181
g62
(dp4182
sg71
g4176
sg64
(lp4183
g57
(g58
g59
NtRp4184
(dp4185
g62
(dp4186
g70
I3
ssg71
g4180
sg64
(lp4187
g57
(cgluon.html
SPAN
p4188
g59
NtRp4189
(dp4190
g62
(dp4191
g82
S'color:yellow'
p4192
ssg71
Nsg64
(lp4193
g3993
asbasbasbasbag57
(g73
g59
NtRp4194
(dp4195
g62
(dp4196
sg71
g4172
sg64
(lp4197
g57
(g78
g59
NtRp4198
(dp4199
g62
(dp4200
sg71
g4194
sg64
(lp4201
g57
(g58
g59
NtRp4202
(dp4203
g62
(dp4204
g70
I3
ssg71
g4198
sg64
(lp4205
g100
asbasbasbag57
(g73
g59
NtRp4206
(dp4207
g62
(dp4208
sg71
g4172
sg64
(lp4209
g57
(g78
g59
NtRp4210
(dp4211
g62
(dp4212
sg71
g4206
sg64
(lp4213
g57
(g58
g59
NtRp4214
(dp4215
g62
(dp4216
g70
I3
ssg71
g4210
sg64
(lp4217
S'None'
p4218
asbasbasbag57
(g73
g59
NtRp4219
(dp4220
g62
(dp4221
sg71
g4172
sg64
(lp4222
g57
(g78
g59
NtRp4223
(dp4224
g62
(dp4225
sg71
g4219
sg64
(lp4226
g57
(g58
g59
NtRp4227
(dp4228
g62
(dp4229
g70
I3
ssg71
g4223
sg64
(lp4230
g57
(g66
g59
NtRp4231
(dp4232
g62
(dp4233
g70
I2
ssg71
Nsg64
(lp4234
g57
(g73
g59
NtRp4235
(dp4236
g62
(dp4237
sg71
g4231
sg64
(lp4238
g57
(g78
g59
NtRp4239
(dp4240
g62
(dp4241
sg71
g4235
sg64
(lp4242
g57
(g58
g59
NtRp4243
(dp4244
g62
(dp4245
g70
I2
ssg71
g4239
sg64
(lp4246
g57
(g66
g59
NtRp4247
(dp4248
g62
(dp4249
g70
I1
ssg71
Nsg64
(lp4250
g57
(g73
g59
NtRp4251
(dp4252
g62
(dp4253
sg71
g4247
sg64
(lp4254
g57
(g78
g59
NtRp4255
(dp4256
g62
(dp4257
sg71
g4251
sg64
(lp4258
g57
(g58
g59
NtRp4259
(dp4260
g62
(dp4261
g70
I1
ssg71
g4255
sg64
(lp4262
g4047
(S's\x08\x00\x00\x00My Sites'
tRp4263
asbasbasbag57
(g73
g59
NtRp4264
(dp4265
g62
(dp4266
sg71
g4247
sg64
(lp4267
g57
(g78
g59
NtRp4268
(dp4269
g62
(dp4270
sg71
g4264
sg64
(lp4271
g57
(g58
g59
NtRp4272
(dp4273
g62
(dp4274
g70
I1
ssg71
g4268
sg64
(lp4275
I00
asbasbasbag57
(g73
g59
NtRp4276
(dp4277
g62
(dp4278
sg71
g4247
sg64
(lp4279
g57
(g78
g59
NtRp4280
(dp4281
g62
(dp4282
sg71
g4276
sg64
(lp4283
g57
(g58
g59
NtRp4284
(dp4285
g62
(dp4286
g70
I1
ssg71
g4280
sg64
(lp4287
S'/admin/default/site'
p4288
asbasbasbasbasbasbasbag57
(g73
g59
NtRp4289
(dp4290
g62
(dp4291
sg71
g4231
sg64
(lp4292
g57
(g78
g59
NtRp4293
(dp4294
g62
(dp4295
sg71
g4289
sg64
(lp4296
g57
(g58
g59
NtRp4297
(dp4298
g62
(dp4299
g70
I2
ssg71
g4293
sg64
(lp4300
g57
(g66
g59
NtRp4301
(dp4302
g62
(dp4303
g70
I1
ssg71
Nsg64
(lp4304
g57
(g73
g59
NtRp4305
(dp4306
g62
(dp4307
sg71
g4301
sg64
(lp4308
g57
(g78
g59
NtRp4309
(dp4310
g62
(dp4311
sg71
g4305
sg64
(lp4312
g57
(g58
g59
NtRp4313
(dp4314
g62
(dp4315
g70
I1
ssg71
g4309
sg64
(lp4316
g4047
(S's\x08\x00\x00\x00This App'
tRp4317
asbasbasbag57
(g73
g59
NtRp4318
(dp4319
g62
(dp4320
sg71
g4301
sg64
(lp4321
g57
(g78
g59
NtRp4322
(dp4323
g62
(dp4324
sg71
g4318
sg64
(lp4325
g57
(g58
g59
NtRp4326
(dp4327
g62
(dp4328
g70
I1
ssg71
g4322
sg64
(lp4329
I00
asbasbasbag57
(g73
g59
NtRp4330
(dp4331
g62
(dp4332
sg71
g4301
sg64
(lp4333
g57
(g78
g59
NtRp4334
(dp4335
g62
(dp4336
sg71
g4330
sg64
(lp4337
g57
(g58
g59
NtRp4338
(dp4339
g62
(dp4340
g70
I1
ssg71
g4334
sg64
(lp4341
S'/admin/default/design/app1'
p4342
asbasbasbag57
(g73
g59
NtRp4343
(dp4344
g62
(dp4345
sg71
g4301
sg64
(lp4346
g57
(g78
g59
NtRp4347
(dp4348
g62
(dp4349
sg71
g4343
sg64
(lp4350
g57
(g58
g59
NtRp4351
(dp4352
g62
(dp4353
g70
I1
ssg71
g4347
sg64
(lp4354
(lp4355
(g4047
(S't\n\x00\x00\x00Controller'
tRp4356
I00
S'/admin/default/edit/app1/controllers/default.py'
tp4357
a(g4047
(S't\x04\x00\x00\x00View'
tRp4358
I00
S'/admin/default/edit/app1/views/default/showcomments.html'
tp4359
a(g4047
(S't\x06\x00\x00\x00Layout'
tRp4360
I00
S'/admin/default/edit/app1/views/layout.html'
tp4361
a(g4047
(S't\n\x00\x00\x00Stylesheet'
tRp4362
I00
S'/admin/default/edit/app1/static/css/web2py.css'
tp4363
a(g4047
(S's\x08\x00\x00\x00DB Model'
tRp4364
I00
S'/admin/default/edit/app1/models/db.py'
tp4365
a(g4047
(S's\n\x00\x00\x00Menu Model'
tRp4366
I00
S'/admin/default/edit/app1/models/menu.py'
tp4367
a(g4047
(S't\x08\x00\x00\x00Database'
tRp4368
I00
S'/app1/appadmin/index'
tp4369
a(g4047
(S't\x06\x00\x00\x00Errors'
tRp4370
I00
S'/admin/default/errors/app1'
tp4371
a(g4047
(S't\x05\x00\x00\x00About'
tRp4372
I00
S'/admin/default/about/app1'
tp4373
aasbasbasbasbasbasbasbag57
(g73
g59
NtRp4374
(dp4375
g62
(dp4376
sg71
g4231
sg64
(lp4377
g57
(g78
g59
NtRp4378
(dp4379
g62
(dp4380
sg71
g4374
sg64
(lp4381
g57
(g58
g59
NtRp4382
(dp4383
g62
(dp4384
g70
I2
ssg71
g4378
sg64
(lp4385
g57
(g66
g59
NtRp4386
(dp4387
g62
(dp4388
g70
I1
ssg71
Nsg64
(lp4389
g57
(g73
g59
NtRp4390
(dp4391
g62
(dp4392
sg71
g4386
sg64
(lp4393
g57
(g78
g59
NtRp4394
(dp4395
g62
(dp4396
sg71
g4390
sg64
(lp4397
g57
(g58
g59
NtRp4398
(dp4399
g62
(dp4400
g70
I1
ssg71
g4394
sg64
(lp4401
S'web2py.com'
p4402
asbasbasbag57
(g73
g59
NtRp4403
(dp4404
g62
(dp4405
sg71
g4386
sg64
(lp4406
g57
(g78
g59
NtRp4407
(dp4408
g62
(dp4409
sg71
g4403
sg64
(lp4410
g57
(g58
g59
NtRp4411
(dp4412
g62
(dp4413
g70
I1
ssg71
g4407
sg64
(lp4414
I00
asbasbasbag57
(g73
g59
NtRp4415
(dp4416
g62
(dp4417
sg71
g4386
sg64
(lp4418
g57
(g78
g59
NtRp4419
(dp4420
g62
(dp4421
sg71
g4415
sg64
(lp4422
g57
(g58
g59
NtRp4423
(dp4424
g62
(dp4425
g70
I1
ssg71
g4419
sg64
(lp4426
S'http://www.web2py.com'
p4427
asbasbasbag57
(g73
g59
NtRp4428
(dp4429
g62
(dp4430
sg71
g4386
sg64
(lp4431
g57
(g78
g59
NtRp4432
(dp4433
g62
(dp4434
sg71
g4428
sg64
(lp4435
g57
(g58
g59
NtRp4436
(dp4437
g62
(dp4438
g70
I1
ssg71
g4432
sg64
(lp4439
(lp4440
(g4047
(S't\x08\x00\x00\x00Download'
tRp4441
I00
S'http://www.web2py.com/examples/default/download'
p4442
tp4443
a(g4047
(S't\x07\x00\x00\x00Support'
tRp4444
I00
S'http://www.web2py.com/examples/default/support'
p4445
tp4446
a(g4047
(S't\x04\x00\x00\x00Demo'
tRp4447
I00
S'http://web2py.com/demo_admin'
p4448
tp4449
a(g4047
(S's\x0e\x00\x00\x00Quick Examples'
tRp4450
I00
S'http://web2py.com/examples/default/examples'
p4451
tp4452
a(g4047
(S't\x03\x00\x00\x00FAQ'
tRp4453
I00
S'http://web2py.com/AlterEgo'
p4454
tp4455
a(g4047
(S't\x06\x00\x00\x00Videos'
tRp4456
I00
S'http://www.web2py.com/examples/default/videos/'
p4457
tp4458
a(g4047
(S's\x11\x00\x00\x00Free Applications'
tRp4459
I00
S'http://web2py.com/appliances'
p4460
tp4461
a(g4047
(S't\x07\x00\x00\x00Plugins'
tRp4462
I00
S'http://web2py.com/plugins'
p4463
tp4464
a(g4047
(S't\x07\x00\x00\x00Layouts'
tRp4465
I00
S'http://web2py.com/layouts'
p4466
tp4467
a(g4047
(S't\x07\x00\x00\x00Recipes'
tRp4468
I00
S'http://web2pyslices.com/'
p4469
tp4470
a(g4047
(S't\x08\x00\x00\x00Semantic'
tRp4471
I00
S'http://web2py.com/semantic'
p4472
tp4473
aasbasbasbasbasbasbasbag57
(g73
g59
NtRp4474
(dp4475
g62
(dp4476
sg71
g4231
sg64
(lp4477
g57
(g78
g59
NtRp4478
(dp4479
g62
(dp4480
sg71
g4474
sg64
(lp4481
g57
(g58
g59
NtRp4482
(dp4483
g62
(dp4484
g70
I2
ssg71
g4478
sg64
(lp4485
g57
(g66
g59
NtRp4486
(dp4487
g62
(dp4488
g70
I1
ssg71
Nsg64
(lp4489
g57
(g73
g59
NtRp4490
(dp4491
g62
(dp4492
sg71
g4486
sg64
(lp4493
g57
(g78
g59
NtRp4494
(dp4495
g62
(dp4496
sg71
g4490
sg64
(lp4497
g57
(g58
g59
NtRp4498
(dp4499
g62
(dp4500
g70
I1
ssg71
g4494
sg64
(lp4501
g4047
(S't\r\x00\x00\x00Documentation'
tRp4502
asbasbasbag57
(g73
g59
NtRp4503
(dp4504
g62
(dp4505
sg71
g4486
sg64
(lp4506
g57
(g78
g59
NtRp4507
(dp4508
g62
(dp4509
sg71
g4503
sg64
(lp4510
g57
(g58
g59
NtRp4511
(dp4512
g62
(dp4513
g70
I1
ssg71
g4507
sg64
(lp4514
I00
asbasbasbag57
(g73
g59
NtRp4515
(dp4516
g62
(dp4517
sg71
g4486
sg64
(lp4518
g57
(g78
g59
NtRp4519
(dp4520
g62
(dp4521
sg71
g4515
sg64
(lp4522
g57
(g58
g59
NtRp4523
(dp4524
g62
(dp4525
g70
I1
ssg71
g4519
sg64
(lp4526
S'http://www.web2py.com/book'
p4527
asbasbasbag57
(g73
g59
NtRp4528
(dp4529
g62
(dp4530
sg71
g4486
sg64
(lp4531
g57
(g78
g59
NtRp4532
(dp4533
g62
(dp4534
sg71
g4528
sg64
(lp4535
g57
(g58
g59
NtRp4536
(dp4537
g62
(dp4538
g70
I1
ssg71
g4532
sg64
(lp4539
(lp4540
(g4047
(S't\x07\x00\x00\x00Preface'
tRp4541
I00
S'http://www.web2py.com/book/default/chapter/00'
p4542
tp4543
a(g4047
(S't\x0c\x00\x00\x00Introduction'
tRp4544
I00
S'http://www.web2py.com/book/default/chapter/01'
p4545
tp4546
a(g4047
(S't\x06\x00\x00\x00Python'
tRp4547
I00
S'http://www.web2py.com/book/default/chapter/02'
p4548
tp4549
a(g4047
(S't\x08\x00\x00\x00Overview'
tRp4550
I00
S'http://www.web2py.com/book/default/chapter/03'
p4551
tp4552
a(g4047
(S's\x08\x00\x00\x00The Core'
tRp4553
I00
S'http://www.web2py.com/book/default/chapter/04'
p4554
tp4555
a(g4047
(S's\t\x00\x00\x00The Views'
tRp4556
I00
S'http://www.web2py.com/book/default/chapter/05'
p4557
tp4558
a(g4047
(S't\x08\x00\x00\x00Database'
tRp4559
I00
S'http://www.web2py.com/book/default/chapter/06'
p4560
tp4561
a(g4047
(S's\x14\x00\x00\x00Forms and Validators'
tRp4562
I00
S'http://www.web2py.com/book/default/chapter/07'
p4563
tp4564
a(g4047
(S's\r\x00\x00\x00Email and SMS'
tRp4565
I00
S'http://www.web2py.com/book/default/chapter/08'
p4566
tp4567
a(g4047
(S's\x0e\x00\x00\x00Access Control'
tRp4568
I00
S'http://www.web2py.com/book/default/chapter/09'
p4569
tp4570
a(g4047
(S't\x08\x00\x00\x00Services'
tRp4571
I00
S'http://www.web2py.com/book/default/chapter/10'
p4572
tp4573
a(g4047
(S's\x0c\x00\x00\x00Ajax Recipes'
tRp4574
I00
S'http://www.web2py.com/book/default/chapter/11'
p4575
tp4576
a(g4047
(S's\x16\x00\x00\x00Components and Plugins'
tRp4577
I00
S'http://www.web2py.com/book/default/chapter/12'
p4578
tp4579
a(g4047
(S's\x12\x00\x00\x00Deployment Recipes'
tRp4580
I00
S'http://www.web2py.com/book/default/chapter/13'
p4581
tp4582
a(g4047
(S's\r\x00\x00\x00Other Recipes'
tRp4583
I00
S'http://www.web2py.com/book/default/chapter/14'
p4584
tp4585
a(g4047
(S's\r\x00\x00\x00Buy this book'
tRp4586
I00
S'http://stores.lulu.com/web2py'
p4587
tp4588
aasbasbasbasbasbasbasbag57
(g73
g59
NtRp4589
(dp4590
g62
(dp4591
sg71
g4231
sg64
(lp4592
g57
(g78
g59
NtRp4593
(dp4594
g62
(dp4595
sg71
g4589
sg64
(lp4596
g57
(g58
g59
NtRp4597
(dp4598
g62
(dp4599
g70
I2
ssg71
g4593
sg64
(lp4600
g57
(g66
g59
NtRp4601
(dp4602
g62
(dp4603
g70
I1
ssg71
Nsg64
(lp4604
g57
(g73
g59
NtRp4605
(dp4606
g62
(dp4607
sg71
g4601
sg64
(lp4608
g57
(g78
g59
NtRp4609
(dp4610
g62
(dp4611
sg71
g4605
sg64
(lp4612
g57
(g58
g59
NtRp4613
(dp4614
g62
(dp4615
g70
I1
ssg71
g4609
sg64
(lp4616
g4047
(S't\t\x00\x00\x00Community'
tRp4617
asbasbasbag57
(g73
g59
NtRp4618
(dp4619
g62
(dp4620
sg71
g4601
sg64
(lp4621
g57
(g78
g59
NtRp4622
(dp4623
g62
(dp4624
sg71
g4618
sg64
(lp4625
g57
(g58
g59
NtRp4626
(dp4627
g62
(dp4628
g70
I1
ssg71
g4622
sg64
(lp4629
I00
asbasbasbag57
(g73
g59
NtRp4630
(dp4631
g62
(dp4632
sg71
g4601
sg64
(lp4633
g57
(g78
g59
NtRp4634
(dp4635
g62
(dp4636
sg71
g4630
sg64
(lp4637
g57
(g58
g59
NtRp4638
(dp4639
g62
(dp4640
g70
I1
ssg71
g4634
sg64
(lp4641
Nasbasbasbag57
(g73
g59
NtRp4642
(dp4643
g62
(dp4644
sg71
g4601
sg64
(lp4645
g57
(g78
g59
NtRp4646
(dp4647
g62
(dp4648
sg71
g4642
sg64
(lp4649
g57
(g58
g59
NtRp4650
(dp4651
g62
(dp4652
g70
I1
ssg71
g4646
sg64
(lp4653
(lp4654
(g4047
(S't\x06\x00\x00\x00Groups'
tRp4655
I00
S'http://www.web2py.com/examples/default/usergroups'
p4656
tp4657
a(g4047
(S't\x07\x00\x00\x00Twitter'
tRp4658
I00
S'http://twitter.com/web2py'
p4659
tp4660
a(g4047
(S's\t\x00\x00\x00Live Chat'
tRp4661
I00
S'http://webchat.freenode.net/?channels=web2py'
p4662
tp4663
aasbasbasbasbasbasbasbag57
(g73
g59
NtRp4664
(dp4665
g62
(dp4666
sg71
g4231
sg64
(lp4667
g57
(g78
g59
NtRp4668
(dp4669
g62
(dp4670
sg71
g4664
sg64
(lp4671
g57
(g58
g59
NtRp4672
(dp4673
g62
(dp4674
g70
I2
ssg71
g4668
sg64
(lp4675
g57
(g66
g59
NtRp4676
(dp4677
g62
(dp4678
g70
I1
ssg71
Nsg64
(lp4679
g57
(g73
g59
NtRp4680
(dp4681
g62
(dp4682
sg71
g4676
sg64
(lp4683
g57
(g78
g59
NtRp4684
(dp4685
g62
(dp4686
sg71
g4680
sg64
(lp4687
g57
(g58
g59
NtRp4688
(dp4689
g62
(dp4690
g70
I1
ssg71
g4684
sg64
(lp4691
g4047
(S't\x07\x00\x00\x00Plugins'
tRp4692
asbasbasbag57
(g73
g59
NtRp4693
(dp4694
g62
(dp4695
sg71
g4676
sg64
(lp4696
g57
(g78
g59
NtRp4697
(dp4698
g62
(dp4699
sg71
g4693
sg64
(lp4700
g57
(g58
g59
NtRp4701
(dp4702
g62
(dp4703
g70
I1
ssg71
g4697
sg64
(lp4704
I00
asbasbasbag57
(g73
g59
NtRp4705
(dp4706
g62
(dp4707
sg71
g4676
sg64
(lp4708
g57
(g78
g59
NtRp4709
(dp4710
g62
(dp4711
sg71
g4705
sg64
(lp4712
g57
(g58
g59
NtRp4713
(dp4714
g62
(dp4715
g70
I1
ssg71
g4709
sg64
(lp4716
Nasbasbasbag57
(g73
g59
NtRp4717
(dp4718
g62
(dp4719
sg71
g4676
sg64
(lp4720
g57
(g78
g59
NtRp4721
(dp4722
g62
(dp4723
sg71
g4717
sg64
(lp4724
g57
(g58
g59
NtRp4725
(dp4726
g62
(dp4727
g70
I1
ssg71
g4721
sg64
(lp4728
(lp4729
(S'plugin_wiki'
p4730
I00
S'http://web2py.com/examples/default/download'
p4731
tp4732
a(g4047
(S's\r\x00\x00\x00Other Plugins'
tRp4733
I00
g4463
tp4734
a(g4047
(S's\x0e\x00\x00\x00Layout Plugins'
tRp4735
I00
g4466
tp4736
aasbasbasbasbasbasbasbasbasbasbasbasbasbasbasbasbasbasbasbag57
(g73
g59
NtRp4737
(dp4738
g62
(dp4739
sg71
g3542
sg64
(lp4740
g57
(g78
g59
NtRp4741
(dp4742
g62
(dp4743
g82
g83
ssg71
g4737
sg64
(lp4744
S'meta'
p4745
asbag57
(g78
g59
NtRp4746
(dp4747
g62
(dp4748
g89
g90
ssg71
g4737
sg64
(lp4749
S':'
asbag57
(g78
g59
NtRp4750
(dp4751
g62
(dp4752
sg71
g4737
sg64
(lp4753
g57
(g58
g59
NtRp4754
(dp4755
g62
(dp4756
g70
I5
ssg71
g4750
sg64
(lp4757
g57
(g66
g59
NtRp4758
(dp4759
g62
(dp4760
g70
I4
ssg71
Nsg64
(lp4761
g57
(g73
g59
NtRp4762
(dp4763
g62
(dp4764
sg71
g4758
sg64
(lp4765
g57
(g78
g59
NtRp4766
(dp4767
g62
(dp4768
g82
g83
ssg71
g4762
sg64
(lp4769
S'author'
p4770
asbag57
(g78
g59
NtRp4771
(dp4772
g62
(dp4773
g89
g90
ssg71
g4762
sg64
(lp4774
S':'
asbag57
(g78
g59
NtRp4775
(dp4776
g62
(dp4777
sg71
g4762
sg64
(lp4778
g57
(g58
g59
NtRp4779
(dp4780
g62
(dp4781
g70
I4
ssg71
g4775
sg64
(lp4782
S'Your Name <you@example.com>'
p4783
asbasbasbag57
(g73
g59
NtRp4784
(dp4785
g62
(dp4786
sg71
g4758
sg64
(lp4787
g57
(g78
g59
NtRp4788
(dp4789
g62
(dp4790
g82
g83
ssg71
g4784
sg64
(lp4791
S'copyright'
p4792
asbag57
(g78
g59
NtRp4793
(dp4794
g62
(dp4795
g89
g90
ssg71
g4784
sg64
(lp4796
S':'
asbag57
(g78
g59
NtRp4797
(dp4798
g62
(dp4799
sg71
g4784
sg64
(lp4800
g57
(g58
g59
NtRp4801
(dp4802
g62
(dp4803
g70
I4
ssg71
g4797
sg64
(lp4804
S'Copyright 2011'
p4805
asbasbasbag57
(g73
g59
NtRp4806
(dp4807
g62
(dp4808
sg71
g4758
sg64
(lp4809
g57
(g78
g59
NtRp4810
(dp4811
g62
(dp4812
g82
g83
ssg71
g4806
sg64
(lp4813
S'description'
p4814
asbag57
(g78
g59
NtRp4815
(dp4816
g62
(dp4817
g89
g90
ssg71
g4806
sg64
(lp4818
S':'
asbag57
(g78
g59
NtRp4819
(dp4820
g62
(dp4821
sg71
g4806
sg64
(lp4822
g57
(g58
g59
NtRp4823
(dp4824
g62
(dp4825
g70
I4
ssg71
g4819
sg64
(lp4826
S'a cool new app'
p4827
asbasbasbag57
(g73
g59
NtRp4828
(dp4829
g62
(dp4830
sg71
g4758
sg64
(lp4831
g57
(g78
g59
NtRp4832
(dp4833
g62
(dp4834
g82
g83
ssg71
g4828
sg64
(lp4835
S'generator'
p4836
asbag57
(g78
g59
NtRp4837
(dp4838
g62
(dp4839
g89
g90
ssg71
g4828
sg64
(lp4840
S':'
asbag57
(g78
g59
NtRp4841
(dp4842
g62
(dp4843
sg71
g4828
sg64
(lp4844
g57
(g58
g59
NtRp4845
(dp4846
g62
(dp4847
g70
I4
ssg71
g4841
sg64
(lp4848
S'Web2py Web Framework'
p4849
asbasbasbag57
(g73
g59
NtRp4850
(dp4851
g62
(dp4852
sg71
g4758
sg64
(lp4853
g57
(g78
g59
NtRp4854
(dp4855
g62
(dp4856
g82
g83
ssg71
g4850
sg64
(lp4857
S'keywords'
p4858
asbag57
(g78
g59
NtRp4859
(dp4860
g62
(dp4861
g89
g90
ssg71
g4850
sg64
(lp4862
S':'
asbag57
(g78
g59
NtRp4863
(dp4864
g62
(dp4865
sg71
g4850
sg64
(lp4866
g57
(g58
g59
NtRp4867
(dp4868
g62
(dp4869
g70
I4
ssg71
g4863
sg64
(lp4870
S'web2py, python, framework'
p4871
asbasbasbasbasbasbasbag57
(g73
g59
NtRp4872
(dp4873
g62
(dp4874
sg71
g3542
sg64
(lp4875
g57
(g78
g59
NtRp4876
(dp4877
g62
(dp4878
g82
g83
ssg71
g4872
sg64
(lp4879
S'postprocessing'
p4880
asbag57
(g78
g59
NtRp4881
(dp4882
g62
(dp4883
g89
g90
ssg71
g4872
sg64
(lp4884
S':'
asbag57
(g78
g59
NtRp4885
(dp4886
g62
(dp4887
sg71
g4872
sg64
(lp4888
g57
(g58
g59
NtRp4889
(dp4890
g62
(dp4891
g70
I5
ssg71
g4885
sg64
(lp4892
g57
(g66
g59
NtRp4893
(dp4894
g62
(dp4895
g70
I4
ssg71
Nsg64
(lp4896
sbasbasbasbag57
(g73
g59
NtRp4897
(dp4898
g62
(dp4899
sg71
g3542
sg64
(lp4900
g57
(g78
g59
NtRp4901
(dp4902
g62
(dp4903
g82
g83
ssg71
g4897
sg64
(lp4904
S'session_file'
p4905
asbag57
(g78
g59
NtRp4906
(dp4907
g62
(dp4908
g89
g90
ssg71
g4897
sg64
(lp4909
S':'
asbag57
(g78
g59
NtRp4910
(dp4911
g62
(dp4912
sg71
g4897
sg64
(lp4913
g57
(g58
g59
NtRp4914
(dp4915
g62
(dp4916
g70
I5
ssg71
g4910
sg64
(lp4917
S"<open file '/home/jigar/web2py/applications/app1/sessions/127.0.0.1-a7d133f4-acec-437f-a963-db7b5b722c49', mode 'rb+' at 0x7fb43c12c300>"
p4918
asbasbasbag57
(g73
g59
NtRp4919
(dp4920
g62
(dp4921
sg71
g3542
sg64
(lp4922
g57
(g78
g59
NtRp4923
(dp4924
g62
(dp4925
g82
g83
ssg71
g4919
sg64
(lp4926
S'session_filename'
p4927
asbag57
(g78
g59
NtRp4928
(dp4929
g62
(dp4930
g89
g90
ssg71
g4919
sg64
(lp4931
S':'
asbag57
(g78
g59
NtRp4932
(dp4933
g62
(dp4934
sg71
g4919
sg64
(lp4935
g57
(g58
g59
NtRp4936
(dp4937
g62
(dp4938
g70
I5
ssg71
g4932
sg64
(lp4939
S'/home/jigar/web2py/applications/app1/sessions/127.0.0.1-a7d133f4-acec-437f-a963-db7b5b722c49'
p4940
asbasbasbag57
(g73
g59
NtRp4941
(dp4942
g62
(dp4943
sg71
g3542
sg64
(lp4944
g57
(g78
g59
NtRp4945
(dp4946
g62
(dp4947
g82
g83
ssg71
g4941
sg64
(lp4948
S'session_id'
p4949
asbag57
(g78
g59
NtRp4950
(dp4951
g62
(dp4952
g89
g90
ssg71
g4941
sg64
(lp4953
S':'
asbag57
(g78
g59
NtRp4954
(dp4955
g62
(dp4956
sg71
g4941
sg64
(lp4957
g57
(g58
g59
NtRp4958
(dp4959
g62
(dp4960
g70
I5
ssg71
g4954
sg64
(lp4961
S'127.0.0.1-a7d133f4-acec-437f-a963-db7b5b722c49'
p4962
asbasbasbag57
(g73
g59
NtRp4963
(dp4964
g62
(dp4965
sg71
g3542
sg64
(lp4966
g57
(g78
g59
NtRp4967
(dp4968
g62
(dp4969
g82
g83
ssg71
g4963
sg64
(lp4970
S'session_id_name'
p4971
asbag57
(g78
g59
NtRp4972
(dp4973
g62
(dp4974
g89
g90
ssg71
g4963
sg64
(lp4975
S':'
asbag57
(g78
g59
NtRp4976
(dp4977
g62
(dp4978
sg71
g4963
sg64
(lp4979
g57
(g58
g59
NtRp4980
(dp4981
g62
(dp4982
g70
I5
ssg71
g4976
sg64
(lp4983
g3599
asbasbasbag57
(g73
g59
NtRp4984
(dp4985
g62
(dp4986
sg71
g3542
sg64
(lp4987
g57
(g78
g59
NtRp4988
(dp4989
g62
(dp4990
g82
g83
ssg71
g4984
sg64
(lp4991
S'session_locked'
p4992
asbag57
(g78
g59
NtRp4993
(dp4994
g62
(dp4995
g89
g90
ssg71
g4984
sg64
(lp4996
S':'
asbag57
(g78
g59
NtRp4997
(dp4998
g62
(dp4999
sg71
g4984
sg64
(lp5000
g57
(g58
g59
NtRp5001
(dp5002
g62
(dp5003
g70
I5
ssg71
g4997
sg64
(lp5004
g1707
asbasbasbag57
(g73
g59
NtRp5005
(dp5006
g62
(dp5007
sg71
g3542
sg64
(lp5008
g57
(g78
g59
NtRp5009
(dp5010
g62
(dp5011
g82
g83
ssg71
g5005
sg64
(lp5012
S'session_new'
p5013
asbag57
(g78
g59
NtRp5014
(dp5015
g62
(dp5016
g89
g90
ssg71
g5005
sg64
(lp5017
S':'
asbag57
(g78
g59
NtRp5018
(dp5019
g62
(dp5020
sg71
g5005
sg64
(lp5021
g57
(g58
g59
NtRp5022
(dp5023
g62
(dp5024
g70
I5
ssg71
g5018
sg64
(lp5025
g100
asbasbasbag57
(g73
g59
NtRp5026
(dp5027
g62
(dp5028
sg71
g3542
sg64
(lp5029
g57
(g78
g59
NtRp5030
(dp5031
g62
(dp5032
g82
g83
ssg71
g5026
sg64
(lp5033
S'status'
p5034
asbag57
(g78
g59
NtRp5035
(dp5036
g62
(dp5037
g89
g90
ssg71
g5026
sg64
(lp5038
S':'
asbag57
(g78
g59
NtRp5039
(dp5040
g62
(dp5041
sg71
g5026
sg64
(lp5042
g57
(g58
g59
NtRp5043
(dp5044
g62
(dp5045
g70
I5
ssg71
g5039
sg64
(lp5046
S'200'
p5047
asbasbasbag57
(g73
g59
NtRp5048
(dp5049
g62
(dp5050
sg71
g3542
sg64
(lp5051
g57
(g78
g59
NtRp5052
(dp5053
g62
(dp5054
g82
g83
ssg71
g5048
sg64
(lp5055
S'subtitle'
p5056
asbag57
(g78
g59
NtRp5057
(dp5058
g62
(dp5059
g89
g90
ssg71
g5048
sg64
(lp5060
S':'
asbag57
(g78
g59
NtRp5061
(dp5062
g62
(dp5063
sg71
g5048
sg64
(lp5064
g57
(g58
g59
NtRp5065
(dp5066
g62
(dp5067
g70
I5
ssg71
g5061
sg64
(lp5068
g4047
(S's\r\x00\x00\x00customize me!'
tRp5069
asbasbasbag57
(g73
g59
NtRp5070
(dp5071
g62
(dp5072
sg71
g3542
sg64
(lp5073
g57
(g78
g59
NtRp5074
(dp5075
g62
(dp5076
g82
g83
ssg71
g5070
sg64
(lp5077
S'title'
p5078
asbag57
(g78
g59
NtRp5079
(dp5080
g62
(dp5081
g89
g90
ssg71
g5070
sg64
(lp5082
S':'
asbag57
(g78
g59
NtRp5083
(dp5084
g62
(dp5085
sg71
g5070
sg64
(lp5086
g57
(g58
g59
NtRp5087
(dp5088
g62
(dp5089
g70
I5
ssg71
g5083
sg64
(lp5090
S'App1'
p5091
asbasbasbag57
(g73
g59
NtRp5092
(dp5093
g62
(dp5094
sg71
g3542
sg64
(lp5095
g57
(g78
g59
NtRp5096
(dp5097
g62
(dp5098
g82
g83
ssg71
g5092
sg64
(lp5099
g2393
asbag57
(g78
g59
NtRp5100
(dp5101
g62
(dp5102
g89
g90
ssg71
g5092
sg64
(lp5103
S':'
asbag57
(g78
g59
NtRp5104
(dp5105
g62
(dp5106
sg71
g5092
sg64
(lp5107
g57
(g58
g59
NtRp5108
(dp5109
g62
(dp5110
g70
I5
ssg71
g5104
sg64
(lp5111
g2406
asbasbasbag57
(g73
g59
NtRp5112
(dp5113
g62
(dp5114
sg71
g3542
sg64
(lp5115
g57
(g78
g59
NtRp5116
(dp5117
g62
(dp5118
g82
g83
ssg71
g5112
sg64
(lp5119
S'view'
p5120
asbag57
(g78
g59
NtRp5121
(dp5122
g62
(dp5123
g89
g90
ssg71
g5112
sg64
(lp5124
S':'
asbag57
(g78
g59
NtRp5125
(dp5126
g62
(dp5127
sg71
g5112
sg64
(lp5128
g57
(g58
g59
NtRp5129
(dp5130
g62
(dp5131
g70
I5
ssg71
g5125
sg64
(lp5132
S'default/showcomments.html'
p5133
asbasbasbasbasbsS'locals'
p5134
(dp5135
S'r'
S"'app1'"
p5136
sssS'traceback'
p5137
S'Traceback (most recent call last):\n  File "/usr/lib/pymodules/python2.7/gluon/restricted.py", line 204, in restricted\n    exec ccode in environment\n  File "/home/jigar/web2py/applications/app1/controllers/default.py", line 252, in <module>\n  File "/usr/lib/pymodules/python2.7/gluon/globals.py", line 172, in <lambda>\n    self._caller = lambda f: f()\n  File "/usr/lib/pymodules/python2.7/gluon/tools.py", line 2533, in f\n    return action(*a, **b)\n  File "/home/jigar/web2py/applications/app1/controllers/default.py", line 178, in showcomments\n    r=int(r)\nValueError: invalid literal for int() with base 10: \'app1\'\n'
p5138
s.