(dp1
S'output'
p2
S"<type 'exceptions.TypeError'> list indices must be integers, not str"
p3
sS'layer'
p4
S'/home/jigar/web2py/applications/app1/views/default/lall.html'
p5
sS'code'
p6
S'response.write(\'<!DOCTYPE html>\\n<!-- paulirish.com/2008/conditional-stylesheets-vs-css-hacks-answer-neither/ -->\\n<!--[if lt IE 7]><html class="ie ie6 ie-lte9 ie-lte8 ie-lte7 no-js" lang="\', escape=False)\nresponse.write(T.accepted_language or \'en\')\nresponse.write(\'"> <![endif]-->\\n<!--[if IE 7]><html class="ie ie7 ie-lte9 ie-lte8 ie-lte7 no-js" lang="\', escape=False)\nresponse.write(T.accepted_language or \'en\')\nresponse.write(\'"> <![endif]-->\\n<!--[if IE 8]><html class="ie ie8 ie-lte9 ie-lte8 no-js" lang="\', escape=False)\nresponse.write(T.accepted_language or \'en\')\nresponse.write(\'"> <![endif]-->\\n<!--[if IE 9]><html class="ie9 ie-lte9 no-js" lang="\', escape=False)\nresponse.write(T.accepted_language or \'en\')\nresponse.write(\'"> <![endif]-->\\n<!--[if (gt IE 9)|!(IE)]><!--> <html class="no-js" lang="\', escape=False)\nresponse.write(T.accepted_language or \'en\')\nresponse.write(\'"> <!--<![endif]-->\\n<head>\\n  <meta charset="utf-8" />\\n  <!-- www.phpied.com/conditional-comments-block-downloads/ -->\\n  <!-- Always force latest IE rendering engine\\n\\t   (even in intranet) & Chrome Frame\\n\\t   Remove this if you use the .htaccess -->\\n  <!--[if IE]>\\n    <meta http-equiv="X-UA-Compatible" content="IE=edge\', escape=False)\nresponse.write(not request.is_local and \',chrome=1\' or \'\')\nresponse.write(\'">\\n  <![endif]-->\\n  \\n  <title>\', escape=False)\nresponse.write(response.title or request.application)\nresponse.write(\'</title>\\n  \\n  <!-- http://dev.w3.org/html5/markup/meta.name.html -->\\n  <meta name="application-name" content="\', escape=False)\nresponse.write(request.application)\nresponse.write(\'" />\\n  \\n  <!-- Speaking of Google, don\\\'t forget to set your site up:\\n\\t   http://google.com/webmasters -->\\n  <meta name="google-site-verification" content="" />\\n\\n  <!--  Mobile Viewport Fix\\n\\t  j.mp/mobileviewport & davidbcalhoun.com/2010/viewport-metatag\\n\\t  device-width: Occupy full width of the screen in its current orientation\\n\\t  initial-scale = 1.0 retains dimensions instead of zooming out if page height > device height\\n\\t  user-scalable = yes allows the user to zoom in -->\\n  <meta name="viewport" content="width=device-width, initial-scale=1.0, user-scalable=yes">\\n  \\n  <!-- Place favicon.ico and apple-touch-icon.png in the root of your domain and delete these references -->\\n  <link rel="shortcut icon" href="\', escape=False)\nresponse.write(URL(\'static\',\'favicon.ico\'))\nresponse.write(\'" type="image/x-icon">\\n  <link rel="apple-touch-icon" href="\', escape=False)\nresponse.write(URL(\'static\',\'favicon.png\'))\nresponse.write(\'">\\n\\n  <!-- All JavaScript at the bottom, except for Modernizr which enables \\n\\t   HTML5 elements & feature detects -->\\n  <script src="\', escape=False)\nresponse.write(URL(\'static\',\'js/modernizr.custom.js\'))\nresponse.write(\'"></script>  \\n\\n  <!-- include stylesheets -->\\n  \', escape=False)\nresponse.files.append(URL(\'static\',\'css/skeleton.css\'))\nresponse.files.append(URL(\'static\',\'css/web2py.css\'))\nresponse.files.append(URL(\'static\',\'css/superfish.css\'))\nresponse.files.append(URL(\'static\',\'js/superfish.js\'))\nresponse.write(\'\\n\\n  \', escape=False)\nresponse.write(\'<script type="text/javascript"><!--\\n    // These variables are used by the web2py_ajax_init function in web2py_ajax.js (which is loaded below).\\n    var w2p_ajax_confirm_message = "\', escape=False)\nresponse.write(T(\'Are you sure you want to delete this object?\'))\nresponse.write(\'";\\n    var w2p_ajax_date_format = "\', escape=False)\nresponse.write(T(\'%Y-%m-%d\'))\nresponse.write(\'";\\n    var w2p_ajax_datetime_format = "\', escape=False)\nresponse.write(T(\'%Y-%m-%d %H:%M:%S\'))\nresponse.write(\'";\\n    //--></script>\\n\', escape=False)\nresponse.files.insert(0,URL(\'static\',\'js/jquery.js\'))\nresponse.files.insert(1,URL(\'static\',\'css/calendar.css\'))\nresponse.files.insert(2,URL(\'static\',\'js/calendar.js\'))\nresponse.files.insert(3,URL(\'static\',\'js/web2py.js\'))\nresponse.include_meta()\nresponse.include_files()\nresponse.write(\'\\n\', escape=False)\nresponse.write(\'\\n\\n  <script type="text/javascript">\\n    jQuery(function(){ jQuery(\\\'ul.sf-menu\\\').supersubs({minWidth:12,maxWidth:30,extraWidth:3}).superfish(); });\\n  </script>\\n\\n  \', escape=False)\n# using sidebars need to know what sidebar you want to use\nleft_sidebar_enabled = globals().get(\'left_sidebar_enabled\',False)\nright_sidebar_enabled = globals().get(\'right_sidebar_enabled\',False)\nmiddle_columns = {0:\'sixteen\',1:\'twelve\',2:\'eight\'}[\n(left_sidebar_enabled and 1 or 0)+(right_sidebar_enabled and 1 or 0)]\nresponse.write(\'\\n\\n  <!-- uncomment here to load jquery-ui\\n  <link rel="stylesheet" href="http://ajax.googleapis.com/ajax/libs/jqueryui/1.8.16/themes/base/jquery-ui.css" type="text/css" media="all" />\\n  <script src="http://ajax.googleapis.com/ajax/libs/jqueryui/1.8.16/jquery-ui.min.js" type="text/javascript"></script>\\n  uncomment to load jquery-ui //-->\\n</head>\\n<body>\\n  <div class="wrapper"><!-- for sticky footer -->\\n  \\n    <div class="topbar">\\n      <div class="container">    \\n        <div class="sixteen columns">\\n          <div id="navbar">\', escape=False)\nresponse.write(\'auth\' in globals() and auth.navbar(separators=(\' \',\' | \',\'\')))\nresponse.write(\'</div>\\n          \', escape=False)\nis_mobile=request.user_agent().is_mobile\nresponse.write(\'\\n          <div id="menu">\', escape=False)\nresponse.write(MENU(response.menu, _class=\'mobile-menu\' if is_mobile else \'sf-menu\',mobile=is_mobile))\nresponse.write(\'\\n          </div>\\n        </div>\\n      </div>\\n    </div><!-- topbar -->\\n    \\n    <div class="flash">\', escape=False)\nresponse.write(response.flash or \'\')\nresponse.write(\'</div>\\n    \\n    <div class="header">\\n      <div class="container">         \\n        <div class="sixteen columns">\\n          <h1 class="remove-bottom" style="margin-top: .5em;">\\n          \', escape=False)\nresponse.write(response.title or request.application)\nresponse.write(\'\\n          </h1>\\n          <h5>\', escape=False)\nresponse.write(response.subtitle or \'\')\nresponse.write(\'</h5>\\n        </div>\\n        <div class="sixteen columns">\\n          <div class="statusbar clearfix">\\n            \', escape=False)\nresponse.write(\'\\n            <div class="breadcrumbs">\', escape=False)\nresponse.write(request.function.replace(\'_\', \' \').title())\nresponse.write(\'</div>\\n            \', escape=False)\nresponse.write(\'\\n            <!-- AddToAny BEGIN -->\\n            <div style="float:right; padding-top: .25em;" class="a2a_kit a2a_default_style">\\n            <a class="a2a_dd" href="http://www.addtoany.com/share_save">Share</a></div>\\n            <script type="text/javascript" src="http://static.addtoany.com/menu/page.js"></script>\\n            <!-- AddToAny END -->\\n          </div>\\n        </div>\\n      </div>\\n    </div>\\n\\n    <div class="main">\\n      <div class="container">                 \\n        \', escape=False)\nif left_sidebar_enabled:\n    response.write(\'\\n        <div class="four columns left-sidebar">\\n          \', escape=False)\n    response.write(\'\\n          <h3>Left Sidebar</h3>\\n          <p></p>\\n          \', escape=False)\n    response.write(\'\\n        </div>\\n        \', escape=False)\n    pass\nresponse.write(\'\\n        \\n        <div class="\', escape=False)\nresponse.write(middle_columns)\nresponse.write(\' columns center">\\n          \', escape=False)\nresponse.write(\'\\n          \', escape=False)\nresponse.write(\'\\n\', escape=False)\nfor i in range (len(x)):\n    response.write(\'\\n<h3><u>HEADING:</u>\', escape=False)\n    response.write(x[\'i\'][\'Heading\'])\n    response.write(\'</h3>\\n<br/>\\n\', escape=False)\n    pass\nresponse.write(\'\\n\', escape=False)\nresponse.write(\'\\n          \', escape=False)\nresponse.write(\'\\n        </div>\\n        \\n        \', escape=False)\nif right_sidebar_enabled:\n    response.write(\'\\n        <div class="four columns">\\n          \', escape=False)\n    response.write(\'\\n          <h3>Right Sidebar</h3>\\n          <p></p>\\n          \', escape=False)\n    response.write(\'\\n        </div>    \\n        \', escape=False)\n    pass\nresponse.write(\'\\n        \\n      </div><!-- container -->\\n    </div><!-- main -->\\n    \\n    <div class="push"></div>\\n  </div><!-- wrapper -->\\n\\n  <div class="footer">\\n    <div class="container">    \\n      <div class="sixteen columns">\\n        \', escape=False)\nresponse.write(\' <!-- this is default footer -->\\n        <div class="footer-content clearfix">\\n          <div class="copyright">\', escape=False)\nresponse.write(T(\'Copyright\'))\nresponse.write(\' &#169; 2011</div>\\n          <div style="float: right;">\\n            <a href="http://www.web2py.com/">\\n            <img style="padding-bottom: 0;" src="\', escape=False)\nresponse.write(URL(\'static\',\'images/poweredby.png\'))\nresponse.write(\'"/>\\n            </a>\\n          </div>\\n        </div>\\n        \', escape=False)\nresponse.write(\'\\t\\n      </div>\\n    </div><!-- container -->\\n  </div><!-- footer -->\\n  \\n  <!--[if lt IE 7 ]>\\n\\t<script src="\', escape=False)\nresponse.write(URL(\'static\',\'js/dd_belatedpng.js\'))\nresponse.write(\'"></script>\\n\\t<script> DD_belatedPNG.fix(\\\'img, .png_bg\\\'); //fix any <img> or .png_bg background-images </script>\\n\\t<![endif]-->\\n  \', escape=False)\nif response.google_analytics_id:\n    response.write(\'<script type="text/javascript"> var _gaq = _gaq || []; _gaq.push([\\\'_setAccount\\\', \\\'\', escape=False)\n    response.write(response.google_analytics_id)\n    response.write("\']); _gaq.push([\'_trackPageview\']); (function() { var ga = document.createElement(\'script\'); ga.type = \'text/javascript\'; ga.async = true; ga.src = (\'https:\' == document.location.protocol ? \'https://ssl\' : \'http://www\') + \'.google-analytics.com/ga.js\'; var s = document.getElementsByTagName(\'script\')[0]; s.parentNode.insertBefore(ga, s); })(); </script> ", escape=False)\n    pass\nresponse.write(\'\\n</body>\\n</html>\\n\', escape=False)'
p7
sS'snapshot'
p8
(dp9
S'exception'
p10
(dp11
S'__hash__'
p12
S"<method-wrapper '__hash__' of exceptions.TypeError object>"
p13
sS'__setattr__'
p14
S"<method-wrapper '__setattr__' of exceptions.TypeError object>"
p15
sS'__reduce_ex__'
p16
S'<built-in method __reduce_ex__ of exceptions.TypeError object>'
p17
sS'__getslice__'
p18
S"<method-wrapper '__getslice__' of exceptions.TypeError object>"
p19
sS'__getitem__'
p20
S"<method-wrapper '__getitem__' of exceptions.TypeError object>"
p21
sS'__setstate__'
p22
S'<built-in method __setstate__ of exceptions.TypeError object>'
p23
sS'args'
p24
S"('list indices must be integers, not str',)"
p25
sS'__reduce__'
p26
S'<built-in method __reduce__ of exceptions.TypeError object>'
p27
sS'__str__'
p28
S"<method-wrapper '__str__' of exceptions.TypeError object>"
p29
sS'__format__'
p30
S'<built-in method __format__ of exceptions.TypeError object>'
p31
sS'__getattribute__'
p32
S"<method-wrapper '__getattribute__' of exceptions.TypeError object>"
p33
sS'__class__'
p34
S"<type 'exceptions.TypeError'>"
p35
sS'__unicode__'
p36
S'<built-in method __unicode__ of exceptions.TypeError object>'
p37
sS'__delattr__'
p38
S"<method-wrapper '__delattr__' of exceptions.TypeError object>"
p39
sS'__subclasshook__'
p40
S'<built-in method __subclasshook__ of type object>'
p41
sS'__repr__'
p42
S"<method-wrapper '__repr__' of exceptions.TypeError object>"
p43
sS'__dict__'
p44
S'{}'
p45
sS'__sizeof__'
p46
S'<built-in method __sizeof__ of exceptions.TypeError object>'
p47
sS'__doc__'
p48
S"'Inappropriate argument type.'"
p49
sS'__init__'
p50
S"<method-wrapper '__init__' of exceptions.TypeError object>"
p51
sS'__new__'
p52
S'<built-in method __new__ of type object>'
p53
ssS'evalue'
p54
S'list indices must be integers, not str'
p55
sS'request'
p56
ccopy_reg
_reconstructor
p57
(cgluon.html
BEAUTIFY
p58
c__builtin__
object
p59
NtRp60
(dp61
S'attributes'
p62
(dp63
sS'components'
p64
(lp65
g57
(cgluon.html
TABLE
p66
g59
NtRp67
(dp68
g62
(dp69
S'level'
p70
I5
ssS'parent'
p71
Nsg64
(lp72
g57
(cgluon.html
TR
p73
g59
NtRp74
(dp75
g62
(dp76
sg71
g67
sg64
(lp77
g57
(cgluon.html
TD
p78
g59
NtRp79
(dp80
g62
(dp81
S'_style'
p82
S'font-weight:bold;vertical-align:top'
p83
ssg71
g74
sg64
(lp84
S'ajax'
p85
asbag57
(g78
g59
NtRp86
(dp87
g62
(dp88
S'_valign'
p89
S'top'
p90
ssg71
g74
sg64
(lp91
S':'
asbag57
(g78
g59
NtRp92
(dp93
g62
(dp94
sg71
g74
sg64
(lp95
g57
(g58
g59
NtRp96
(dp97
g62
(dp98
g70
I5
ssg71
g92
sg64
(lp99
S'False'
p100
asbasbasbag57
(g73
g59
NtRp101
(dp102
g62
(dp103
sg71
g67
sg64
(lp104
g57
(g78
g59
NtRp105
(dp106
g62
(dp107
g82
g83
ssg71
g101
sg64
(lp108
S'application'
p109
asbag57
(g78
g59
NtRp110
(dp111
g62
(dp112
g89
g90
ssg71
g101
sg64
(lp113
S':'
asbag57
(g78
g59
NtRp114
(dp115
g62
(dp116
sg71
g101
sg64
(lp117
g57
(g58
g59
NtRp118
(dp119
g62
(dp120
g70
I5
ssg71
g114
sg64
(lp121
S'app1'
p122
asbasbasbag57
(g73
g59
NtRp123
(dp124
g62
(dp125
sg71
g67
sg64
(lp126
g57
(g78
g59
NtRp127
(dp128
g62
(dp129
g82
g83
ssg71
g123
sg64
(lp130
g24
asbag57
(g78
g59
NtRp131
(dp132
g62
(dp133
g89
g90
ssg71
g123
sg64
(lp134
S':'
asbag57
(g78
g59
NtRp135
(dp136
g62
(dp137
sg71
g123
sg64
(lp138
g57
(g58
g59
NtRp139
(dp140
g62
(dp141
g70
I5
ssg71
g135
sg64
(lp142
g57
(g66
g59
NtRp143
(dp144
g62
(dp145
g70
I4
ssg71
Nsg64
(lp146
sbasbasbasbag57
(g73
g59
NtRp147
(dp148
g62
(dp149
sg71
g67
sg64
(lp150
g57
(g78
g59
NtRp151
(dp152
g62
(dp153
g82
g83
ssg71
g147
sg64
(lp154
S'body'
p155
asbag57
(g78
g59
NtRp156
(dp157
g62
(dp158
g89
g90
ssg71
g147
sg64
(lp159
S':'
asbag57
(g78
g59
NtRp160
(dp161
g62
(dp162
sg71
g147
sg64
(lp163
g57
(g58
g59
NtRp164
(dp165
g62
(dp166
g70
I5
ssg71
g160
sg64
(lp167
S'<cStringIO.StringO object at 0x7f53a829b8f0>'
p168
asbasbasbag57
(g73
g59
NtRp169
(dp170
g62
(dp171
sg71
g67
sg64
(lp172
g57
(g78
g59
NtRp173
(dp174
g62
(dp175
g82
g83
ssg71
g169
sg64
(lp176
S'client'
p177
asbag57
(g78
g59
NtRp178
(dp179
g62
(dp180
g89
g90
ssg71
g169
sg64
(lp181
S':'
asbag57
(g78
g59
NtRp182
(dp183
g62
(dp184
sg71
g169
sg64
(lp185
g57
(g58
g59
NtRp186
(dp187
g62
(dp188
g70
I5
ssg71
g182
sg64
(lp189
S'127.0.0.1'
p190
asbasbasbag57
(g73
g59
NtRp191
(dp192
g62
(dp193
sg71
g67
sg64
(lp194
g57
(g78
g59
NtRp195
(dp196
g62
(dp197
g82
g83
ssg71
g191
sg64
(lp198
S'controller'
p199
asbag57
(g78
g59
NtRp200
(dp201
g62
(dp202
g89
g90
ssg71
g191
sg64
(lp203
S':'
asbag57
(g78
g59
NtRp204
(dp205
g62
(dp206
sg71
g191
sg64
(lp207
g57
(g58
g59
NtRp208
(dp209
g62
(dp210
g70
I5
ssg71
g204
sg64
(lp211
S'default'
p212
asbasbasbag57
(g73
g59
NtRp213
(dp214
g62
(dp215
sg71
g67
sg64
(lp216
g57
(g78
g59
NtRp217
(dp218
g62
(dp219
g82
g83
ssg71
g213
sg64
(lp220
S'cookies'
p221
asbag57
(g78
g59
NtRp222
(dp223
g62
(dp224
g89
g90
ssg71
g213
sg64
(lp225
S':'
asbag57
(g78
g59
NtRp226
(dp227
g62
(dp228
sg71
g213
sg64
(lp229
g57
(g58
g59
NtRp230
(dp231
g62
(dp232
g70
I5
ssg71
g226
sg64
(lp233
g57
(g66
g59
NtRp234
(dp235
g62
(dp236
g70
I4
ssg71
Nsg64
(lp237
g57
(g73
g59
NtRp238
(dp239
g62
(dp240
sg71
g234
sg64
(lp241
g57
(g78
g59
NtRp242
(dp243
g62
(dp244
g82
g83
ssg71
g238
sg64
(lp245
S'session_id_admin'
p246
asbag57
(g78
g59
NtRp247
(dp248
g62
(dp249
g89
g90
ssg71
g238
sg64
(lp250
S':'
asbag57
(g78
g59
NtRp251
(dp252
g62
(dp253
sg71
g238
sg64
(lp254
g57
(g58
g59
NtRp255
(dp256
g62
(dp257
g70
I4
ssg71
g251
sg64
(lp258
g57
(g66
g59
NtRp259
(dp260
g62
(dp261
g70
I3
ssg71
Nsg64
(lp262
g57
(g73
g59
NtRp263
(dp264
g62
(dp265
sg71
g259
sg64
(lp266
g57
(g78
g59
NtRp267
(dp268
g62
(dp269
g82
g83
ssg71
g263
sg64
(lp270
S'comment'
p271
asbag57
(g78
g59
NtRp272
(dp273
g62
(dp274
g89
g90
ssg71
g263
sg64
(lp275
S':'
asbag57
(g78
g59
NtRp276
(dp277
g62
(dp278
sg71
g263
sg64
(lp279
g57
(g58
g59
NtRp280
(dp281
g62
(dp282
g70
I3
ssg71
g276
sg64
(lp283
S''
asbasbasbag57
(g73
g59
NtRp284
(dp285
g62
(dp286
sg71
g259
sg64
(lp287
g57
(g78
g59
NtRp288
(dp289
g62
(dp290
g82
g83
ssg71
g284
sg64
(lp291
S'domain'
p292
asbag57
(g78
g59
NtRp293
(dp294
g62
(dp295
g89
g90
ssg71
g284
sg64
(lp296
S':'
asbag57
(g78
g59
NtRp297
(dp298
g62
(dp299
sg71
g284
sg64
(lp300
g57
(g58
g59
NtRp301
(dp302
g62
(dp303
g70
I3
ssg71
g297
sg64
(lp304
S''
asbasbasbag57
(g73
g59
NtRp305
(dp306
g62
(dp307
sg71
g259
sg64
(lp308
g57
(g78
g59
NtRp309
(dp310
g62
(dp311
g82
g83
ssg71
g305
sg64
(lp312
S'expires'
p313
asbag57
(g78
g59
NtRp314
(dp315
g62
(dp316
g89
g90
ssg71
g305
sg64
(lp317
S':'
asbag57
(g78
g59
NtRp318
(dp319
g62
(dp320
sg71
g305
sg64
(lp321
g57
(g58
g59
NtRp322
(dp323
g62
(dp324
g70
I3
ssg71
g318
sg64
(lp325
S''
asbasbasbag57
(g73
g59
NtRp326
(dp327
g62
(dp328
sg71
g259
sg64
(lp329
g57
(g78
g59
NtRp330
(dp331
g62
(dp332
g82
g83
ssg71
g326
sg64
(lp333
S'httponly'
p334
asbag57
(g78
g59
NtRp335
(dp336
g62
(dp337
g89
g90
ssg71
g326
sg64
(lp338
S':'
asbag57
(g78
g59
NtRp339
(dp340
g62
(dp341
sg71
g326
sg64
(lp342
g57
(g58
g59
NtRp343
(dp344
g62
(dp345
g70
I3
ssg71
g339
sg64
(lp346
S''
asbasbasbag57
(g73
g59
NtRp347
(dp348
g62
(dp349
sg71
g259
sg64
(lp350
g57
(g78
g59
NtRp351
(dp352
g62
(dp353
g82
g83
ssg71
g347
sg64
(lp354
S'max-age'
p355
asbag57
(g78
g59
NtRp356
(dp357
g62
(dp358
g89
g90
ssg71
g347
sg64
(lp359
S':'
asbag57
(g78
g59
NtRp360
(dp361
g62
(dp362
sg71
g347
sg64
(lp363
g57
(g58
g59
NtRp364
(dp365
g62
(dp366
g70
I3
ssg71
g360
sg64
(lp367
S''
asbasbasbag57
(g73
g59
NtRp368
(dp369
g62
(dp370
sg71
g259
sg64
(lp371
g57
(g78
g59
NtRp372
(dp373
g62
(dp374
g82
g83
ssg71
g368
sg64
(lp375
S'path'
p376
asbag57
(g78
g59
NtRp377
(dp378
g62
(dp379
g89
g90
ssg71
g368
sg64
(lp380
S':'
asbag57
(g78
g59
NtRp381
(dp382
g62
(dp383
sg71
g368
sg64
(lp384
g57
(g58
g59
NtRp385
(dp386
g62
(dp387
g70
I3
ssg71
g381
sg64
(lp388
S''
asbasbasbag57
(g73
g59
NtRp389
(dp390
g62
(dp391
sg71
g259
sg64
(lp392
g57
(g78
g59
NtRp393
(dp394
g62
(dp395
g82
g83
ssg71
g389
sg64
(lp396
S'secure'
p397
asbag57
(g78
g59
NtRp398
(dp399
g62
(dp400
g89
g90
ssg71
g389
sg64
(lp401
S':'
asbag57
(g78
g59
NtRp402
(dp403
g62
(dp404
sg71
g389
sg64
(lp405
g57
(g58
g59
NtRp406
(dp407
g62
(dp408
g70
I3
ssg71
g402
sg64
(lp409
S''
asbasbasbag57
(g73
g59
NtRp410
(dp411
g62
(dp412
sg71
g259
sg64
(lp413
g57
(g78
g59
NtRp414
(dp415
g62
(dp416
g82
g83
ssg71
g410
sg64
(lp417
S'version'
p418
asbag57
(g78
g59
NtRp419
(dp420
g62
(dp421
g89
g90
ssg71
g410
sg64
(lp422
S':'
asbag57
(g78
g59
NtRp423
(dp424
g62
(dp425
sg71
g410
sg64
(lp426
g57
(g58
g59
NtRp427
(dp428
g62
(dp429
g70
I3
ssg71
g423
sg64
(lp430
S''
asbasbasbasbasbasbasbag57
(g73
g59
NtRp431
(dp432
g62
(dp433
sg71
g234
sg64
(lp434
g57
(g78
g59
NtRp435
(dp436
g62
(dp437
g82
g83
ssg71
g431
sg64
(lp438
S'session_id_app1'
p439
asbag57
(g78
g59
NtRp440
(dp441
g62
(dp442
g89
g90
ssg71
g431
sg64
(lp443
S':'
asbag57
(g78
g59
NtRp444
(dp445
g62
(dp446
sg71
g431
sg64
(lp447
g57
(g58
g59
NtRp448
(dp449
g62
(dp450
g70
I4
ssg71
g444
sg64
(lp451
g57
(g66
g59
NtRp452
(dp453
g62
(dp454
g70
I3
ssg71
Nsg64
(lp455
g57
(g73
g59
NtRp456
(dp457
g62
(dp458
sg71
g452
sg64
(lp459
g57
(g78
g59
NtRp460
(dp461
g62
(dp462
g82
g83
ssg71
g456
sg64
(lp463
g271
asbag57
(g78
g59
NtRp464
(dp465
g62
(dp466
g89
g90
ssg71
g456
sg64
(lp467
S':'
asbag57
(g78
g59
NtRp468
(dp469
g62
(dp470
sg71
g456
sg64
(lp471
g57
(g58
g59
NtRp472
(dp473
g62
(dp474
g70
I3
ssg71
g468
sg64
(lp475
S''
asbasbasbag57
(g73
g59
NtRp476
(dp477
g62
(dp478
sg71
g452
sg64
(lp479
g57
(g78
g59
NtRp480
(dp481
g62
(dp482
g82
g83
ssg71
g476
sg64
(lp483
g292
asbag57
(g78
g59
NtRp484
(dp485
g62
(dp486
g89
g90
ssg71
g476
sg64
(lp487
S':'
asbag57
(g78
g59
NtRp488
(dp489
g62
(dp490
sg71
g476
sg64
(lp491
g57
(g58
g59
NtRp492
(dp493
g62
(dp494
g70
I3
ssg71
g488
sg64
(lp495
S''
asbasbasbag57
(g73
g59
NtRp496
(dp497
g62
(dp498
sg71
g452
sg64
(lp499
g57
(g78
g59
NtRp500
(dp501
g62
(dp502
g82
g83
ssg71
g496
sg64
(lp503
g313
asbag57
(g78
g59
NtRp504
(dp505
g62
(dp506
g89
g90
ssg71
g496
sg64
(lp507
S':'
asbag57
(g78
g59
NtRp508
(dp509
g62
(dp510
sg71
g496
sg64
(lp511
g57
(g58
g59
NtRp512
(dp513
g62
(dp514
g70
I3
ssg71
g508
sg64
(lp515
S''
asbasbasbag57
(g73
g59
NtRp516
(dp517
g62
(dp518
sg71
g452
sg64
(lp519
g57
(g78
g59
NtRp520
(dp521
g62
(dp522
g82
g83
ssg71
g516
sg64
(lp523
g334
asbag57
(g78
g59
NtRp524
(dp525
g62
(dp526
g89
g90
ssg71
g516
sg64
(lp527
S':'
asbag57
(g78
g59
NtRp528
(dp529
g62
(dp530
sg71
g516
sg64
(lp531
g57
(g58
g59
NtRp532
(dp533
g62
(dp534
g70
I3
ssg71
g528
sg64
(lp535
S''
asbasbasbag57
(g73
g59
NtRp536
(dp537
g62
(dp538
sg71
g452
sg64
(lp539
g57
(g78
g59
NtRp540
(dp541
g62
(dp542
g82
g83
ssg71
g536
sg64
(lp543
g355
asbag57
(g78
g59
NtRp544
(dp545
g62
(dp546
g89
g90
ssg71
g536
sg64
(lp547
S':'
asbag57
(g78
g59
NtRp548
(dp549
g62
(dp550
sg71
g536
sg64
(lp551
g57
(g58
g59
NtRp552
(dp553
g62
(dp554
g70
I3
ssg71
g548
sg64
(lp555
S''
asbasbasbag57
(g73
g59
NtRp556
(dp557
g62
(dp558
sg71
g452
sg64
(lp559
g57
(g78
g59
NtRp560
(dp561
g62
(dp562
g82
g83
ssg71
g556
sg64
(lp563
g376
asbag57
(g78
g59
NtRp564
(dp565
g62
(dp566
g89
g90
ssg71
g556
sg64
(lp567
S':'
asbag57
(g78
g59
NtRp568
(dp569
g62
(dp570
sg71
g556
sg64
(lp571
g57
(g58
g59
NtRp572
(dp573
g62
(dp574
g70
I3
ssg71
g568
sg64
(lp575
S''
asbasbasbag57
(g73
g59
NtRp576
(dp577
g62
(dp578
sg71
g452
sg64
(lp579
g57
(g78
g59
NtRp580
(dp581
g62
(dp582
g82
g83
ssg71
g576
sg64
(lp583
g397
asbag57
(g78
g59
NtRp584
(dp585
g62
(dp586
g89
g90
ssg71
g576
sg64
(lp587
S':'
asbag57
(g78
g59
NtRp588
(dp589
g62
(dp590
sg71
g576
sg64
(lp591
g57
(g58
g59
NtRp592
(dp593
g62
(dp594
g70
I3
ssg71
g588
sg64
(lp595
S''
asbasbasbag57
(g73
g59
NtRp596
(dp597
g62
(dp598
sg71
g452
sg64
(lp599
g57
(g78
g59
NtRp600
(dp601
g62
(dp602
g82
g83
ssg71
g596
sg64
(lp603
g418
asbag57
(g78
g59
NtRp604
(dp605
g62
(dp606
g89
g90
ssg71
g596
sg64
(lp607
S':'
asbag57
(g78
g59
NtRp608
(dp609
g62
(dp610
sg71
g596
sg64
(lp611
g57
(g58
g59
NtRp612
(dp613
g62
(dp614
g70
I3
ssg71
g608
sg64
(lp615
S''
asbasbasbasbasbasbasbag57
(g73
g59
NtRp616
(dp617
g62
(dp618
sg71
g234
sg64
(lp619
g57
(g78
g59
NtRp620
(dp621
g62
(dp622
g82
g83
ssg71
g616
sg64
(lp623
S'session_id_welcome'
p624
asbag57
(g78
g59
NtRp625
(dp626
g62
(dp627
g89
g90
ssg71
g616
sg64
(lp628
S':'
asbag57
(g78
g59
NtRp629
(dp630
g62
(dp631
sg71
g616
sg64
(lp632
g57
(g58
g59
NtRp633
(dp634
g62
(dp635
g70
I4
ssg71
g629
sg64
(lp636
g57
(g66
g59
NtRp637
(dp638
g62
(dp639
g70
I3
ssg71
Nsg64
(lp640
g57
(g73
g59
NtRp641
(dp642
g62
(dp643
sg71
g637
sg64
(lp644
g57
(g78
g59
NtRp645
(dp646
g62
(dp647
g82
g83
ssg71
g641
sg64
(lp648
g271
asbag57
(g78
g59
NtRp649
(dp650
g62
(dp651
g89
g90
ssg71
g641
sg64
(lp652
S':'
asbag57
(g78
g59
NtRp653
(dp654
g62
(dp655
sg71
g641
sg64
(lp656
g57
(g58
g59
NtRp657
(dp658
g62
(dp659
g70
I3
ssg71
g653
sg64
(lp660
S''
asbasbasbag57
(g73
g59
NtRp661
(dp662
g62
(dp663
sg71
g637
sg64
(lp664
g57
(g78
g59
NtRp665
(dp666
g62
(dp667
g82
g83
ssg71
g661
sg64
(lp668
g292
asbag57
(g78
g59
NtRp669
(dp670
g62
(dp671
g89
g90
ssg71
g661
sg64
(lp672
S':'
asbag57
(g78
g59
NtRp673
(dp674
g62
(dp675
sg71
g661
sg64
(lp676
g57
(g58
g59
NtRp677
(dp678
g62
(dp679
g70
I3
ssg71
g673
sg64
(lp680
S''
asbasbasbag57
(g73
g59
NtRp681
(dp682
g62
(dp683
sg71
g637
sg64
(lp684
g57
(g78
g59
NtRp685
(dp686
g62
(dp687
g82
g83
ssg71
g681
sg64
(lp688
g313
asbag57
(g78
g59
NtRp689
(dp690
g62
(dp691
g89
g90
ssg71
g681
sg64
(lp692
S':'
asbag57
(g78
g59
NtRp693
(dp694
g62
(dp695
sg71
g681
sg64
(lp696
g57
(g58
g59
NtRp697
(dp698
g62
(dp699
g70
I3
ssg71
g693
sg64
(lp700
S''
asbasbasbag57
(g73
g59
NtRp701
(dp702
g62
(dp703
sg71
g637
sg64
(lp704
g57
(g78
g59
NtRp705
(dp706
g62
(dp707
g82
g83
ssg71
g701
sg64
(lp708
g334
asbag57
(g78
g59
NtRp709
(dp710
g62
(dp711
g89
g90
ssg71
g701
sg64
(lp712
S':'
asbag57
(g78
g59
NtRp713
(dp714
g62
(dp715
sg71
g701
sg64
(lp716
g57
(g58
g59
NtRp717
(dp718
g62
(dp719
g70
I3
ssg71
g713
sg64
(lp720
S''
asbasbasbag57
(g73
g59
NtRp721
(dp722
g62
(dp723
sg71
g637
sg64
(lp724
g57
(g78
g59
NtRp725
(dp726
g62
(dp727
g82
g83
ssg71
g721
sg64
(lp728
g355
asbag57
(g78
g59
NtRp729
(dp730
g62
(dp731
g89
g90
ssg71
g721
sg64
(lp732
S':'
asbag57
(g78
g59
NtRp733
(dp734
g62
(dp735
sg71
g721
sg64
(lp736
g57
(g58
g59
NtRp737
(dp738
g62
(dp739
g70
I3
ssg71
g733
sg64
(lp740
S''
asbasbasbag57
(g73
g59
NtRp741
(dp742
g62
(dp743
sg71
g637
sg64
(lp744
g57
(g78
g59
NtRp745
(dp746
g62
(dp747
g82
g83
ssg71
g741
sg64
(lp748
g376
asbag57
(g78
g59
NtRp749
(dp750
g62
(dp751
g89
g90
ssg71
g741
sg64
(lp752
S':'
asbag57
(g78
g59
NtRp753
(dp754
g62
(dp755
sg71
g741
sg64
(lp756
g57
(g58
g59
NtRp757
(dp758
g62
(dp759
g70
I3
ssg71
g753
sg64
(lp760
S''
asbasbasbag57
(g73
g59
NtRp761
(dp762
g62
(dp763
sg71
g637
sg64
(lp764
g57
(g78
g59
NtRp765
(dp766
g62
(dp767
g82
g83
ssg71
g761
sg64
(lp768
g397
asbag57
(g78
g59
NtRp769
(dp770
g62
(dp771
g89
g90
ssg71
g761
sg64
(lp772
S':'
asbag57
(g78
g59
NtRp773
(dp774
g62
(dp775
sg71
g761
sg64
(lp776
g57
(g58
g59
NtRp777
(dp778
g62
(dp779
g70
I3
ssg71
g773
sg64
(lp780
S''
asbasbasbag57
(g73
g59
NtRp781
(dp782
g62
(dp783
sg71
g637
sg64
(lp784
g57
(g78
g59
NtRp785
(dp786
g62
(dp787
g82
g83
ssg71
g781
sg64
(lp788
g418
asbag57
(g78
g59
NtRp789
(dp790
g62
(dp791
g89
g90
ssg71
g781
sg64
(lp792
S':'
asbag57
(g78
g59
NtRp793
(dp794
g62
(dp795
sg71
g781
sg64
(lp796
g57
(g58
g59
NtRp797
(dp798
g62
(dp799
g70
I3
ssg71
g793
sg64
(lp800
S''
asbasbasbasbasbasbasbasbasbasbasbag57
(g73
g59
NtRp801
(dp802
g62
(dp803
sg71
g67
sg64
(lp804
g57
(g78
g59
NtRp805
(dp806
g62
(dp807
g82
g83
ssg71
g801
sg64
(lp808
S'env'
p809
asbag57
(g78
g59
NtRp810
(dp811
g62
(dp812
g89
g90
ssg71
g801
sg64
(lp813
S':'
asbag57
(g78
g59
NtRp814
(dp815
g62
(dp816
sg71
g801
sg64
(lp817
g57
(g58
g59
NtRp818
(dp819
g62
(dp820
g70
I5
ssg71
g814
sg64
(lp821
g57
(g66
g59
NtRp822
(dp823
g62
(dp824
g70
I4
ssg71
Nsg64
(lp825
g57
(g73
g59
NtRp826
(dp827
g62
(dp828
sg71
g822
sg64
(lp829
g57
(g78
g59
NtRp830
(dp831
g62
(dp832
g82
g83
ssg71
g826
sg64
(lp833
S'app_folders'
p834
asbag57
(g78
g59
NtRp835
(dp836
g62
(dp837
g89
g90
ssg71
g826
sg64
(lp838
S':'
asbag57
(g78
g59
NtRp839
(dp840
g62
(dp841
sg71
g826
sg64
(lp842
g57
(g58
g59
NtRp843
(dp844
g62
(dp845
g70
I4
ssg71
g839
sg64
(lp846
S"set(['/home/jigar/web2py/applications/welcome/', '/home/jigar/web2py/applications/admin/', '/home/jigar/web2py/applications/app1/'])"
p847
asbasbasbag57
(g73
g59
NtRp848
(dp849
g62
(dp850
sg71
g822
sg64
(lp851
g57
(g78
g59
NtRp852
(dp853
g62
(dp854
g82
g83
ssg71
g848
sg64
(lp855
S'applications_parent'
p856
asbag57
(g78
g59
NtRp857
(dp858
g62
(dp859
g89
g90
ssg71
g848
sg64
(lp860
S':'
asbag57
(g78
g59
NtRp861
(dp862
g62
(dp863
sg71
g848
sg64
(lp864
g57
(g58
g59
NtRp865
(dp866
g62
(dp867
g70
I4
ssg71
g861
sg64
(lp868
S'/home/jigar/web2py'
p869
asbasbasbag57
(g73
g59
NtRp870
(dp871
g62
(dp872
sg71
g822
sg64
(lp873
g57
(g78
g59
NtRp874
(dp875
g62
(dp876
g82
g83
ssg71
g870
sg64
(lp877
S'cmd_args'
p878
asbag57
(g78
g59
NtRp879
(dp880
g62
(dp881
g89
g90
ssg71
g870
sg64
(lp882
S':'
asbag57
(g78
g59
NtRp883
(dp884
g62
(dp885
sg71
g870
sg64
(lp886
g57
(g58
g59
NtRp887
(dp888
g62
(dp889
g70
I4
ssg71
g883
sg64
(lp890
g57
(g66
g59
NtRp891
(dp892
g62
(dp893
g70
I3
ssg71
Nsg64
(lp894
sbasbasbasbag57
(g73
g59
NtRp895
(dp896
g62
(dp897
sg71
g822
sg64
(lp898
g57
(g78
g59
NtRp899
(dp900
g62
(dp901
g82
g83
ssg71
g895
sg64
(lp902
S'cmd_options'
p903
asbag57
(g78
g59
NtRp904
(dp905
g62
(dp906
g89
g90
ssg71
g895
sg64
(lp907
S':'
asbag57
(g78
g59
NtRp908
(dp909
g62
(dp910
sg71
g895
sg64
(lp911
g57
(g58
g59
NtRp912
(dp913
g62
(dp914
g70
I4
ssg71
g908
sg64
(lp915
S"<Values at 0x238cbd8: {'verbose': False, 'ip': '127.0.0.1', 'shutdown_timeout': 5, 'taskbar': False, 'port': 8000, 'maxthreads': None, 'softcron': False, 'server_name': 'jigar-Lenovo-Z580', 'bpython': False, 'nogui': False, 'nocron': False, 'extcron': False, 'debuglevel': 30, 'test': None, 'folder': '/home/jigar/web2py', 'config': '', 'import_models': False, 'winservice': '', 'shell': None, 'run': '', 'log_filename': 'httpserver.log', 'args': [''], 'socket_timeout': 1, 'profiler_filename': None, 'ssl_private_key': '', 'password': '<ask>', 'request_queue_size': 5, 'ssl_certificate': '', 'cronjob': False, 'plain': False, 'quiet': False, 'interfaces': None, 'minthreads': None, 'timeout': 10, 'numthreads': None, 'nobanner': False, 'pid_filename': 'httpserver.pid'}>"
p916
asbasbasbag57
(g73
g59
NtRp917
(dp918
g62
(dp919
sg71
g822
sg64
(lp920
g57
(g78
g59
NtRp921
(dp922
g62
(dp923
g82
g83
ssg71
g917
sg64
(lp924
S'db_sessions'
p925
asbag57
(g78
g59
NtRp926
(dp927
g62
(dp928
g89
g90
ssg71
g917
sg64
(lp929
S':'
asbag57
(g78
g59
NtRp930
(dp931
g62
(dp932
sg71
g917
sg64
(lp933
g57
(g58
g59
NtRp934
(dp935
g62
(dp936
g70
I4
ssg71
g930
sg64
(lp937
S'set([])'
p938
asbasbasbag57
(g73
g59
NtRp939
(dp940
g62
(dp941
sg71
g822
sg64
(lp942
g57
(g78
g59
NtRp943
(dp944
g62
(dp945
g82
g83
ssg71
g939
sg64
(lp946
S'debugging'
p947
asbag57
(g78
g59
NtRp948
(dp949
g62
(dp950
g89
g90
ssg71
g939
sg64
(lp951
S':'
asbag57
(g78
g59
NtRp952
(dp953
g62
(dp954
sg71
g939
sg64
(lp955
g57
(g58
g59
NtRp956
(dp957
g62
(dp958
g70
I4
ssg71
g952
sg64
(lp959
g100
asbasbasbag57
(g73
g59
NtRp960
(dp961
g62
(dp962
sg71
g822
sg64
(lp963
g57
(g78
g59
NtRp964
(dp965
g62
(dp966
g82
g83
ssg71
g960
sg64
(lp967
S'gluon_parent'
p968
asbag57
(g78
g59
NtRp969
(dp970
g62
(dp971
g89
g90
ssg71
g960
sg64
(lp972
S':'
asbag57
(g78
g59
NtRp973
(dp974
g62
(dp975
sg71
g960
sg64
(lp976
g57
(g58
g59
NtRp977
(dp978
g62
(dp979
g70
I4
ssg71
g973
sg64
(lp980
S'/usr/share/web2py'
p981
asbasbasbag57
(g73
g59
NtRp982
(dp983
g62
(dp984
sg71
g822
sg64
(lp985
g57
(g78
g59
NtRp986
(dp987
g62
(dp988
g82
g83
ssg71
g982
sg64
(lp989
S'http_accept'
p990
asbag57
(g78
g59
NtRp991
(dp992
g62
(dp993
g89
g90
ssg71
g982
sg64
(lp994
S':'
asbag57
(g78
g59
NtRp995
(dp996
g62
(dp997
sg71
g982
sg64
(lp998
g57
(g58
g59
NtRp999
(dp1000
g62
(dp1001
g70
I4
ssg71
g995
sg64
(lp1002
S'text/html,application/xhtml+xml,application/xml;q=0.9,*/*;q=0.8'
p1003
asbasbasbag57
(g73
g59
NtRp1004
(dp1005
g62
(dp1006
sg71
g822
sg64
(lp1007
g57
(g78
g59
NtRp1008
(dp1009
g62
(dp1010
g82
g83
ssg71
g1004
sg64
(lp1011
S'http_accept_encoding'
p1012
asbag57
(g78
g59
NtRp1013
(dp1014
g62
(dp1015
g89
g90
ssg71
g1004
sg64
(lp1016
S':'
asbag57
(g78
g59
NtRp1017
(dp1018
g62
(dp1019
sg71
g1004
sg64
(lp1020
g57
(g58
g59
NtRp1021
(dp1022
g62
(dp1023
g70
I4
ssg71
g1017
sg64
(lp1024
S'gzip, deflate'
p1025
asbasbasbag57
(g73
g59
NtRp1026
(dp1027
g62
(dp1028
sg71
g822
sg64
(lp1029
g57
(g78
g59
NtRp1030
(dp1031
g62
(dp1032
g82
g83
ssg71
g1026
sg64
(lp1033
S'http_accept_language'
p1034
asbag57
(g78
g59
NtRp1035
(dp1036
g62
(dp1037
g89
g90
ssg71
g1026
sg64
(lp1038
S':'
asbag57
(g78
g59
NtRp1039
(dp1040
g62
(dp1041
sg71
g1026
sg64
(lp1042
g57
(g58
g59
NtRp1043
(dp1044
g62
(dp1045
g70
I4
ssg71
g1039
sg64
(lp1046
S'en-US,en;q=0.5'
p1047
asbasbasbag57
(g73
g59
NtRp1048
(dp1049
g62
(dp1050
sg71
g822
sg64
(lp1051
g57
(g78
g59
NtRp1052
(dp1053
g62
(dp1054
g82
g83
ssg71
g1048
sg64
(lp1055
S'http_cache_control'
p1056
asbag57
(g78
g59
NtRp1057
(dp1058
g62
(dp1059
g89
g90
ssg71
g1048
sg64
(lp1060
S':'
asbag57
(g78
g59
NtRp1061
(dp1062
g62
(dp1063
sg71
g1048
sg64
(lp1064
g57
(g58
g59
NtRp1065
(dp1066
g62
(dp1067
g70
I4
ssg71
g1061
sg64
(lp1068
S'max-age=0'
p1069
asbasbasbag57
(g73
g59
NtRp1070
(dp1071
g62
(dp1072
sg71
g822
sg64
(lp1073
g57
(g78
g59
NtRp1074
(dp1075
g62
(dp1076
g82
g83
ssg71
g1070
sg64
(lp1077
S'http_connection'
p1078
asbag57
(g78
g59
NtRp1079
(dp1080
g62
(dp1081
g89
g90
ssg71
g1070
sg64
(lp1082
S':'
asbag57
(g78
g59
NtRp1083
(dp1084
g62
(dp1085
sg71
g1070
sg64
(lp1086
g57
(g58
g59
NtRp1087
(dp1088
g62
(dp1089
g70
I4
ssg71
g1083
sg64
(lp1090
S'keep-alive'
p1091
asbasbasbag57
(g73
g59
NtRp1092
(dp1093
g62
(dp1094
sg71
g822
sg64
(lp1095
g57
(g78
g59
NtRp1096
(dp1097
g62
(dp1098
g82
g83
ssg71
g1092
sg64
(lp1099
S'http_cookie'
p1100
asbag57
(g78
g59
NtRp1101
(dp1102
g62
(dp1103
g89
g90
ssg71
g1092
sg64
(lp1104
S':'
asbag57
(g78
g59
NtRp1105
(dp1106
g62
(dp1107
sg71
g1092
sg64
(lp1108
g57
(g58
g59
NtRp1109
(dp1110
g62
(dp1111
g70
I4
ssg71
g1105
sg64
(lp1112
S'session_id_welcome=127.0.0.1-b6f0729f-1b7b-417f-a0c4-729ef9448dca; session_id_admin=127.0.0.1-932cca65-c849-4cc4-aeab-720ab1480de6; session_id_app1=127.0.0.1-15782adb-a404-4b3e-868f-e60d89b9be1b'
p1113
asbasbasbag57
(g73
g59
NtRp1114
(dp1115
g62
(dp1116
sg71
g822
sg64
(lp1117
g57
(g78
g59
NtRp1118
(dp1119
g62
(dp1120
g82
g83
ssg71
g1114
sg64
(lp1121
S'http_host'
p1122
asbag57
(g78
g59
NtRp1123
(dp1124
g62
(dp1125
g89
g90
ssg71
g1114
sg64
(lp1126
S':'
asbag57
(g78
g59
NtRp1127
(dp1128
g62
(dp1129
sg71
g1114
sg64
(lp1130
g57
(g58
g59
NtRp1131
(dp1132
g62
(dp1133
g70
I4
ssg71
g1127
sg64
(lp1134
S'127.0.0.1:8000'
p1135
asbasbasbag57
(g73
g59
NtRp1136
(dp1137
g62
(dp1138
sg71
g822
sg64
(lp1139
g57
(g78
g59
NtRp1140
(dp1141
g62
(dp1142
g82
g83
ssg71
g1136
sg64
(lp1143
S'http_user_agent'
p1144
asbag57
(g78
g59
NtRp1145
(dp1146
g62
(dp1147
g89
g90
ssg71
g1136
sg64
(lp1148
S':'
asbag57
(g78
g59
NtRp1149
(dp1150
g62
(dp1151
sg71
g1136
sg64
(lp1152
g57
(g58
g59
NtRp1153
(dp1154
g62
(dp1155
g70
I4
ssg71
g1149
sg64
(lp1156
S'Mozilla/5.0 (X11; Ubuntu; Linux x86_64; rv:23.0) Gecko/20100101 Firefox/23.0'
p1157
asbasbasbag57
(g73
g59
NtRp1158
(dp1159
g62
(dp1160
sg71
g822
sg64
(lp1161
g57
(g78
g59
NtRp1162
(dp1163
g62
(dp1164
g82
g83
ssg71
g1158
sg64
(lp1165
S'is_jython'
p1166
asbag57
(g78
g59
NtRp1167
(dp1168
g62
(dp1169
g89
g90
ssg71
g1158
sg64
(lp1170
S':'
asbag57
(g78
g59
NtRp1171
(dp1172
g62
(dp1173
sg71
g1158
sg64
(lp1174
g57
(g58
g59
NtRp1175
(dp1176
g62
(dp1177
g70
I4
ssg71
g1171
sg64
(lp1178
g100
asbasbasbag57
(g73
g59
NtRp1179
(dp1180
g62
(dp1181
sg71
g822
sg64
(lp1182
g57
(g78
g59
NtRp1183
(dp1184
g62
(dp1185
g82
g83
ssg71
g1179
sg64
(lp1186
S'is_pypy'
p1187
asbag57
(g78
g59
NtRp1188
(dp1189
g62
(dp1190
g89
g90
ssg71
g1179
sg64
(lp1191
S':'
asbag57
(g78
g59
NtRp1192
(dp1193
g62
(dp1194
sg71
g1179
sg64
(lp1195
g57
(g58
g59
NtRp1196
(dp1197
g62
(dp1198
g70
I4
ssg71
g1192
sg64
(lp1199
g100
asbasbasbag57
(g73
g59
NtRp1200
(dp1201
g62
(dp1202
sg71
g822
sg64
(lp1203
g57
(g78
g59
NtRp1204
(dp1205
g62
(dp1206
g82
g83
ssg71
g1200
sg64
(lp1207
S'path_info'
p1208
asbag57
(g78
g59
NtRp1209
(dp1210
g62
(dp1211
g89
g90
ssg71
g1200
sg64
(lp1212
S':'
asbag57
(g78
g59
NtRp1213
(dp1214
g62
(dp1215
sg71
g1200
sg64
(lp1216
g57
(g58
g59
NtRp1217
(dp1218
g62
(dp1219
g70
I4
ssg71
g1213
sg64
(lp1220
S'/app1/default/lall'
p1221
asbasbasbag57
(g73
g59
NtRp1222
(dp1223
g62
(dp1224
sg71
g822
sg64
(lp1225
g57
(g78
g59
NtRp1226
(dp1227
g62
(dp1228
g82
g83
ssg71
g1222
sg64
(lp1229
S'query_string'
p1230
asbag57
(g78
g59
NtRp1231
(dp1232
g62
(dp1233
g89
g90
ssg71
g1222
sg64
(lp1234
S':'
asbag57
(g78
g59
NtRp1235
(dp1236
g62
(dp1237
sg71
g1222
sg64
(lp1238
g57
(g58
g59
NtRp1239
(dp1240
g62
(dp1241
g70
I4
ssg71
g1235
sg64
(lp1242
S''
asbasbasbag57
(g73
g59
NtRp1243
(dp1244
g62
(dp1245
sg71
g822
sg64
(lp1246
g57
(g78
g59
NtRp1247
(dp1248
g62
(dp1249
g82
g83
ssg71
g1243
sg64
(lp1250
S'remote_addr'
p1251
asbag57
(g78
g59
NtRp1252
(dp1253
g62
(dp1254
g89
g90
ssg71
g1243
sg64
(lp1255
S':'
asbag57
(g78
g59
NtRp1256
(dp1257
g62
(dp1258
sg71
g1243
sg64
(lp1259
g57
(g58
g59
NtRp1260
(dp1261
g62
(dp1262
g70
I4
ssg71
g1256
sg64
(lp1263
g190
asbasbasbag57
(g73
g59
NtRp1264
(dp1265
g62
(dp1266
sg71
g822
sg64
(lp1267
g57
(g78
g59
NtRp1268
(dp1269
g62
(dp1270
g82
g83
ssg71
g1264
sg64
(lp1271
S'remote_port'
p1272
asbag57
(g78
g59
NtRp1273
(dp1274
g62
(dp1275
g89
g90
ssg71
g1264
sg64
(lp1276
S':'
asbag57
(g78
g59
NtRp1277
(dp1278
g62
(dp1279
sg71
g1264
sg64
(lp1280
g57
(g58
g59
NtRp1281
(dp1282
g62
(dp1283
g70
I4
ssg71
g1277
sg64
(lp1284
S'54259'
p1285
asbasbasbag57
(g73
g59
NtRp1286
(dp1287
g62
(dp1288
sg71
g822
sg64
(lp1289
g57
(g78
g59
NtRp1290
(dp1291
g62
(dp1292
g82
g83
ssg71
g1286
sg64
(lp1293
S'request_method'
p1294
asbag57
(g78
g59
NtRp1295
(dp1296
g62
(dp1297
g89
g90
ssg71
g1286
sg64
(lp1298
S':'
asbag57
(g78
g59
NtRp1299
(dp1300
g62
(dp1301
sg71
g1286
sg64
(lp1302
g57
(g58
g59
NtRp1303
(dp1304
g62
(dp1305
g70
I4
ssg71
g1299
sg64
(lp1306
S'GET'
p1307
asbasbasbag57
(g73
g59
NtRp1308
(dp1309
g62
(dp1310
sg71
g822
sg64
(lp1311
g57
(g78
g59
NtRp1312
(dp1313
g62
(dp1314
g82
g83
ssg71
g1308
sg64
(lp1315
S'script_name'
p1316
asbag57
(g78
g59
NtRp1317
(dp1318
g62
(dp1319
g89
g90
ssg71
g1308
sg64
(lp1320
S':'
asbag57
(g78
g59
NtRp1321
(dp1322
g62
(dp1323
sg71
g1308
sg64
(lp1324
g57
(g58
g59
NtRp1325
(dp1326
g62
(dp1327
g70
I4
ssg71
g1321
sg64
(lp1328
S''
asbasbasbag57
(g73
g59
NtRp1329
(dp1330
g62
(dp1331
sg71
g822
sg64
(lp1332
g57
(g78
g59
NtRp1333
(dp1334
g62
(dp1335
g82
g83
ssg71
g1329
sg64
(lp1336
S'server_name'
p1337
asbag57
(g78
g59
NtRp1338
(dp1339
g62
(dp1340
g89
g90
ssg71
g1329
sg64
(lp1341
S':'
asbag57
(g78
g59
NtRp1342
(dp1343
g62
(dp1344
sg71
g1329
sg64
(lp1345
g57
(g58
g59
NtRp1346
(dp1347
g62
(dp1348
g70
I4
ssg71
g1342
sg64
(lp1349
S'jigar-Lenovo-Z580'
p1350
asbasbasbag57
(g73
g59
NtRp1351
(dp1352
g62
(dp1353
sg71
g822
sg64
(lp1354
g57
(g78
g59
NtRp1355
(dp1356
g62
(dp1357
g82
g83
ssg71
g1351
sg64
(lp1358
S'server_port'
p1359
asbag57
(g78
g59
NtRp1360
(dp1361
g62
(dp1362
g89
g90
ssg71
g1351
sg64
(lp1363
S':'
asbag57
(g78
g59
NtRp1364
(dp1365
g62
(dp1366
sg71
g1351
sg64
(lp1367
g57
(g58
g59
NtRp1368
(dp1369
g62
(dp1370
g70
I4
ssg71
g1364
sg64
(lp1371
S'8000'
p1372
asbasbasbag57
(g73
g59
NtRp1373
(dp1374
g62
(dp1375
sg71
g822
sg64
(lp1376
g57
(g78
g59
NtRp1377
(dp1378
g62
(dp1379
g82
g83
ssg71
g1373
sg64
(lp1380
S'server_protocol'
p1381
asbag57
(g78
g59
NtRp1382
(dp1383
g62
(dp1384
g89
g90
ssg71
g1373
sg64
(lp1385
S':'
asbag57
(g78
g59
NtRp1386
(dp1387
g62
(dp1388
sg71
g1373
sg64
(lp1389
g57
(g58
g59
NtRp1390
(dp1391
g62
(dp1392
g70
I4
ssg71
g1386
sg64
(lp1393
S'HTTP/1.1'
p1394
asbasbasbag57
(g73
g59
NtRp1395
(dp1396
g62
(dp1397
sg71
g822
sg64
(lp1398
g57
(g78
g59
NtRp1399
(dp1400
g62
(dp1401
g82
g83
ssg71
g1395
sg64
(lp1402
S'server_software'
p1403
asbag57
(g78
g59
NtRp1404
(dp1405
g62
(dp1406
g89
g90
ssg71
g1395
sg64
(lp1407
S':'
asbag57
(g78
g59
NtRp1408
(dp1409
g62
(dp1410
sg71
g1395
sg64
(lp1411
g57
(g58
g59
NtRp1412
(dp1413
g62
(dp1414
g70
I4
ssg71
g1408
sg64
(lp1415
S'Rocket 1.2.4'
p1416
asbasbasbag57
(g73
g59
NtRp1417
(dp1418
g62
(dp1419
sg71
g822
sg64
(lp1420
g57
(g78
g59
NtRp1421
(dp1422
g62
(dp1423
g82
g83
ssg71
g1417
sg64
(lp1424
S'web2py_crontype'
p1425
asbag57
(g78
g59
NtRp1426
(dp1427
g62
(dp1428
g89
g90
ssg71
g1417
sg64
(lp1429
S':'
asbag57
(g78
g59
NtRp1430
(dp1431
g62
(dp1432
sg71
g1417
sg64
(lp1433
g57
(g58
g59
NtRp1434
(dp1435
g62
(dp1436
g70
I4
ssg71
g1430
sg64
(lp1437
S'hard'
p1438
asbasbasbag57
(g73
g59
NtRp1439
(dp1440
g62
(dp1441
sg71
g822
sg64
(lp1442
g57
(g78
g59
NtRp1443
(dp1444
g62
(dp1445
g82
g83
ssg71
g1439
sg64
(lp1446
S'web2py_path'
p1447
asbag57
(g78
g59
NtRp1448
(dp1449
g62
(dp1450
g89
g90
ssg71
g1439
sg64
(lp1451
S':'
asbag57
(g78
g59
NtRp1452
(dp1453
g62
(dp1454
sg71
g1439
sg64
(lp1455
g57
(g58
g59
NtRp1456
(dp1457
g62
(dp1458
g70
I4
ssg71
g1452
sg64
(lp1459
g869
asbasbasbag57
(g73
g59
NtRp1460
(dp1461
g62
(dp1462
sg71
g822
sg64
(lp1463
g57
(g78
g59
NtRp1464
(dp1465
g62
(dp1466
g82
g83
ssg71
g1460
sg64
(lp1467
S'web2py_version'
p1468
asbag57
(g78
g59
NtRp1469
(dp1470
g62
(dp1471
g89
g90
ssg71
g1460
sg64
(lp1472
S':'
asbag57
(g78
g59
NtRp1473
(dp1474
g62
(dp1475
sg71
g1460
sg64
(lp1476
g57
(g58
g59
NtRp1477
(dp1478
g62
(dp1479
g70
I4
ssg71
g1473
sg64
(lp1480
g57
(g66
g59
NtRp1481
(dp1482
g62
(dp1483
g70
I3
ssg71
Nsg64
(lp1484
g57
(g73
g59
NtRp1485
(dp1486
g62
(dp1487
sg71
g1481
sg64
(lp1488
g57
(g78
g59
NtRp1489
(dp1490
g62
(dp1491
sg71
g1485
sg64
(lp1492
g57
(g58
g59
NtRp1493
(dp1494
g62
(dp1495
g70
I3
ssg71
g1489
sg64
(lp1496
S'1'
asbasbasbag57
(g73
g59
NtRp1497
(dp1498
g62
(dp1499
sg71
g1481
sg64
(lp1500
g57
(g78
g59
NtRp1501
(dp1502
g62
(dp1503
sg71
g1497
sg64
(lp1504
g57
(g58
g59
NtRp1505
(dp1506
g62
(dp1507
g70
I3
ssg71
g1501
sg64
(lp1508
S'99'
p1509
asbasbasbag57
(g73
g59
NtRp1510
(dp1511
g62
(dp1512
sg71
g1481
sg64
(lp1513
g57
(g78
g59
NtRp1514
(dp1515
g62
(dp1516
sg71
g1510
sg64
(lp1517
g57
(g58
g59
NtRp1518
(dp1519
g62
(dp1520
g70
I3
ssg71
g1514
sg64
(lp1521
S'4'
asbasbasbag57
(g73
g59
NtRp1522
(dp1523
g62
(dp1524
sg71
g1481
sg64
(lp1525
g57
(g78
g59
NtRp1526
(dp1527
g62
(dp1528
sg71
g1522
sg64
(lp1529
g57
(g58
g59
NtRp1530
(dp1531
g62
(dp1532
g70
I3
ssg71
g1526
sg64
(lp1533
S'datetime.datetime(2011, 12, 14, 14, 46, 14)'
p1534
asbasbasbag57
(g73
g59
NtRp1535
(dp1536
g62
(dp1537
sg71
g1481
sg64
(lp1538
g57
(g78
g59
NtRp1539
(dp1540
g62
(dp1541
sg71
g1535
sg64
(lp1542
g57
(g58
g59
NtRp1543
(dp1544
g62
(dp1545
g70
I3
ssg71
g1539
sg64
(lp1546
S'stable'
p1547
asbasbasbasbasbasbasbag57
(g73
g59
NtRp1548
(dp1549
g62
(dp1550
sg71
g822
sg64
(lp1551
g57
(g78
g59
NtRp1552
(dp1553
g62
(dp1554
g82
g83
ssg71
g1548
sg64
(lp1555
S'wsgi_errors'
p1556
asbag57
(g78
g59
NtRp1557
(dp1558
g62
(dp1559
g89
g90
ssg71
g1548
sg64
(lp1560
S':'
asbag57
(g78
g59
NtRp1561
(dp1562
g62
(dp1563
sg71
g1548
sg64
(lp1564
g57
(g58
g59
NtRp1565
(dp1566
g62
(dp1567
g70
I4
ssg71
g1561
sg64
(lp1568
S"<open file '<stderr>', mode 'w' at 0x7f53d832b270>"
p1569
asbasbasbag57
(g73
g59
NtRp1570
(dp1571
g62
(dp1572
sg71
g822
sg64
(lp1573
g57
(g78
g59
NtRp1574
(dp1575
g62
(dp1576
g82
g83
ssg71
g1570
sg64
(lp1577
S'wsgi_file_wrapper'
p1578
asbag57
(g78
g59
NtRp1579
(dp1580
g62
(dp1581
g89
g90
ssg71
g1570
sg64
(lp1582
S':'
asbag57
(g78
g59
NtRp1583
(dp1584
g62
(dp1585
sg71
g1570
sg64
(lp1586
g57
(g58
g59
NtRp1587
(dp1588
g62
(dp1589
g70
I4
ssg71
g1583
sg64
(lp1590
S'<class wsgiref.util.FileWrapper at 0x22c7328>'
p1591
asbasbasbag57
(g73
g59
NtRp1592
(dp1593
g62
(dp1594
sg71
g822
sg64
(lp1595
g57
(g78
g59
NtRp1596
(dp1597
g62
(dp1598
g82
g83
ssg71
g1592
sg64
(lp1599
S'wsgi_input'
p1600
asbag57
(g78
g59
NtRp1601
(dp1602
g62
(dp1603
g89
g90
ssg71
g1592
sg64
(lp1604
S':'
asbag57
(g78
g59
NtRp1605
(dp1606
g62
(dp1607
sg71
g1592
sg64
(lp1608
g57
(g58
g59
NtRp1609
(dp1610
g62
(dp1611
g70
I4
ssg71
g1605
sg64
(lp1612
S'<socket._fileobject object at 0x7f53883dc2d0>'
p1613
asbasbasbag57
(g73
g59
NtRp1614
(dp1615
g62
(dp1616
sg71
g822
sg64
(lp1617
g57
(g78
g59
NtRp1618
(dp1619
g62
(dp1620
g82
g83
ssg71
g1614
sg64
(lp1621
S'wsgi_multiprocess'
p1622
asbag57
(g78
g59
NtRp1623
(dp1624
g62
(dp1625
g89
g90
ssg71
g1614
sg64
(lp1626
S':'
asbag57
(g78
g59
NtRp1627
(dp1628
g62
(dp1629
sg71
g1614
sg64
(lp1630
g57
(g58
g59
NtRp1631
(dp1632
g62
(dp1633
g70
I4
ssg71
g1627
sg64
(lp1634
g100
asbasbasbag57
(g73
g59
NtRp1635
(dp1636
g62
(dp1637
sg71
g822
sg64
(lp1638
g57
(g78
g59
NtRp1639
(dp1640
g62
(dp1641
g82
g83
ssg71
g1635
sg64
(lp1642
S'wsgi_multithread'
p1643
asbag57
(g78
g59
NtRp1644
(dp1645
g62
(dp1646
g89
g90
ssg71
g1635
sg64
(lp1647
S':'
asbag57
(g78
g59
NtRp1648
(dp1649
g62
(dp1650
sg71
g1635
sg64
(lp1651
g57
(g58
g59
NtRp1652
(dp1653
g62
(dp1654
g70
I4
ssg71
g1648
sg64
(lp1655
S'True'
p1656
asbasbasbag57
(g73
g59
NtRp1657
(dp1658
g62
(dp1659
sg71
g822
sg64
(lp1660
g57
(g78
g59
NtRp1661
(dp1662
g62
(dp1663
g82
g83
ssg71
g1657
sg64
(lp1664
S'wsgi_run_once'
p1665
asbag57
(g78
g59
NtRp1666
(dp1667
g62
(dp1668
g89
g90
ssg71
g1657
sg64
(lp1669
S':'
asbag57
(g78
g59
NtRp1670
(dp1671
g62
(dp1672
sg71
g1657
sg64
(lp1673
g57
(g58
g59
NtRp1674
(dp1675
g62
(dp1676
g70
I4
ssg71
g1670
sg64
(lp1677
g100
asbasbasbag57
(g73
g59
NtRp1678
(dp1679
g62
(dp1680
sg71
g822
sg64
(lp1681
g57
(g78
g59
NtRp1682
(dp1683
g62
(dp1684
g82
g83
ssg71
g1678
sg64
(lp1685
S'wsgi_url_scheme'
p1686
asbag57
(g78
g59
NtRp1687
(dp1688
g62
(dp1689
g89
g90
ssg71
g1678
sg64
(lp1690
S':'
asbag57
(g78
g59
NtRp1691
(dp1692
g62
(dp1693
sg71
g1678
sg64
(lp1694
g57
(g58
g59
NtRp1695
(dp1696
g62
(dp1697
g70
I4
ssg71
g1691
sg64
(lp1698
S'http'
p1699
asbasbasbag57
(g73
g59
NtRp1700
(dp1701
g62
(dp1702
sg71
g822
sg64
(lp1703
g57
(g78
g59
NtRp1704
(dp1705
g62
(dp1706
g82
g83
ssg71
g1700
sg64
(lp1707
S'wsgi_version'
p1708
asbag57
(g78
g59
NtRp1709
(dp1710
g62
(dp1711
g89
g90
ssg71
g1700
sg64
(lp1712
S':'
asbag57
(g78
g59
NtRp1713
(dp1714
g62
(dp1715
sg71
g1700
sg64
(lp1716
g57
(g58
g59
NtRp1717
(dp1718
g62
(dp1719
g70
I4
ssg71
g1713
sg64
(lp1720
g57
(g66
g59
NtRp1721
(dp1722
g62
(dp1723
g70
I3
ssg71
Nsg64
(lp1724
g57
(g73
g59
NtRp1725
(dp1726
g62
(dp1727
sg71
g1721
sg64
(lp1728
g57
(g78
g59
NtRp1729
(dp1730
g62
(dp1731
sg71
g1725
sg64
(lp1732
g57
(g58
g59
NtRp1733
(dp1734
g62
(dp1735
g70
I3
ssg71
g1729
sg64
(lp1736
S'1'
asbasbasbag57
(g73
g59
NtRp1737
(dp1738
g62
(dp1739
sg71
g1721
sg64
(lp1740
g57
(g78
g59
NtRp1741
(dp1742
g62
(dp1743
sg71
g1737
sg64
(lp1744
g57
(g58
g59
NtRp1745
(dp1746
g62
(dp1747
g70
I3
ssg71
g1741
sg64
(lp1748
S'0'
asbasbasbasbasbasbasbasbasbasbasbag57
(g73
g59
NtRp1749
(dp1750
g62
(dp1751
sg71
g67
sg64
(lp1752
g57
(g78
g59
NtRp1753
(dp1754
g62
(dp1755
g82
g83
ssg71
g1749
sg64
(lp1756
S'extension'
p1757
asbag57
(g78
g59
NtRp1758
(dp1759
g62
(dp1760
g89
g90
ssg71
g1749
sg64
(lp1761
S':'
asbag57
(g78
g59
NtRp1762
(dp1763
g62
(dp1764
sg71
g1749
sg64
(lp1765
g57
(g58
g59
NtRp1766
(dp1767
g62
(dp1768
g70
I5
ssg71
g1762
sg64
(lp1769
S'html'
p1770
asbasbasbag57
(g73
g59
NtRp1771
(dp1772
g62
(dp1773
sg71
g67
sg64
(lp1774
g57
(g78
g59
NtRp1775
(dp1776
g62
(dp1777
g82
g83
ssg71
g1771
sg64
(lp1778
S'folder'
p1779
asbag57
(g78
g59
NtRp1780
(dp1781
g62
(dp1782
g89
g90
ssg71
g1771
sg64
(lp1783
S':'
asbag57
(g78
g59
NtRp1784
(dp1785
g62
(dp1786
sg71
g1771
sg64
(lp1787
g57
(g58
g59
NtRp1788
(dp1789
g62
(dp1790
g70
I5
ssg71
g1784
sg64
(lp1791
S'/home/jigar/web2py/applications/app1/'
p1792
asbasbasbag57
(g73
g59
NtRp1793
(dp1794
g62
(dp1795
sg71
g67
sg64
(lp1796
g57
(g78
g59
NtRp1797
(dp1798
g62
(dp1799
g82
g83
ssg71
g1793
sg64
(lp1800
S'function'
p1801
asbag57
(g78
g59
NtRp1802
(dp1803
g62
(dp1804
g89
g90
ssg71
g1793
sg64
(lp1805
S':'
asbag57
(g78
g59
NtRp1806
(dp1807
g62
(dp1808
sg71
g1793
sg64
(lp1809
g57
(g58
g59
NtRp1810
(dp1811
g62
(dp1812
g70
I5
ssg71
g1806
sg64
(lp1813
S'lall'
p1814
asbasbasbag57
(g73
g59
NtRp1815
(dp1816
g62
(dp1817
sg71
g67
sg64
(lp1818
g57
(g78
g59
NtRp1819
(dp1820
g62
(dp1821
g82
g83
ssg71
g1815
sg64
(lp1822
S'get_vars'
p1823
asbag57
(g78
g59
NtRp1824
(dp1825
g62
(dp1826
g89
g90
ssg71
g1815
sg64
(lp1827
S':'
asbag57
(g78
g59
NtRp1828
(dp1829
g62
(dp1830
sg71
g1815
sg64
(lp1831
g57
(g58
g59
NtRp1832
(dp1833
g62
(dp1834
g70
I5
ssg71
g1828
sg64
(lp1835
g57
(g66
g59
NtRp1836
(dp1837
g62
(dp1838
g70
I4
ssg71
Nsg64
(lp1839
sbasbasbasbag57
(g73
g59
NtRp1840
(dp1841
g62
(dp1842
sg71
g67
sg64
(lp1843
g57
(g78
g59
NtRp1844
(dp1845
g62
(dp1846
g82
g83
ssg71
g1840
sg64
(lp1847
S'global_settings'
p1848
asbag57
(g78
g59
NtRp1849
(dp1850
g62
(dp1851
g89
g90
ssg71
g1840
sg64
(lp1852
S':'
asbag57
(g78
g59
NtRp1853
(dp1854
g62
(dp1855
sg71
g1840
sg64
(lp1856
g57
(g58
g59
NtRp1857
(dp1858
g62
(dp1859
g70
I5
ssg71
g1853
sg64
(lp1860
g57
(g66
g59
NtRp1861
(dp1862
g62
(dp1863
g70
I4
ssg71
Nsg64
(lp1864
g57
(g73
g59
NtRp1865
(dp1866
g62
(dp1867
sg71
g1861
sg64
(lp1868
g57
(g78
g59
NtRp1869
(dp1870
g62
(dp1871
g82
g83
ssg71
g1865
sg64
(lp1872
g834
asbag57
(g78
g59
NtRp1873
(dp1874
g62
(dp1875
g89
g90
ssg71
g1865
sg64
(lp1876
S':'
asbag57
(g78
g59
NtRp1877
(dp1878
g62
(dp1879
sg71
g1865
sg64
(lp1880
g57
(g58
g59
NtRp1881
(dp1882
g62
(dp1883
g70
I4
ssg71
g1877
sg64
(lp1884
S"set(['/home/jigar/web2py/applications/welcome/', '/home/jigar/web2py/applications/admin/', '/home/jigar/web2py/applications/app1/'])"
p1885
asbasbasbag57
(g73
g59
NtRp1886
(dp1887
g62
(dp1888
sg71
g1861
sg64
(lp1889
g57
(g78
g59
NtRp1890
(dp1891
g62
(dp1892
g82
g83
ssg71
g1886
sg64
(lp1893
g856
asbag57
(g78
g59
NtRp1894
(dp1895
g62
(dp1896
g89
g90
ssg71
g1886
sg64
(lp1897
S':'
asbag57
(g78
g59
NtRp1898
(dp1899
g62
(dp1900
sg71
g1886
sg64
(lp1901
g57
(g58
g59
NtRp1902
(dp1903
g62
(dp1904
g70
I4
ssg71
g1898
sg64
(lp1905
g869
asbasbasbag57
(g73
g59
NtRp1906
(dp1907
g62
(dp1908
sg71
g1861
sg64
(lp1909
g57
(g78
g59
NtRp1910
(dp1911
g62
(dp1912
g82
g83
ssg71
g1906
sg64
(lp1913
g878
asbag57
(g78
g59
NtRp1914
(dp1915
g62
(dp1916
g89
g90
ssg71
g1906
sg64
(lp1917
S':'
asbag57
(g78
g59
NtRp1918
(dp1919
g62
(dp1920
sg71
g1906
sg64
(lp1921
g57
(g58
g59
NtRp1922
(dp1923
g62
(dp1924
g70
I4
ssg71
g1918
sg64
(lp1925
g57
(g66
g59
NtRp1926
(dp1927
g62
(dp1928
g70
I3
ssg71
Nsg64
(lp1929
sbasbasbasbag57
(g73
g59
NtRp1930
(dp1931
g62
(dp1932
sg71
g1861
sg64
(lp1933
g57
(g78
g59
NtRp1934
(dp1935
g62
(dp1936
g82
g83
ssg71
g1930
sg64
(lp1937
g903
asbag57
(g78
g59
NtRp1938
(dp1939
g62
(dp1940
g89
g90
ssg71
g1930
sg64
(lp1941
S':'
asbag57
(g78
g59
NtRp1942
(dp1943
g62
(dp1944
sg71
g1930
sg64
(lp1945
g57
(g58
g59
NtRp1946
(dp1947
g62
(dp1948
g70
I4
ssg71
g1942
sg64
(lp1949
S"<Values at 0x238cbd8: {'verbose': False, 'ip': '127.0.0.1', 'shutdown_timeout': 5, 'taskbar': False, 'port': 8000, 'maxthreads': None, 'softcron': False, 'server_name': 'jigar-Lenovo-Z580', 'bpython': False, 'nogui': False, 'nocron': False, 'extcron': False, 'debuglevel': 30, 'test': None, 'folder': '/home/jigar/web2py', 'config': '', 'import_models': False, 'winservice': '', 'shell': None, 'run': '', 'log_filename': 'httpserver.log', 'args': [''], 'socket_timeout': 1, 'profiler_filename': None, 'ssl_private_key': '', 'password': '<ask>', 'request_queue_size': 5, 'ssl_certificate': '', 'cronjob': False, 'plain': False, 'quiet': False, 'interfaces': None, 'minthreads': None, 'timeout': 10, 'numthreads': None, 'nobanner': False, 'pid_filename': 'httpserver.pid'}>"
p1950
asbasbasbag57
(g73
g59
NtRp1951
(dp1952
g62
(dp1953
sg71
g1861
sg64
(lp1954
g57
(g78
g59
NtRp1955
(dp1956
g62
(dp1957
g82
g83
ssg71
g1951
sg64
(lp1958
g925
asbag57
(g78
g59
NtRp1959
(dp1960
g62
(dp1961
g89
g90
ssg71
g1951
sg64
(lp1962
S':'
asbag57
(g78
g59
NtRp1963
(dp1964
g62
(dp1965
sg71
g1951
sg64
(lp1966
g57
(g58
g59
NtRp1967
(dp1968
g62
(dp1969
g70
I4
ssg71
g1963
sg64
(lp1970
S'set([])'
p1971
asbasbasbag57
(g73
g59
NtRp1972
(dp1973
g62
(dp1974
sg71
g1861
sg64
(lp1975
g57
(g78
g59
NtRp1976
(dp1977
g62
(dp1978
g82
g83
ssg71
g1972
sg64
(lp1979
g947
asbag57
(g78
g59
NtRp1980
(dp1981
g62
(dp1982
g89
g90
ssg71
g1972
sg64
(lp1983
S':'
asbag57
(g78
g59
NtRp1984
(dp1985
g62
(dp1986
sg71
g1972
sg64
(lp1987
g57
(g58
g59
NtRp1988
(dp1989
g62
(dp1990
g70
I4
ssg71
g1984
sg64
(lp1991
g100
asbasbasbag57
(g73
g59
NtRp1992
(dp1993
g62
(dp1994
sg71
g1861
sg64
(lp1995
g57
(g78
g59
NtRp1996
(dp1997
g62
(dp1998
g82
g83
ssg71
g1992
sg64
(lp1999
g968
asbag57
(g78
g59
NtRp2000
(dp2001
g62
(dp2002
g89
g90
ssg71
g1992
sg64
(lp2003
S':'
asbag57
(g78
g59
NtRp2004
(dp2005
g62
(dp2006
sg71
g1992
sg64
(lp2007
g57
(g58
g59
NtRp2008
(dp2009
g62
(dp2010
g70
I4
ssg71
g2004
sg64
(lp2011
g981
asbasbasbag57
(g73
g59
NtRp2012
(dp2013
g62
(dp2014
sg71
g1861
sg64
(lp2015
g57
(g78
g59
NtRp2016
(dp2017
g62
(dp2018
g82
g83
ssg71
g2012
sg64
(lp2019
g1166
asbag57
(g78
g59
NtRp2020
(dp2021
g62
(dp2022
g89
g90
ssg71
g2012
sg64
(lp2023
S':'
asbag57
(g78
g59
NtRp2024
(dp2025
g62
(dp2026
sg71
g2012
sg64
(lp2027
g57
(g58
g59
NtRp2028
(dp2029
g62
(dp2030
g70
I4
ssg71
g2024
sg64
(lp2031
g100
asbasbasbag57
(g73
g59
NtRp2032
(dp2033
g62
(dp2034
sg71
g1861
sg64
(lp2035
g57
(g78
g59
NtRp2036
(dp2037
g62
(dp2038
g82
g83
ssg71
g2032
sg64
(lp2039
g1187
asbag57
(g78
g59
NtRp2040
(dp2041
g62
(dp2042
g89
g90
ssg71
g2032
sg64
(lp2043
S':'
asbag57
(g78
g59
NtRp2044
(dp2045
g62
(dp2046
sg71
g2032
sg64
(lp2047
g57
(g58
g59
NtRp2048
(dp2049
g62
(dp2050
g70
I4
ssg71
g2044
sg64
(lp2051
g100
asbasbasbag57
(g73
g59
NtRp2052
(dp2053
g62
(dp2054
sg71
g1861
sg64
(lp2055
g57
(g78
g59
NtRp2056
(dp2057
g62
(dp2058
g82
g83
ssg71
g2052
sg64
(lp2059
g1425
asbag57
(g78
g59
NtRp2060
(dp2061
g62
(dp2062
g89
g90
ssg71
g2052
sg64
(lp2063
S':'
asbag57
(g78
g59
NtRp2064
(dp2065
g62
(dp2066
sg71
g2052
sg64
(lp2067
g57
(g58
g59
NtRp2068
(dp2069
g62
(dp2070
g70
I4
ssg71
g2064
sg64
(lp2071
g1438
asbasbasbag57
(g73
g59
NtRp2072
(dp2073
g62
(dp2074
sg71
g1861
sg64
(lp2075
g57
(g78
g59
NtRp2076
(dp2077
g62
(dp2078
g82
g83
ssg71
g2072
sg64
(lp2079
g1468
asbag57
(g78
g59
NtRp2080
(dp2081
g62
(dp2082
g89
g90
ssg71
g2072
sg64
(lp2083
S':'
asbag57
(g78
g59
NtRp2084
(dp2085
g62
(dp2086
sg71
g2072
sg64
(lp2087
g57
(g58
g59
NtRp2088
(dp2089
g62
(dp2090
g70
I4
ssg71
g2084
sg64
(lp2091
g57
(g66
g59
NtRp2092
(dp2093
g62
(dp2094
g70
I3
ssg71
Nsg64
(lp2095
g57
(g73
g59
NtRp2096
(dp2097
g62
(dp2098
sg71
g2092
sg64
(lp2099
g57
(g78
g59
NtRp2100
(dp2101
g62
(dp2102
sg71
g2096
sg64
(lp2103
g57
(g58
g59
NtRp2104
(dp2105
g62
(dp2106
g70
I3
ssg71
g2100
sg64
(lp2107
S'1'
asbasbasbag57
(g73
g59
NtRp2108
(dp2109
g62
(dp2110
sg71
g2092
sg64
(lp2111
g57
(g78
g59
NtRp2112
(dp2113
g62
(dp2114
sg71
g2108
sg64
(lp2115
g57
(g58
g59
NtRp2116
(dp2117
g62
(dp2118
g70
I3
ssg71
g2112
sg64
(lp2119
S'99'
p2120
asbasbasbag57
(g73
g59
NtRp2121
(dp2122
g62
(dp2123
sg71
g2092
sg64
(lp2124
g57
(g78
g59
NtRp2125
(dp2126
g62
(dp2127
sg71
g2121
sg64
(lp2128
g57
(g58
g59
NtRp2129
(dp2130
g62
(dp2131
g70
I3
ssg71
g2125
sg64
(lp2132
S'4'
asbasbasbag57
(g73
g59
NtRp2133
(dp2134
g62
(dp2135
sg71
g2092
sg64
(lp2136
g57
(g78
g59
NtRp2137
(dp2138
g62
(dp2139
sg71
g2133
sg64
(lp2140
g57
(g58
g59
NtRp2141
(dp2142
g62
(dp2143
g70
I3
ssg71
g2137
sg64
(lp2144
S'datetime.datetime(2011, 12, 14, 14, 46, 14)'
p2145
asbasbasbag57
(g73
g59
NtRp2146
(dp2147
g62
(dp2148
sg71
g2092
sg64
(lp2149
g57
(g78
g59
NtRp2150
(dp2151
g62
(dp2152
sg71
g2146
sg64
(lp2153
g57
(g58
g59
NtRp2154
(dp2155
g62
(dp2156
g70
I3
ssg71
g2150
sg64
(lp2157
g1547
asbasbasbasbasbasbasbasbasbasbasbag57
(g73
g59
NtRp2158
(dp2159
g62
(dp2160
sg71
g67
sg64
(lp2161
g57
(g78
g59
NtRp2162
(dp2163
g62
(dp2164
g82
g83
ssg71
g2158
sg64
(lp2165
S'is_https'
p2166
asbag57
(g78
g59
NtRp2167
(dp2168
g62
(dp2169
g89
g90
ssg71
g2158
sg64
(lp2170
S':'
asbag57
(g78
g59
NtRp2171
(dp2172
g62
(dp2173
sg71
g2158
sg64
(lp2174
g57
(g58
g59
NtRp2175
(dp2176
g62
(dp2177
g70
I5
ssg71
g2171
sg64
(lp2178
g100
asbasbasbag57
(g73
g59
NtRp2179
(dp2180
g62
(dp2181
sg71
g67
sg64
(lp2182
g57
(g78
g59
NtRp2183
(dp2184
g62
(dp2185
g82
g83
ssg71
g2179
sg64
(lp2186
S'is_local'
p2187
asbag57
(g78
g59
NtRp2188
(dp2189
g62
(dp2190
g89
g90
ssg71
g2179
sg64
(lp2191
S':'
asbag57
(g78
g59
NtRp2192
(dp2193
g62
(dp2194
sg71
g2179
sg64
(lp2195
g57
(g58
g59
NtRp2196
(dp2197
g62
(dp2198
g70
I5
ssg71
g2192
sg64
(lp2199
g1656
asbasbasbag57
(g73
g59
NtRp2200
(dp2201
g62
(dp2202
sg71
g67
sg64
(lp2203
g57
(g78
g59
NtRp2204
(dp2205
g62
(dp2206
g82
g83
ssg71
g2200
sg64
(lp2207
S'is_restful'
p2208
asbag57
(g78
g59
NtRp2209
(dp2210
g62
(dp2211
g89
g90
ssg71
g2200
sg64
(lp2212
S':'
asbag57
(g78
g59
NtRp2213
(dp2214
g62
(dp2215
sg71
g2200
sg64
(lp2216
g57
(g58
g59
NtRp2217
(dp2218
g62
(dp2219
g70
I5
ssg71
g2213
sg64
(lp2220
g100
asbasbasbag57
(g73
g59
NtRp2221
(dp2222
g62
(dp2223
sg71
g67
sg64
(lp2224
g57
(g78
g59
NtRp2225
(dp2226
g62
(dp2227
g82
g83
ssg71
g2221
sg64
(lp2228
S'now'
p2229
asbag57
(g78
g59
NtRp2230
(dp2231
g62
(dp2232
g89
g90
ssg71
g2221
sg64
(lp2233
S':'
asbag57
(g78
g59
NtRp2234
(dp2235
g62
(dp2236
sg71
g2221
sg64
(lp2237
g57
(g58
g59
NtRp2238
(dp2239
g62
(dp2240
g70
I5
ssg71
g2234
sg64
(lp2241
S'datetime.datetime(2013, 8, 27, 19, 18, 26, 102954)'
p2242
asbasbasbag57
(g73
g59
NtRp2243
(dp2244
g62
(dp2245
sg71
g67
sg64
(lp2246
g57
(g78
g59
NtRp2247
(dp2248
g62
(dp2249
g82
g83
ssg71
g2243
sg64
(lp2250
S'post_vars'
p2251
asbag57
(g78
g59
NtRp2252
(dp2253
g62
(dp2254
g89
g90
ssg71
g2243
sg64
(lp2255
S':'
asbag57
(g78
g59
NtRp2256
(dp2257
g62
(dp2258
sg71
g2243
sg64
(lp2259
g57
(g58
g59
NtRp2260
(dp2261
g62
(dp2262
g70
I5
ssg71
g2256
sg64
(lp2263
g57
(g66
g59
NtRp2264
(dp2265
g62
(dp2266
g70
I4
ssg71
Nsg64
(lp2267
sbasbasbasbag57
(g73
g59
NtRp2268
(dp2269
g62
(dp2270
sg71
g67
sg64
(lp2271
g57
(g78
g59
NtRp2272
(dp2273
g62
(dp2274
g82
g83
ssg71
g2268
sg64
(lp2275
S'url'
p2276
asbag57
(g78
g59
NtRp2277
(dp2278
g62
(dp2279
g89
g90
ssg71
g2268
sg64
(lp2280
S':'
asbag57
(g78
g59
NtRp2281
(dp2282
g62
(dp2283
sg71
g2268
sg64
(lp2284
g57
(g58
g59
NtRp2285
(dp2286
g62
(dp2287
g70
I5
ssg71
g2281
sg64
(lp2288
S'/app1/default/lall'
p2289
asbasbasbag57
(g73
g59
NtRp2290
(dp2291
g62
(dp2292
sg71
g67
sg64
(lp2293
g57
(g78
g59
NtRp2294
(dp2295
g62
(dp2296
g82
g83
ssg71
g2290
sg64
(lp2297
S'utcnow'
p2298
asbag57
(g78
g59
NtRp2299
(dp2300
g62
(dp2301
g89
g90
ssg71
g2290
sg64
(lp2302
S':'
asbag57
(g78
g59
NtRp2303
(dp2304
g62
(dp2305
sg71
g2290
sg64
(lp2306
g57
(g58
g59
NtRp2307
(dp2308
g62
(dp2309
g70
I5
ssg71
g2303
sg64
(lp2310
S'datetime.datetime(2013, 8, 27, 13, 48, 26, 103026)'
p2311
asbasbasbag57
(g73
g59
NtRp2312
(dp2313
g62
(dp2314
sg71
g67
sg64
(lp2315
g57
(g78
g59
NtRp2316
(dp2317
g62
(dp2318
g82
g83
ssg71
g2312
sg64
(lp2319
S'uuid'
p2320
asbag57
(g78
g59
NtRp2321
(dp2322
g62
(dp2323
g89
g90
ssg71
g2312
sg64
(lp2324
S':'
asbag57
(g78
g59
NtRp2325
(dp2326
g62
(dp2327
sg71
g2312
sg64
(lp2328
g57
(g58
g59
NtRp2329
(dp2330
g62
(dp2331
g70
I5
ssg71
g2325
sg64
(lp2332
S'app1/127.0.0.1.2013-08-27.19-18-26.21b92ada-dc6a-42c1-9d39-66c9d05a1a26'
p2333
asbasbasbag57
(g73
g59
NtRp2334
(dp2335
g62
(dp2336
sg71
g67
sg64
(lp2337
g57
(g78
g59
NtRp2338
(dp2339
g62
(dp2340
g82
g83
ssg71
g2334
sg64
(lp2341
S'vars'
p2342
asbag57
(g78
g59
NtRp2343
(dp2344
g62
(dp2345
g89
g90
ssg71
g2334
sg64
(lp2346
S':'
asbag57
(g78
g59
NtRp2347
(dp2348
g62
(dp2349
sg71
g2334
sg64
(lp2350
g57
(g58
g59
NtRp2351
(dp2352
g62
(dp2353
g70
I5
ssg71
g2347
sg64
(lp2354
g57
(g66
g59
NtRp2355
(dp2356
g62
(dp2357
g70
I4
ssg71
Nsg64
(lp2358
sbasbasbasbag57
(g73
g59
NtRp2359
(dp2360
g62
(dp2361
sg71
g67
sg64
(lp2362
g57
(g78
g59
NtRp2363
(dp2364
g62
(dp2365
g82
g83
ssg71
g2359
sg64
(lp2366
S'wsgi'
p2367
asbag57
(g78
g59
NtRp2368
(dp2369
g62
(dp2370
g89
g90
ssg71
g2359
sg64
(lp2371
S':'
asbag57
(g78
g59
NtRp2372
(dp2373
g62
(dp2374
sg71
g2359
sg64
(lp2375
g57
(g58
g59
NtRp2376
(dp2377
g62
(dp2378
g70
I5
ssg71
g2372
sg64
(lp2379
g57
(g66
g59
NtRp2380
(dp2381
g62
(dp2382
g70
I4
ssg71
Nsg64
(lp2383
g57
(g73
g59
NtRp2384
(dp2385
g62
(dp2386
sg71
g2380
sg64
(lp2387
g57
(g78
g59
NtRp2388
(dp2389
g62
(dp2390
g82
g83
ssg71
g2384
sg64
(lp2391
S'environ'
p2392
asbag57
(g78
g59
NtRp2393
(dp2394
g62
(dp2395
g89
g90
ssg71
g2384
sg64
(lp2396
S':'
asbag57
(g78
g59
NtRp2397
(dp2398
g62
(dp2399
sg71
g2384
sg64
(lp2400
g57
(g58
g59
NtRp2401
(dp2402
g62
(dp2403
g70
I4
ssg71
g2397
sg64
(lp2404
g57
(g66
g59
NtRp2405
(dp2406
g62
(dp2407
g70
I3
ssg71
Nsg64
(lp2408
g57
(g73
g59
NtRp2409
(dp2410
g62
(dp2411
sg71
g2405
sg64
(lp2412
g57
(g78
g59
NtRp2413
(dp2414
g62
(dp2415
g82
g83
ssg71
g2409
sg64
(lp2416
S'HTTP_ACCEPT'
p2417
asbag57
(g78
g59
NtRp2418
(dp2419
g62
(dp2420
g89
g90
ssg71
g2409
sg64
(lp2421
S':'
asbag57
(g78
g59
NtRp2422
(dp2423
g62
(dp2424
sg71
g2409
sg64
(lp2425
g57
(g58
g59
NtRp2426
(dp2427
g62
(dp2428
g70
I3
ssg71
g2422
sg64
(lp2429
g1003
asbasbasbag57
(g73
g59
NtRp2430
(dp2431
g62
(dp2432
sg71
g2405
sg64
(lp2433
g57
(g78
g59
NtRp2434
(dp2435
g62
(dp2436
g82
g83
ssg71
g2430
sg64
(lp2437
S'HTTP_ACCEPT_ENCODING'
p2438
asbag57
(g78
g59
NtRp2439
(dp2440
g62
(dp2441
g89
g90
ssg71
g2430
sg64
(lp2442
S':'
asbag57
(g78
g59
NtRp2443
(dp2444
g62
(dp2445
sg71
g2430
sg64
(lp2446
g57
(g58
g59
NtRp2447
(dp2448
g62
(dp2449
g70
I3
ssg71
g2443
sg64
(lp2450
g1025
asbasbasbag57
(g73
g59
NtRp2451
(dp2452
g62
(dp2453
sg71
g2405
sg64
(lp2454
g57
(g78
g59
NtRp2455
(dp2456
g62
(dp2457
g82
g83
ssg71
g2451
sg64
(lp2458
S'HTTP_ACCEPT_LANGUAGE'
p2459
asbag57
(g78
g59
NtRp2460
(dp2461
g62
(dp2462
g89
g90
ssg71
g2451
sg64
(lp2463
S':'
asbag57
(g78
g59
NtRp2464
(dp2465
g62
(dp2466
sg71
g2451
sg64
(lp2467
g57
(g58
g59
NtRp2468
(dp2469
g62
(dp2470
g70
I3
ssg71
g2464
sg64
(lp2471
g1047
asbasbasbag57
(g73
g59
NtRp2472
(dp2473
g62
(dp2474
sg71
g2405
sg64
(lp2475
g57
(g78
g59
NtRp2476
(dp2477
g62
(dp2478
g82
g83
ssg71
g2472
sg64
(lp2479
S'HTTP_CACHE_CONTROL'
p2480
asbag57
(g78
g59
NtRp2481
(dp2482
g62
(dp2483
g89
g90
ssg71
g2472
sg64
(lp2484
S':'
asbag57
(g78
g59
NtRp2485
(dp2486
g62
(dp2487
sg71
g2472
sg64
(lp2488
g57
(g58
g59
NtRp2489
(dp2490
g62
(dp2491
g70
I3
ssg71
g2485
sg64
(lp2492
g1069
asbasbasbag57
(g73
g59
NtRp2493
(dp2494
g62
(dp2495
sg71
g2405
sg64
(lp2496
g57
(g78
g59
NtRp2497
(dp2498
g62
(dp2499
g82
g83
ssg71
g2493
sg64
(lp2500
S'HTTP_CONNECTION'
p2501
asbag57
(g78
g59
NtRp2502
(dp2503
g62
(dp2504
g89
g90
ssg71
g2493
sg64
(lp2505
S':'
asbag57
(g78
g59
NtRp2506
(dp2507
g62
(dp2508
sg71
g2493
sg64
(lp2509
g57
(g58
g59
NtRp2510
(dp2511
g62
(dp2512
g70
I3
ssg71
g2506
sg64
(lp2513
g1091
asbasbasbag57
(g73
g59
NtRp2514
(dp2515
g62
(dp2516
sg71
g2405
sg64
(lp2517
g57
(g78
g59
NtRp2518
(dp2519
g62
(dp2520
g82
g83
ssg71
g2514
sg64
(lp2521
S'HTTP_COOKIE'
p2522
asbag57
(g78
g59
NtRp2523
(dp2524
g62
(dp2525
g89
g90
ssg71
g2514
sg64
(lp2526
S':'
asbag57
(g78
g59
NtRp2527
(dp2528
g62
(dp2529
sg71
g2514
sg64
(lp2530
g57
(g58
g59
NtRp2531
(dp2532
g62
(dp2533
g70
I3
ssg71
g2527
sg64
(lp2534
g1113
asbasbasbag57
(g73
g59
NtRp2535
(dp2536
g62
(dp2537
sg71
g2405
sg64
(lp2538
g57
(g78
g59
NtRp2539
(dp2540
g62
(dp2541
g82
g83
ssg71
g2535
sg64
(lp2542
S'HTTP_HOST'
p2543
asbag57
(g78
g59
NtRp2544
(dp2545
g62
(dp2546
g89
g90
ssg71
g2535
sg64
(lp2547
S':'
asbag57
(g78
g59
NtRp2548
(dp2549
g62
(dp2550
sg71
g2535
sg64
(lp2551
g57
(g58
g59
NtRp2552
(dp2553
g62
(dp2554
g70
I3
ssg71
g2548
sg64
(lp2555
g1135
asbasbasbag57
(g73
g59
NtRp2556
(dp2557
g62
(dp2558
sg71
g2405
sg64
(lp2559
g57
(g78
g59
NtRp2560
(dp2561
g62
(dp2562
g82
g83
ssg71
g2556
sg64
(lp2563
S'HTTP_USER_AGENT'
p2564
asbag57
(g78
g59
NtRp2565
(dp2566
g62
(dp2567
g89
g90
ssg71
g2556
sg64
(lp2568
S':'
asbag57
(g78
g59
NtRp2569
(dp2570
g62
(dp2571
sg71
g2556
sg64
(lp2572
g57
(g58
g59
NtRp2573
(dp2574
g62
(dp2575
g70
I3
ssg71
g2569
sg64
(lp2576
g1157
asbasbasbag57
(g73
g59
NtRp2577
(dp2578
g62
(dp2579
sg71
g2405
sg64
(lp2580
g57
(g78
g59
NtRp2581
(dp2582
g62
(dp2583
g82
g83
ssg71
g2577
sg64
(lp2584
S'PATH_INFO'
p2585
asbag57
(g78
g59
NtRp2586
(dp2587
g62
(dp2588
g89
g90
ssg71
g2577
sg64
(lp2589
S':'
asbag57
(g78
g59
NtRp2590
(dp2591
g62
(dp2592
sg71
g2577
sg64
(lp2593
g57
(g58
g59
NtRp2594
(dp2595
g62
(dp2596
g70
I3
ssg71
g2590
sg64
(lp2597
g1221
asbasbasbag57
(g73
g59
NtRp2598
(dp2599
g62
(dp2600
sg71
g2405
sg64
(lp2601
g57
(g78
g59
NtRp2602
(dp2603
g62
(dp2604
g82
g83
ssg71
g2598
sg64
(lp2605
S'QUERY_STRING'
p2606
asbag57
(g78
g59
NtRp2607
(dp2608
g62
(dp2609
g89
g90
ssg71
g2598
sg64
(lp2610
S':'
asbag57
(g78
g59
NtRp2611
(dp2612
g62
(dp2613
sg71
g2598
sg64
(lp2614
g57
(g58
g59
NtRp2615
(dp2616
g62
(dp2617
g70
I3
ssg71
g2611
sg64
(lp2618
S''
asbasbasbag57
(g73
g59
NtRp2619
(dp2620
g62
(dp2621
sg71
g2405
sg64
(lp2622
g57
(g78
g59
NtRp2623
(dp2624
g62
(dp2625
g82
g83
ssg71
g2619
sg64
(lp2626
S'REMOTE_ADDR'
p2627
asbag57
(g78
g59
NtRp2628
(dp2629
g62
(dp2630
g89
g90
ssg71
g2619
sg64
(lp2631
S':'
asbag57
(g78
g59
NtRp2632
(dp2633
g62
(dp2634
sg71
g2619
sg64
(lp2635
g57
(g58
g59
NtRp2636
(dp2637
g62
(dp2638
g70
I3
ssg71
g2632
sg64
(lp2639
g190
asbasbasbag57
(g73
g59
NtRp2640
(dp2641
g62
(dp2642
sg71
g2405
sg64
(lp2643
g57
(g78
g59
NtRp2644
(dp2645
g62
(dp2646
g82
g83
ssg71
g2640
sg64
(lp2647
S'REMOTE_PORT'
p2648
asbag57
(g78
g59
NtRp2649
(dp2650
g62
(dp2651
g89
g90
ssg71
g2640
sg64
(lp2652
S':'
asbag57
(g78
g59
NtRp2653
(dp2654
g62
(dp2655
sg71
g2640
sg64
(lp2656
g57
(g58
g59
NtRp2657
(dp2658
g62
(dp2659
g70
I3
ssg71
g2653
sg64
(lp2660
g1285
asbasbasbag57
(g73
g59
NtRp2661
(dp2662
g62
(dp2663
sg71
g2405
sg64
(lp2664
g57
(g78
g59
NtRp2665
(dp2666
g62
(dp2667
g82
g83
ssg71
g2661
sg64
(lp2668
S'REQUEST_METHOD'
p2669
asbag57
(g78
g59
NtRp2670
(dp2671
g62
(dp2672
g89
g90
ssg71
g2661
sg64
(lp2673
S':'
asbag57
(g78
g59
NtRp2674
(dp2675
g62
(dp2676
sg71
g2661
sg64
(lp2677
g57
(g58
g59
NtRp2678
(dp2679
g62
(dp2680
g70
I3
ssg71
g2674
sg64
(lp2681
g1307
asbasbasbag57
(g73
g59
NtRp2682
(dp2683
g62
(dp2684
sg71
g2405
sg64
(lp2685
g57
(g78
g59
NtRp2686
(dp2687
g62
(dp2688
g82
g83
ssg71
g2682
sg64
(lp2689
S'SCRIPT_NAME'
p2690
asbag57
(g78
g59
NtRp2691
(dp2692
g62
(dp2693
g89
g90
ssg71
g2682
sg64
(lp2694
S':'
asbag57
(g78
g59
NtRp2695
(dp2696
g62
(dp2697
sg71
g2682
sg64
(lp2698
g57
(g58
g59
NtRp2699
(dp2700
g62
(dp2701
g70
I3
ssg71
g2695
sg64
(lp2702
S''
asbasbasbag57
(g73
g59
NtRp2703
(dp2704
g62
(dp2705
sg71
g2405
sg64
(lp2706
g57
(g78
g59
NtRp2707
(dp2708
g62
(dp2709
g82
g83
ssg71
g2703
sg64
(lp2710
S'SERVER_NAME'
p2711
asbag57
(g78
g59
NtRp2712
(dp2713
g62
(dp2714
g89
g90
ssg71
g2703
sg64
(lp2715
S':'
asbag57
(g78
g59
NtRp2716
(dp2717
g62
(dp2718
sg71
g2703
sg64
(lp2719
g57
(g58
g59
NtRp2720
(dp2721
g62
(dp2722
g70
I3
ssg71
g2716
sg64
(lp2723
g1350
asbasbasbag57
(g73
g59
NtRp2724
(dp2725
g62
(dp2726
sg71
g2405
sg64
(lp2727
g57
(g78
g59
NtRp2728
(dp2729
g62
(dp2730
g82
g83
ssg71
g2724
sg64
(lp2731
S'SERVER_PORT'
p2732
asbag57
(g78
g59
NtRp2733
(dp2734
g62
(dp2735
g89
g90
ssg71
g2724
sg64
(lp2736
S':'
asbag57
(g78
g59
NtRp2737
(dp2738
g62
(dp2739
sg71
g2724
sg64
(lp2740
g57
(g58
g59
NtRp2741
(dp2742
g62
(dp2743
g70
I3
ssg71
g2737
sg64
(lp2744
g1372
asbasbasbag57
(g73
g59
NtRp2745
(dp2746
g62
(dp2747
sg71
g2405
sg64
(lp2748
g57
(g78
g59
NtRp2749
(dp2750
g62
(dp2751
g82
g83
ssg71
g2745
sg64
(lp2752
S'SERVER_PROTOCOL'
p2753
asbag57
(g78
g59
NtRp2754
(dp2755
g62
(dp2756
g89
g90
ssg71
g2745
sg64
(lp2757
S':'
asbag57
(g78
g59
NtRp2758
(dp2759
g62
(dp2760
sg71
g2745
sg64
(lp2761
g57
(g58
g59
NtRp2762
(dp2763
g62
(dp2764
g70
I3
ssg71
g2758
sg64
(lp2765
g1394
asbasbasbag57
(g73
g59
NtRp2766
(dp2767
g62
(dp2768
sg71
g2405
sg64
(lp2769
g57
(g78
g59
NtRp2770
(dp2771
g62
(dp2772
g82
g83
ssg71
g2766
sg64
(lp2773
S'SERVER_SOFTWARE'
p2774
asbag57
(g78
g59
NtRp2775
(dp2776
g62
(dp2777
g89
g90
ssg71
g2766
sg64
(lp2778
S':'
asbag57
(g78
g59
NtRp2779
(dp2780
g62
(dp2781
sg71
g2766
sg64
(lp2782
g57
(g58
g59
NtRp2783
(dp2784
g62
(dp2785
g70
I3
ssg71
g2779
sg64
(lp2786
g1416
asbasbasbag57
(g73
g59
NtRp2787
(dp2788
g62
(dp2789
sg71
g2405
sg64
(lp2790
g57
(g78
g59
NtRp2791
(dp2792
g62
(dp2793
g82
g83
ssg71
g2787
sg64
(lp2794
S'wsgi.errors'
p2795
asbag57
(g78
g59
NtRp2796
(dp2797
g62
(dp2798
g89
g90
ssg71
g2787
sg64
(lp2799
S':'
asbag57
(g78
g59
NtRp2800
(dp2801
g62
(dp2802
sg71
g2787
sg64
(lp2803
g57
(g58
g59
NtRp2804
(dp2805
g62
(dp2806
g70
I3
ssg71
g2800
sg64
(lp2807
S"<open file '<stderr>', mode 'w' at 0x7f53d832b270>"
p2808
asbasbasbag57
(g73
g59
NtRp2809
(dp2810
g62
(dp2811
sg71
g2405
sg64
(lp2812
g57
(g78
g59
NtRp2813
(dp2814
g62
(dp2815
g82
g83
ssg71
g2809
sg64
(lp2816
S'wsgi.file_wrapper'
p2817
asbag57
(g78
g59
NtRp2818
(dp2819
g62
(dp2820
g89
g90
ssg71
g2809
sg64
(lp2821
S':'
asbag57
(g78
g59
NtRp2822
(dp2823
g62
(dp2824
sg71
g2809
sg64
(lp2825
g57
(g58
g59
NtRp2826
(dp2827
g62
(dp2828
g70
I3
ssg71
g2822
sg64
(lp2829
S'<class wsgiref.util.FileWrapper at 0x22c7328>'
p2830
asbasbasbag57
(g73
g59
NtRp2831
(dp2832
g62
(dp2833
sg71
g2405
sg64
(lp2834
g57
(g78
g59
NtRp2835
(dp2836
g62
(dp2837
g82
g83
ssg71
g2831
sg64
(lp2838
S'wsgi.input'
p2839
asbag57
(g78
g59
NtRp2840
(dp2841
g62
(dp2842
g89
g90
ssg71
g2831
sg64
(lp2843
S':'
asbag57
(g78
g59
NtRp2844
(dp2845
g62
(dp2846
sg71
g2831
sg64
(lp2847
g57
(g58
g59
NtRp2848
(dp2849
g62
(dp2850
g70
I3
ssg71
g2844
sg64
(lp2851
S'<cStringIO.StringO object at 0x7f53a829b8f0>'
p2852
asbasbasbag57
(g73
g59
NtRp2853
(dp2854
g62
(dp2855
sg71
g2405
sg64
(lp2856
g57
(g78
g59
NtRp2857
(dp2858
g62
(dp2859
g82
g83
ssg71
g2853
sg64
(lp2860
S'wsgi.multiprocess'
p2861
asbag57
(g78
g59
NtRp2862
(dp2863
g62
(dp2864
g89
g90
ssg71
g2853
sg64
(lp2865
S':'
asbag57
(g78
g59
NtRp2866
(dp2867
g62
(dp2868
sg71
g2853
sg64
(lp2869
g57
(g58
g59
NtRp2870
(dp2871
g62
(dp2872
g70
I3
ssg71
g2866
sg64
(lp2873
g100
asbasbasbag57
(g73
g59
NtRp2874
(dp2875
g62
(dp2876
sg71
g2405
sg64
(lp2877
g57
(g78
g59
NtRp2878
(dp2879
g62
(dp2880
g82
g83
ssg71
g2874
sg64
(lp2881
S'wsgi.multithread'
p2882
asbag57
(g78
g59
NtRp2883
(dp2884
g62
(dp2885
g89
g90
ssg71
g2874
sg64
(lp2886
S':'
asbag57
(g78
g59
NtRp2887
(dp2888
g62
(dp2889
sg71
g2874
sg64
(lp2890
g57
(g58
g59
NtRp2891
(dp2892
g62
(dp2893
g70
I3
ssg71
g2887
sg64
(lp2894
g1656
asbasbasbag57
(g73
g59
NtRp2895
(dp2896
g62
(dp2897
sg71
g2405
sg64
(lp2898
g57
(g78
g59
NtRp2899
(dp2900
g62
(dp2901
g82
g83
ssg71
g2895
sg64
(lp2902
S'wsgi.run_once'
p2903
asbag57
(g78
g59
NtRp2904
(dp2905
g62
(dp2906
g89
g90
ssg71
g2895
sg64
(lp2907
S':'
asbag57
(g78
g59
NtRp2908
(dp2909
g62
(dp2910
sg71
g2895
sg64
(lp2911
g57
(g58
g59
NtRp2912
(dp2913
g62
(dp2914
g70
I3
ssg71
g2908
sg64
(lp2915
g100
asbasbasbag57
(g73
g59
NtRp2916
(dp2917
g62
(dp2918
sg71
g2405
sg64
(lp2919
g57
(g78
g59
NtRp2920
(dp2921
g62
(dp2922
g82
g83
ssg71
g2916
sg64
(lp2923
S'wsgi.url_scheme'
p2924
asbag57
(g78
g59
NtRp2925
(dp2926
g62
(dp2927
g89
g90
ssg71
g2916
sg64
(lp2928
S':'
asbag57
(g78
g59
NtRp2929
(dp2930
g62
(dp2931
sg71
g2916
sg64
(lp2932
g57
(g58
g59
NtRp2933
(dp2934
g62
(dp2935
g70
I3
ssg71
g2929
sg64
(lp2936
g1699
asbasbasbag57
(g73
g59
NtRp2937
(dp2938
g62
(dp2939
sg71
g2405
sg64
(lp2940
g57
(g78
g59
NtRp2941
(dp2942
g62
(dp2943
g82
g83
ssg71
g2937
sg64
(lp2944
S'wsgi.version'
p2945
asbag57
(g78
g59
NtRp2946
(dp2947
g62
(dp2948
g89
g90
ssg71
g2937
sg64
(lp2949
S':'
asbag57
(g78
g59
NtRp2950
(dp2951
g62
(dp2952
sg71
g2937
sg64
(lp2953
g57
(g58
g59
NtRp2954
(dp2955
g62
(dp2956
g70
I3
ssg71
g2950
sg64
(lp2957
S'1'
asbasbasbasbasbasbasbasbasbasbasbasbasbsS'frames'
p2958
(lp2959
(dp2960
S'file'
p2961
S'/usr/lib/pymodules/python2.7/gluon/restricted.py'
p2962
sS'dump'
p2963
(dp2964
S'environment'
p2965
S"{'A': <class 'gluon.html.A'>, 'Auth': <class 'gluon.tools.Auth'>, 'B': <class 'gluon.html.B'>, 'BEAUTIFY': <class 'gluon.html.BEAUTIFY'>, 'BODY': <class 'gluon.html.BODY'>, 'BR': <class 'gluon.html.BR'>, 'BUTTON': <class 'gluon.html.BUTTON'>, 'CAT': <class 'gluon.html.CAT'>, 'CENTER': <class 'gluon.html.CENTER'>, 'CLEANUP': <class 'gluon.validators.CLEANUP'>, ...}"
p2966
sS'ccode'
p2967
S'<code object <module> at 0x7f53a827b0b0, file "/...plications/app1/views/default/lall.html", line 1>'
p2968
ssS'lnum'
p2969
I204
sS'lines'
p2970
(dp2971
I199
S'    try:'
p2972
sI200
S'        if type(code) == types.CodeType:'
p2973
sI201
S'            ccode = code'
p2974
sI202
S'        else:'
p2975
sI203
S'            ccode = compile2(code,layer)'
p2976
sI204
S'        exec ccode in environment'
p2977
sI205
S'    except HTTP:'
p2978
sI206
S'        raise'
p2979
sI207
S'    except RestrictedError:'
p2980
sI208
S'        # do not encapsulate (obfuscate) the original RestrictedError'
p2981
ssS'call'
p2982
S'(code=r"response.write(\'<!DOCTYPE html>\\n<!-- paulirish....ponse.write(\'\\n</body>\\n</html>\\n\', escape=False)", environment={\'A\': <class \'gluon.html.A\'>, \'Auth\': <class \'gluon.tools.Auth\'>, \'B\': <class \'gluon.html.B\'>, \'BEAUTIFY\': <class \'gluon.html.BEAUTIFY\'>, \'BODY\': <class \'gluon.html.BODY\'>, \'BR\': <class \'gluon.html.BR\'>, \'BUTTON\': <class \'gluon.html.BUTTON\'>, \'CAT\': <class \'gluon.html.CAT\'>, \'CENTER\': <class \'gluon.html.CENTER\'>, \'CLEANUP\': <class \'gluon.validators.CLEANUP\'>, ...}, layer=\'/home/jigar/web2py/applications/app1/views/default/lall.html\')'
p2983
sS'func'
p2984
S'restricted'
p2985
sa(dp2986
g2961
S'/home/jigar/web2py/applications/app1/views/default/lall.html'
p2987
sg2963
(dp2988
sg2969
I78
sg2970
(dp2989
I69
S"    response.write('\\n        </div>\\n        ', escape=False)"
p2990
sI70
S'    pass'
p2991
sI71
S'response.write(\'\\n        \\n        <div class="\', escape=False)'
p2992
sI72
S'response.write(middle_columns)'
p2993
sI73
S'response.write(\' columns center">\\n          \', escape=False)'
p2994
sI74
S"response.write('\\n          ', escape=False)"
p2995
sI75
S"response.write('\\n', escape=False)"
p2996
sI76
S'for i in range (len(x)):'
p2997
sI77
S"    response.write('\\n<h3><u>HEADING:</u>', escape=False)"
p2998
sI78
S"    response.write(x['i']['Heading'])"
p2999
sI79
S"    response.write('</h3>\\n<br/>\\n', escape=False)"
p3000
sI80
S'    pass'
p3001
sI81
S"response.write('\\n', escape=False)"
p3002
sI82
S"response.write('\\n          ', escape=False)"
p3003
sI83
S"response.write('\\n        </div>\\n        \\n        ', escape=False)"
p3004
sI84
S'if right_sidebar_enabled:'
p3005
sI85
S'    response.write(\'\\n        <div class="four columns">\\n          \', escape=False)'
p3006
sI86
S"    response.write('\\n          <h3>Right Sidebar</h3>\\n          <p></p>\\n          ', escape=False)"
p3007
sI87
S"    response.write('\\n        </div>    \\n        ', escape=False)"
p3008
sI88
S'    pass'
p3009
ssg2982
S'()'
p3010
sg2984
S'<module>'
p3011
sa(dp3012
g2961
S'/usr/lib/pymodules/python2.7/gluon/dal.py'
p3013
sg2963
(dp3014
S'i'
S"'i'"
p3015
sS'self'
p3016
S'<gluon.dal.Rows object>'
p3017
sS'self.records'
p3018
S"[<Row {'Post': <Row {'Category': 'Sports', 'Ratin...ecord': <function <lambda> at 0x7f539c222cf8>}>}>]"
p3019
sS'row'
p3020
S'undefined'
p3021
ssg2969
I6510
sg2970
(dp3022
I6505
S''
sI6506
S'    def __getslice__(self, a, b):'
p3023
sI6507
S'        return Rows(self.db,self.records[a:b],self.colnames)'
p3024
sI6508
S''
sI6509
S'    def __getitem__(self, i):'
p3025
sI6510
S'        row = self.records[i]'
p3026
sI6511
S'        keys = row.keys()'
p3027
sI6512
S"        if self.compact and len(keys) == 1 and keys[0] != '_extra':"
p3028
sI6513
S'            return row[row.keys()[0]]'
p3029
sI6514
S'        return row'
p3030
ssg2982
S"(self=<gluon.dal.Rows object>, i='i')"
p3031
sg2984
g20
sasS'pyver'
p3032
S'Python 2.7.3: /usr/bin/python'
p3033
sS'session'
p3034
g57
(g58
g59
NtRp3035
(dp3036
g62
(dp3037
sg64
(lp3038
g57
(g66
g59
NtRp3039
(dp3040
g62
(dp3041
g70
I5
ssg71
Nsg64
(lp3042
g57
(g73
g59
NtRp3043
(dp3044
g62
(dp3045
sg71
g3039
sg64
(lp3046
g57
(g78
g59
NtRp3047
(dp3048
g62
(dp3049
g82
g83
ssg71
g3043
sg64
(lp3050
S'auth'
p3051
asbag57
(g78
g59
NtRp3052
(dp3053
g62
(dp3054
g89
g90
ssg71
g3043
sg64
(lp3055
S':'
asbag57
(g78
g59
NtRp3056
(dp3057
g62
(dp3058
sg71
g3043
sg64
(lp3059
g57
(g58
g59
NtRp3060
(dp3061
g62
(dp3062
g70
I5
ssg71
g3056
sg64
(lp3063
g57
(g66
g59
NtRp3064
(dp3065
g62
(dp3066
g70
I4
ssg71
Nsg64
(lp3067
g57
(g73
g59
NtRp3068
(dp3069
g62
(dp3070
sg71
g3064
sg64
(lp3071
g57
(g78
g59
NtRp3072
(dp3073
g62
(dp3074
g82
g83
ssg71
g3068
sg64
(lp3075
S'expiration'
p3076
asbag57
(g78
g59
NtRp3077
(dp3078
g62
(dp3079
g89
g90
ssg71
g3068
sg64
(lp3080
S':'
asbag57
(g78
g59
NtRp3081
(dp3082
g62
(dp3083
sg71
g3068
sg64
(lp3084
g57
(g58
g59
NtRp3085
(dp3086
g62
(dp3087
g70
I4
ssg71
g3081
sg64
(lp3088
S'3600'
p3089
asbasbasbag57
(g73
g59
NtRp3090
(dp3091
g62
(dp3092
sg71
g3064
sg64
(lp3093
g57
(g78
g59
NtRp3094
(dp3095
g62
(dp3096
g82
g83
ssg71
g3090
sg64
(lp3097
S'hmac_key'
p3098
asbag57
(g78
g59
NtRp3099
(dp3100
g62
(dp3101
g89
g90
ssg71
g3090
sg64
(lp3102
S':'
asbag57
(g78
g59
NtRp3103
(dp3104
g62
(dp3105
sg71
g3090
sg64
(lp3106
g57
(g58
g59
NtRp3107
(dp3108
g62
(dp3109
g70
I4
ssg71
g3103
sg64
(lp3110
S'0f354337-ddf0-4da4-afdd-63fab8470f54'
p3111
asbasbasbag57
(g73
g59
NtRp3112
(dp3113
g62
(dp3114
sg71
g3064
sg64
(lp3115
g57
(g78
g59
NtRp3116
(dp3117
g62
(dp3118
g82
g83
ssg71
g3112
sg64
(lp3119
S'last_visit'
p3120
asbag57
(g78
g59
NtRp3121
(dp3122
g62
(dp3123
g89
g90
ssg71
g3112
sg64
(lp3124
S':'
asbag57
(g78
g59
NtRp3125
(dp3126
g62
(dp3127
sg71
g3112
sg64
(lp3128
g57
(g58
g59
NtRp3129
(dp3130
g62
(dp3131
g70
I4
ssg71
g3125
sg64
(lp3132
S'datetime.datetime(2013, 8, 27, 19, 14, 2, 934933)'
p3133
asbasbasbag57
(g73
g59
NtRp3134
(dp3135
g62
(dp3136
sg71
g3064
sg64
(lp3137
g57
(g78
g59
NtRp3138
(dp3139
g62
(dp3140
g82
g83
ssg71
g3134
sg64
(lp3141
S'user'
p3142
asbag57
(g78
g59
NtRp3143
(dp3144
g62
(dp3145
g89
g90
ssg71
g3134
sg64
(lp3146
S':'
asbag57
(g78
g59
NtRp3147
(dp3148
g62
(dp3149
sg71
g3134
sg64
(lp3150
g57
(g58
g59
NtRp3151
(dp3152
g62
(dp3153
g70
I4
ssg71
g3147
sg64
(lp3154
g57
(g66
g59
NtRp3155
(dp3156
g62
(dp3157
g70
I3
ssg71
Nsg64
(lp3158
g57
(g73
g59
NtRp3159
(dp3160
g62
(dp3161
sg71
g3155
sg64
(lp3162
g57
(g78
g59
NtRp3163
(dp3164
g62
(dp3165
g82
g83
ssg71
g3159
sg64
(lp3166
S'City'
p3167
asbag57
(g78
g59
NtRp3168
(dp3169
g62
(dp3170
g89
g90
ssg71
g3159
sg64
(lp3171
S':'
asbag57
(g78
g59
NtRp3172
(dp3173
g62
(dp3174
sg71
g3159
sg64
(lp3175
g57
(g58
g59
NtRp3176
(dp3177
g62
(dp3178
g70
I3
ssg71
g3172
sg64
(lp3179
S'Vadodara'
p3180
asbasbasbag57
(g73
g59
NtRp3181
(dp3182
g62
(dp3183
sg71
g3155
sg64
(lp3184
g57
(g78
g59
NtRp3185
(dp3186
g62
(dp3187
g82
g83
ssg71
g3181
sg64
(lp3188
S'Member_type'
p3189
asbag57
(g78
g59
NtRp3190
(dp3191
g62
(dp3192
g89
g90
ssg71
g3181
sg64
(lp3193
S':'
asbag57
(g78
g59
NtRp3194
(dp3195
g62
(dp3196
sg71
g3181
sg64
(lp3197
g57
(g58
g59
NtRp3198
(dp3199
g62
(dp3200
g70
I3
ssg71
g3194
sg64
(lp3201
S'Admin'
p3202
asbasbasbag57
(g73
g59
NtRp3203
(dp3204
g62
(dp3205
sg71
g3155
sg64
(lp3206
g57
(g78
g59
NtRp3207
(dp3208
g62
(dp3209
g82
g83
ssg71
g3203
sg64
(lp3210
S'Profile_Pic'
p3211
asbag57
(g78
g59
NtRp3212
(dp3213
g62
(dp3214
g89
g90
ssg71
g3203
sg64
(lp3215
S':'
asbag57
(g78
g59
NtRp3216
(dp3217
g62
(dp3218
sg71
g3203
sg64
(lp3219
g57
(g58
g59
NtRp3220
(dp3221
g62
(dp3222
g70
I3
ssg71
g3216
sg64
(lp3223
S'auth_user.Profile_Pic.ae49517be24fd41d.53637265656e73686f742066726f6d20323031332d30382d31312032333a30313a35342e706e67.png'
p3224
asbasbasbag57
(g73
g59
NtRp3225
(dp3226
g62
(dp3227
sg71
g3155
sg64
(lp3228
g57
(g78
g59
NtRp3229
(dp3230
g62
(dp3231
g82
g83
ssg71
g3225
sg64
(lp3232
S'email'
p3233
asbag57
(g78
g59
NtRp3234
(dp3235
g62
(dp3236
g89
g90
ssg71
g3225
sg64
(lp3237
S':'
asbag57
(g78
g59
NtRp3238
(dp3239
g62
(dp3240
sg71
g3225
sg64
(lp3241
g57
(g58
g59
NtRp3242
(dp3243
g62
(dp3244
g70
I3
ssg71
g3238
sg64
(lp3245
S'jigar.thakkar@students.iiit.ac.in'
p3246
asbasbasbag57
(g73
g59
NtRp3247
(dp3248
g62
(dp3249
sg71
g3155
sg64
(lp3250
g57
(g78
g59
NtRp3251
(dp3252
g62
(dp3253
g82
g83
ssg71
g3247
sg64
(lp3254
S'first_name'
p3255
asbag57
(g78
g59
NtRp3256
(dp3257
g62
(dp3258
g89
g90
ssg71
g3247
sg64
(lp3259
S':'
asbag57
(g78
g59
NtRp3260
(dp3261
g62
(dp3262
sg71
g3247
sg64
(lp3263
g57
(g58
g59
NtRp3264
(dp3265
g62
(dp3266
g70
I3
ssg71
g3260
sg64
(lp3267
S'Jigar'
p3268
asbasbasbag57
(g73
g59
NtRp3269
(dp3270
g62
(dp3271
sg71
g3155
sg64
(lp3272
g57
(g78
g59
NtRp3273
(dp3274
g62
(dp3275
g82
g83
ssg71
g3269
sg64
(lp3276
S'id'
p3277
asbag57
(g78
g59
NtRp3278
(dp3279
g62
(dp3280
g89
g90
ssg71
g3269
sg64
(lp3281
S':'
asbag57
(g78
g59
NtRp3282
(dp3283
g62
(dp3284
sg71
g3269
sg64
(lp3285
g57
(g58
g59
NtRp3286
(dp3287
g62
(dp3288
g70
I3
ssg71
g3282
sg64
(lp3289
S'1'
asbasbasbag57
(g73
g59
NtRp3290
(dp3291
g62
(dp3292
sg71
g3155
sg64
(lp3293
g57
(g78
g59
NtRp3294
(dp3295
g62
(dp3296
g82
g83
ssg71
g3290
sg64
(lp3297
S'last_name'
p3298
asbag57
(g78
g59
NtRp3299
(dp3300
g62
(dp3301
g89
g90
ssg71
g3290
sg64
(lp3302
S':'
asbag57
(g78
g59
NtRp3303
(dp3304
g62
(dp3305
sg71
g3290
sg64
(lp3306
g57
(g58
g59
NtRp3307
(dp3308
g62
(dp3309
g70
I3
ssg71
g3303
sg64
(lp3310
S'Thakkar'
p3311
asbasbasbag57
(g73
g59
NtRp3312
(dp3313
g62
(dp3314
sg71
g3155
sg64
(lp3315
g57
(g78
g59
NtRp3316
(dp3317
g62
(dp3318
g82
g83
ssg71
g3312
sg64
(lp3319
S'password'
p3320
asbag57
(g78
g59
NtRp3321
(dp3322
g62
(dp3323
g89
g90
ssg71
g3312
sg64
(lp3324
S':'
asbag57
(g78
g59
NtRp3325
(dp3326
g62
(dp3327
sg71
g3312
sg64
(lp3328
g57
(g58
g59
NtRp3329
(dp3330
g62
(dp3331
g70
I3
ssg71
g3325
sg64
(lp3332
S'5d8c8afe4854a5830a3fd1282cfa4eff'
p3333
asbasbasbag57
(g73
g59
NtRp3334
(dp3335
g62
(dp3336
sg71
g3155
sg64
(lp3337
g57
(g78
g59
NtRp3338
(dp3339
g62
(dp3340
g82
g83
ssg71
g3334
sg64
(lp3341
S'registration_id'
p3342
asbag57
(g78
g59
NtRp3343
(dp3344
g62
(dp3345
g89
g90
ssg71
g3334
sg64
(lp3346
S':'
asbag57
(g78
g59
NtRp3347
(dp3348
g62
(dp3349
sg71
g3334
sg64
(lp3350
g57
(g58
g59
NtRp3351
(dp3352
g62
(dp3353
g70
I3
ssg71
g3347
sg64
(lp3354
S''
asbasbasbag57
(g73
g59
NtRp3355
(dp3356
g62
(dp3357
sg71
g3155
sg64
(lp3358
g57
(g78
g59
NtRp3359
(dp3360
g62
(dp3361
g82
g83
ssg71
g3355
sg64
(lp3362
S'registration_key'
p3363
asbag57
(g78
g59
NtRp3364
(dp3365
g62
(dp3366
g89
g90
ssg71
g3355
sg64
(lp3367
S':'
asbag57
(g78
g59
NtRp3368
(dp3369
g62
(dp3370
sg71
g3355
sg64
(lp3371
g57
(g58
g59
NtRp3372
(dp3373
g62
(dp3374
g70
I3
ssg71
g3368
sg64
(lp3375
S''
asbasbasbag57
(g73
g59
NtRp3376
(dp3377
g62
(dp3378
sg71
g3155
sg64
(lp3379
g57
(g78
g59
NtRp3380
(dp3381
g62
(dp3382
g82
g83
ssg71
g3376
sg64
(lp3383
S'reset_password_key'
p3384
asbag57
(g78
g59
NtRp3385
(dp3386
g62
(dp3387
g89
g90
ssg71
g3376
sg64
(lp3388
S':'
asbag57
(g78
g59
NtRp3389
(dp3390
g62
(dp3391
sg71
g3376
sg64
(lp3392
g57
(g58
g59
NtRp3393
(dp3394
g62
(dp3395
g70
I3
ssg71
g3389
sg64
(lp3396
S''
asbasbasbasbasbasbasbasbasbasbasbag57
(g73
g59
NtRp3397
(dp3398
g62
(dp3399
sg71
g3039
sg64
(lp3400
g57
(g78
g59
NtRp3401
(dp3402
g62
(dp3403
g82
g83
ssg71
g3397
sg64
(lp3404
S'last_query'
p3405
asbag57
(g78
g59
NtRp3406
(dp3407
g62
(dp3408
g89
g90
ssg71
g3397
sg64
(lp3409
S':'
asbag57
(g78
g59
NtRp3410
(dp3411
g62
(dp3412
sg71
g3397
sg64
(lp3413
g57
(g58
g59
NtRp3414
(dp3415
g62
(dp3416
g70
I5
ssg71
g3410
sg64
(lp3417
S'db.Post.id>0'
p3418
asbasbasbasbasbsS'etype'
p3419
S"<type 'exceptions.TypeError'>"
p3420
sS'date'
p3421
S'Tue Aug 27 19:18:26 2013'
p3422
sS'response'
p3423
g57
(g58
g59
NtRp3424
(dp3425
g62
(dp3426
sg64
(lp3427
g57
(g66
g59
NtRp3428
(dp3429
g62
(dp3430
g70
I5
ssg71
Nsg64
(lp3431
g57
(g73
g59
NtRp3432
(dp3433
g62
(dp3434
sg71
g3428
sg64
(lp3435
g57
(g78
g59
NtRp3436
(dp3437
g62
(dp3438
g82
g83
ssg71
g3432
sg64
(lp3439
g155
asbag57
(g78
g59
NtRp3440
(dp3441
g62
(dp3442
g89
g90
ssg71
g3432
sg64
(lp3443
S':'
asbag57
(g78
g59
NtRp3444
(dp3445
g62
(dp3446
sg71
g3432
sg64
(lp3447
g57
(g58
g59
NtRp3448
(dp3449
g62
(dp3450
g70
I5
ssg71
g3444
sg64
(lp3451
S'<cStringIO.StringO object at 0x7f53a829b0a0>'
p3452
asbasbasbag57
(g73
g59
NtRp3453
(dp3454
g62
(dp3455
sg71
g3428
sg64
(lp3456
g57
(g78
g59
NtRp3457
(dp3458
g62
(dp3459
g82
g83
ssg71
g3453
sg64
(lp3460
g221
asbag57
(g78
g59
NtRp3461
(dp3462
g62
(dp3463
g89
g90
ssg71
g3453
sg64
(lp3464
S':'
asbag57
(g78
g59
NtRp3465
(dp3466
g62
(dp3467
sg71
g3453
sg64
(lp3468
g57
(g58
g59
NtRp3469
(dp3470
g62
(dp3471
g70
I5
ssg71
g3465
sg64
(lp3472
g57
(g66
g59
NtRp3473
(dp3474
g62
(dp3475
g70
I4
ssg71
Nsg64
(lp3476
g57
(g73
g59
NtRp3477
(dp3478
g62
(dp3479
sg71
g3473
sg64
(lp3480
g57
(g78
g59
NtRp3481
(dp3482
g62
(dp3483
g82
g83
ssg71
g3477
sg64
(lp3484
S'session_id_app1'
p3485
asbag57
(g78
g59
NtRp3486
(dp3487
g62
(dp3488
g89
g90
ssg71
g3477
sg64
(lp3489
S':'
asbag57
(g78
g59
NtRp3490
(dp3491
g62
(dp3492
sg71
g3477
sg64
(lp3493
g57
(g58
g59
NtRp3494
(dp3495
g62
(dp3496
g70
I4
ssg71
g3490
sg64
(lp3497
g57
(g66
g59
NtRp3498
(dp3499
g62
(dp3500
g70
I3
ssg71
Nsg64
(lp3501
g57
(g73
g59
NtRp3502
(dp3503
g62
(dp3504
sg71
g3498
sg64
(lp3505
g57
(g78
g59
NtRp3506
(dp3507
g62
(dp3508
g82
g83
ssg71
g3502
sg64
(lp3509
g271
asbag57
(g78
g59
NtRp3510
(dp3511
g62
(dp3512
g89
g90
ssg71
g3502
sg64
(lp3513
S':'
asbag57
(g78
g59
NtRp3514
(dp3515
g62
(dp3516
sg71
g3502
sg64
(lp3517
g57
(g58
g59
NtRp3518
(dp3519
g62
(dp3520
g70
I3
ssg71
g3514
sg64
(lp3521
S''
asbasbasbag57
(g73
g59
NtRp3522
(dp3523
g62
(dp3524
sg71
g3498
sg64
(lp3525
g57
(g78
g59
NtRp3526
(dp3527
g62
(dp3528
g82
g83
ssg71
g3522
sg64
(lp3529
g292
asbag57
(g78
g59
NtRp3530
(dp3531
g62
(dp3532
g89
g90
ssg71
g3522
sg64
(lp3533
S':'
asbag57
(g78
g59
NtRp3534
(dp3535
g62
(dp3536
sg71
g3522
sg64
(lp3537
g57
(g58
g59
NtRp3538
(dp3539
g62
(dp3540
g70
I3
ssg71
g3534
sg64
(lp3541
S''
asbasbasbag57
(g73
g59
NtRp3542
(dp3543
g62
(dp3544
sg71
g3498
sg64
(lp3545
g57
(g78
g59
NtRp3546
(dp3547
g62
(dp3548
g82
g83
ssg71
g3542
sg64
(lp3549
g313
asbag57
(g78
g59
NtRp3550
(dp3551
g62
(dp3552
g89
g90
ssg71
g3542
sg64
(lp3553
S':'
asbag57
(g78
g59
NtRp3554
(dp3555
g62
(dp3556
sg71
g3542
sg64
(lp3557
g57
(g58
g59
NtRp3558
(dp3559
g62
(dp3560
g70
I3
ssg71
g3554
sg64
(lp3561
S''
asbasbasbag57
(g73
g59
NtRp3562
(dp3563
g62
(dp3564
sg71
g3498
sg64
(lp3565
g57
(g78
g59
NtRp3566
(dp3567
g62
(dp3568
g82
g83
ssg71
g3562
sg64
(lp3569
g334
asbag57
(g78
g59
NtRp3570
(dp3571
g62
(dp3572
g89
g90
ssg71
g3562
sg64
(lp3573
S':'
asbag57
(g78
g59
NtRp3574
(dp3575
g62
(dp3576
sg71
g3562
sg64
(lp3577
g57
(g58
g59
NtRp3578
(dp3579
g62
(dp3580
g70
I3
ssg71
g3574
sg64
(lp3581
S''
asbasbasbag57
(g73
g59
NtRp3582
(dp3583
g62
(dp3584
sg71
g3498
sg64
(lp3585
g57
(g78
g59
NtRp3586
(dp3587
g62
(dp3588
g82
g83
ssg71
g3582
sg64
(lp3589
g355
asbag57
(g78
g59
NtRp3590
(dp3591
g62
(dp3592
g89
g90
ssg71
g3582
sg64
(lp3593
S':'
asbag57
(g78
g59
NtRp3594
(dp3595
g62
(dp3596
sg71
g3582
sg64
(lp3597
g57
(g58
g59
NtRp3598
(dp3599
g62
(dp3600
g70
I3
ssg71
g3594
sg64
(lp3601
S''
asbasbasbag57
(g73
g59
NtRp3602
(dp3603
g62
(dp3604
sg71
g3498
sg64
(lp3605
g57
(g78
g59
NtRp3606
(dp3607
g62
(dp3608
g82
g83
ssg71
g3602
sg64
(lp3609
g376
asbag57
(g78
g59
NtRp3610
(dp3611
g62
(dp3612
g89
g90
ssg71
g3602
sg64
(lp3613
S':'
asbag57
(g78
g59
NtRp3614
(dp3615
g62
(dp3616
sg71
g3602
sg64
(lp3617
g57
(g58
g59
NtRp3618
(dp3619
g62
(dp3620
g70
I3
ssg71
g3614
sg64
(lp3621
S'/'
asbasbasbag57
(g73
g59
NtRp3622
(dp3623
g62
(dp3624
sg71
g3498
sg64
(lp3625
g57
(g78
g59
NtRp3626
(dp3627
g62
(dp3628
g82
g83
ssg71
g3622
sg64
(lp3629
g397
asbag57
(g78
g59
NtRp3630
(dp3631
g62
(dp3632
g89
g90
ssg71
g3622
sg64
(lp3633
S':'
asbag57
(g78
g59
NtRp3634
(dp3635
g62
(dp3636
sg71
g3622
sg64
(lp3637
g57
(g58
g59
NtRp3638
(dp3639
g62
(dp3640
g70
I3
ssg71
g3634
sg64
(lp3641
S''
asbasbasbag57
(g73
g59
NtRp3642
(dp3643
g62
(dp3644
sg71
g3498
sg64
(lp3645
g57
(g78
g59
NtRp3646
(dp3647
g62
(dp3648
g82
g83
ssg71
g3642
sg64
(lp3649
g418
asbag57
(g78
g59
NtRp3650
(dp3651
g62
(dp3652
g89
g90
ssg71
g3642
sg64
(lp3653
S':'
asbag57
(g78
g59
NtRp3654
(dp3655
g62
(dp3656
sg71
g3642
sg64
(lp3657
g57
(g58
g59
NtRp3658
(dp3659
g62
(dp3660
g70
I3
ssg71
g3654
sg64
(lp3661
S''
asbasbasbasbasbasbasbasbasbasbasbag57
(g73
g59
NtRp3662
(dp3663
g62
(dp3664
sg71
g3428
sg64
(lp3665
g57
(g78
g59
NtRp3666
(dp3667
g62
(dp3668
g82
g83
ssg71
g3662
sg64
(lp3669
S'files'
p3670
asbag57
(g78
g59
NtRp3671
(dp3672
g62
(dp3673
g89
g90
ssg71
g3662
sg64
(lp3674
S':'
asbag57
(g78
g59
NtRp3675
(dp3676
g62
(dp3677
sg71
g3662
sg64
(lp3678
g57
(g58
g59
NtRp3679
(dp3680
g62
(dp3681
g70
I5
ssg71
g3675
sg64
(lp3682
g57
(g66
g59
NtRp3683
(dp3684
g62
(dp3685
g70
I4
ssg71
Nsg64
(lp3686
g57
(g73
g59
NtRp3687
(dp3688
g62
(dp3689
sg71
g3683
sg64
(lp3690
g57
(g78
g59
NtRp3691
(dp3692
g62
(dp3693
sg71
g3687
sg64
(lp3694
g57
(g58
g59
NtRp3695
(dp3696
g62
(dp3697
g70
I4
ssg71
g3691
sg64
(lp3698
S'/app1/static/js/jquery.js'
p3699
asbasbasbag57
(g73
g59
NtRp3700
(dp3701
g62
(dp3702
sg71
g3683
sg64
(lp3703
g57
(g78
g59
NtRp3704
(dp3705
g62
(dp3706
sg71
g3700
sg64
(lp3707
g57
(g58
g59
NtRp3708
(dp3709
g62
(dp3710
g70
I4
ssg71
g3704
sg64
(lp3711
S'/app1/static/css/calendar.css'
p3712
asbasbasbag57
(g73
g59
NtRp3713
(dp3714
g62
(dp3715
sg71
g3683
sg64
(lp3716
g57
(g78
g59
NtRp3717
(dp3718
g62
(dp3719
sg71
g3713
sg64
(lp3720
g57
(g58
g59
NtRp3721
(dp3722
g62
(dp3723
g70
I4
ssg71
g3717
sg64
(lp3724
S'/app1/static/js/calendar.js'
p3725
asbasbasbag57
(g73
g59
NtRp3726
(dp3727
g62
(dp3728
sg71
g3683
sg64
(lp3729
g57
(g78
g59
NtRp3730
(dp3731
g62
(dp3732
sg71
g3726
sg64
(lp3733
g57
(g58
g59
NtRp3734
(dp3735
g62
(dp3736
g70
I4
ssg71
g3730
sg64
(lp3737
S'/app1/static/js/web2py.js'
p3738
asbasbasbag57
(g73
g59
NtRp3739
(dp3740
g62
(dp3741
sg71
g3683
sg64
(lp3742
g57
(g78
g59
NtRp3743
(dp3744
g62
(dp3745
sg71
g3739
sg64
(lp3746
g57
(g58
g59
NtRp3747
(dp3748
g62
(dp3749
g70
I4
ssg71
g3743
sg64
(lp3750
S'/app1/static/css/skeleton.css'
p3751
asbasbasbag57
(g73
g59
NtRp3752
(dp3753
g62
(dp3754
sg71
g3683
sg64
(lp3755
g57
(g78
g59
NtRp3756
(dp3757
g62
(dp3758
sg71
g3752
sg64
(lp3759
g57
(g58
g59
NtRp3760
(dp3761
g62
(dp3762
g70
I4
ssg71
g3756
sg64
(lp3763
S'/app1/static/css/web2py.css'
p3764
asbasbasbag57
(g73
g59
NtRp3765
(dp3766
g62
(dp3767
sg71
g3683
sg64
(lp3768
g57
(g78
g59
NtRp3769
(dp3770
g62
(dp3771
sg71
g3765
sg64
(lp3772
g57
(g58
g59
NtRp3773
(dp3774
g62
(dp3775
g70
I4
ssg71
g3769
sg64
(lp3776
S'/app1/static/css/superfish.css'
p3777
asbasbasbag57
(g73
g59
NtRp3778
(dp3779
g62
(dp3780
sg71
g3683
sg64
(lp3781
g57
(g78
g59
NtRp3782
(dp3783
g62
(dp3784
sg71
g3778
sg64
(lp3785
g57
(g58
g59
NtRp3786
(dp3787
g62
(dp3788
g70
I4
ssg71
g3782
sg64
(lp3789
S'/app1/static/js/superfish.js'
p3790
asbasbasbasbasbasbasbag57
(g73
g59
NtRp3791
(dp3792
g62
(dp3793
sg71
g3428
sg64
(lp3794
g57
(g78
g59
NtRp3795
(dp3796
g62
(dp3797
g82
g83
ssg71
g3791
sg64
(lp3798
S'flash'
p3799
asbag57
(g78
g59
NtRp3800
(dp3801
g62
(dp3802
g89
g90
ssg71
g3791
sg64
(lp3803
S':'
asbag57
(g78
g59
NtRp3804
(dp3805
g62
(dp3806
sg71
g3791
sg64
(lp3807
g57
(g58
g59
NtRp3808
(dp3809
g62
(dp3810
g70
I5
ssg71
g3804
sg64
(lp3811
S''
asbasbasbag57
(g73
g59
NtRp3812
(dp3813
g62
(dp3814
sg71
g3428
sg64
(lp3815
g57
(g78
g59
NtRp3816
(dp3817
g62
(dp3818
g82
g83
ssg71
g3812
sg64
(lp3819
S'generic_patterns'
p3820
asbag57
(g78
g59
NtRp3821
(dp3822
g62
(dp3823
g89
g90
ssg71
g3812
sg64
(lp3824
S':'
asbag57
(g78
g59
NtRp3825
(dp3826
g62
(dp3827
sg71
g3812
sg64
(lp3828
g57
(g58
g59
NtRp3829
(dp3830
g62
(dp3831
g70
I5
ssg71
g3825
sg64
(lp3832
g57
(g66
g59
NtRp3833
(dp3834
g62
(dp3835
g70
I4
ssg71
Nsg64
(lp3836
g57
(g73
g59
NtRp3837
(dp3838
g62
(dp3839
sg71
g3833
sg64
(lp3840
g57
(g78
g59
NtRp3841
(dp3842
g62
(dp3843
sg71
g3837
sg64
(lp3844
g57
(g58
g59
NtRp3845
(dp3846
g62
(dp3847
g70
I4
ssg71
g3841
sg64
(lp3848
S'*'
asbasbasbasbasbasbasbag57
(g73
g59
NtRp3849
(dp3850
g62
(dp3851
sg71
g3428
sg64
(lp3852
g57
(g78
g59
NtRp3853
(dp3854
g62
(dp3855
g82
g83
ssg71
g3849
sg64
(lp3856
S'headers'
p3857
asbag57
(g78
g59
NtRp3858
(dp3859
g62
(dp3860
g89
g90
ssg71
g3849
sg64
(lp3861
S':'
asbag57
(g78
g59
NtRp3862
(dp3863
g62
(dp3864
sg71
g3849
sg64
(lp3865
g57
(g58
g59
NtRp3866
(dp3867
g62
(dp3868
g70
I5
ssg71
g3862
sg64
(lp3869
g57
(g66
g59
NtRp3870
(dp3871
g62
(dp3872
g70
I4
ssg71
Nsg64
(lp3873
g57
(g73
g59
NtRp3874
(dp3875
g62
(dp3876
sg71
g3870
sg64
(lp3877
g57
(g78
g59
NtRp3878
(dp3879
g62
(dp3880
g82
g83
ssg71
g3874
sg64
(lp3881
S'Cache-Control'
p3882
asbag57
(g78
g59
NtRp3883
(dp3884
g62
(dp3885
g89
g90
ssg71
g3874
sg64
(lp3886
S':'
asbag57
(g78
g59
NtRp3887
(dp3888
g62
(dp3889
sg71
g3874
sg64
(lp3890
g57
(g58
g59
NtRp3891
(dp3892
g62
(dp3893
g70
I4
ssg71
g3887
sg64
(lp3894
S'no-store, no-cache, must-revalidate, post-check=0, pre-check=0'
p3895
asbasbasbag57
(g73
g59
NtRp3896
(dp3897
g62
(dp3898
sg71
g3870
sg64
(lp3899
g57
(g78
g59
NtRp3900
(dp3901
g62
(dp3902
g82
g83
ssg71
g3896
sg64
(lp3903
S'Content-Type'
p3904
asbag57
(g78
g59
NtRp3905
(dp3906
g62
(dp3907
g89
g90
ssg71
g3896
sg64
(lp3908
S':'
asbag57
(g78
g59
NtRp3909
(dp3910
g62
(dp3911
sg71
g3896
sg64
(lp3912
g57
(g58
g59
NtRp3913
(dp3914
g62
(dp3915
g70
I4
ssg71
g3909
sg64
(lp3916
S'text/html; charset=utf-8'
p3917
asbasbasbag57
(g73
g59
NtRp3918
(dp3919
g62
(dp3920
sg71
g3870
sg64
(lp3921
g57
(g78
g59
NtRp3922
(dp3923
g62
(dp3924
g82
g83
ssg71
g3918
sg64
(lp3925
S'Expires'
p3926
asbag57
(g78
g59
NtRp3927
(dp3928
g62
(dp3929
g89
g90
ssg71
g3918
sg64
(lp3930
S':'
asbag57
(g78
g59
NtRp3931
(dp3932
g62
(dp3933
sg71
g3918
sg64
(lp3934
g57
(g58
g59
NtRp3935
(dp3936
g62
(dp3937
g70
I4
ssg71
g3931
sg64
(lp3938
S'Tue, 27 Aug 2013 13:48:26 GMT'
p3939
asbasbasbag57
(g73
g59
NtRp3940
(dp3941
g62
(dp3942
sg71
g3870
sg64
(lp3943
g57
(g78
g59
NtRp3944
(dp3945
g62
(dp3946
g82
g83
ssg71
g3940
sg64
(lp3947
S'Pragma'
p3948
asbag57
(g78
g59
NtRp3949
(dp3950
g62
(dp3951
g89
g90
ssg71
g3940
sg64
(lp3952
S':'
asbag57
(g78
g59
NtRp3953
(dp3954
g62
(dp3955
sg71
g3940
sg64
(lp3956
g57
(g58
g59
NtRp3957
(dp3958
g62
(dp3959
g70
I4
ssg71
g3953
sg64
(lp3960
S'no-cache'
p3961
asbasbasbag57
(g73
g59
NtRp3962
(dp3963
g62
(dp3964
sg71
g3870
sg64
(lp3965
g57
(g78
g59
NtRp3966
(dp3967
g62
(dp3968
g82
g83
ssg71
g3962
sg64
(lp3969
S'X-Powered-By'
p3970
asbag57
(g78
g59
NtRp3971
(dp3972
g62
(dp3973
g89
g90
ssg71
g3962
sg64
(lp3974
S':'
asbag57
(g78
g59
NtRp3975
(dp3976
g62
(dp3977
sg71
g3962
sg64
(lp3978
g57
(g58
g59
NtRp3979
(dp3980
g62
(dp3981
g70
I4
ssg71
g3975
sg64
(lp3982
S'web2py'
p3983
asbasbasbasbasbasbasbag57
(g73
g59
NtRp3984
(dp3985
g62
(dp3986
sg71
g3428
sg64
(lp3987
g57
(g78
g59
NtRp3988
(dp3989
g62
(dp3990
g82
g83
ssg71
g3984
sg64
(lp3991
S'menu'
p3992
asbag57
(g78
g59
NtRp3993
(dp3994
g62
(dp3995
g89
g90
ssg71
g3984
sg64
(lp3996
S':'
asbag57
(g78
g59
NtRp3997
(dp3998
g62
(dp3999
sg71
g3984
sg64
(lp4000
g57
(g58
g59
NtRp4001
(dp4002
g62
(dp4003
g70
I5
ssg71
g3997
sg64
(lp4004
g57
(g66
g59
NtRp4005
(dp4006
g62
(dp4007
g70
I4
ssg71
Nsg64
(lp4008
g57
(g73
g59
NtRp4009
(dp4010
g62
(dp4011
sg71
g4005
sg64
(lp4012
g57
(g78
g59
NtRp4013
(dp4014
g62
(dp4015
sg71
g4009
sg64
(lp4016
g57
(g58
g59
NtRp4017
(dp4018
g62
(dp4019
g70
I4
ssg71
g4013
sg64
(lp4020
g57
(g66
g59
NtRp4021
(dp4022
g62
(dp4023
g70
I3
ssg71
Nsg64
(lp4024
g57
(g73
g59
NtRp4025
(dp4026
g62
(dp4027
sg71
g4021
sg64
(lp4028
g57
(g78
g59
NtRp4029
(dp4030
g62
(dp4031
sg71
g4025
sg64
(lp4032
g57
(g58
g59
NtRp4033
(dp4034
g62
(dp4035
g70
I3
ssg71
g4029
sg64
(lp4036
cgluon.languages
lazyT_unpickle
p4037
(S't\x04\x00\x00\x00Home'
tRp4038
asbasbasbag57
(g73
g59
NtRp4039
(dp4040
g62
(dp4041
sg71
g4021
sg64
(lp4042
g57
(g78
g59
NtRp4043
(dp4044
g62
(dp4045
sg71
g4039
sg64
(lp4046
g57
(g58
g59
NtRp4047
(dp4048
g62
(dp4049
g70
I3
ssg71
g4043
sg64
(lp4050
g100
asbasbasbag57
(g73
g59
NtRp4051
(dp4052
g62
(dp4053
sg71
g4021
sg64
(lp4054
g57
(g78
g59
NtRp4055
(dp4056
g62
(dp4057
sg71
g4051
sg64
(lp4058
g57
(g58
g59
NtRp4059
(dp4060
g62
(dp4061
g70
I3
ssg71
g4055
sg64
(lp4062
S'/app1/default/index'
p4063
asbasbasbag57
(g73
g59
NtRp4064
(dp4065
g62
(dp4066
sg71
g4021
sg64
(lp4067
g57
(g78
g59
NtRp4068
(dp4069
g62
(dp4070
sg71
g4064
sg64
(lp4071
g57
(g58
g59
NtRp4072
(dp4073
g62
(dp4074
g70
I3
ssg71
g4068
sg64
(lp4075
g57
(g66
g59
NtRp4076
(dp4077
g62
(dp4078
g70
I2
ssg71
Nsg64
(lp4079
sbasbasbasbasbasbasbasbag57
(g73
g59
NtRp4080
(dp4081
g62
(dp4082
sg71
g4005
sg64
(lp4083
g57
(g78
g59
NtRp4084
(dp4085
g62
(dp4086
sg71
g4080
sg64
(lp4087
g57
(g58
g59
NtRp4088
(dp4089
g62
(dp4090
g70
I4
ssg71
g4084
sg64
(lp4091
g57
(g66
g59
NtRp4092
(dp4093
g62
(dp4094
g70
I3
ssg71
Nsg64
(lp4095
g57
(g73
g59
NtRp4096
(dp4097
g62
(dp4098
sg71
g4092
sg64
(lp4099
g57
(g78
g59
NtRp4100
(dp4101
g62
(dp4102
sg71
g4096
sg64
(lp4103
g57
(g58
g59
NtRp4104
(dp4105
g62
(dp4106
g70
I3
ssg71
g4100
sg64
(lp4107
g57
(cgluon.html
SPAN
p4108
g59
NtRp4109
(dp4110
g62
(dp4111
g82
S'color:yellow'
p4112
ssg71
g57
(cgluon.html
A
p4113
g59
NtRp4114
(dp4115
g62
(dp4116
S'_onclick'
p4117
S'javascript:void(0);return false;'
p4118
sS'_href'
p4119
S'#'
ssg71
g57
(cgluon.html
LI
p4120
g59
NtRp4121
(dp4122
g62
(dp4123
S'_class'
p4124
S'web2py-menu-expand'
p4125
ssg71
g57
(cgluon.html
UL
p4126
g59
NtRp4127
(dp4128
g62
(dp4129
S'mobile'
p4130
I00
sS'li_class'
p4131
g4125
sg4124
S'sf-menu'
p4132
sS'ul_class'
p4133
S'web2py-menu-vertical'
p4134
sS'li_active'
p4135
S'web2py-menu-active'
p4136
ssg71
Nsg64
(lp4137
g57
(g4120
g59
NtRp4138
(dp4139
g62
(dp4140
sg71
g4127
sg64
(lp4141
g57
(g4113
g59
NtRp4142
(dp4143
g62
(dp4144
g4119
g4063
ssg71
g4138
sg64
(lp4145
g4038
asbasbag4121
asbsg64
(lp4146
g4114
ag57
(g4126
g59
NtRp4147
(dp4148
g62
(dp4149
g4124
g4134
ssg71
g4121
sg64
(lp4150
g57
(g4120
g59
NtRp4151
(dp4152
g62
(dp4153
sg71
g4147
sg64
(lp4154
g57
(g4113
g59
NtRp4155
(dp4156
g62
(dp4157
g4119
S'/admin/default/site'
p4158
ssg71
g4151
sg64
(lp4159
g4037
(S's\x08\x00\x00\x00My Sites'
tRp4160
asbasbag57
(g4120
g59
NtRp4161
(dp4162
g62
(dp4163
g4124
g4125
ssg71
g4147
sg64
(lp4164
g57
(g4113
g59
NtRp4165
(dp4166
g62
(dp4167
g4119
S'/admin/default/design/app1'
p4168
ssg71
g4161
sg64
(lp4169
g4037
(S's\x08\x00\x00\x00This App'
tRp4170
asbag57
(g4126
g59
NtRp4171
(dp4172
g62
(dp4173
g4124
g4134
ssg71
g4161
sg64
(lp4174
g57
(g4120
g59
NtRp4175
(dp4176
g62
(dp4177
sg71
g4171
sg64
(lp4178
g57
(g4113
g59
NtRp4179
(dp4180
g62
(dp4181
g4119
S'/admin/default/edit/app1/controllers/default.py'
p4182
ssg71
g4175
sg64
(lp4183
g4037
(S't\n\x00\x00\x00Controller'
tRp4184
asbasbag57
(g4120
g59
NtRp4185
(dp4186
g62
(dp4187
sg71
g4171
sg64
(lp4188
g57
(g4113
g59
NtRp4189
(dp4190
g62
(dp4191
g4119
S'/admin/default/edit/app1/views/default/lall.html'
p4192
ssg71
g4185
sg64
(lp4193
g4037
(S't\x04\x00\x00\x00View'
tRp4194
asbasbag57
(g4120
g59
NtRp4195
(dp4196
g62
(dp4197
sg71
g4171
sg64
(lp4198
g57
(g4113
g59
NtRp4199
(dp4200
g62
(dp4201
g4119
S'/admin/default/edit/app1/views/layout.html'
p4202
ssg71
g4195
sg64
(lp4203
g4037
(S't\x06\x00\x00\x00Layout'
tRp4204
asbasbag57
(g4120
g59
NtRp4205
(dp4206
g62
(dp4207
sg71
g4171
sg64
(lp4208
g57
(g4113
g59
NtRp4209
(dp4210
g62
(dp4211
g4119
S'/admin/default/edit/app1/static/css/web2py.css'
p4212
ssg71
g4205
sg64
(lp4213
g4037
(S't\n\x00\x00\x00Stylesheet'
tRp4214
asbasbag57
(g4120
g59
NtRp4215
(dp4216
g62
(dp4217
sg71
g4171
sg64
(lp4218
g57
(g4113
g59
NtRp4219
(dp4220
g62
(dp4221
g4119
S'/admin/default/edit/app1/models/db.py'
p4222
ssg71
g4215
sg64
(lp4223
g4037
(S's\x08\x00\x00\x00DB Model'
tRp4224
asbasbag57
(g4120
g59
NtRp4225
(dp4226
g62
(dp4227
sg71
g4171
sg64
(lp4228
g57
(g4113
g59
NtRp4229
(dp4230
g62
(dp4231
g4119
S'/admin/default/edit/app1/models/menu.py'
p4232
ssg71
g4225
sg64
(lp4233
g4037
(S's\n\x00\x00\x00Menu Model'
tRp4234
asbasbag57
(g4120
g59
NtRp4235
(dp4236
g62
(dp4237
sg71
g4171
sg64
(lp4238
g57
(g4113
g59
NtRp4239
(dp4240
g62
(dp4241
g4119
S'/app1/appadmin/index'
p4242
ssg71
g4235
sg64
(lp4243
g4037
(S't\x08\x00\x00\x00Database'
tRp4244
asbasbag57
(g4120
g59
NtRp4245
(dp4246
g62
(dp4247
sg71
g4171
sg64
(lp4248
g57
(g4113
g59
NtRp4249
(dp4250
g62
(dp4251
g4119
S'/admin/default/errors/app1'
p4252
ssg71
g4245
sg64
(lp4253
g4037
(S't\x06\x00\x00\x00Errors'
tRp4254
asbasbag57
(g4120
g59
NtRp4255
(dp4256
g62
(dp4257
sg71
g4171
sg64
(lp4258
g57
(g4113
g59
NtRp4259
(dp4260
g62
(dp4261
g4119
S'/admin/default/about/app1'
p4262
ssg71
g4255
sg64
(lp4263
g4037
(S't\x05\x00\x00\x00About'
tRp4264
asbasbasbasbag57
(g4120
g59
NtRp4265
(dp4266
g62
(dp4267
g4124
g4125
ssg71
g4147
sg64
(lp4268
g57
(g4113
g59
NtRp4269
(dp4270
g62
(dp4271
g4119
S'http://www.web2py.com'
p4272
ssg71
g4265
sg64
(lp4273
S'web2py.com'
p4274
asbag57
(g4126
g59
NtRp4275
(dp4276
g62
(dp4277
g4124
g4134
ssg71
g4265
sg64
(lp4278
g57
(g4120
g59
NtRp4279
(dp4280
g62
(dp4281
sg71
g4275
sg64
(lp4282
g57
(g4113
g59
NtRp4283
(dp4284
g62
(dp4285
g4119
S'http://www.web2py.com/examples/default/download'
p4286
ssg71
g4279
sg64
(lp4287
g4037
(S't\x08\x00\x00\x00Download'
tRp4288
asbasbag57
(g4120
g59
NtRp4289
(dp4290
g62
(dp4291
sg71
g4275
sg64
(lp4292
g57
(g4113
g59
NtRp4293
(dp4294
g62
(dp4295
g4119
S'http://www.web2py.com/examples/default/support'
p4296
ssg71
g4289
sg64
(lp4297
g4037
(S't\x07\x00\x00\x00Support'
tRp4298
asbasbag57
(g4120
g59
NtRp4299
(dp4300
g62
(dp4301
sg71
g4275
sg64
(lp4302
g57
(g4113
g59
NtRp4303
(dp4304
g62
(dp4305
g4119
S'http://web2py.com/demo_admin'
p4306
ssg71
g4299
sg64
(lp4307
g4037
(S't\x04\x00\x00\x00Demo'
tRp4308
asbasbag57
(g4120
g59
NtRp4309
(dp4310
g62
(dp4311
sg71
g4275
sg64
(lp4312
g57
(g4113
g59
NtRp4313
(dp4314
g62
(dp4315
g4119
S'http://web2py.com/examples/default/examples'
p4316
ssg71
g4309
sg64
(lp4317
g4037
(S's\x0e\x00\x00\x00Quick Examples'
tRp4318
asbasbag57
(g4120
g59
NtRp4319
(dp4320
g62
(dp4321
sg71
g4275
sg64
(lp4322
g57
(g4113
g59
NtRp4323
(dp4324
g62
(dp4325
g4119
S'http://web2py.com/AlterEgo'
p4326
ssg71
g4319
sg64
(lp4327
g4037
(S't\x03\x00\x00\x00FAQ'
tRp4328
asbasbag57
(g4120
g59
NtRp4329
(dp4330
g62
(dp4331
sg71
g4275
sg64
(lp4332
g57
(g4113
g59
NtRp4333
(dp4334
g62
(dp4335
g4119
S'http://www.web2py.com/examples/default/videos/'
p4336
ssg71
g4329
sg64
(lp4337
g4037
(S't\x06\x00\x00\x00Videos'
tRp4338
asbasbag57
(g4120
g59
NtRp4339
(dp4340
g62
(dp4341
sg71
g4275
sg64
(lp4342
g57
(g4113
g59
NtRp4343
(dp4344
g62
(dp4345
g4119
S'http://web2py.com/appliances'
p4346
ssg71
g4339
sg64
(lp4347
g4037
(S's\x11\x00\x00\x00Free Applications'
tRp4348
asbasbag57
(g4120
g59
NtRp4349
(dp4350
g62
(dp4351
sg71
g4275
sg64
(lp4352
g57
(g4113
g59
NtRp4353
(dp4354
g62
(dp4355
g4119
S'http://web2py.com/plugins'
p4356
ssg71
g4349
sg64
(lp4357
g4037
(S't\x07\x00\x00\x00Plugins'
tRp4358
asbasbag57
(g4120
g59
NtRp4359
(dp4360
g62
(dp4361
sg71
g4275
sg64
(lp4362
g57
(g4113
g59
NtRp4363
(dp4364
g62
(dp4365
g4119
S'http://web2py.com/layouts'
p4366
ssg71
g4359
sg64
(lp4367
g4037
(S't\x07\x00\x00\x00Layouts'
tRp4368
asbasbag57
(g4120
g59
NtRp4369
(dp4370
g62
(dp4371
sg71
g4275
sg64
(lp4372
g57
(g4113
g59
NtRp4373
(dp4374
g62
(dp4375
g4119
S'http://web2pyslices.com/'
p4376
ssg71
g4369
sg64
(lp4377
g4037
(S't\x07\x00\x00\x00Recipes'
tRp4378
asbasbag57
(g4120
g59
NtRp4379
(dp4380
g62
(dp4381
sg71
g4275
sg64
(lp4382
g57
(g4113
g59
NtRp4383
(dp4384
g62
(dp4385
g4119
S'http://web2py.com/semantic'
p4386
ssg71
g4379
sg64
(lp4387
g4037
(S't\x08\x00\x00\x00Semantic'
tRp4388
asbasbasbasbag57
(g4120
g59
NtRp4389
(dp4390
g62
(dp4391
g4124
g4125
ssg71
g4147
sg64
(lp4392
g57
(g4113
g59
NtRp4393
(dp4394
g62
(dp4395
g4119
S'http://www.web2py.com/book'
p4396
ssg71
g4389
sg64
(lp4397
g4037
(S't\r\x00\x00\x00Documentation'
tRp4398
asbag57
(g4126
g59
NtRp4399
(dp4400
g62
(dp4401
g4124
g4134
ssg71
g4389
sg64
(lp4402
g57
(g4120
g59
NtRp4403
(dp4404
g62
(dp4405
sg71
g4399
sg64
(lp4406
g57
(g4113
g59
NtRp4407
(dp4408
g62
(dp4409
g4119
S'http://www.web2py.com/book/default/chapter/00'
p4410
ssg71
g4403
sg64
(lp4411
g4037
(S't\x07\x00\x00\x00Preface'
tRp4412
asbasbag57
(g4120
g59
NtRp4413
(dp4414
g62
(dp4415
sg71
g4399
sg64
(lp4416
g57
(g4113
g59
NtRp4417
(dp4418
g62
(dp4419
g4119
S'http://www.web2py.com/book/default/chapter/01'
p4420
ssg71
g4413
sg64
(lp4421
g4037
(S't\x0c\x00\x00\x00Introduction'
tRp4422
asbasbag57
(g4120
g59
NtRp4423
(dp4424
g62
(dp4425
sg71
g4399
sg64
(lp4426
g57
(g4113
g59
NtRp4427
(dp4428
g62
(dp4429
g4119
S'http://www.web2py.com/book/default/chapter/02'
p4430
ssg71
g4423
sg64
(lp4431
g4037
(S't\x06\x00\x00\x00Python'
tRp4432
asbasbag57
(g4120
g59
NtRp4433
(dp4434
g62
(dp4435
sg71
g4399
sg64
(lp4436
g57
(g4113
g59
NtRp4437
(dp4438
g62
(dp4439
g4119
S'http://www.web2py.com/book/default/chapter/03'
p4440
ssg71
g4433
sg64
(lp4441
g4037
(S't\x08\x00\x00\x00Overview'
tRp4442
asbasbag57
(g4120
g59
NtRp4443
(dp4444
g62
(dp4445
sg71
g4399
sg64
(lp4446
g57
(g4113
g59
NtRp4447
(dp4448
g62
(dp4449
g4119
S'http://www.web2py.com/book/default/chapter/04'
p4450
ssg71
g4443
sg64
(lp4451
g4037
(S's\x08\x00\x00\x00The Core'
tRp4452
asbasbag57
(g4120
g59
NtRp4453
(dp4454
g62
(dp4455
sg71
g4399
sg64
(lp4456
g57
(g4113
g59
NtRp4457
(dp4458
g62
(dp4459
g4119
S'http://www.web2py.com/book/default/chapter/05'
p4460
ssg71
g4453
sg64
(lp4461
g4037
(S's\t\x00\x00\x00The Views'
tRp4462
asbasbag57
(g4120
g59
NtRp4463
(dp4464
g62
(dp4465
sg71
g4399
sg64
(lp4466
g57
(g4113
g59
NtRp4467
(dp4468
g62
(dp4469
g4119
S'http://www.web2py.com/book/default/chapter/06'
p4470
ssg71
g4463
sg64
(lp4471
g4037
(S't\x08\x00\x00\x00Database'
tRp4472
asbasbag57
(g4120
g59
NtRp4473
(dp4474
g62
(dp4475
sg71
g4399
sg64
(lp4476
g57
(g4113
g59
NtRp4477
(dp4478
g62
(dp4479
g4119
S'http://www.web2py.com/book/default/chapter/07'
p4480
ssg71
g4473
sg64
(lp4481
g4037
(S's\x14\x00\x00\x00Forms and Validators'
tRp4482
asbasbag57
(g4120
g59
NtRp4483
(dp4484
g62
(dp4485
sg71
g4399
sg64
(lp4486
g57
(g4113
g59
NtRp4487
(dp4488
g62
(dp4489
g4119
S'http://www.web2py.com/book/default/chapter/08'
p4490
ssg71
g4483
sg64
(lp4491
g4037
(S's\r\x00\x00\x00Email and SMS'
tRp4492
asbasbag57
(g4120
g59
NtRp4493
(dp4494
g62
(dp4495
sg71
g4399
sg64
(lp4496
g57
(g4113
g59
NtRp4497
(dp4498
g62
(dp4499
g4119
S'http://www.web2py.com/book/default/chapter/09'
p4500
ssg71
g4493
sg64
(lp4501
g4037
(S's\x0e\x00\x00\x00Access Control'
tRp4502
asbasbag57
(g4120
g59
NtRp4503
(dp4504
g62
(dp4505
sg71
g4399
sg64
(lp4506
g57
(g4113
g59
NtRp4507
(dp4508
g62
(dp4509
g4119
S'http://www.web2py.com/book/default/chapter/10'
p4510
ssg71
g4503
sg64
(lp4511
g4037
(S't\x08\x00\x00\x00Services'
tRp4512
asbasbag57
(g4120
g59
NtRp4513
(dp4514
g62
(dp4515
sg71
g4399
sg64
(lp4516
g57
(g4113
g59
NtRp4517
(dp4518
g62
(dp4519
g4119
S'http://www.web2py.com/book/default/chapter/11'
p4520
ssg71
g4513
sg64
(lp4521
g4037
(S's\x0c\x00\x00\x00Ajax Recipes'
tRp4522
asbasbag57
(g4120
g59
NtRp4523
(dp4524
g62
(dp4525
sg71
g4399
sg64
(lp4526
g57
(g4113
g59
NtRp4527
(dp4528
g62
(dp4529
g4119
S'http://www.web2py.com/book/default/chapter/12'
p4530
ssg71
g4523
sg64
(lp4531
g4037
(S's\x16\x00\x00\x00Components and Plugins'
tRp4532
asbasbag57
(g4120
g59
NtRp4533
(dp4534
g62
(dp4535
sg71
g4399
sg64
(lp4536
g57
(g4113
g59
NtRp4537
(dp4538
g62
(dp4539
g4119
S'http://www.web2py.com/book/default/chapter/13'
p4540
ssg71
g4533
sg64
(lp4541
g4037
(S's\x12\x00\x00\x00Deployment Recipes'
tRp4542
asbasbag57
(g4120
g59
NtRp4543
(dp4544
g62
(dp4545
sg71
g4399
sg64
(lp4546
g57
(g4113
g59
NtRp4547
(dp4548
g62
(dp4549
g4119
S'http://www.web2py.com/book/default/chapter/14'
p4550
ssg71
g4543
sg64
(lp4551
g4037
(S's\r\x00\x00\x00Other Recipes'
tRp4552
asbasbag57
(g4120
g59
NtRp4553
(dp4554
g62
(dp4555
sg71
g4399
sg64
(lp4556
g57
(g4113
g59
NtRp4557
(dp4558
g62
(dp4559
g4119
S'http://stores.lulu.com/web2py'
p4560
ssg71
g4553
sg64
(lp4561
g4037
(S's\r\x00\x00\x00Buy this book'
tRp4562
asbasbasbasbag57
(g4120
g59
NtRp4563
(dp4564
g62
(dp4565
g4124
g4125
ssg71
g4147
sg64
(lp4566
g57
(g4113
g59
NtRp4567
(dp4568
g62
(dp4569
g4117
g4118
sg4119
S'#'
ssg71
g4563
sg64
(lp4570
g4037
(S't\t\x00\x00\x00Community'
tRp4571
asbag57
(g4126
g59
NtRp4572
(dp4573
g62
(dp4574
g4124
g4134
ssg71
g4563
sg64
(lp4575
g57
(g4120
g59
NtRp4576
(dp4577
g62
(dp4578
sg71
g4572
sg64
(lp4579
g57
(g4113
g59
NtRp4580
(dp4581
g62
(dp4582
g4119
S'http://www.web2py.com/examples/default/usergroups'
p4583
ssg71
g4576
sg64
(lp4584
g4037
(S't\x06\x00\x00\x00Groups'
tRp4585
asbasbag57
(g4120
g59
NtRp4586
(dp4587
g62
(dp4588
sg71
g4572
sg64
(lp4589
g57
(g4113
g59
NtRp4590
(dp4591
g62
(dp4592
g4119
S'http://twitter.com/web2py'
p4593
ssg71
g4586
sg64
(lp4594
g4037
(S't\x07\x00\x00\x00Twitter'
tRp4595
asbasbag57
(g4120
g59
NtRp4596
(dp4597
g62
(dp4598
sg71
g4572
sg64
(lp4599
g57
(g4113
g59
NtRp4600
(dp4601
g62
(dp4602
g4119
S'http://webchat.freenode.net/?channels=web2py'
p4603
ssg71
g4596
sg64
(lp4604
g4037
(S's\t\x00\x00\x00Live Chat'
tRp4605
asbasbasbasbag57
(g4120
g59
NtRp4606
(dp4607
g62
(dp4608
g4124
g4125
ssg71
g4147
sg64
(lp4609
g57
(g4113
g59
NtRp4610
(dp4611
g62
(dp4612
g4117
g4118
sg4119
S'#'
ssg71
g4606
sg64
(lp4613
g4037
(S't\x07\x00\x00\x00Plugins'
tRp4614
asbag57
(g4126
g59
NtRp4615
(dp4616
g62
(dp4617
g4124
g4134
ssg71
g4606
sg64
(lp4618
g57
(g4120
g59
NtRp4619
(dp4620
g62
(dp4621
sg71
g4615
sg64
(lp4622
g57
(g4113
g59
NtRp4623
(dp4624
g62
(dp4625
g4119
S'http://web2py.com/examples/default/download'
p4626
ssg71
g4619
sg64
(lp4627
S'plugin_wiki'
p4628
asbasbag57
(g4120
g59
NtRp4629
(dp4630
g62
(dp4631
sg71
g4615
sg64
(lp4632
g57
(g4113
g59
NtRp4633
(dp4634
g62
(dp4635
g4119
g4356
ssg71
g4629
sg64
(lp4636
g4037
(S's\r\x00\x00\x00Other Plugins'
tRp4637
asbasbag57
(g4120
g59
NtRp4638
(dp4639
g62
(dp4640
sg71
g4615
sg64
(lp4641
g57
(g4113
g59
NtRp4642
(dp4643
g62
(dp4644
g4119
g4366
ssg71
g4638
sg64
(lp4645
g4037
(S's\x0e\x00\x00\x00Layout Plugins'
tRp4646
asbasbasbasbasbasbsg64
(lp4647
g4109
asbsg64
(lp4648
g3983
asbasbasbasbag57
(g73
g59
NtRp4649
(dp4650
g62
(dp4651
sg71
g4092
sg64
(lp4652
g57
(g78
g59
NtRp4653
(dp4654
g62
(dp4655
sg71
g4649
sg64
(lp4656
g57
(g58
g59
NtRp4657
(dp4658
g62
(dp4659
g70
I3
ssg71
g4653
sg64
(lp4660
g100
asbasbasbag57
(g73
g59
NtRp4661
(dp4662
g62
(dp4663
sg71
g4092
sg64
(lp4664
g57
(g78
g59
NtRp4665
(dp4666
g62
(dp4667
sg71
g4661
sg64
(lp4668
g57
(g58
g59
NtRp4669
(dp4670
g62
(dp4671
g70
I3
ssg71
g4665
sg64
(lp4672
S'None'
p4673
asbasbasbag57
(g73
g59
NtRp4674
(dp4675
g62
(dp4676
sg71
g4092
sg64
(lp4677
g57
(g78
g59
NtRp4678
(dp4679
g62
(dp4680
sg71
g4674
sg64
(lp4681
g57
(g58
g59
NtRp4682
(dp4683
g62
(dp4684
g70
I3
ssg71
g4678
sg64
(lp4685
g57
(g66
g59
NtRp4686
(dp4687
g62
(dp4688
g70
I2
ssg71
Nsg64
(lp4689
g57
(g73
g59
NtRp4690
(dp4691
g62
(dp4692
sg71
g4686
sg64
(lp4693
g57
(g78
g59
NtRp4694
(dp4695
g62
(dp4696
sg71
g4690
sg64
(lp4697
g57
(g58
g59
NtRp4698
(dp4699
g62
(dp4700
g70
I2
ssg71
g4694
sg64
(lp4701
g57
(g66
g59
NtRp4702
(dp4703
g62
(dp4704
g70
I1
ssg71
Nsg64
(lp4705
g57
(g73
g59
NtRp4706
(dp4707
g62
(dp4708
sg71
g4702
sg64
(lp4709
g57
(g78
g59
NtRp4710
(dp4711
g62
(dp4712
sg71
g4706
sg64
(lp4713
g57
(g58
g59
NtRp4714
(dp4715
g62
(dp4716
g70
I1
ssg71
g4710
sg64
(lp4717
g4160
asbasbasbag57
(g73
g59
NtRp4718
(dp4719
g62
(dp4720
sg71
g4702
sg64
(lp4721
g57
(g78
g59
NtRp4722
(dp4723
g62
(dp4724
sg71
g4718
sg64
(lp4725
g57
(g58
g59
NtRp4726
(dp4727
g62
(dp4728
g70
I1
ssg71
g4722
sg64
(lp4729
I00
asbasbasbag57
(g73
g59
NtRp4730
(dp4731
g62
(dp4732
sg71
g4702
sg64
(lp4733
g57
(g78
g59
NtRp4734
(dp4735
g62
(dp4736
sg71
g4730
sg64
(lp4737
g57
(g58
g59
NtRp4738
(dp4739
g62
(dp4740
g70
I1
ssg71
g4734
sg64
(lp4741
g4158
asbasbasbasbasbasbasbag57
(g73
g59
NtRp4742
(dp4743
g62
(dp4744
sg71
g4686
sg64
(lp4745
g57
(g78
g59
NtRp4746
(dp4747
g62
(dp4748
sg71
g4742
sg64
(lp4749
g57
(g58
g59
NtRp4750
(dp4751
g62
(dp4752
g70
I2
ssg71
g4746
sg64
(lp4753
g57
(g66
g59
NtRp4754
(dp4755
g62
(dp4756
g70
I1
ssg71
Nsg64
(lp4757
g57
(g73
g59
NtRp4758
(dp4759
g62
(dp4760
sg71
g4754
sg64
(lp4761
g57
(g78
g59
NtRp4762
(dp4763
g62
(dp4764
sg71
g4758
sg64
(lp4765
g57
(g58
g59
NtRp4766
(dp4767
g62
(dp4768
g70
I1
ssg71
g4762
sg64
(lp4769
g4170
asbasbasbag57
(g73
g59
NtRp4770
(dp4771
g62
(dp4772
sg71
g4754
sg64
(lp4773
g57
(g78
g59
NtRp4774
(dp4775
g62
(dp4776
sg71
g4770
sg64
(lp4777
g57
(g58
g59
NtRp4778
(dp4779
g62
(dp4780
g70
I1
ssg71
g4774
sg64
(lp4781
I00
asbasbasbag57
(g73
g59
NtRp4782
(dp4783
g62
(dp4784
sg71
g4754
sg64
(lp4785
g57
(g78
g59
NtRp4786
(dp4787
g62
(dp4788
sg71
g4782
sg64
(lp4789
g57
(g58
g59
NtRp4790
(dp4791
g62
(dp4792
g70
I1
ssg71
g4786
sg64
(lp4793
g4168
asbasbasbag57
(g73
g59
NtRp4794
(dp4795
g62
(dp4796
sg71
g4754
sg64
(lp4797
g57
(g78
g59
NtRp4798
(dp4799
g62
(dp4800
sg71
g4794
sg64
(lp4801
g57
(g58
g59
NtRp4802
(dp4803
g62
(dp4804
g70
I1
ssg71
g4798
sg64
(lp4805
(lp4806
(g4184
I00
g4182
tp4807
a(g4194
I00
g4192
tp4808
a(g4204
I00
g4202
tp4809
a(g4214
I00
g4212
tp4810
a(g4224
I00
g4222
tp4811
a(g4234
I00
g4232
tp4812
a(g4244
I00
g4242
tp4813
a(g4254
I00
g4252
tp4814
a(g4264
I00
g4262
tp4815
aasbasbasbasbasbasbasbag57
(g73
g59
NtRp4816
(dp4817
g62
(dp4818
sg71
g4686
sg64
(lp4819
g57
(g78
g59
NtRp4820
(dp4821
g62
(dp4822
sg71
g4816
sg64
(lp4823
g57
(g58
g59
NtRp4824
(dp4825
g62
(dp4826
g70
I2
ssg71
g4820
sg64
(lp4827
g57
(g66
g59
NtRp4828
(dp4829
g62
(dp4830
g70
I1
ssg71
Nsg64
(lp4831
g57
(g73
g59
NtRp4832
(dp4833
g62
(dp4834
sg71
g4828
sg64
(lp4835
g57
(g78
g59
NtRp4836
(dp4837
g62
(dp4838
sg71
g4832
sg64
(lp4839
g57
(g58
g59
NtRp4840
(dp4841
g62
(dp4842
g70
I1
ssg71
g4836
sg64
(lp4843
g4274
asbasbasbag57
(g73
g59
NtRp4844
(dp4845
g62
(dp4846
sg71
g4828
sg64
(lp4847
g57
(g78
g59
NtRp4848
(dp4849
g62
(dp4850
sg71
g4844
sg64
(lp4851
g57
(g58
g59
NtRp4852
(dp4853
g62
(dp4854
g70
I1
ssg71
g4848
sg64
(lp4855
I00
asbasbasbag57
(g73
g59
NtRp4856
(dp4857
g62
(dp4858
sg71
g4828
sg64
(lp4859
g57
(g78
g59
NtRp4860
(dp4861
g62
(dp4862
sg71
g4856
sg64
(lp4863
g57
(g58
g59
NtRp4864
(dp4865
g62
(dp4866
g70
I1
ssg71
g4860
sg64
(lp4867
g4272
asbasbasbag57
(g73
g59
NtRp4868
(dp4869
g62
(dp4870
sg71
g4828
sg64
(lp4871
g57
(g78
g59
NtRp4872
(dp4873
g62
(dp4874
sg71
g4868
sg64
(lp4875
g57
(g58
g59
NtRp4876
(dp4877
g62
(dp4878
g70
I1
ssg71
g4872
sg64
(lp4879
(lp4880
(g4288
I00
g4286
tp4881
a(g4298
I00
g4296
tp4882
a(g4308
I00
g4306
tp4883
a(g4318
I00
g4316
tp4884
a(g4328
I00
g4326
tp4885
a(g4338
I00
g4336
tp4886
a(g4348
I00
g4346
tp4887
a(g4358
I00
g4356
tp4888
a(g4368
I00
g4366
tp4889
a(g4378
I00
g4376
tp4890
a(g4388
I00
g4386
tp4891
aasbasbasbasbasbasbasbag57
(g73
g59
NtRp4892
(dp4893
g62
(dp4894
sg71
g4686
sg64
(lp4895
g57
(g78
g59
NtRp4896
(dp4897
g62
(dp4898
sg71
g4892
sg64
(lp4899
g57
(g58
g59
NtRp4900
(dp4901
g62
(dp4902
g70
I2
ssg71
g4896
sg64
(lp4903
g57
(g66
g59
NtRp4904
(dp4905
g62
(dp4906
g70
I1
ssg71
Nsg64
(lp4907
g57
(g73
g59
NtRp4908
(dp4909
g62
(dp4910
sg71
g4904
sg64
(lp4911
g57
(g78
g59
NtRp4912
(dp4913
g62
(dp4914
sg71
g4908
sg64
(lp4915
g57
(g58
g59
NtRp4916
(dp4917
g62
(dp4918
g70
I1
ssg71
g4912
sg64
(lp4919
g4398
asbasbasbag57
(g73
g59
NtRp4920
(dp4921
g62
(dp4922
sg71
g4904
sg64
(lp4923
g57
(g78
g59
NtRp4924
(dp4925
g62
(dp4926
sg71
g4920
sg64
(lp4927
g57
(g58
g59
NtRp4928
(dp4929
g62
(dp4930
g70
I1
ssg71
g4924
sg64
(lp4931
I00
asbasbasbag57
(g73
g59
NtRp4932
(dp4933
g62
(dp4934
sg71
g4904
sg64
(lp4935
g57
(g78
g59
NtRp4936
(dp4937
g62
(dp4938
sg71
g4932
sg64
(lp4939
g57
(g58
g59
NtRp4940
(dp4941
g62
(dp4942
g70
I1
ssg71
g4936
sg64
(lp4943
g4396
asbasbasbag57
(g73
g59
NtRp4944
(dp4945
g62
(dp4946
sg71
g4904
sg64
(lp4947
g57
(g78
g59
NtRp4948
(dp4949
g62
(dp4950
sg71
g4944
sg64
(lp4951
g57
(g58
g59
NtRp4952
(dp4953
g62
(dp4954
g70
I1
ssg71
g4948
sg64
(lp4955
(lp4956
(g4412
I00
g4410
tp4957
a(g4422
I00
g4420
tp4958
a(g4432
I00
g4430
tp4959
a(g4442
I00
g4440
tp4960
a(g4452
I00
g4450
tp4961
a(g4462
I00
g4460
tp4962
a(g4472
I00
g4470
tp4963
a(g4482
I00
g4480
tp4964
a(g4492
I00
g4490
tp4965
a(g4502
I00
g4500
tp4966
a(g4512
I00
g4510
tp4967
a(g4522
I00
g4520
tp4968
a(g4532
I00
g4530
tp4969
a(g4542
I00
g4540
tp4970
a(g4552
I00
g4550
tp4971
a(g4562
I00
g4560
tp4972
aasbasbasbasbasbasbasbag57
(g73
g59
NtRp4973
(dp4974
g62
(dp4975
sg71
g4686
sg64
(lp4976
g57
(g78
g59
NtRp4977
(dp4978
g62
(dp4979
sg71
g4973
sg64
(lp4980
g57
(g58
g59
NtRp4981
(dp4982
g62
(dp4983
g70
I2
ssg71
g4977
sg64
(lp4984
g57
(g66
g59
NtRp4985
(dp4986
g62
(dp4987
g70
I1
ssg71
Nsg64
(lp4988
g57
(g73
g59
NtRp4989
(dp4990
g62
(dp4991
sg71
g4985
sg64
(lp4992
g57
(g78
g59
NtRp4993
(dp4994
g62
(dp4995
sg71
g4989
sg64
(lp4996
g57
(g58
g59
NtRp4997
(dp4998
g62
(dp4999
g70
I1
ssg71
g4993
sg64
(lp5000
g4571
asbasbasbag57
(g73
g59
NtRp5001
(dp5002
g62
(dp5003
sg71
g4985
sg64
(lp5004
g57
(g78
g59
NtRp5005
(dp5006
g62
(dp5007
sg71
g5001
sg64
(lp5008
g57
(g58
g59
NtRp5009
(dp5010
g62
(dp5011
g70
I1
ssg71
g5005
sg64
(lp5012
I00
asbasbasbag57
(g73
g59
NtRp5013
(dp5014
g62
(dp5015
sg71
g4985
sg64
(lp5016
g57
(g78
g59
NtRp5017
(dp5018
g62
(dp5019
sg71
g5013
sg64
(lp5020
g57
(g58
g59
NtRp5021
(dp5022
g62
(dp5023
g70
I1
ssg71
g5017
sg64
(lp5024
Nasbasbasbag57
(g73
g59
NtRp5025
(dp5026
g62
(dp5027
sg71
g4985
sg64
(lp5028
g57
(g78
g59
NtRp5029
(dp5030
g62
(dp5031
sg71
g5025
sg64
(lp5032
g57
(g58
g59
NtRp5033
(dp5034
g62
(dp5035
g70
I1
ssg71
g5029
sg64
(lp5036
(lp5037
(g4585
I00
g4583
tp5038
a(g4595
I00
g4593
tp5039
a(g4605
I00
g4603
tp5040
aasbasbasbasbasbasbasbag57
(g73
g59
NtRp5041
(dp5042
g62
(dp5043
sg71
g4686
sg64
(lp5044
g57
(g78
g59
NtRp5045
(dp5046
g62
(dp5047
sg71
g5041
sg64
(lp5048
g57
(g58
g59
NtRp5049
(dp5050
g62
(dp5051
g70
I2
ssg71
g5045
sg64
(lp5052
g57
(g66
g59
NtRp5053
(dp5054
g62
(dp5055
g70
I1
ssg71
Nsg64
(lp5056
g57
(g73
g59
NtRp5057
(dp5058
g62
(dp5059
sg71
g5053
sg64
(lp5060
g57
(g78
g59
NtRp5061
(dp5062
g62
(dp5063
sg71
g5057
sg64
(lp5064
g57
(g58
g59
NtRp5065
(dp5066
g62
(dp5067
g70
I1
ssg71
g5061
sg64
(lp5068
g4614
asbasbasbag57
(g73
g59
NtRp5069
(dp5070
g62
(dp5071
sg71
g5053
sg64
(lp5072
g57
(g78
g59
NtRp5073
(dp5074
g62
(dp5075
sg71
g5069
sg64
(lp5076
g57
(g58
g59
NtRp5077
(dp5078
g62
(dp5079
g70
I1
ssg71
g5073
sg64
(lp5080
I00
asbasbasbag57
(g73
g59
NtRp5081
(dp5082
g62
(dp5083
sg71
g5053
sg64
(lp5084
g57
(g78
g59
NtRp5085
(dp5086
g62
(dp5087
sg71
g5081
sg64
(lp5088
g57
(g58
g59
NtRp5089
(dp5090
g62
(dp5091
g70
I1
ssg71
g5085
sg64
(lp5092
Nasbasbasbag57
(g73
g59
NtRp5093
(dp5094
g62
(dp5095
sg71
g5053
sg64
(lp5096
g57
(g78
g59
NtRp5097
(dp5098
g62
(dp5099
sg71
g5093
sg64
(lp5100
g57
(g58
g59
NtRp5101
(dp5102
g62
(dp5103
g70
I1
ssg71
g5097
sg64
(lp5104
(lp5105
(g4628
I00
g4626
tp5106
a(g4637
I00
g4356
tp5107
a(g4646
I00
g4366
tp5108
aasbasbasbasbasbasbasbasbasbasbasbasbasbasbasbasbasbasbasbag57
(g73
g59
NtRp5109
(dp5110
g62
(dp5111
sg71
g3428
sg64
(lp5112
g57
(g78
g59
NtRp5113
(dp5114
g62
(dp5115
g82
g83
ssg71
g5109
sg64
(lp5116
S'meta'
p5117
asbag57
(g78
g59
NtRp5118
(dp5119
g62
(dp5120
g89
g90
ssg71
g5109
sg64
(lp5121
S':'
asbag57
(g78
g59
NtRp5122
(dp5123
g62
(dp5124
sg71
g5109
sg64
(lp5125
g57
(g58
g59
NtRp5126
(dp5127
g62
(dp5128
g70
I5
ssg71
g5122
sg64
(lp5129
g57
(g66
g59
NtRp5130
(dp5131
g62
(dp5132
g70
I4
ssg71
Nsg64
(lp5133
g57
(g73
g59
NtRp5134
(dp5135
g62
(dp5136
sg71
g5130
sg64
(lp5137
g57
(g78
g59
NtRp5138
(dp5139
g62
(dp5140
g82
g83
ssg71
g5134
sg64
(lp5141
S'author'
p5142
asbag57
(g78
g59
NtRp5143
(dp5144
g62
(dp5145
g89
g90
ssg71
g5134
sg64
(lp5146
S':'
asbag57
(g78
g59
NtRp5147
(dp5148
g62
(dp5149
sg71
g5134
sg64
(lp5150
g57
(g58
g59
NtRp5151
(dp5152
g62
(dp5153
g70
I4
ssg71
g5147
sg64
(lp5154
S'Your Name <you@example.com>'
p5155
asbasbasbag57
(g73
g59
NtRp5156
(dp5157
g62
(dp5158
sg71
g5130
sg64
(lp5159
g57
(g78
g59
NtRp5160
(dp5161
g62
(dp5162
g82
g83
ssg71
g5156
sg64
(lp5163
S'copyright'
p5164
asbag57
(g78
g59
NtRp5165
(dp5166
g62
(dp5167
g89
g90
ssg71
g5156
sg64
(lp5168
S':'
asbag57
(g78
g59
NtRp5169
(dp5170
g62
(dp5171
sg71
g5156
sg64
(lp5172
g57
(g58
g59
NtRp5173
(dp5174
g62
(dp5175
g70
I4
ssg71
g5169
sg64
(lp5176
S'Copyright 2011'
p5177
asbasbasbag57
(g73
g59
NtRp5178
(dp5179
g62
(dp5180
sg71
g5130
sg64
(lp5181
g57
(g78
g59
NtRp5182
(dp5183
g62
(dp5184
g82
g83
ssg71
g5178
sg64
(lp5185
S'description'
p5186
asbag57
(g78
g59
NtRp5187
(dp5188
g62
(dp5189
g89
g90
ssg71
g5178
sg64
(lp5190
S':'
asbag57
(g78
g59
NtRp5191
(dp5192
g62
(dp5193
sg71
g5178
sg64
(lp5194
g57
(g58
g59
NtRp5195
(dp5196
g62
(dp5197
g70
I4
ssg71
g5191
sg64
(lp5198
S'a cool new app'
p5199
asbasbasbag57
(g73
g59
NtRp5200
(dp5201
g62
(dp5202
sg71
g5130
sg64
(lp5203
g57
(g78
g59
NtRp5204
(dp5205
g62
(dp5206
g82
g83
ssg71
g5200
sg64
(lp5207
S'generator'
p5208
asbag57
(g78
g59
NtRp5209
(dp5210
g62
(dp5211
g89
g90
ssg71
g5200
sg64
(lp5212
S':'
asbag57
(g78
g59
NtRp5213
(dp5214
g62
(dp5215
sg71
g5200
sg64
(lp5216
g57
(g58
g59
NtRp5217
(dp5218
g62
(dp5219
g70
I4
ssg71
g5213
sg64
(lp5220
S'Web2py Web Framework'
p5221
asbasbasbag57
(g73
g59
NtRp5222
(dp5223
g62
(dp5224
sg71
g5130
sg64
(lp5225
g57
(g78
g59
NtRp5226
(dp5227
g62
(dp5228
g82
g83
ssg71
g5222
sg64
(lp5229
S'keywords'
p5230
asbag57
(g78
g59
NtRp5231
(dp5232
g62
(dp5233
g89
g90
ssg71
g5222
sg64
(lp5234
S':'
asbag57
(g78
g59
NtRp5235
(dp5236
g62
(dp5237
sg71
g5222
sg64
(lp5238
g57
(g58
g59
NtRp5239
(dp5240
g62
(dp5241
g70
I4
ssg71
g5235
sg64
(lp5242
S'web2py, python, framework'
p5243
asbasbasbasbasbasbasbag57
(g73
g59
NtRp5244
(dp5245
g62
(dp5246
sg71
g3428
sg64
(lp5247
g57
(g78
g59
NtRp5248
(dp5249
g62
(dp5250
g82
g83
ssg71
g5244
sg64
(lp5251
S'postprocessing'
p5252
asbag57
(g78
g59
NtRp5253
(dp5254
g62
(dp5255
g89
g90
ssg71
g5244
sg64
(lp5256
S':'
asbag57
(g78
g59
NtRp5257
(dp5258
g62
(dp5259
sg71
g5244
sg64
(lp5260
g57
(g58
g59
NtRp5261
(dp5262
g62
(dp5263
g70
I5
ssg71
g5257
sg64
(lp5264
g57
(g66
g59
NtRp5265
(dp5266
g62
(dp5267
g70
I4
ssg71
Nsg64
(lp5268
sbasbasbasbag57
(g73
g59
NtRp5269
(dp5270
g62
(dp5271
sg71
g3428
sg64
(lp5272
g57
(g78
g59
NtRp5273
(dp5274
g62
(dp5275
g82
g83
ssg71
g5269
sg64
(lp5276
S'session_file'
p5277
asbag57
(g78
g59
NtRp5278
(dp5279
g62
(dp5280
g89
g90
ssg71
g5269
sg64
(lp5281
S':'
asbag57
(g78
g59
NtRp5282
(dp5283
g62
(dp5284
sg71
g5269
sg64
(lp5285
g57
(g58
g59
NtRp5286
(dp5287
g62
(dp5288
g70
I5
ssg71
g5282
sg64
(lp5289
S"<open file '/home/jigar/web2py/applications/app1/sessions/127.0.0.1-15782adb-a404-4b3e-868f-e60d89b9be1b', mode 'rb+' at 0x7f53803aef60>"
p5290
asbasbasbag57
(g73
g59
NtRp5291
(dp5292
g62
(dp5293
sg71
g3428
sg64
(lp5294
g57
(g78
g59
NtRp5295
(dp5296
g62
(dp5297
g82
g83
ssg71
g5291
sg64
(lp5298
S'session_filename'
p5299
asbag57
(g78
g59
NtRp5300
(dp5301
g62
(dp5302
g89
g90
ssg71
g5291
sg64
(lp5303
S':'
asbag57
(g78
g59
NtRp5304
(dp5305
g62
(dp5306
sg71
g5291
sg64
(lp5307
g57
(g58
g59
NtRp5308
(dp5309
g62
(dp5310
g70
I5
ssg71
g5304
sg64
(lp5311
S'/home/jigar/web2py/applications/app1/sessions/127.0.0.1-15782adb-a404-4b3e-868f-e60d89b9be1b'
p5312
asbasbasbag57
(g73
g59
NtRp5313
(dp5314
g62
(dp5315
sg71
g3428
sg64
(lp5316
g57
(g78
g59
NtRp5317
(dp5318
g62
(dp5319
g82
g83
ssg71
g5313
sg64
(lp5320
S'session_id'
p5321
asbag57
(g78
g59
NtRp5322
(dp5323
g62
(dp5324
g89
g90
ssg71
g5313
sg64
(lp5325
S':'
asbag57
(g78
g59
NtRp5326
(dp5327
g62
(dp5328
sg71
g5313
sg64
(lp5329
g57
(g58
g59
NtRp5330
(dp5331
g62
(dp5332
g70
I5
ssg71
g5326
sg64
(lp5333
S'127.0.0.1-15782adb-a404-4b3e-868f-e60d89b9be1b'
p5334
asbasbasbag57
(g73
g59
NtRp5335
(dp5336
g62
(dp5337
sg71
g3428
sg64
(lp5338
g57
(g78
g59
NtRp5339
(dp5340
g62
(dp5341
g82
g83
ssg71
g5335
sg64
(lp5342
S'session_id_name'
p5343
asbag57
(g78
g59
NtRp5344
(dp5345
g62
(dp5346
g89
g90
ssg71
g5335
sg64
(lp5347
S':'
asbag57
(g78
g59
NtRp5348
(dp5349
g62
(dp5350
sg71
g5335
sg64
(lp5351
g57
(g58
g59
NtRp5352
(dp5353
g62
(dp5354
g70
I5
ssg71
g5348
sg64
(lp5355
g3485
asbasbasbag57
(g73
g59
NtRp5356
(dp5357
g62
(dp5358
sg71
g3428
sg64
(lp5359
g57
(g78
g59
NtRp5360
(dp5361
g62
(dp5362
g82
g83
ssg71
g5356
sg64
(lp5363
S'session_locked'
p5364
asbag57
(g78
g59
NtRp5365
(dp5366
g62
(dp5367
g89
g90
ssg71
g5356
sg64
(lp5368
S':'
asbag57
(g78
g59
NtRp5369
(dp5370
g62
(dp5371
sg71
g5356
sg64
(lp5372
g57
(g58
g59
NtRp5373
(dp5374
g62
(dp5375
g70
I5
ssg71
g5369
sg64
(lp5376
g1656
asbasbasbag57
(g73
g59
NtRp5377
(dp5378
g62
(dp5379
sg71
g3428
sg64
(lp5380
g57
(g78
g59
NtRp5381
(dp5382
g62
(dp5383
g82
g83
ssg71
g5377
sg64
(lp5384
S'session_new'
p5385
asbag57
(g78
g59
NtRp5386
(dp5387
g62
(dp5388
g89
g90
ssg71
g5377
sg64
(lp5389
S':'
asbag57
(g78
g59
NtRp5390
(dp5391
g62
(dp5392
sg71
g5377
sg64
(lp5393
g57
(g58
g59
NtRp5394
(dp5395
g62
(dp5396
g70
I5
ssg71
g5390
sg64
(lp5397
g100
asbasbasbag57
(g73
g59
NtRp5398
(dp5399
g62
(dp5400
sg71
g3428
sg64
(lp5401
g57
(g78
g59
NtRp5402
(dp5403
g62
(dp5404
g82
g83
ssg71
g5398
sg64
(lp5405
S'status'
p5406
asbag57
(g78
g59
NtRp5407
(dp5408
g62
(dp5409
g89
g90
ssg71
g5398
sg64
(lp5410
S':'
asbag57
(g78
g59
NtRp5411
(dp5412
g62
(dp5413
sg71
g5398
sg64
(lp5414
g57
(g58
g59
NtRp5415
(dp5416
g62
(dp5417
g70
I5
ssg71
g5411
sg64
(lp5418
S'200'
p5419
asbasbasbag57
(g73
g59
NtRp5420
(dp5421
g62
(dp5422
sg71
g3428
sg64
(lp5423
g57
(g78
g59
NtRp5424
(dp5425
g62
(dp5426
g82
g83
ssg71
g5420
sg64
(lp5427
S'subtitle'
p5428
asbag57
(g78
g59
NtRp5429
(dp5430
g62
(dp5431
g89
g90
ssg71
g5420
sg64
(lp5432
S':'
asbag57
(g78
g59
NtRp5433
(dp5434
g62
(dp5435
sg71
g5420
sg64
(lp5436
g57
(g58
g59
NtRp5437
(dp5438
g62
(dp5439
g70
I5
ssg71
g5433
sg64
(lp5440
g4037
(S's\r\x00\x00\x00customize me!'
tRp5441
asbasbasbag57
(g73
g59
NtRp5442
(dp5443
g62
(dp5444
sg71
g3428
sg64
(lp5445
g57
(g78
g59
NtRp5446
(dp5447
g62
(dp5448
g82
g83
ssg71
g5442
sg64
(lp5449
S'title'
p5450
asbag57
(g78
g59
NtRp5451
(dp5452
g62
(dp5453
g89
g90
ssg71
g5442
sg64
(lp5454
S':'
asbag57
(g78
g59
NtRp5455
(dp5456
g62
(dp5457
sg71
g5442
sg64
(lp5458
g57
(g58
g59
NtRp5459
(dp5460
g62
(dp5461
g70
I5
ssg71
g5455
sg64
(lp5462
S'App1'
p5463
asbasbasbag57
(g73
g59
NtRp5464
(dp5465
g62
(dp5466
sg71
g3428
sg64
(lp5467
g57
(g78
g59
NtRp5468
(dp5469
g62
(dp5470
g82
g83
ssg71
g5464
sg64
(lp5471
g2320
asbag57
(g78
g59
NtRp5472
(dp5473
g62
(dp5474
g89
g90
ssg71
g5464
sg64
(lp5475
S':'
asbag57
(g78
g59
NtRp5476
(dp5477
g62
(dp5478
sg71
g5464
sg64
(lp5479
g57
(g58
g59
NtRp5480
(dp5481
g62
(dp5482
g70
I5
ssg71
g5476
sg64
(lp5483
g2333
asbasbasbag57
(g73
g59
NtRp5484
(dp5485
g62
(dp5486
sg71
g3428
sg64
(lp5487
g57
(g78
g59
NtRp5488
(dp5489
g62
(dp5490
g82
g83
ssg71
g5484
sg64
(lp5491
S'view'
p5492
asbag57
(g78
g59
NtRp5493
(dp5494
g62
(dp5495
g89
g90
ssg71
g5484
sg64
(lp5496
S':'
asbag57
(g78
g59
NtRp5497
(dp5498
g62
(dp5499
sg71
g5484
sg64
(lp5500
g57
(g58
g59
NtRp5501
(dp5502
g62
(dp5503
g70
I5
ssg71
g5497
sg64
(lp5504
S'default/lall.html'
p5505
asbasbasbasbasbsS'locals'
p5506
(dp5507
S'i'
S"'i'"
p5508
sS'self'
p5509
S'<gluon.dal.Rows object>'
p5510
sssS'traceback'
p5511
S'Traceback (most recent call last):\n  File "/usr/lib/pymodules/python2.7/gluon/restricted.py", line 204, in restricted\n    exec ccode in environment\n  File "/home/jigar/web2py/applications/app1/views/default/lall.html", line 78, in <module>\n  File "/usr/lib/pymodules/python2.7/gluon/dal.py", line 6510, in __getitem__\n    row = self.records[i]\nTypeError: list indices must be integers, not str\n'
p5512
s.