(dp1
S'output'
p2
S"<type 'exceptions.SyntaxError'> invalid syntax (default.py, line 126)"
p3
sS'layer'
p4
S'/home/jigar/web2py/applications/app1/controllers/default.py'
p5
sS'code'
p6
S'# -*- coding: utf-8 -*-\n# this file is released under public domain and you can use without limitations\n\n#########################################################################\n## This is a samples controller\n## - index is the default action of any application\n## - user is required for authentication and authorization\n## - download is for downloading files uploaded in the db (does streaming)\n## - call exposes all registered services (none by default)\n#########################################################################\n\ndef index():\n    """\n    example action using the internationalization operator T and flash\n    rendered by views/default/index.html or views/generic.html\n    """\n    response.flash = "Welcome to web2py!"\n    return dict(message=T(\'Hello World\'))\n\ndef user():\n    """\n    exposes:\n    http://..../[app]/default/user/login\n    http://..../[app]/default/user/logout\n    http://..../[app]/default/user/register\n    http://..../[app]/default/user/profile\n    http://..../[app]/default/user/retrieve_password\n    http://..../[app]/default/user/change_password\n    use @auth.requires_login()\n        @auth.requires_membership(\'group name\')\n        @auth.requires_permission(\'read\',\'table name\',record_id)\n    to decorate functions that need access control\n    """\n    return dict(form=auth())\n\n\ndef download():\n    """\n    allows downloading of uploaded files\n    http://..../[app]/default/download/[filename]\n    """\n    return response.download(request,db)\n\n\ndef call():\n    """\n    exposes services. for example:\n    http://..../[app]/default/call/jsonrpc\n    decorate with @services.jsonrpc the functions to expose\n    supports xml, json, xmlrpc, jsonrpc, amfrpc, rss, csv\n    """\n    return service()\n\n\n@auth.requires_signature()\ndef data():\n    """\n    http://..../[app]/default/data/tables\n    http://..../[app]/default/data/create/[table]\n    http://..../[app]/default/data/read/[table]/[id]\n    http://..../[app]/default/data/update/[table]/[id]\n    http://..../[app]/default/data/delete/[table]/[id]\n    http://..../[app]/default/data/select/[table]\n    http://..../[app]/default/data/search/[table]\n    but URLs must be signed, i.e. linked with\n      A(\'table\',_href=URL(\'data/tables\',user_signature=True))\n    or with the signed load operator\n      LOAD(\'default\',\'data.load\',args=\'tables\',ajax=True,user_signature=True)\n    """\n    return dict(form=crud())\n\n@auth.requires_login()\ndef lall():\n\tflag=0\n\tca=db(db.cat.id>0).select()\n\tx=db(db.Post.id>0).select()\n\ty=db(db.Post.User==db.auth_user.id).select(db.auth_user.first_name)\n#z=db(db.auth_user.id==db.Votes.By_user).select()\n#\tresponse.flash= "Like karne ke liye dhanyavaad _^_!"\n#\tif (len(request.args)!=0):\n#\t\tr=request.args[0]\n#\t\tp=request.args[1]\n#\t\tb=db(db.Post.id==(int(r)+1)).select()\t\n#\tprint x\n#\t\tresponse.flash= "Like karne ke liye dhanyavaad _^_!"\n#\t\tif (request.args[1]=="like" ):\t\n#\t\t\tb=db(db.Post.id==(int(r)+1)).select()\n#\t\t\tprint db(db.Post.User_liked.contains(auth.user.id)).select()\n#\t\t\trec=db(db.Post.User_liked.contains(auth.user.id)).select()\n#\t\t\tif  (len(rec)):\n#\t\t\t\tprint rec[0][\'id\']\n#\t\t\t\tprint r\n#\t\t\t\tfor j in range (len(rec)):\n#\t\t\t\t\tif (rec[j][\'id\']==int(r)+1):\n#\t\t\t\t\t\tflag=1\n#\t\t\t\tif (flag==1):\n#\t\t\t\t\tredirect(URL("lall"))\n#\t\t\t\t\tresponse.flash= "Kitni baar like karega!!"\n\t\t\t\t\n#\t\t\t\telse:\t\t\t\n#\t\t\t\t\tresponse.flash= "Like karne ke liye dhanyavaad _^_!"\n#\t\t\t\t\ta=db(db.Post.id==(int(r)+1)).update(Rating=b[0][\'Rating\']+5)\t\n#\t\t\t\t\tdb.Post.User_liked.append(auth.user.id)\t\t\t\t\t\n#\t\t\t\tdb(db.Post.id==(int(r)+1)).update(User_liked=auth.user.id)\n#\t\t\t\t\tredirect(URL("lall"))\n#\t\t\telse:\n#\t\t\t\tresponse.flash= "Like karne ke liye dhanyavaad _^_!"\n#\t\t\t\ta=db(db.Post.id==(int(r)+1)).update(Rating=b[0][\'Rating\']+5)\t\n#\t\t\t\tdb.Post.User_liked.append(auth.user.id)\t\t\t\t\t\n#\t\t\t\tdb(db.Post.id==(int(r)+1)).update(User_liked=auth.user.id)\t\n#\t\t\t\tredirect(URL("lall"))\n#\t\telif (request.args[1]=="dislike"):\t\n#\t\t\tb=db(db.Post.id==int(r)+1).select(db.Post.Rating)\n#\t\t\ta=db(db.Post.id==int(r)+1).update(Rating=b[0][\'Rating\']-3)\n#\t\t\tredirect(URL("lall"))\n\treturn locals()\n\n@auth.requires_login()\ndef l():\n\tr=request.args[0]\n\tp=request.args[1]\n\tr= int(r)\n#\tVotes.Post_id=r\n\tif (len(db(db.Post.id==r) & (db.Post.By_User==auth.user.id))!=0):\n\t\tresponse.flash=\'Kitni baar like karega be!!\'\n\telif ((len(db(db.Post.id==r) & (db.Post.By_User==auth.user.id))==0) or (len(db(db.Votes.id>0).select())==0):\n\t \tdb.Votes.create(By_User=auth.user.id,Likes=5,Post_id=r)\n\t\tresponse.flash=\'Like karne ke liye dhanyawaad _^_!\'\n\treturn locals()\n\n@auth.requires_login()\ndef postnews():\n\tform=SQLFORM(db.Post)\n\tif form.process().accepted:\n\t\tresponse.flash= \'News Posted!\'\n\treturn locals()\n\n@auth.requires_login()\ndef listcat():\n\tp=db(db.Post.id>0).select()\n\tq=db(db.Post.User==db.auth_user.id).select(db.auth_user.first_name)\n\ty=request.args[0]\n\tx=db(db.Post.Category==y).select()\n\tif (len(x)>0):\n\t\treturn locals()\t\n\telse :\n\t\treturn locals()\n@auth.requires_login()\ndef addcomment():\n\tr=request.args[0]\n\tr=int(r)+1\n\tform=SQLFORM(db.Comment)\n\tform.vars.Post_no=r\n#\tform.vars.Post_no.writable=False\n\tif form.process().accepted :\n\t\tresponse.flash= \'Comment Recorded\'\n\t\tredirect(URL(\'showcomments\', args=(r-1)))\n\treturn locals()\n\n@auth.requires_login()\ndef showcomments():\n\tr=request.args[0]\n\tr=int(r)+1\n\ta=db(db.Comment.Post_no==r).select()\n\tb=db((db.Comment.Post_no==r) & (db.auth_user.id==db.Comment.By_user)).select(db.auth_user.first_name)\n\treturn locals()\n\n@auth.requires_login()\ndef deletepost():\n\tif (len(request.args)!=0):\n\t\tr=request.args[0]\n\t\tp=request.args[1]\n\t\tr=int(r)\n\t\trec=db(db.Post.id==r).select(db.Post.User)\n\t\tprint r\n\t\tprint auth.user.id\n\t\tprint rec[0][\'User\']\n\t\tif (auth.user.id==rec[0][\'User\'] or auth.user.Member_type==\'Admin\'):\n\t\t\tdb(db.Post.id==r).delete()\n\t\t\tredirect(URL(p))\n\t\telse:\n\t\t\tresponse.flash=\'You cannot delete others\\\' post\'\n\t\t\tredirect(URL(p))\n\treturn locals()\n\n@auth.requires_login()\ndef delaccount():\n\tif (auth.user.Member_type!=\'Admin\'):\n\t\tresponse.flash=\'You cant do this! :(\'\n\t\tredirect(URL(\'lall\'))\n\telse:\n\t\tacc=db(db.auth_user.Member_type==\'User\').select()\n\treturn locals()\n\n@auth.requires_login()\ndef d():\n\tif (auth.user.Member_type!=\'Admin\'):\n\t\tresponse.flash=\'You cant do this! :(\'\n\t\tredirect(URL(\'lall\'))\n\telse :\n\t\tr=request.args[0]\n\t\tdb(r==db.auth_user.id).delete()\n\t\tredirect(URL(\'delaccount\'))\n\treturn locals()\n\n@auth.requires_login()\ndef addcat():\n\tif (auth.user.Member_type==\'User\'):\n\t\tform=""\n\t\tresponse.flash= \'Only the Admin can add categories\'\n\telse :\n\t\tform=SQLFORM(db.cat)\n\t\tif form.process().accepted :\n\t\t\tresponse.flash= \'Category registered!\'\n\treturn locals()\n\n@auth.requires_login()\ndef updatepost():\n\tif (len(request.args)!=0):\n\t\tr=request.args[0]\n\t\tr=int(r)\n\t\trec=db(db.Post.id==r).select(db.Post.User)\n\t\tif (auth.user.id==rec[0][\'User\']):\n\t\t\tform= crud.update(db.Post,r)\n\t\t\tif form.process().accepted :\n\t\t\t\tresponse.flash= \'Post Updated\'\n#\t\t\treturn dict(form=form)\n\t\telse:\n\t\t\tredirect(URL(\'lall\'))\n\telse :\n\t\tredirect(URL(\'lall\'))\n#\t\tresponse.flash=\'Sorry please enter through the link for updating a post!\'\n\treturn locals()\n\n\n\nresponse._vars=response._caller(l)\n'
p7
sS'snapshot'
p8
(dp9
S'exception'
p10
(dp11
S'__getslice__'
p12
S"<method-wrapper '__getslice__' of exceptions.SyntaxError object>"
p13
sS'text'
p14
S"'\\telif ((len(db(db.Post.id==r) & (db.Post.By_User...d))==0) or (len(db(db.Votes.id>0).select())==0):\\n'"
p15
sS'__str__'
p16
S"<method-wrapper '__str__' of exceptions.SyntaxError object>"
p17
sS'__reduce__'
p18
S'<built-in method __reduce__ of exceptions.SyntaxError object>'
p19
sS'__dict__'
p20
S'{}'
p21
sS'__sizeof__'
p22
S'<built-in method __sizeof__ of exceptions.SyntaxError object>'
p23
sS'__init__'
p24
S"<method-wrapper '__init__' of exceptions.SyntaxError object>"
p25
sS'__setattr__'
p26
S"<method-wrapper '__setattr__' of exceptions.SyntaxError object>"
p27
sS'__reduce_ex__'
p28
S'<built-in method __reduce_ex__ of exceptions.SyntaxError object>'
p29
sS'__new__'
p30
S'<built-in method __new__ of type object>'
p31
sS'__format__'
p32
S'<built-in method __format__ of exceptions.SyntaxError object>'
p33
sS'__class__'
p34
S"<type 'exceptions.SyntaxError'>"
p35
sS'filename'
p36
S"'/home/jigar/web2py/applications/app1/controllers/default.py'"
p37
sS'lineno'
p38
S'126'
p39
sS'msg'
p40
S"'invalid syntax'"
p41
sS'__doc__'
p42
S"'Invalid syntax.'"
p43
sS'__getitem__'
p44
S"<method-wrapper '__getitem__' of exceptions.SyntaxError object>"
p45
sS'__setstate__'
p46
S'<built-in method __setstate__ of exceptions.SyntaxError object>'
p47
sS'__getattribute__'
p48
S"<method-wrapper '__getattribute__' of exceptions.SyntaxError object>"
p49
sS'print_file_and_line'
p50
S'None'
p51
sS'args'
p52
S"('invalid syntax', ('/home/jigar/web2py/applications/app1/controllers/default.py', 126, 109, '\\telif ((len(db(db.Post.id==r) & (db.Post.By_User...d))==0) or (len(db(db.Votes.id>0).select())==0):\\n'))"
p53
sS'__subclasshook__'
p54
S'<built-in method __subclasshook__ of type object>'
p55
sS'offset'
p56
S'109'
p57
sS'__unicode__'
p58
S'<built-in method __unicode__ of exceptions.SyntaxError object>'
p59
sS'__delattr__'
p60
S"<method-wrapper '__delattr__' of exceptions.SyntaxError object>"
p61
sS'__repr__'
p62
S"<method-wrapper '__repr__' of exceptions.SyntaxError object>"
p63
sS'__hash__'
p64
S"<method-wrapper '__hash__' of exceptions.SyntaxError object>"
p65
ssS'evalue'
p66
S'invalid syntax (default.py, line 126)'
p67
sS'request'
p68
ccopy_reg
_reconstructor
p69
(cgluon.html
BEAUTIFY
p70
c__builtin__
object
p71
NtRp72
(dp73
S'attributes'
p74
(dp75
sS'components'
p76
(lp77
g69
(cgluon.html
TABLE
p78
g71
NtRp79
(dp80
g74
(dp81
S'level'
p82
I5
ssS'parent'
p83
Nsg76
(lp84
g69
(cgluon.html
TR
p85
g71
NtRp86
(dp87
g74
(dp88
sg83
g79
sg76
(lp89
g69
(cgluon.html
TD
p90
g71
NtRp91
(dp92
g74
(dp93
S'_style'
p94
S'font-weight:bold;vertical-align:top'
p95
ssg83
g86
sg76
(lp96
S'ajax'
p97
asbag69
(g90
g71
NtRp98
(dp99
g74
(dp100
S'_valign'
p101
S'top'
p102
ssg83
g86
sg76
(lp103
S':'
asbag69
(g90
g71
NtRp104
(dp105
g74
(dp106
sg83
g86
sg76
(lp107
g69
(g70
g71
NtRp108
(dp109
g74
(dp110
g82
I5
ssg83
g104
sg76
(lp111
S'False'
p112
asbasbasbag69
(g85
g71
NtRp113
(dp114
g74
(dp115
sg83
g79
sg76
(lp116
g69
(g90
g71
NtRp117
(dp118
g74
(dp119
g94
g95
ssg83
g113
sg76
(lp120
S'application'
p121
asbag69
(g90
g71
NtRp122
(dp123
g74
(dp124
g101
g102
ssg83
g113
sg76
(lp125
S':'
asbag69
(g90
g71
NtRp126
(dp127
g74
(dp128
sg83
g113
sg76
(lp129
g69
(g70
g71
NtRp130
(dp131
g74
(dp132
g82
I5
ssg83
g126
sg76
(lp133
S'app1'
p134
asbasbasbag69
(g85
g71
NtRp135
(dp136
g74
(dp137
sg83
g79
sg76
(lp138
g69
(g90
g71
NtRp139
(dp140
g74
(dp141
g94
g95
ssg83
g135
sg76
(lp142
g52
asbag69
(g90
g71
NtRp143
(dp144
g74
(dp145
g101
g102
ssg83
g135
sg76
(lp146
S':'
asbag69
(g90
g71
NtRp147
(dp148
g74
(dp149
sg83
g135
sg76
(lp150
g69
(g70
g71
NtRp151
(dp152
g74
(dp153
g82
I5
ssg83
g147
sg76
(lp154
g69
(g78
g71
NtRp155
(dp156
g74
(dp157
g82
I4
ssg83
Nsg76
(lp158
g69
(g85
g71
NtRp159
(dp160
g74
(dp161
sg83
g155
sg76
(lp162
g69
(g90
g71
NtRp163
(dp164
g74
(dp165
sg83
g159
sg76
(lp166
g69
(g70
g71
NtRp167
(dp168
g74
(dp169
g82
I4
ssg83
g163
sg76
(lp170
S'8'
asbasbasbag69
(g85
g71
NtRp171
(dp172
g74
(dp173
sg83
g155
sg76
(lp174
g69
(g90
g71
NtRp175
(dp176
g74
(dp177
sg83
g171
sg76
(lp178
g69
(g70
g71
NtRp179
(dp180
g74
(dp181
g82
I4
ssg83
g175
sg76
(lp182
S'like'
p183
asbasbasbasbasbasbasbag69
(g85
g71
NtRp184
(dp185
g74
(dp186
sg83
g79
sg76
(lp187
g69
(g90
g71
NtRp188
(dp189
g74
(dp190
g94
g95
ssg83
g184
sg76
(lp191
S'body'
p192
asbag69
(g90
g71
NtRp193
(dp194
g74
(dp195
g101
g102
ssg83
g184
sg76
(lp196
S':'
asbag69
(g90
g71
NtRp197
(dp198
g74
(dp199
sg83
g184
sg76
(lp200
g69
(g70
g71
NtRp201
(dp202
g74
(dp203
g82
I5
ssg83
g197
sg76
(lp204
S'<cStringIO.StringO object at 0x7fb44045a148>'
p205
asbasbasbag69
(g85
g71
NtRp206
(dp207
g74
(dp208
sg83
g79
sg76
(lp209
g69
(g90
g71
NtRp210
(dp211
g74
(dp212
g94
g95
ssg83
g206
sg76
(lp213
S'client'
p214
asbag69
(g90
g71
NtRp215
(dp216
g74
(dp217
g101
g102
ssg83
g206
sg76
(lp218
S':'
asbag69
(g90
g71
NtRp219
(dp220
g74
(dp221
sg83
g206
sg76
(lp222
g69
(g70
g71
NtRp223
(dp224
g74
(dp225
g82
I5
ssg83
g219
sg76
(lp226
S'127.0.0.1'
p227
asbasbasbag69
(g85
g71
NtRp228
(dp229
g74
(dp230
sg83
g79
sg76
(lp231
g69
(g90
g71
NtRp232
(dp233
g74
(dp234
g94
g95
ssg83
g228
sg76
(lp235
S'controller'
p236
asbag69
(g90
g71
NtRp237
(dp238
g74
(dp239
g101
g102
ssg83
g228
sg76
(lp240
S':'
asbag69
(g90
g71
NtRp241
(dp242
g74
(dp243
sg83
g228
sg76
(lp244
g69
(g70
g71
NtRp245
(dp246
g74
(dp247
g82
I5
ssg83
g241
sg76
(lp248
S'default'
p249
asbasbasbag69
(g85
g71
NtRp250
(dp251
g74
(dp252
sg83
g79
sg76
(lp253
g69
(g90
g71
NtRp254
(dp255
g74
(dp256
g94
g95
ssg83
g250
sg76
(lp257
S'cookies'
p258
asbag69
(g90
g71
NtRp259
(dp260
g74
(dp261
g101
g102
ssg83
g250
sg76
(lp262
S':'
asbag69
(g90
g71
NtRp263
(dp264
g74
(dp265
sg83
g250
sg76
(lp266
g69
(g70
g71
NtRp267
(dp268
g74
(dp269
g82
I5
ssg83
g263
sg76
(lp270
g69
(g78
g71
NtRp271
(dp272
g74
(dp273
g82
I4
ssg83
Nsg76
(lp274
g69
(g85
g71
NtRp275
(dp276
g74
(dp277
sg83
g271
sg76
(lp278
g69
(g90
g71
NtRp279
(dp280
g74
(dp281
g94
g95
ssg83
g275
sg76
(lp282
S'session_id_admin'
p283
asbag69
(g90
g71
NtRp284
(dp285
g74
(dp286
g101
g102
ssg83
g275
sg76
(lp287
S':'
asbag69
(g90
g71
NtRp288
(dp289
g74
(dp290
sg83
g275
sg76
(lp291
g69
(g70
g71
NtRp292
(dp293
g74
(dp294
g82
I4
ssg83
g288
sg76
(lp295
g69
(g78
g71
NtRp296
(dp297
g74
(dp298
g82
I3
ssg83
Nsg76
(lp299
g69
(g85
g71
NtRp300
(dp301
g74
(dp302
sg83
g296
sg76
(lp303
g69
(g90
g71
NtRp304
(dp305
g74
(dp306
g94
g95
ssg83
g300
sg76
(lp307
S'comment'
p308
asbag69
(g90
g71
NtRp309
(dp310
g74
(dp311
g101
g102
ssg83
g300
sg76
(lp312
S':'
asbag69
(g90
g71
NtRp313
(dp314
g74
(dp315
sg83
g300
sg76
(lp316
g69
(g70
g71
NtRp317
(dp318
g74
(dp319
g82
I3
ssg83
g313
sg76
(lp320
S''
asbasbasbag69
(g85
g71
NtRp321
(dp322
g74
(dp323
sg83
g296
sg76
(lp324
g69
(g90
g71
NtRp325
(dp326
g74
(dp327
g94
g95
ssg83
g321
sg76
(lp328
S'domain'
p329
asbag69
(g90
g71
NtRp330
(dp331
g74
(dp332
g101
g102
ssg83
g321
sg76
(lp333
S':'
asbag69
(g90
g71
NtRp334
(dp335
g74
(dp336
sg83
g321
sg76
(lp337
g69
(g70
g71
NtRp338
(dp339
g74
(dp340
g82
I3
ssg83
g334
sg76
(lp341
S''
asbasbasbag69
(g85
g71
NtRp342
(dp343
g74
(dp344
sg83
g296
sg76
(lp345
g69
(g90
g71
NtRp346
(dp347
g74
(dp348
g94
g95
ssg83
g342
sg76
(lp349
S'expires'
p350
asbag69
(g90
g71
NtRp351
(dp352
g74
(dp353
g101
g102
ssg83
g342
sg76
(lp354
S':'
asbag69
(g90
g71
NtRp355
(dp356
g74
(dp357
sg83
g342
sg76
(lp358
g69
(g70
g71
NtRp359
(dp360
g74
(dp361
g82
I3
ssg83
g355
sg76
(lp362
S''
asbasbasbag69
(g85
g71
NtRp363
(dp364
g74
(dp365
sg83
g296
sg76
(lp366
g69
(g90
g71
NtRp367
(dp368
g74
(dp369
g94
g95
ssg83
g363
sg76
(lp370
S'httponly'
p371
asbag69
(g90
g71
NtRp372
(dp373
g74
(dp374
g101
g102
ssg83
g363
sg76
(lp375
S':'
asbag69
(g90
g71
NtRp376
(dp377
g74
(dp378
sg83
g363
sg76
(lp379
g69
(g70
g71
NtRp380
(dp381
g74
(dp382
g82
I3
ssg83
g376
sg76
(lp383
S''
asbasbasbag69
(g85
g71
NtRp384
(dp385
g74
(dp386
sg83
g296
sg76
(lp387
g69
(g90
g71
NtRp388
(dp389
g74
(dp390
g94
g95
ssg83
g384
sg76
(lp391
S'max-age'
p392
asbag69
(g90
g71
NtRp393
(dp394
g74
(dp395
g101
g102
ssg83
g384
sg76
(lp396
S':'
asbag69
(g90
g71
NtRp397
(dp398
g74
(dp399
sg83
g384
sg76
(lp400
g69
(g70
g71
NtRp401
(dp402
g74
(dp403
g82
I3
ssg83
g397
sg76
(lp404
S''
asbasbasbag69
(g85
g71
NtRp405
(dp406
g74
(dp407
sg83
g296
sg76
(lp408
g69
(g90
g71
NtRp409
(dp410
g74
(dp411
g94
g95
ssg83
g405
sg76
(lp412
S'path'
p413
asbag69
(g90
g71
NtRp414
(dp415
g74
(dp416
g101
g102
ssg83
g405
sg76
(lp417
S':'
asbag69
(g90
g71
NtRp418
(dp419
g74
(dp420
sg83
g405
sg76
(lp421
g69
(g70
g71
NtRp422
(dp423
g74
(dp424
g82
I3
ssg83
g418
sg76
(lp425
S''
asbasbasbag69
(g85
g71
NtRp426
(dp427
g74
(dp428
sg83
g296
sg76
(lp429
g69
(g90
g71
NtRp430
(dp431
g74
(dp432
g94
g95
ssg83
g426
sg76
(lp433
S'secure'
p434
asbag69
(g90
g71
NtRp435
(dp436
g74
(dp437
g101
g102
ssg83
g426
sg76
(lp438
S':'
asbag69
(g90
g71
NtRp439
(dp440
g74
(dp441
sg83
g426
sg76
(lp442
g69
(g70
g71
NtRp443
(dp444
g74
(dp445
g82
I3
ssg83
g439
sg76
(lp446
S''
asbasbasbag69
(g85
g71
NtRp447
(dp448
g74
(dp449
sg83
g296
sg76
(lp450
g69
(g90
g71
NtRp451
(dp452
g74
(dp453
g94
g95
ssg83
g447
sg76
(lp454
S'version'
p455
asbag69
(g90
g71
NtRp456
(dp457
g74
(dp458
g101
g102
ssg83
g447
sg76
(lp459
S':'
asbag69
(g90
g71
NtRp460
(dp461
g74
(dp462
sg83
g447
sg76
(lp463
g69
(g70
g71
NtRp464
(dp465
g74
(dp466
g82
I3
ssg83
g460
sg76
(lp467
S''
asbasbasbasbasbasbasbag69
(g85
g71
NtRp468
(dp469
g74
(dp470
sg83
g271
sg76
(lp471
g69
(g90
g71
NtRp472
(dp473
g74
(dp474
g94
g95
ssg83
g468
sg76
(lp475
S'session_id_app1'
p476
asbag69
(g90
g71
NtRp477
(dp478
g74
(dp479
g101
g102
ssg83
g468
sg76
(lp480
S':'
asbag69
(g90
g71
NtRp481
(dp482
g74
(dp483
sg83
g468
sg76
(lp484
g69
(g70
g71
NtRp485
(dp486
g74
(dp487
g82
I4
ssg83
g481
sg76
(lp488
g69
(g78
g71
NtRp489
(dp490
g74
(dp491
g82
I3
ssg83
Nsg76
(lp492
g69
(g85
g71
NtRp493
(dp494
g74
(dp495
sg83
g489
sg76
(lp496
g69
(g90
g71
NtRp497
(dp498
g74
(dp499
g94
g95
ssg83
g493
sg76
(lp500
g308
asbag69
(g90
g71
NtRp501
(dp502
g74
(dp503
g101
g102
ssg83
g493
sg76
(lp504
S':'
asbag69
(g90
g71
NtRp505
(dp506
g74
(dp507
sg83
g493
sg76
(lp508
g69
(g70
g71
NtRp509
(dp510
g74
(dp511
g82
I3
ssg83
g505
sg76
(lp512
S''
asbasbasbag69
(g85
g71
NtRp513
(dp514
g74
(dp515
sg83
g489
sg76
(lp516
g69
(g90
g71
NtRp517
(dp518
g74
(dp519
g94
g95
ssg83
g513
sg76
(lp520
g329
asbag69
(g90
g71
NtRp521
(dp522
g74
(dp523
g101
g102
ssg83
g513
sg76
(lp524
S':'
asbag69
(g90
g71
NtRp525
(dp526
g74
(dp527
sg83
g513
sg76
(lp528
g69
(g70
g71
NtRp529
(dp530
g74
(dp531
g82
I3
ssg83
g525
sg76
(lp532
S''
asbasbasbag69
(g85
g71
NtRp533
(dp534
g74
(dp535
sg83
g489
sg76
(lp536
g69
(g90
g71
NtRp537
(dp538
g74
(dp539
g94
g95
ssg83
g533
sg76
(lp540
g350
asbag69
(g90
g71
NtRp541
(dp542
g74
(dp543
g101
g102
ssg83
g533
sg76
(lp544
S':'
asbag69
(g90
g71
NtRp545
(dp546
g74
(dp547
sg83
g533
sg76
(lp548
g69
(g70
g71
NtRp549
(dp550
g74
(dp551
g82
I3
ssg83
g545
sg76
(lp552
S''
asbasbasbag69
(g85
g71
NtRp553
(dp554
g74
(dp555
sg83
g489
sg76
(lp556
g69
(g90
g71
NtRp557
(dp558
g74
(dp559
g94
g95
ssg83
g553
sg76
(lp560
g371
asbag69
(g90
g71
NtRp561
(dp562
g74
(dp563
g101
g102
ssg83
g553
sg76
(lp564
S':'
asbag69
(g90
g71
NtRp565
(dp566
g74
(dp567
sg83
g553
sg76
(lp568
g69
(g70
g71
NtRp569
(dp570
g74
(dp571
g82
I3
ssg83
g565
sg76
(lp572
S''
asbasbasbag69
(g85
g71
NtRp573
(dp574
g74
(dp575
sg83
g489
sg76
(lp576
g69
(g90
g71
NtRp577
(dp578
g74
(dp579
g94
g95
ssg83
g573
sg76
(lp580
g392
asbag69
(g90
g71
NtRp581
(dp582
g74
(dp583
g101
g102
ssg83
g573
sg76
(lp584
S':'
asbag69
(g90
g71
NtRp585
(dp586
g74
(dp587
sg83
g573
sg76
(lp588
g69
(g70
g71
NtRp589
(dp590
g74
(dp591
g82
I3
ssg83
g585
sg76
(lp592
S''
asbasbasbag69
(g85
g71
NtRp593
(dp594
g74
(dp595
sg83
g489
sg76
(lp596
g69
(g90
g71
NtRp597
(dp598
g74
(dp599
g94
g95
ssg83
g593
sg76
(lp600
g413
asbag69
(g90
g71
NtRp601
(dp602
g74
(dp603
g101
g102
ssg83
g593
sg76
(lp604
S':'
asbag69
(g90
g71
NtRp605
(dp606
g74
(dp607
sg83
g593
sg76
(lp608
g69
(g70
g71
NtRp609
(dp610
g74
(dp611
g82
I3
ssg83
g605
sg76
(lp612
S''
asbasbasbag69
(g85
g71
NtRp613
(dp614
g74
(dp615
sg83
g489
sg76
(lp616
g69
(g90
g71
NtRp617
(dp618
g74
(dp619
g94
g95
ssg83
g613
sg76
(lp620
g434
asbag69
(g90
g71
NtRp621
(dp622
g74
(dp623
g101
g102
ssg83
g613
sg76
(lp624
S':'
asbag69
(g90
g71
NtRp625
(dp626
g74
(dp627
sg83
g613
sg76
(lp628
g69
(g70
g71
NtRp629
(dp630
g74
(dp631
g82
I3
ssg83
g625
sg76
(lp632
S''
asbasbasbag69
(g85
g71
NtRp633
(dp634
g74
(dp635
sg83
g489
sg76
(lp636
g69
(g90
g71
NtRp637
(dp638
g74
(dp639
g94
g95
ssg83
g633
sg76
(lp640
g455
asbag69
(g90
g71
NtRp641
(dp642
g74
(dp643
g101
g102
ssg83
g633
sg76
(lp644
S':'
asbag69
(g90
g71
NtRp645
(dp646
g74
(dp647
sg83
g633
sg76
(lp648
g69
(g70
g71
NtRp649
(dp650
g74
(dp651
g82
I3
ssg83
g645
sg76
(lp652
S''
asbasbasbasbasbasbasbag69
(g85
g71
NtRp653
(dp654
g74
(dp655
sg83
g271
sg76
(lp656
g69
(g90
g71
NtRp657
(dp658
g74
(dp659
g94
g95
ssg83
g653
sg76
(lp660
S'session_id_welcome'
p661
asbag69
(g90
g71
NtRp662
(dp663
g74
(dp664
g101
g102
ssg83
g653
sg76
(lp665
S':'
asbag69
(g90
g71
NtRp666
(dp667
g74
(dp668
sg83
g653
sg76
(lp669
g69
(g70
g71
NtRp670
(dp671
g74
(dp672
g82
I4
ssg83
g666
sg76
(lp673
g69
(g78
g71
NtRp674
(dp675
g74
(dp676
g82
I3
ssg83
Nsg76
(lp677
g69
(g85
g71
NtRp678
(dp679
g74
(dp680
sg83
g674
sg76
(lp681
g69
(g90
g71
NtRp682
(dp683
g74
(dp684
g94
g95
ssg83
g678
sg76
(lp685
g308
asbag69
(g90
g71
NtRp686
(dp687
g74
(dp688
g101
g102
ssg83
g678
sg76
(lp689
S':'
asbag69
(g90
g71
NtRp690
(dp691
g74
(dp692
sg83
g678
sg76
(lp693
g69
(g70
g71
NtRp694
(dp695
g74
(dp696
g82
I3
ssg83
g690
sg76
(lp697
S''
asbasbasbag69
(g85
g71
NtRp698
(dp699
g74
(dp700
sg83
g674
sg76
(lp701
g69
(g90
g71
NtRp702
(dp703
g74
(dp704
g94
g95
ssg83
g698
sg76
(lp705
g329
asbag69
(g90
g71
NtRp706
(dp707
g74
(dp708
g101
g102
ssg83
g698
sg76
(lp709
S':'
asbag69
(g90
g71
NtRp710
(dp711
g74
(dp712
sg83
g698
sg76
(lp713
g69
(g70
g71
NtRp714
(dp715
g74
(dp716
g82
I3
ssg83
g710
sg76
(lp717
S''
asbasbasbag69
(g85
g71
NtRp718
(dp719
g74
(dp720
sg83
g674
sg76
(lp721
g69
(g90
g71
NtRp722
(dp723
g74
(dp724
g94
g95
ssg83
g718
sg76
(lp725
g350
asbag69
(g90
g71
NtRp726
(dp727
g74
(dp728
g101
g102
ssg83
g718
sg76
(lp729
S':'
asbag69
(g90
g71
NtRp730
(dp731
g74
(dp732
sg83
g718
sg76
(lp733
g69
(g70
g71
NtRp734
(dp735
g74
(dp736
g82
I3
ssg83
g730
sg76
(lp737
S''
asbasbasbag69
(g85
g71
NtRp738
(dp739
g74
(dp740
sg83
g674
sg76
(lp741
g69
(g90
g71
NtRp742
(dp743
g74
(dp744
g94
g95
ssg83
g738
sg76
(lp745
g371
asbag69
(g90
g71
NtRp746
(dp747
g74
(dp748
g101
g102
ssg83
g738
sg76
(lp749
S':'
asbag69
(g90
g71
NtRp750
(dp751
g74
(dp752
sg83
g738
sg76
(lp753
g69
(g70
g71
NtRp754
(dp755
g74
(dp756
g82
I3
ssg83
g750
sg76
(lp757
S''
asbasbasbag69
(g85
g71
NtRp758
(dp759
g74
(dp760
sg83
g674
sg76
(lp761
g69
(g90
g71
NtRp762
(dp763
g74
(dp764
g94
g95
ssg83
g758
sg76
(lp765
g392
asbag69
(g90
g71
NtRp766
(dp767
g74
(dp768
g101
g102
ssg83
g758
sg76
(lp769
S':'
asbag69
(g90
g71
NtRp770
(dp771
g74
(dp772
sg83
g758
sg76
(lp773
g69
(g70
g71
NtRp774
(dp775
g74
(dp776
g82
I3
ssg83
g770
sg76
(lp777
S''
asbasbasbag69
(g85
g71
NtRp778
(dp779
g74
(dp780
sg83
g674
sg76
(lp781
g69
(g90
g71
NtRp782
(dp783
g74
(dp784
g94
g95
ssg83
g778
sg76
(lp785
g413
asbag69
(g90
g71
NtRp786
(dp787
g74
(dp788
g101
g102
ssg83
g778
sg76
(lp789
S':'
asbag69
(g90
g71
NtRp790
(dp791
g74
(dp792
sg83
g778
sg76
(lp793
g69
(g70
g71
NtRp794
(dp795
g74
(dp796
g82
I3
ssg83
g790
sg76
(lp797
S''
asbasbasbag69
(g85
g71
NtRp798
(dp799
g74
(dp800
sg83
g674
sg76
(lp801
g69
(g90
g71
NtRp802
(dp803
g74
(dp804
g94
g95
ssg83
g798
sg76
(lp805
g434
asbag69
(g90
g71
NtRp806
(dp807
g74
(dp808
g101
g102
ssg83
g798
sg76
(lp809
S':'
asbag69
(g90
g71
NtRp810
(dp811
g74
(dp812
sg83
g798
sg76
(lp813
g69
(g70
g71
NtRp814
(dp815
g74
(dp816
g82
I3
ssg83
g810
sg76
(lp817
S''
asbasbasbag69
(g85
g71
NtRp818
(dp819
g74
(dp820
sg83
g674
sg76
(lp821
g69
(g90
g71
NtRp822
(dp823
g74
(dp824
g94
g95
ssg83
g818
sg76
(lp825
g455
asbag69
(g90
g71
NtRp826
(dp827
g74
(dp828
g101
g102
ssg83
g818
sg76
(lp829
S':'
asbag69
(g90
g71
NtRp830
(dp831
g74
(dp832
sg83
g818
sg76
(lp833
g69
(g70
g71
NtRp834
(dp835
g74
(dp836
g82
I3
ssg83
g830
sg76
(lp837
S''
asbasbasbasbasbasbasbasbasbasbasbag69
(g85
g71
NtRp838
(dp839
g74
(dp840
sg83
g79
sg76
(lp841
g69
(g90
g71
NtRp842
(dp843
g74
(dp844
g94
g95
ssg83
g838
sg76
(lp845
S'env'
p846
asbag69
(g90
g71
NtRp847
(dp848
g74
(dp849
g101
g102
ssg83
g838
sg76
(lp850
S':'
asbag69
(g90
g71
NtRp851
(dp852
g74
(dp853
sg83
g838
sg76
(lp854
g69
(g70
g71
NtRp855
(dp856
g74
(dp857
g82
I5
ssg83
g851
sg76
(lp858
g69
(g78
g71
NtRp859
(dp860
g74
(dp861
g82
I4
ssg83
Nsg76
(lp862
g69
(g85
g71
NtRp863
(dp864
g74
(dp865
sg83
g859
sg76
(lp866
g69
(g90
g71
NtRp867
(dp868
g74
(dp869
g94
g95
ssg83
g863
sg76
(lp870
S'app_folders'
p871
asbag69
(g90
g71
NtRp872
(dp873
g74
(dp874
g101
g102
ssg83
g863
sg76
(lp875
S':'
asbag69
(g90
g71
NtRp876
(dp877
g74
(dp878
sg83
g863
sg76
(lp879
g69
(g70
g71
NtRp880
(dp881
g74
(dp882
g82
I4
ssg83
g876
sg76
(lp883
S"set(['/home/jigar/web2py/applications/welcome/', '/home/jigar/web2py/applications/admin/', '/home/jigar/web2py/applications/app1/'])"
p884
asbasbasbag69
(g85
g71
NtRp885
(dp886
g74
(dp887
sg83
g859
sg76
(lp888
g69
(g90
g71
NtRp889
(dp890
g74
(dp891
g94
g95
ssg83
g885
sg76
(lp892
S'applications_parent'
p893
asbag69
(g90
g71
NtRp894
(dp895
g74
(dp896
g101
g102
ssg83
g885
sg76
(lp897
S':'
asbag69
(g90
g71
NtRp898
(dp899
g74
(dp900
sg83
g885
sg76
(lp901
g69
(g70
g71
NtRp902
(dp903
g74
(dp904
g82
I4
ssg83
g898
sg76
(lp905
S'/home/jigar/web2py'
p906
asbasbasbag69
(g85
g71
NtRp907
(dp908
g74
(dp909
sg83
g859
sg76
(lp910
g69
(g90
g71
NtRp911
(dp912
g74
(dp913
g94
g95
ssg83
g907
sg76
(lp914
S'cmd_args'
p915
asbag69
(g90
g71
NtRp916
(dp917
g74
(dp918
g101
g102
ssg83
g907
sg76
(lp919
S':'
asbag69
(g90
g71
NtRp920
(dp921
g74
(dp922
sg83
g907
sg76
(lp923
g69
(g70
g71
NtRp924
(dp925
g74
(dp926
g82
I4
ssg83
g920
sg76
(lp927
g69
(g78
g71
NtRp928
(dp929
g74
(dp930
g82
I3
ssg83
Nsg76
(lp931
sbasbasbasbag69
(g85
g71
NtRp932
(dp933
g74
(dp934
sg83
g859
sg76
(lp935
g69
(g90
g71
NtRp936
(dp937
g74
(dp938
g94
g95
ssg83
g932
sg76
(lp939
S'cmd_options'
p940
asbag69
(g90
g71
NtRp941
(dp942
g74
(dp943
g101
g102
ssg83
g932
sg76
(lp944
S':'
asbag69
(g90
g71
NtRp945
(dp946
g74
(dp947
sg83
g932
sg76
(lp948
g69
(g70
g71
NtRp949
(dp950
g74
(dp951
g82
I4
ssg83
g945
sg76
(lp952
S"<Values at 0x2fd1c20: {'verbose': False, 'ip': '127.0.0.1', 'shutdown_timeout': 5, 'taskbar': False, 'port': 8000, 'maxthreads': None, 'softcron': False, 'server_name': 'jigar-Lenovo-Z580', 'bpython': False, 'nogui': False, 'nocron': False, 'extcron': False, 'debuglevel': 30, 'test': None, 'folder': '/home/jigar/web2py', 'config': '', 'import_models': False, 'winservice': '', 'shell': None, 'run': '', 'log_filename': 'httpserver.log', 'args': [''], 'socket_timeout': 1, 'profiler_filename': None, 'ssl_private_key': '', 'password': '<ask>', 'request_queue_size': 5, 'ssl_certificate': '', 'cronjob': False, 'plain': False, 'quiet': False, 'interfaces': None, 'minthreads': None, 'timeout': 10, 'numthreads': None, 'nobanner': False, 'pid_filename': 'httpserver.pid'}>"
p953
asbasbasbag69
(g85
g71
NtRp954
(dp955
g74
(dp956
sg83
g859
sg76
(lp957
g69
(g90
g71
NtRp958
(dp959
g74
(dp960
g94
g95
ssg83
g954
sg76
(lp961
S'db_sessions'
p962
asbag69
(g90
g71
NtRp963
(dp964
g74
(dp965
g101
g102
ssg83
g954
sg76
(lp966
S':'
asbag69
(g90
g71
NtRp967
(dp968
g74
(dp969
sg83
g954
sg76
(lp970
g69
(g70
g71
NtRp971
(dp972
g74
(dp973
g82
I4
ssg83
g967
sg76
(lp974
S'set([])'
p975
asbasbasbag69
(g85
g71
NtRp976
(dp977
g74
(dp978
sg83
g859
sg76
(lp979
g69
(g90
g71
NtRp980
(dp981
g74
(dp982
g94
g95
ssg83
g976
sg76
(lp983
S'debugging'
p984
asbag69
(g90
g71
NtRp985
(dp986
g74
(dp987
g101
g102
ssg83
g976
sg76
(lp988
S':'
asbag69
(g90
g71
NtRp989
(dp990
g74
(dp991
sg83
g976
sg76
(lp992
g69
(g70
g71
NtRp993
(dp994
g74
(dp995
g82
I4
ssg83
g989
sg76
(lp996
g112
asbasbasbag69
(g85
g71
NtRp997
(dp998
g74
(dp999
sg83
g859
sg76
(lp1000
g69
(g90
g71
NtRp1001
(dp1002
g74
(dp1003
g94
g95
ssg83
g997
sg76
(lp1004
S'gluon_parent'
p1005
asbag69
(g90
g71
NtRp1006
(dp1007
g74
(dp1008
g101
g102
ssg83
g997
sg76
(lp1009
S':'
asbag69
(g90
g71
NtRp1010
(dp1011
g74
(dp1012
sg83
g997
sg76
(lp1013
g69
(g70
g71
NtRp1014
(dp1015
g74
(dp1016
g82
I4
ssg83
g1010
sg76
(lp1017
S'/usr/share/web2py'
p1018
asbasbasbag69
(g85
g71
NtRp1019
(dp1020
g74
(dp1021
sg83
g859
sg76
(lp1022
g69
(g90
g71
NtRp1023
(dp1024
g74
(dp1025
g94
g95
ssg83
g1019
sg76
(lp1026
S'http_accept'
p1027
asbag69
(g90
g71
NtRp1028
(dp1029
g74
(dp1030
g101
g102
ssg83
g1019
sg76
(lp1031
S':'
asbag69
(g90
g71
NtRp1032
(dp1033
g74
(dp1034
sg83
g1019
sg76
(lp1035
g69
(g70
g71
NtRp1036
(dp1037
g74
(dp1038
g82
I4
ssg83
g1032
sg76
(lp1039
S'text/html,application/xhtml+xml,application/xml;q=0.9,*/*;q=0.8'
p1040
asbasbasbag69
(g85
g71
NtRp1041
(dp1042
g74
(dp1043
sg83
g859
sg76
(lp1044
g69
(g90
g71
NtRp1045
(dp1046
g74
(dp1047
g94
g95
ssg83
g1041
sg76
(lp1048
S'http_accept_encoding'
p1049
asbag69
(g90
g71
NtRp1050
(dp1051
g74
(dp1052
g101
g102
ssg83
g1041
sg76
(lp1053
S':'
asbag69
(g90
g71
NtRp1054
(dp1055
g74
(dp1056
sg83
g1041
sg76
(lp1057
g69
(g70
g71
NtRp1058
(dp1059
g74
(dp1060
g82
I4
ssg83
g1054
sg76
(lp1061
S'gzip, deflate'
p1062
asbasbasbag69
(g85
g71
NtRp1063
(dp1064
g74
(dp1065
sg83
g859
sg76
(lp1066
g69
(g90
g71
NtRp1067
(dp1068
g74
(dp1069
g94
g95
ssg83
g1063
sg76
(lp1070
S'http_accept_language'
p1071
asbag69
(g90
g71
NtRp1072
(dp1073
g74
(dp1074
g101
g102
ssg83
g1063
sg76
(lp1075
S':'
asbag69
(g90
g71
NtRp1076
(dp1077
g74
(dp1078
sg83
g1063
sg76
(lp1079
g69
(g70
g71
NtRp1080
(dp1081
g74
(dp1082
g82
I4
ssg83
g1076
sg76
(lp1083
S'en-US,en;q=0.5'
p1084
asbasbasbag69
(g85
g71
NtRp1085
(dp1086
g74
(dp1087
sg83
g859
sg76
(lp1088
g69
(g90
g71
NtRp1089
(dp1090
g74
(dp1091
g94
g95
ssg83
g1085
sg76
(lp1092
S'http_cache_control'
p1093
asbag69
(g90
g71
NtRp1094
(dp1095
g74
(dp1096
g101
g102
ssg83
g1085
sg76
(lp1097
S':'
asbag69
(g90
g71
NtRp1098
(dp1099
g74
(dp1100
sg83
g1085
sg76
(lp1101
g69
(g70
g71
NtRp1102
(dp1103
g74
(dp1104
g82
I4
ssg83
g1098
sg76
(lp1105
S'max-age=0'
p1106
asbasbasbag69
(g85
g71
NtRp1107
(dp1108
g74
(dp1109
sg83
g859
sg76
(lp1110
g69
(g90
g71
NtRp1111
(dp1112
g74
(dp1113
g94
g95
ssg83
g1107
sg76
(lp1114
S'http_connection'
p1115
asbag69
(g90
g71
NtRp1116
(dp1117
g74
(dp1118
g101
g102
ssg83
g1107
sg76
(lp1119
S':'
asbag69
(g90
g71
NtRp1120
(dp1121
g74
(dp1122
sg83
g1107
sg76
(lp1123
g69
(g70
g71
NtRp1124
(dp1125
g74
(dp1126
g82
I4
ssg83
g1120
sg76
(lp1127
S'keep-alive'
p1128
asbasbasbag69
(g85
g71
NtRp1129
(dp1130
g74
(dp1131
sg83
g859
sg76
(lp1132
g69
(g90
g71
NtRp1133
(dp1134
g74
(dp1135
g94
g95
ssg83
g1129
sg76
(lp1136
S'http_cookie'
p1137
asbag69
(g90
g71
NtRp1138
(dp1139
g74
(dp1140
g101
g102
ssg83
g1129
sg76
(lp1141
S':'
asbag69
(g90
g71
NtRp1142
(dp1143
g74
(dp1144
sg83
g1129
sg76
(lp1145
g69
(g70
g71
NtRp1146
(dp1147
g74
(dp1148
g82
I4
ssg83
g1142
sg76
(lp1149
S'session_id_welcome=127.0.0.1-0f223b6f-37a0-4134-96f9-344b5b82abf2; session_id_admin=127.0.0.1-9d94419c-3c0e-43d2-aae5-f86b38fccfce; session_id_app1=127.0.0.1-a7d133f4-acec-437f-a963-db7b5b722c49'
p1150
asbasbasbag69
(g85
g71
NtRp1151
(dp1152
g74
(dp1153
sg83
g859
sg76
(lp1154
g69
(g90
g71
NtRp1155
(dp1156
g74
(dp1157
g94
g95
ssg83
g1151
sg76
(lp1158
S'http_host'
p1159
asbag69
(g90
g71
NtRp1160
(dp1161
g74
(dp1162
g101
g102
ssg83
g1151
sg76
(lp1163
S':'
asbag69
(g90
g71
NtRp1164
(dp1165
g74
(dp1166
sg83
g1151
sg76
(lp1167
g69
(g70
g71
NtRp1168
(dp1169
g74
(dp1170
g82
I4
ssg83
g1164
sg76
(lp1171
S'127.0.0.1:8000'
p1172
asbasbasbag69
(g85
g71
NtRp1173
(dp1174
g74
(dp1175
sg83
g859
sg76
(lp1176
g69
(g90
g71
NtRp1177
(dp1178
g74
(dp1179
g94
g95
ssg83
g1173
sg76
(lp1180
S'http_referer'
p1181
asbag69
(g90
g71
NtRp1182
(dp1183
g74
(dp1184
g101
g102
ssg83
g1173
sg76
(lp1185
S':'
asbag69
(g90
g71
NtRp1186
(dp1187
g74
(dp1188
sg83
g1173
sg76
(lp1189
g69
(g70
g71
NtRp1190
(dp1191
g74
(dp1192
g82
I4
ssg83
g1186
sg76
(lp1193
S'http://127.0.0.1:8000/app1/default/lall'
p1194
asbasbasbag69
(g85
g71
NtRp1195
(dp1196
g74
(dp1197
sg83
g859
sg76
(lp1198
g69
(g90
g71
NtRp1199
(dp1200
g74
(dp1201
g94
g95
ssg83
g1195
sg76
(lp1202
S'http_user_agent'
p1203
asbag69
(g90
g71
NtRp1204
(dp1205
g74
(dp1206
g101
g102
ssg83
g1195
sg76
(lp1207
S':'
asbag69
(g90
g71
NtRp1208
(dp1209
g74
(dp1210
sg83
g1195
sg76
(lp1211
g69
(g70
g71
NtRp1212
(dp1213
g74
(dp1214
g82
I4
ssg83
g1208
sg76
(lp1215
S'Mozilla/5.0 (X11; Ubuntu; Linux x86_64; rv:23.0) Gecko/20100101 Firefox/23.0'
p1216
asbasbasbag69
(g85
g71
NtRp1217
(dp1218
g74
(dp1219
sg83
g859
sg76
(lp1220
g69
(g90
g71
NtRp1221
(dp1222
g74
(dp1223
g94
g95
ssg83
g1217
sg76
(lp1224
S'is_jython'
p1225
asbag69
(g90
g71
NtRp1226
(dp1227
g74
(dp1228
g101
g102
ssg83
g1217
sg76
(lp1229
S':'
asbag69
(g90
g71
NtRp1230
(dp1231
g74
(dp1232
sg83
g1217
sg76
(lp1233
g69
(g70
g71
NtRp1234
(dp1235
g74
(dp1236
g82
I4
ssg83
g1230
sg76
(lp1237
g112
asbasbasbag69
(g85
g71
NtRp1238
(dp1239
g74
(dp1240
sg83
g859
sg76
(lp1241
g69
(g90
g71
NtRp1242
(dp1243
g74
(dp1244
g94
g95
ssg83
g1238
sg76
(lp1245
S'is_pypy'
p1246
asbag69
(g90
g71
NtRp1247
(dp1248
g74
(dp1249
g101
g102
ssg83
g1238
sg76
(lp1250
S':'
asbag69
(g90
g71
NtRp1251
(dp1252
g74
(dp1253
sg83
g1238
sg76
(lp1254
g69
(g70
g71
NtRp1255
(dp1256
g74
(dp1257
g82
I4
ssg83
g1251
sg76
(lp1258
g112
asbasbasbag69
(g85
g71
NtRp1259
(dp1260
g74
(dp1261
sg83
g859
sg76
(lp1262
g69
(g90
g71
NtRp1263
(dp1264
g74
(dp1265
g94
g95
ssg83
g1259
sg76
(lp1266
S'path_info'
p1267
asbag69
(g90
g71
NtRp1268
(dp1269
g74
(dp1270
g101
g102
ssg83
g1259
sg76
(lp1271
S':'
asbag69
(g90
g71
NtRp1272
(dp1273
g74
(dp1274
sg83
g1259
sg76
(lp1275
g69
(g70
g71
NtRp1276
(dp1277
g74
(dp1278
g82
I4
ssg83
g1272
sg76
(lp1279
S'/app1/default/l/8/like'
p1280
asbasbasbag69
(g85
g71
NtRp1281
(dp1282
g74
(dp1283
sg83
g859
sg76
(lp1284
g69
(g90
g71
NtRp1285
(dp1286
g74
(dp1287
g94
g95
ssg83
g1281
sg76
(lp1288
S'query_string'
p1289
asbag69
(g90
g71
NtRp1290
(dp1291
g74
(dp1292
g101
g102
ssg83
g1281
sg76
(lp1293
S':'
asbag69
(g90
g71
NtRp1294
(dp1295
g74
(dp1296
sg83
g1281
sg76
(lp1297
g69
(g70
g71
NtRp1298
(dp1299
g74
(dp1300
g82
I4
ssg83
g1294
sg76
(lp1301
S''
asbasbasbag69
(g85
g71
NtRp1302
(dp1303
g74
(dp1304
sg83
g859
sg76
(lp1305
g69
(g90
g71
NtRp1306
(dp1307
g74
(dp1308
g94
g95
ssg83
g1302
sg76
(lp1309
S'remote_addr'
p1310
asbag69
(g90
g71
NtRp1311
(dp1312
g74
(dp1313
g101
g102
ssg83
g1302
sg76
(lp1314
S':'
asbag69
(g90
g71
NtRp1315
(dp1316
g74
(dp1317
sg83
g1302
sg76
(lp1318
g69
(g70
g71
NtRp1319
(dp1320
g74
(dp1321
g82
I4
ssg83
g1315
sg76
(lp1322
g227
asbasbasbag69
(g85
g71
NtRp1323
(dp1324
g74
(dp1325
sg83
g859
sg76
(lp1326
g69
(g90
g71
NtRp1327
(dp1328
g74
(dp1329
g94
g95
ssg83
g1323
sg76
(lp1330
S'remote_port'
p1331
asbag69
(g90
g71
NtRp1332
(dp1333
g74
(dp1334
g101
g102
ssg83
g1323
sg76
(lp1335
S':'
asbag69
(g90
g71
NtRp1336
(dp1337
g74
(dp1338
sg83
g1323
sg76
(lp1339
g69
(g70
g71
NtRp1340
(dp1341
g74
(dp1342
g82
I4
ssg83
g1336
sg76
(lp1343
S'34613'
p1344
asbasbasbag69
(g85
g71
NtRp1345
(dp1346
g74
(dp1347
sg83
g859
sg76
(lp1348
g69
(g90
g71
NtRp1349
(dp1350
g74
(dp1351
g94
g95
ssg83
g1345
sg76
(lp1352
S'request_method'
p1353
asbag69
(g90
g71
NtRp1354
(dp1355
g74
(dp1356
g101
g102
ssg83
g1345
sg76
(lp1357
S':'
asbag69
(g90
g71
NtRp1358
(dp1359
g74
(dp1360
sg83
g1345
sg76
(lp1361
g69
(g70
g71
NtRp1362
(dp1363
g74
(dp1364
g82
I4
ssg83
g1358
sg76
(lp1365
S'GET'
p1366
asbasbasbag69
(g85
g71
NtRp1367
(dp1368
g74
(dp1369
sg83
g859
sg76
(lp1370
g69
(g90
g71
NtRp1371
(dp1372
g74
(dp1373
g94
g95
ssg83
g1367
sg76
(lp1374
S'script_name'
p1375
asbag69
(g90
g71
NtRp1376
(dp1377
g74
(dp1378
g101
g102
ssg83
g1367
sg76
(lp1379
S':'
asbag69
(g90
g71
NtRp1380
(dp1381
g74
(dp1382
sg83
g1367
sg76
(lp1383
g69
(g70
g71
NtRp1384
(dp1385
g74
(dp1386
g82
I4
ssg83
g1380
sg76
(lp1387
S''
asbasbasbag69
(g85
g71
NtRp1388
(dp1389
g74
(dp1390
sg83
g859
sg76
(lp1391
g69
(g90
g71
NtRp1392
(dp1393
g74
(dp1394
g94
g95
ssg83
g1388
sg76
(lp1395
S'server_name'
p1396
asbag69
(g90
g71
NtRp1397
(dp1398
g74
(dp1399
g101
g102
ssg83
g1388
sg76
(lp1400
S':'
asbag69
(g90
g71
NtRp1401
(dp1402
g74
(dp1403
sg83
g1388
sg76
(lp1404
g69
(g70
g71
NtRp1405
(dp1406
g74
(dp1407
g82
I4
ssg83
g1401
sg76
(lp1408
S'jigar-Lenovo-Z580'
p1409
asbasbasbag69
(g85
g71
NtRp1410
(dp1411
g74
(dp1412
sg83
g859
sg76
(lp1413
g69
(g90
g71
NtRp1414
(dp1415
g74
(dp1416
g94
g95
ssg83
g1410
sg76
(lp1417
S'server_port'
p1418
asbag69
(g90
g71
NtRp1419
(dp1420
g74
(dp1421
g101
g102
ssg83
g1410
sg76
(lp1422
S':'
asbag69
(g90
g71
NtRp1423
(dp1424
g74
(dp1425
sg83
g1410
sg76
(lp1426
g69
(g70
g71
NtRp1427
(dp1428
g74
(dp1429
g82
I4
ssg83
g1423
sg76
(lp1430
S'8000'
p1431
asbasbasbag69
(g85
g71
NtRp1432
(dp1433
g74
(dp1434
sg83
g859
sg76
(lp1435
g69
(g90
g71
NtRp1436
(dp1437
g74
(dp1438
g94
g95
ssg83
g1432
sg76
(lp1439
S'server_protocol'
p1440
asbag69
(g90
g71
NtRp1441
(dp1442
g74
(dp1443
g101
g102
ssg83
g1432
sg76
(lp1444
S':'
asbag69
(g90
g71
NtRp1445
(dp1446
g74
(dp1447
sg83
g1432
sg76
(lp1448
g69
(g70
g71
NtRp1449
(dp1450
g74
(dp1451
g82
I4
ssg83
g1445
sg76
(lp1452
S'HTTP/1.1'
p1453
asbasbasbag69
(g85
g71
NtRp1454
(dp1455
g74
(dp1456
sg83
g859
sg76
(lp1457
g69
(g90
g71
NtRp1458
(dp1459
g74
(dp1460
g94
g95
ssg83
g1454
sg76
(lp1461
S'server_software'
p1462
asbag69
(g90
g71
NtRp1463
(dp1464
g74
(dp1465
g101
g102
ssg83
g1454
sg76
(lp1466
S':'
asbag69
(g90
g71
NtRp1467
(dp1468
g74
(dp1469
sg83
g1454
sg76
(lp1470
g69
(g70
g71
NtRp1471
(dp1472
g74
(dp1473
g82
I4
ssg83
g1467
sg76
(lp1474
S'Rocket 1.2.4'
p1475
asbasbasbag69
(g85
g71
NtRp1476
(dp1477
g74
(dp1478
sg83
g859
sg76
(lp1479
g69
(g90
g71
NtRp1480
(dp1481
g74
(dp1482
g94
g95
ssg83
g1476
sg76
(lp1483
S'web2py_crontype'
p1484
asbag69
(g90
g71
NtRp1485
(dp1486
g74
(dp1487
g101
g102
ssg83
g1476
sg76
(lp1488
S':'
asbag69
(g90
g71
NtRp1489
(dp1490
g74
(dp1491
sg83
g1476
sg76
(lp1492
g69
(g70
g71
NtRp1493
(dp1494
g74
(dp1495
g82
I4
ssg83
g1489
sg76
(lp1496
S'hard'
p1497
asbasbasbag69
(g85
g71
NtRp1498
(dp1499
g74
(dp1500
sg83
g859
sg76
(lp1501
g69
(g90
g71
NtRp1502
(dp1503
g74
(dp1504
g94
g95
ssg83
g1498
sg76
(lp1505
S'web2py_path'
p1506
asbag69
(g90
g71
NtRp1507
(dp1508
g74
(dp1509
g101
g102
ssg83
g1498
sg76
(lp1510
S':'
asbag69
(g90
g71
NtRp1511
(dp1512
g74
(dp1513
sg83
g1498
sg76
(lp1514
g69
(g70
g71
NtRp1515
(dp1516
g74
(dp1517
g82
I4
ssg83
g1511
sg76
(lp1518
g906
asbasbasbag69
(g85
g71
NtRp1519
(dp1520
g74
(dp1521
sg83
g859
sg76
(lp1522
g69
(g90
g71
NtRp1523
(dp1524
g74
(dp1525
g94
g95
ssg83
g1519
sg76
(lp1526
S'web2py_version'
p1527
asbag69
(g90
g71
NtRp1528
(dp1529
g74
(dp1530
g101
g102
ssg83
g1519
sg76
(lp1531
S':'
asbag69
(g90
g71
NtRp1532
(dp1533
g74
(dp1534
sg83
g1519
sg76
(lp1535
g69
(g70
g71
NtRp1536
(dp1537
g74
(dp1538
g82
I4
ssg83
g1532
sg76
(lp1539
g69
(g78
g71
NtRp1540
(dp1541
g74
(dp1542
g82
I3
ssg83
Nsg76
(lp1543
g69
(g85
g71
NtRp1544
(dp1545
g74
(dp1546
sg83
g1540
sg76
(lp1547
g69
(g90
g71
NtRp1548
(dp1549
g74
(dp1550
sg83
g1544
sg76
(lp1551
g69
(g70
g71
NtRp1552
(dp1553
g74
(dp1554
g82
I3
ssg83
g1548
sg76
(lp1555
S'1'
asbasbasbag69
(g85
g71
NtRp1556
(dp1557
g74
(dp1558
sg83
g1540
sg76
(lp1559
g69
(g90
g71
NtRp1560
(dp1561
g74
(dp1562
sg83
g1556
sg76
(lp1563
g69
(g70
g71
NtRp1564
(dp1565
g74
(dp1566
g82
I3
ssg83
g1560
sg76
(lp1567
S'99'
p1568
asbasbasbag69
(g85
g71
NtRp1569
(dp1570
g74
(dp1571
sg83
g1540
sg76
(lp1572
g69
(g90
g71
NtRp1573
(dp1574
g74
(dp1575
sg83
g1569
sg76
(lp1576
g69
(g70
g71
NtRp1577
(dp1578
g74
(dp1579
g82
I3
ssg83
g1573
sg76
(lp1580
S'4'
asbasbasbag69
(g85
g71
NtRp1581
(dp1582
g74
(dp1583
sg83
g1540
sg76
(lp1584
g69
(g90
g71
NtRp1585
(dp1586
g74
(dp1587
sg83
g1581
sg76
(lp1588
g69
(g70
g71
NtRp1589
(dp1590
g74
(dp1591
g82
I3
ssg83
g1585
sg76
(lp1592
S'datetime.datetime(2011, 12, 14, 14, 46, 14)'
p1593
asbasbasbag69
(g85
g71
NtRp1594
(dp1595
g74
(dp1596
sg83
g1540
sg76
(lp1597
g69
(g90
g71
NtRp1598
(dp1599
g74
(dp1600
sg83
g1594
sg76
(lp1601
g69
(g70
g71
NtRp1602
(dp1603
g74
(dp1604
g82
I3
ssg83
g1598
sg76
(lp1605
S'stable'
p1606
asbasbasbasbasbasbasbag69
(g85
g71
NtRp1607
(dp1608
g74
(dp1609
sg83
g859
sg76
(lp1610
g69
(g90
g71
NtRp1611
(dp1612
g74
(dp1613
g94
g95
ssg83
g1607
sg76
(lp1614
S'wsgi_errors'
p1615
asbag69
(g90
g71
NtRp1616
(dp1617
g74
(dp1618
g101
g102
ssg83
g1607
sg76
(lp1619
S':'
asbag69
(g90
g71
NtRp1620
(dp1621
g74
(dp1622
sg83
g1607
sg76
(lp1623
g69
(g70
g71
NtRp1624
(dp1625
g74
(dp1626
g82
I4
ssg83
g1620
sg76
(lp1627
S"<open file '<stderr>', mode 'w' at 0x7fb48f9e6270>"
p1628
asbasbasbag69
(g85
g71
NtRp1629
(dp1630
g74
(dp1631
sg83
g859
sg76
(lp1632
g69
(g90
g71
NtRp1633
(dp1634
g74
(dp1635
g94
g95
ssg83
g1629
sg76
(lp1636
S'wsgi_file_wrapper'
p1637
asbag69
(g90
g71
NtRp1638
(dp1639
g74
(dp1640
g101
g102
ssg83
g1629
sg76
(lp1641
S':'
asbag69
(g90
g71
NtRp1642
(dp1643
g74
(dp1644
sg83
g1629
sg76
(lp1645
g69
(g70
g71
NtRp1646
(dp1647
g74
(dp1648
g82
I4
ssg83
g1642
sg76
(lp1649
S'<class wsgiref.util.FileWrapper at 0x2f52328>'
p1650
asbasbasbag69
(g85
g71
NtRp1651
(dp1652
g74
(dp1653
sg83
g859
sg76
(lp1654
g69
(g90
g71
NtRp1655
(dp1656
g74
(dp1657
g94
g95
ssg83
g1651
sg76
(lp1658
S'wsgi_input'
p1659
asbag69
(g90
g71
NtRp1660
(dp1661
g74
(dp1662
g101
g102
ssg83
g1651
sg76
(lp1663
S':'
asbag69
(g90
g71
NtRp1664
(dp1665
g74
(dp1666
sg83
g1651
sg76
(lp1667
g69
(g70
g71
NtRp1668
(dp1669
g74
(dp1670
g82
I4
ssg83
g1664
sg76
(lp1671
S'<socket._fileobject object at 0x7fb45c43c150>'
p1672
asbasbasbag69
(g85
g71
NtRp1673
(dp1674
g74
(dp1675
sg83
g859
sg76
(lp1676
g69
(g90
g71
NtRp1677
(dp1678
g74
(dp1679
g94
g95
ssg83
g1673
sg76
(lp1680
S'wsgi_multiprocess'
p1681
asbag69
(g90
g71
NtRp1682
(dp1683
g74
(dp1684
g101
g102
ssg83
g1673
sg76
(lp1685
S':'
asbag69
(g90
g71
NtRp1686
(dp1687
g74
(dp1688
sg83
g1673
sg76
(lp1689
g69
(g70
g71
NtRp1690
(dp1691
g74
(dp1692
g82
I4
ssg83
g1686
sg76
(lp1693
g112
asbasbasbag69
(g85
g71
NtRp1694
(dp1695
g74
(dp1696
sg83
g859
sg76
(lp1697
g69
(g90
g71
NtRp1698
(dp1699
g74
(dp1700
g94
g95
ssg83
g1694
sg76
(lp1701
S'wsgi_multithread'
p1702
asbag69
(g90
g71
NtRp1703
(dp1704
g74
(dp1705
g101
g102
ssg83
g1694
sg76
(lp1706
S':'
asbag69
(g90
g71
NtRp1707
(dp1708
g74
(dp1709
sg83
g1694
sg76
(lp1710
g69
(g70
g71
NtRp1711
(dp1712
g74
(dp1713
g82
I4
ssg83
g1707
sg76
(lp1714
S'True'
p1715
asbasbasbag69
(g85
g71
NtRp1716
(dp1717
g74
(dp1718
sg83
g859
sg76
(lp1719
g69
(g90
g71
NtRp1720
(dp1721
g74
(dp1722
g94
g95
ssg83
g1716
sg76
(lp1723
S'wsgi_run_once'
p1724
asbag69
(g90
g71
NtRp1725
(dp1726
g74
(dp1727
g101
g102
ssg83
g1716
sg76
(lp1728
S':'
asbag69
(g90
g71
NtRp1729
(dp1730
g74
(dp1731
sg83
g1716
sg76
(lp1732
g69
(g70
g71
NtRp1733
(dp1734
g74
(dp1735
g82
I4
ssg83
g1729
sg76
(lp1736
g112
asbasbasbag69
(g85
g71
NtRp1737
(dp1738
g74
(dp1739
sg83
g859
sg76
(lp1740
g69
(g90
g71
NtRp1741
(dp1742
g74
(dp1743
g94
g95
ssg83
g1737
sg76
(lp1744
S'wsgi_url_scheme'
p1745
asbag69
(g90
g71
NtRp1746
(dp1747
g74
(dp1748
g101
g102
ssg83
g1737
sg76
(lp1749
S':'
asbag69
(g90
g71
NtRp1750
(dp1751
g74
(dp1752
sg83
g1737
sg76
(lp1753
g69
(g70
g71
NtRp1754
(dp1755
g74
(dp1756
g82
I4
ssg83
g1750
sg76
(lp1757
S'http'
p1758
asbasbasbag69
(g85
g71
NtRp1759
(dp1760
g74
(dp1761
sg83
g859
sg76
(lp1762
g69
(g90
g71
NtRp1763
(dp1764
g74
(dp1765
g94
g95
ssg83
g1759
sg76
(lp1766
S'wsgi_version'
p1767
asbag69
(g90
g71
NtRp1768
(dp1769
g74
(dp1770
g101
g102
ssg83
g1759
sg76
(lp1771
S':'
asbag69
(g90
g71
NtRp1772
(dp1773
g74
(dp1774
sg83
g1759
sg76
(lp1775
g69
(g70
g71
NtRp1776
(dp1777
g74
(dp1778
g82
I4
ssg83
g1772
sg76
(lp1779
g69
(g78
g71
NtRp1780
(dp1781
g74
(dp1782
g82
I3
ssg83
Nsg76
(lp1783
g69
(g85
g71
NtRp1784
(dp1785
g74
(dp1786
sg83
g1780
sg76
(lp1787
g69
(g90
g71
NtRp1788
(dp1789
g74
(dp1790
sg83
g1784
sg76
(lp1791
g69
(g70
g71
NtRp1792
(dp1793
g74
(dp1794
g82
I3
ssg83
g1788
sg76
(lp1795
S'1'
asbasbasbag69
(g85
g71
NtRp1796
(dp1797
g74
(dp1798
sg83
g1780
sg76
(lp1799
g69
(g90
g71
NtRp1800
(dp1801
g74
(dp1802
sg83
g1796
sg76
(lp1803
g69
(g70
g71
NtRp1804
(dp1805
g74
(dp1806
g82
I3
ssg83
g1800
sg76
(lp1807
S'0'
asbasbasbasbasbasbasbasbasbasbasbag69
(g85
g71
NtRp1808
(dp1809
g74
(dp1810
sg83
g79
sg76
(lp1811
g69
(g90
g71
NtRp1812
(dp1813
g74
(dp1814
g94
g95
ssg83
g1808
sg76
(lp1815
S'extension'
p1816
asbag69
(g90
g71
NtRp1817
(dp1818
g74
(dp1819
g101
g102
ssg83
g1808
sg76
(lp1820
S':'
asbag69
(g90
g71
NtRp1821
(dp1822
g74
(dp1823
sg83
g1808
sg76
(lp1824
g69
(g70
g71
NtRp1825
(dp1826
g74
(dp1827
g82
I5
ssg83
g1821
sg76
(lp1828
S'html'
p1829
asbasbasbag69
(g85
g71
NtRp1830
(dp1831
g74
(dp1832
sg83
g79
sg76
(lp1833
g69
(g90
g71
NtRp1834
(dp1835
g74
(dp1836
g94
g95
ssg83
g1830
sg76
(lp1837
S'folder'
p1838
asbag69
(g90
g71
NtRp1839
(dp1840
g74
(dp1841
g101
g102
ssg83
g1830
sg76
(lp1842
S':'
asbag69
(g90
g71
NtRp1843
(dp1844
g74
(dp1845
sg83
g1830
sg76
(lp1846
g69
(g70
g71
NtRp1847
(dp1848
g74
(dp1849
g82
I5
ssg83
g1843
sg76
(lp1850
S'/home/jigar/web2py/applications/app1/'
p1851
asbasbasbag69
(g85
g71
NtRp1852
(dp1853
g74
(dp1854
sg83
g79
sg76
(lp1855
g69
(g90
g71
NtRp1856
(dp1857
g74
(dp1858
g94
g95
ssg83
g1852
sg76
(lp1859
S'function'
p1860
asbag69
(g90
g71
NtRp1861
(dp1862
g74
(dp1863
g101
g102
ssg83
g1852
sg76
(lp1864
S':'
asbag69
(g90
g71
NtRp1865
(dp1866
g74
(dp1867
sg83
g1852
sg76
(lp1868
g69
(g70
g71
NtRp1869
(dp1870
g74
(dp1871
g82
I5
ssg83
g1865
sg76
(lp1872
S'l'
asbasbasbag69
(g85
g71
NtRp1873
(dp1874
g74
(dp1875
sg83
g79
sg76
(lp1876
g69
(g90
g71
NtRp1877
(dp1878
g74
(dp1879
g94
g95
ssg83
g1873
sg76
(lp1880
S'get_vars'
p1881
asbag69
(g90
g71
NtRp1882
(dp1883
g74
(dp1884
g101
g102
ssg83
g1873
sg76
(lp1885
S':'
asbag69
(g90
g71
NtRp1886
(dp1887
g74
(dp1888
sg83
g1873
sg76
(lp1889
g69
(g70
g71
NtRp1890
(dp1891
g74
(dp1892
g82
I5
ssg83
g1886
sg76
(lp1893
g69
(g78
g71
NtRp1894
(dp1895
g74
(dp1896
g82
I4
ssg83
Nsg76
(lp1897
sbasbasbasbag69
(g85
g71
NtRp1898
(dp1899
g74
(dp1900
sg83
g79
sg76
(lp1901
g69
(g90
g71
NtRp1902
(dp1903
g74
(dp1904
g94
g95
ssg83
g1898
sg76
(lp1905
S'global_settings'
p1906
asbag69
(g90
g71
NtRp1907
(dp1908
g74
(dp1909
g101
g102
ssg83
g1898
sg76
(lp1910
S':'
asbag69
(g90
g71
NtRp1911
(dp1912
g74
(dp1913
sg83
g1898
sg76
(lp1914
g69
(g70
g71
NtRp1915
(dp1916
g74
(dp1917
g82
I5
ssg83
g1911
sg76
(lp1918
g69
(g78
g71
NtRp1919
(dp1920
g74
(dp1921
g82
I4
ssg83
Nsg76
(lp1922
g69
(g85
g71
NtRp1923
(dp1924
g74
(dp1925
sg83
g1919
sg76
(lp1926
g69
(g90
g71
NtRp1927
(dp1928
g74
(dp1929
g94
g95
ssg83
g1923
sg76
(lp1930
g871
asbag69
(g90
g71
NtRp1931
(dp1932
g74
(dp1933
g101
g102
ssg83
g1923
sg76
(lp1934
S':'
asbag69
(g90
g71
NtRp1935
(dp1936
g74
(dp1937
sg83
g1923
sg76
(lp1938
g69
(g70
g71
NtRp1939
(dp1940
g74
(dp1941
g82
I4
ssg83
g1935
sg76
(lp1942
S"set(['/home/jigar/web2py/applications/welcome/', '/home/jigar/web2py/applications/admin/', '/home/jigar/web2py/applications/app1/'])"
p1943
asbasbasbag69
(g85
g71
NtRp1944
(dp1945
g74
(dp1946
sg83
g1919
sg76
(lp1947
g69
(g90
g71
NtRp1948
(dp1949
g74
(dp1950
g94
g95
ssg83
g1944
sg76
(lp1951
g893
asbag69
(g90
g71
NtRp1952
(dp1953
g74
(dp1954
g101
g102
ssg83
g1944
sg76
(lp1955
S':'
asbag69
(g90
g71
NtRp1956
(dp1957
g74
(dp1958
sg83
g1944
sg76
(lp1959
g69
(g70
g71
NtRp1960
(dp1961
g74
(dp1962
g82
I4
ssg83
g1956
sg76
(lp1963
g906
asbasbasbag69
(g85
g71
NtRp1964
(dp1965
g74
(dp1966
sg83
g1919
sg76
(lp1967
g69
(g90
g71
NtRp1968
(dp1969
g74
(dp1970
g94
g95
ssg83
g1964
sg76
(lp1971
g915
asbag69
(g90
g71
NtRp1972
(dp1973
g74
(dp1974
g101
g102
ssg83
g1964
sg76
(lp1975
S':'
asbag69
(g90
g71
NtRp1976
(dp1977
g74
(dp1978
sg83
g1964
sg76
(lp1979
g69
(g70
g71
NtRp1980
(dp1981
g74
(dp1982
g82
I4
ssg83
g1976
sg76
(lp1983
g69
(g78
g71
NtRp1984
(dp1985
g74
(dp1986
g82
I3
ssg83
Nsg76
(lp1987
sbasbasbasbag69
(g85
g71
NtRp1988
(dp1989
g74
(dp1990
sg83
g1919
sg76
(lp1991
g69
(g90
g71
NtRp1992
(dp1993
g74
(dp1994
g94
g95
ssg83
g1988
sg76
(lp1995
g940
asbag69
(g90
g71
NtRp1996
(dp1997
g74
(dp1998
g101
g102
ssg83
g1988
sg76
(lp1999
S':'
asbag69
(g90
g71
NtRp2000
(dp2001
g74
(dp2002
sg83
g1988
sg76
(lp2003
g69
(g70
g71
NtRp2004
(dp2005
g74
(dp2006
g82
I4
ssg83
g2000
sg76
(lp2007
S"<Values at 0x2fd1c20: {'verbose': False, 'ip': '127.0.0.1', 'shutdown_timeout': 5, 'taskbar': False, 'port': 8000, 'maxthreads': None, 'softcron': False, 'server_name': 'jigar-Lenovo-Z580', 'bpython': False, 'nogui': False, 'nocron': False, 'extcron': False, 'debuglevel': 30, 'test': None, 'folder': '/home/jigar/web2py', 'config': '', 'import_models': False, 'winservice': '', 'shell': None, 'run': '', 'log_filename': 'httpserver.log', 'args': [''], 'socket_timeout': 1, 'profiler_filename': None, 'ssl_private_key': '', 'password': '<ask>', 'request_queue_size': 5, 'ssl_certificate': '', 'cronjob': False, 'plain': False, 'quiet': False, 'interfaces': None, 'minthreads': None, 'timeout': 10, 'numthreads': None, 'nobanner': False, 'pid_filename': 'httpserver.pid'}>"
p2008
asbasbasbag69
(g85
g71
NtRp2009
(dp2010
g74
(dp2011
sg83
g1919
sg76
(lp2012
g69
(g90
g71
NtRp2013
(dp2014
g74
(dp2015
g94
g95
ssg83
g2009
sg76
(lp2016
g962
asbag69
(g90
g71
NtRp2017
(dp2018
g74
(dp2019
g101
g102
ssg83
g2009
sg76
(lp2020
S':'
asbag69
(g90
g71
NtRp2021
(dp2022
g74
(dp2023
sg83
g2009
sg76
(lp2024
g69
(g70
g71
NtRp2025
(dp2026
g74
(dp2027
g82
I4
ssg83
g2021
sg76
(lp2028
S'set([])'
p2029
asbasbasbag69
(g85
g71
NtRp2030
(dp2031
g74
(dp2032
sg83
g1919
sg76
(lp2033
g69
(g90
g71
NtRp2034
(dp2035
g74
(dp2036
g94
g95
ssg83
g2030
sg76
(lp2037
g984
asbag69
(g90
g71
NtRp2038
(dp2039
g74
(dp2040
g101
g102
ssg83
g2030
sg76
(lp2041
S':'
asbag69
(g90
g71
NtRp2042
(dp2043
g74
(dp2044
sg83
g2030
sg76
(lp2045
g69
(g70
g71
NtRp2046
(dp2047
g74
(dp2048
g82
I4
ssg83
g2042
sg76
(lp2049
g112
asbasbasbag69
(g85
g71
NtRp2050
(dp2051
g74
(dp2052
sg83
g1919
sg76
(lp2053
g69
(g90
g71
NtRp2054
(dp2055
g74
(dp2056
g94
g95
ssg83
g2050
sg76
(lp2057
g1005
asbag69
(g90
g71
NtRp2058
(dp2059
g74
(dp2060
g101
g102
ssg83
g2050
sg76
(lp2061
S':'
asbag69
(g90
g71
NtRp2062
(dp2063
g74
(dp2064
sg83
g2050
sg76
(lp2065
g69
(g70
g71
NtRp2066
(dp2067
g74
(dp2068
g82
I4
ssg83
g2062
sg76
(lp2069
g1018
asbasbasbag69
(g85
g71
NtRp2070
(dp2071
g74
(dp2072
sg83
g1919
sg76
(lp2073
g69
(g90
g71
NtRp2074
(dp2075
g74
(dp2076
g94
g95
ssg83
g2070
sg76
(lp2077
g1225
asbag69
(g90
g71
NtRp2078
(dp2079
g74
(dp2080
g101
g102
ssg83
g2070
sg76
(lp2081
S':'
asbag69
(g90
g71
NtRp2082
(dp2083
g74
(dp2084
sg83
g2070
sg76
(lp2085
g69
(g70
g71
NtRp2086
(dp2087
g74
(dp2088
g82
I4
ssg83
g2082
sg76
(lp2089
g112
asbasbasbag69
(g85
g71
NtRp2090
(dp2091
g74
(dp2092
sg83
g1919
sg76
(lp2093
g69
(g90
g71
NtRp2094
(dp2095
g74
(dp2096
g94
g95
ssg83
g2090
sg76
(lp2097
g1246
asbag69
(g90
g71
NtRp2098
(dp2099
g74
(dp2100
g101
g102
ssg83
g2090
sg76
(lp2101
S':'
asbag69
(g90
g71
NtRp2102
(dp2103
g74
(dp2104
sg83
g2090
sg76
(lp2105
g69
(g70
g71
NtRp2106
(dp2107
g74
(dp2108
g82
I4
ssg83
g2102
sg76
(lp2109
g112
asbasbasbag69
(g85
g71
NtRp2110
(dp2111
g74
(dp2112
sg83
g1919
sg76
(lp2113
g69
(g90
g71
NtRp2114
(dp2115
g74
(dp2116
g94
g95
ssg83
g2110
sg76
(lp2117
g1484
asbag69
(g90
g71
NtRp2118
(dp2119
g74
(dp2120
g101
g102
ssg83
g2110
sg76
(lp2121
S':'
asbag69
(g90
g71
NtRp2122
(dp2123
g74
(dp2124
sg83
g2110
sg76
(lp2125
g69
(g70
g71
NtRp2126
(dp2127
g74
(dp2128
g82
I4
ssg83
g2122
sg76
(lp2129
g1497
asbasbasbag69
(g85
g71
NtRp2130
(dp2131
g74
(dp2132
sg83
g1919
sg76
(lp2133
g69
(g90
g71
NtRp2134
(dp2135
g74
(dp2136
g94
g95
ssg83
g2130
sg76
(lp2137
g1527
asbag69
(g90
g71
NtRp2138
(dp2139
g74
(dp2140
g101
g102
ssg83
g2130
sg76
(lp2141
S':'
asbag69
(g90
g71
NtRp2142
(dp2143
g74
(dp2144
sg83
g2130
sg76
(lp2145
g69
(g70
g71
NtRp2146
(dp2147
g74
(dp2148
g82
I4
ssg83
g2142
sg76
(lp2149
g69
(g78
g71
NtRp2150
(dp2151
g74
(dp2152
g82
I3
ssg83
Nsg76
(lp2153
g69
(g85
g71
NtRp2154
(dp2155
g74
(dp2156
sg83
g2150
sg76
(lp2157
g69
(g90
g71
NtRp2158
(dp2159
g74
(dp2160
sg83
g2154
sg76
(lp2161
g69
(g70
g71
NtRp2162
(dp2163
g74
(dp2164
g82
I3
ssg83
g2158
sg76
(lp2165
S'1'
asbasbasbag69
(g85
g71
NtRp2166
(dp2167
g74
(dp2168
sg83
g2150
sg76
(lp2169
g69
(g90
g71
NtRp2170
(dp2171
g74
(dp2172
sg83
g2166
sg76
(lp2173
g69
(g70
g71
NtRp2174
(dp2175
g74
(dp2176
g82
I3
ssg83
g2170
sg76
(lp2177
S'99'
p2178
asbasbasbag69
(g85
g71
NtRp2179
(dp2180
g74
(dp2181
sg83
g2150
sg76
(lp2182
g69
(g90
g71
NtRp2183
(dp2184
g74
(dp2185
sg83
g2179
sg76
(lp2186
g69
(g70
g71
NtRp2187
(dp2188
g74
(dp2189
g82
I3
ssg83
g2183
sg76
(lp2190
S'4'
asbasbasbag69
(g85
g71
NtRp2191
(dp2192
g74
(dp2193
sg83
g2150
sg76
(lp2194
g69
(g90
g71
NtRp2195
(dp2196
g74
(dp2197
sg83
g2191
sg76
(lp2198
g69
(g70
g71
NtRp2199
(dp2200
g74
(dp2201
g82
I3
ssg83
g2195
sg76
(lp2202
S'datetime.datetime(2011, 12, 14, 14, 46, 14)'
p2203
asbasbasbag69
(g85
g71
NtRp2204
(dp2205
g74
(dp2206
sg83
g2150
sg76
(lp2207
g69
(g90
g71
NtRp2208
(dp2209
g74
(dp2210
sg83
g2204
sg76
(lp2211
g69
(g70
g71
NtRp2212
(dp2213
g74
(dp2214
g82
I3
ssg83
g2208
sg76
(lp2215
g1606
asbasbasbasbasbasbasbasbasbasbasbag69
(g85
g71
NtRp2216
(dp2217
g74
(dp2218
sg83
g79
sg76
(lp2219
g69
(g90
g71
NtRp2220
(dp2221
g74
(dp2222
g94
g95
ssg83
g2216
sg76
(lp2223
S'is_https'
p2224
asbag69
(g90
g71
NtRp2225
(dp2226
g74
(dp2227
g101
g102
ssg83
g2216
sg76
(lp2228
S':'
asbag69
(g90
g71
NtRp2229
(dp2230
g74
(dp2231
sg83
g2216
sg76
(lp2232
g69
(g70
g71
NtRp2233
(dp2234
g74
(dp2235
g82
I5
ssg83
g2229
sg76
(lp2236
g112
asbasbasbag69
(g85
g71
NtRp2237
(dp2238
g74
(dp2239
sg83
g79
sg76
(lp2240
g69
(g90
g71
NtRp2241
(dp2242
g74
(dp2243
g94
g95
ssg83
g2237
sg76
(lp2244
S'is_local'
p2245
asbag69
(g90
g71
NtRp2246
(dp2247
g74
(dp2248
g101
g102
ssg83
g2237
sg76
(lp2249
S':'
asbag69
(g90
g71
NtRp2250
(dp2251
g74
(dp2252
sg83
g2237
sg76
(lp2253
g69
(g70
g71
NtRp2254
(dp2255
g74
(dp2256
g82
I5
ssg83
g2250
sg76
(lp2257
g1715
asbasbasbag69
(g85
g71
NtRp2258
(dp2259
g74
(dp2260
sg83
g79
sg76
(lp2261
g69
(g90
g71
NtRp2262
(dp2263
g74
(dp2264
g94
g95
ssg83
g2258
sg76
(lp2265
S'is_restful'
p2266
asbag69
(g90
g71
NtRp2267
(dp2268
g74
(dp2269
g101
g102
ssg83
g2258
sg76
(lp2270
S':'
asbag69
(g90
g71
NtRp2271
(dp2272
g74
(dp2273
sg83
g2258
sg76
(lp2274
g69
(g70
g71
NtRp2275
(dp2276
g74
(dp2277
g82
I5
ssg83
g2271
sg76
(lp2278
g112
asbasbasbag69
(g85
g71
NtRp2279
(dp2280
g74
(dp2281
sg83
g79
sg76
(lp2282
g69
(g90
g71
NtRp2283
(dp2284
g74
(dp2285
g94
g95
ssg83
g2279
sg76
(lp2286
S'now'
p2287
asbag69
(g90
g71
NtRp2288
(dp2289
g74
(dp2290
g101
g102
ssg83
g2279
sg76
(lp2291
S':'
asbag69
(g90
g71
NtRp2292
(dp2293
g74
(dp2294
sg83
g2279
sg76
(lp2295
g69
(g70
g71
NtRp2296
(dp2297
g74
(dp2298
g82
I5
ssg83
g2292
sg76
(lp2299
S'datetime.datetime(2013, 9, 1, 18, 40, 51, 345291)'
p2300
asbasbasbag69
(g85
g71
NtRp2301
(dp2302
g74
(dp2303
sg83
g79
sg76
(lp2304
g69
(g90
g71
NtRp2305
(dp2306
g74
(dp2307
g94
g95
ssg83
g2301
sg76
(lp2308
S'post_vars'
p2309
asbag69
(g90
g71
NtRp2310
(dp2311
g74
(dp2312
g101
g102
ssg83
g2301
sg76
(lp2313
S':'
asbag69
(g90
g71
NtRp2314
(dp2315
g74
(dp2316
sg83
g2301
sg76
(lp2317
g69
(g70
g71
NtRp2318
(dp2319
g74
(dp2320
g82
I5
ssg83
g2314
sg76
(lp2321
g69
(g78
g71
NtRp2322
(dp2323
g74
(dp2324
g82
I4
ssg83
Nsg76
(lp2325
sbasbasbasbag69
(g85
g71
NtRp2326
(dp2327
g74
(dp2328
sg83
g79
sg76
(lp2329
g69
(g90
g71
NtRp2330
(dp2331
g74
(dp2332
g94
g95
ssg83
g2326
sg76
(lp2333
S'raw_args'
p2334
asbag69
(g90
g71
NtRp2335
(dp2336
g74
(dp2337
g101
g102
ssg83
g2326
sg76
(lp2338
S':'
asbag69
(g90
g71
NtRp2339
(dp2340
g74
(dp2341
sg83
g2326
sg76
(lp2342
g69
(g70
g71
NtRp2343
(dp2344
g74
(dp2345
g82
I5
ssg83
g2339
sg76
(lp2346
S'8/like'
p2347
asbasbasbag69
(g85
g71
NtRp2348
(dp2349
g74
(dp2350
sg83
g79
sg76
(lp2351
g69
(g90
g71
NtRp2352
(dp2353
g74
(dp2354
g94
g95
ssg83
g2348
sg76
(lp2355
S'url'
p2356
asbag69
(g90
g71
NtRp2357
(dp2358
g74
(dp2359
g101
g102
ssg83
g2348
sg76
(lp2360
S':'
asbag69
(g90
g71
NtRp2361
(dp2362
g74
(dp2363
sg83
g2348
sg76
(lp2364
g69
(g70
g71
NtRp2365
(dp2366
g74
(dp2367
g82
I5
ssg83
g2361
sg76
(lp2368
S'/app1/default/l/8/like'
p2369
asbasbasbag69
(g85
g71
NtRp2370
(dp2371
g74
(dp2372
sg83
g79
sg76
(lp2373
g69
(g90
g71
NtRp2374
(dp2375
g74
(dp2376
g94
g95
ssg83
g2370
sg76
(lp2377
S'utcnow'
p2378
asbag69
(g90
g71
NtRp2379
(dp2380
g74
(dp2381
g101
g102
ssg83
g2370
sg76
(lp2382
S':'
asbag69
(g90
g71
NtRp2383
(dp2384
g74
(dp2385
sg83
g2370
sg76
(lp2386
g69
(g70
g71
NtRp2387
(dp2388
g74
(dp2389
g82
I5
ssg83
g2383
sg76
(lp2390
S'datetime.datetime(2013, 9, 1, 13, 10, 51, 345349)'
p2391
asbasbasbag69
(g85
g71
NtRp2392
(dp2393
g74
(dp2394
sg83
g79
sg76
(lp2395
g69
(g90
g71
NtRp2396
(dp2397
g74
(dp2398
g94
g95
ssg83
g2392
sg76
(lp2399
S'uuid'
p2400
asbag69
(g90
g71
NtRp2401
(dp2402
g74
(dp2403
g101
g102
ssg83
g2392
sg76
(lp2404
S':'
asbag69
(g90
g71
NtRp2405
(dp2406
g74
(dp2407
sg83
g2392
sg76
(lp2408
g69
(g70
g71
NtRp2409
(dp2410
g74
(dp2411
g82
I5
ssg83
g2405
sg76
(lp2412
S'app1/127.0.0.1.2013-09-01.18-40-51.3911e437-6e4b-45e3-a490-e21aa4d69df7'
p2413
asbasbasbag69
(g85
g71
NtRp2414
(dp2415
g74
(dp2416
sg83
g79
sg76
(lp2417
g69
(g90
g71
NtRp2418
(dp2419
g74
(dp2420
g94
g95
ssg83
g2414
sg76
(lp2421
S'vars'
p2422
asbag69
(g90
g71
NtRp2423
(dp2424
g74
(dp2425
g101
g102
ssg83
g2414
sg76
(lp2426
S':'
asbag69
(g90
g71
NtRp2427
(dp2428
g74
(dp2429
sg83
g2414
sg76
(lp2430
g69
(g70
g71
NtRp2431
(dp2432
g74
(dp2433
g82
I5
ssg83
g2427
sg76
(lp2434
g69
(g78
g71
NtRp2435
(dp2436
g74
(dp2437
g82
I4
ssg83
Nsg76
(lp2438
sbasbasbasbag69
(g85
g71
NtRp2439
(dp2440
g74
(dp2441
sg83
g79
sg76
(lp2442
g69
(g90
g71
NtRp2443
(dp2444
g74
(dp2445
g94
g95
ssg83
g2439
sg76
(lp2446
S'wsgi'
p2447
asbag69
(g90
g71
NtRp2448
(dp2449
g74
(dp2450
g101
g102
ssg83
g2439
sg76
(lp2451
S':'
asbag69
(g90
g71
NtRp2452
(dp2453
g74
(dp2454
sg83
g2439
sg76
(lp2455
g69
(g70
g71
NtRp2456
(dp2457
g74
(dp2458
g82
I5
ssg83
g2452
sg76
(lp2459
g69
(g78
g71
NtRp2460
(dp2461
g74
(dp2462
g82
I4
ssg83
Nsg76
(lp2463
g69
(g85
g71
NtRp2464
(dp2465
g74
(dp2466
sg83
g2460
sg76
(lp2467
g69
(g90
g71
NtRp2468
(dp2469
g74
(dp2470
g94
g95
ssg83
g2464
sg76
(lp2471
S'environ'
p2472
asbag69
(g90
g71
NtRp2473
(dp2474
g74
(dp2475
g101
g102
ssg83
g2464
sg76
(lp2476
S':'
asbag69
(g90
g71
NtRp2477
(dp2478
g74
(dp2479
sg83
g2464
sg76
(lp2480
g69
(g70
g71
NtRp2481
(dp2482
g74
(dp2483
g82
I4
ssg83
g2477
sg76
(lp2484
g69
(g78
g71
NtRp2485
(dp2486
g74
(dp2487
g82
I3
ssg83
Nsg76
(lp2488
g69
(g85
g71
NtRp2489
(dp2490
g74
(dp2491
sg83
g2485
sg76
(lp2492
g69
(g90
g71
NtRp2493
(dp2494
g74
(dp2495
g94
g95
ssg83
g2489
sg76
(lp2496
S'HTTP_ACCEPT'
p2497
asbag69
(g90
g71
NtRp2498
(dp2499
g74
(dp2500
g101
g102
ssg83
g2489
sg76
(lp2501
S':'
asbag69
(g90
g71
NtRp2502
(dp2503
g74
(dp2504
sg83
g2489
sg76
(lp2505
g69
(g70
g71
NtRp2506
(dp2507
g74
(dp2508
g82
I3
ssg83
g2502
sg76
(lp2509
g1040
asbasbasbag69
(g85
g71
NtRp2510
(dp2511
g74
(dp2512
sg83
g2485
sg76
(lp2513
g69
(g90
g71
NtRp2514
(dp2515
g74
(dp2516
g94
g95
ssg83
g2510
sg76
(lp2517
S'HTTP_ACCEPT_ENCODING'
p2518
asbag69
(g90
g71
NtRp2519
(dp2520
g74
(dp2521
g101
g102
ssg83
g2510
sg76
(lp2522
S':'
asbag69
(g90
g71
NtRp2523
(dp2524
g74
(dp2525
sg83
g2510
sg76
(lp2526
g69
(g70
g71
NtRp2527
(dp2528
g74
(dp2529
g82
I3
ssg83
g2523
sg76
(lp2530
g1062
asbasbasbag69
(g85
g71
NtRp2531
(dp2532
g74
(dp2533
sg83
g2485
sg76
(lp2534
g69
(g90
g71
NtRp2535
(dp2536
g74
(dp2537
g94
g95
ssg83
g2531
sg76
(lp2538
S'HTTP_ACCEPT_LANGUAGE'
p2539
asbag69
(g90
g71
NtRp2540
(dp2541
g74
(dp2542
g101
g102
ssg83
g2531
sg76
(lp2543
S':'
asbag69
(g90
g71
NtRp2544
(dp2545
g74
(dp2546
sg83
g2531
sg76
(lp2547
g69
(g70
g71
NtRp2548
(dp2549
g74
(dp2550
g82
I3
ssg83
g2544
sg76
(lp2551
g1084
asbasbasbag69
(g85
g71
NtRp2552
(dp2553
g74
(dp2554
sg83
g2485
sg76
(lp2555
g69
(g90
g71
NtRp2556
(dp2557
g74
(dp2558
g94
g95
ssg83
g2552
sg76
(lp2559
S'HTTP_CACHE_CONTROL'
p2560
asbag69
(g90
g71
NtRp2561
(dp2562
g74
(dp2563
g101
g102
ssg83
g2552
sg76
(lp2564
S':'
asbag69
(g90
g71
NtRp2565
(dp2566
g74
(dp2567
sg83
g2552
sg76
(lp2568
g69
(g70
g71
NtRp2569
(dp2570
g74
(dp2571
g82
I3
ssg83
g2565
sg76
(lp2572
g1106
asbasbasbag69
(g85
g71
NtRp2573
(dp2574
g74
(dp2575
sg83
g2485
sg76
(lp2576
g69
(g90
g71
NtRp2577
(dp2578
g74
(dp2579
g94
g95
ssg83
g2573
sg76
(lp2580
S'HTTP_CONNECTION'
p2581
asbag69
(g90
g71
NtRp2582
(dp2583
g74
(dp2584
g101
g102
ssg83
g2573
sg76
(lp2585
S':'
asbag69
(g90
g71
NtRp2586
(dp2587
g74
(dp2588
sg83
g2573
sg76
(lp2589
g69
(g70
g71
NtRp2590
(dp2591
g74
(dp2592
g82
I3
ssg83
g2586
sg76
(lp2593
g1128
asbasbasbag69
(g85
g71
NtRp2594
(dp2595
g74
(dp2596
sg83
g2485
sg76
(lp2597
g69
(g90
g71
NtRp2598
(dp2599
g74
(dp2600
g94
g95
ssg83
g2594
sg76
(lp2601
S'HTTP_COOKIE'
p2602
asbag69
(g90
g71
NtRp2603
(dp2604
g74
(dp2605
g101
g102
ssg83
g2594
sg76
(lp2606
S':'
asbag69
(g90
g71
NtRp2607
(dp2608
g74
(dp2609
sg83
g2594
sg76
(lp2610
g69
(g70
g71
NtRp2611
(dp2612
g74
(dp2613
g82
I3
ssg83
g2607
sg76
(lp2614
g1150
asbasbasbag69
(g85
g71
NtRp2615
(dp2616
g74
(dp2617
sg83
g2485
sg76
(lp2618
g69
(g90
g71
NtRp2619
(dp2620
g74
(dp2621
g94
g95
ssg83
g2615
sg76
(lp2622
S'HTTP_HOST'
p2623
asbag69
(g90
g71
NtRp2624
(dp2625
g74
(dp2626
g101
g102
ssg83
g2615
sg76
(lp2627
S':'
asbag69
(g90
g71
NtRp2628
(dp2629
g74
(dp2630
sg83
g2615
sg76
(lp2631
g69
(g70
g71
NtRp2632
(dp2633
g74
(dp2634
g82
I3
ssg83
g2628
sg76
(lp2635
g1172
asbasbasbag69
(g85
g71
NtRp2636
(dp2637
g74
(dp2638
sg83
g2485
sg76
(lp2639
g69
(g90
g71
NtRp2640
(dp2641
g74
(dp2642
g94
g95
ssg83
g2636
sg76
(lp2643
S'HTTP_REFERER'
p2644
asbag69
(g90
g71
NtRp2645
(dp2646
g74
(dp2647
g101
g102
ssg83
g2636
sg76
(lp2648
S':'
asbag69
(g90
g71
NtRp2649
(dp2650
g74
(dp2651
sg83
g2636
sg76
(lp2652
g69
(g70
g71
NtRp2653
(dp2654
g74
(dp2655
g82
I3
ssg83
g2649
sg76
(lp2656
g1194
asbasbasbag69
(g85
g71
NtRp2657
(dp2658
g74
(dp2659
sg83
g2485
sg76
(lp2660
g69
(g90
g71
NtRp2661
(dp2662
g74
(dp2663
g94
g95
ssg83
g2657
sg76
(lp2664
S'HTTP_USER_AGENT'
p2665
asbag69
(g90
g71
NtRp2666
(dp2667
g74
(dp2668
g101
g102
ssg83
g2657
sg76
(lp2669
S':'
asbag69
(g90
g71
NtRp2670
(dp2671
g74
(dp2672
sg83
g2657
sg76
(lp2673
g69
(g70
g71
NtRp2674
(dp2675
g74
(dp2676
g82
I3
ssg83
g2670
sg76
(lp2677
g1216
asbasbasbag69
(g85
g71
NtRp2678
(dp2679
g74
(dp2680
sg83
g2485
sg76
(lp2681
g69
(g90
g71
NtRp2682
(dp2683
g74
(dp2684
g94
g95
ssg83
g2678
sg76
(lp2685
S'PATH_INFO'
p2686
asbag69
(g90
g71
NtRp2687
(dp2688
g74
(dp2689
g101
g102
ssg83
g2678
sg76
(lp2690
S':'
asbag69
(g90
g71
NtRp2691
(dp2692
g74
(dp2693
sg83
g2678
sg76
(lp2694
g69
(g70
g71
NtRp2695
(dp2696
g74
(dp2697
g82
I3
ssg83
g2691
sg76
(lp2698
g1280
asbasbasbag69
(g85
g71
NtRp2699
(dp2700
g74
(dp2701
sg83
g2485
sg76
(lp2702
g69
(g90
g71
NtRp2703
(dp2704
g74
(dp2705
g94
g95
ssg83
g2699
sg76
(lp2706
S'QUERY_STRING'
p2707
asbag69
(g90
g71
NtRp2708
(dp2709
g74
(dp2710
g101
g102
ssg83
g2699
sg76
(lp2711
S':'
asbag69
(g90
g71
NtRp2712
(dp2713
g74
(dp2714
sg83
g2699
sg76
(lp2715
g69
(g70
g71
NtRp2716
(dp2717
g74
(dp2718
g82
I3
ssg83
g2712
sg76
(lp2719
S''
asbasbasbag69
(g85
g71
NtRp2720
(dp2721
g74
(dp2722
sg83
g2485
sg76
(lp2723
g69
(g90
g71
NtRp2724
(dp2725
g74
(dp2726
g94
g95
ssg83
g2720
sg76
(lp2727
S'REMOTE_ADDR'
p2728
asbag69
(g90
g71
NtRp2729
(dp2730
g74
(dp2731
g101
g102
ssg83
g2720
sg76
(lp2732
S':'
asbag69
(g90
g71
NtRp2733
(dp2734
g74
(dp2735
sg83
g2720
sg76
(lp2736
g69
(g70
g71
NtRp2737
(dp2738
g74
(dp2739
g82
I3
ssg83
g2733
sg76
(lp2740
g227
asbasbasbag69
(g85
g71
NtRp2741
(dp2742
g74
(dp2743
sg83
g2485
sg76
(lp2744
g69
(g90
g71
NtRp2745
(dp2746
g74
(dp2747
g94
g95
ssg83
g2741
sg76
(lp2748
S'REMOTE_PORT'
p2749
asbag69
(g90
g71
NtRp2750
(dp2751
g74
(dp2752
g101
g102
ssg83
g2741
sg76
(lp2753
S':'
asbag69
(g90
g71
NtRp2754
(dp2755
g74
(dp2756
sg83
g2741
sg76
(lp2757
g69
(g70
g71
NtRp2758
(dp2759
g74
(dp2760
g82
I3
ssg83
g2754
sg76
(lp2761
g1344
asbasbasbag69
(g85
g71
NtRp2762
(dp2763
g74
(dp2764
sg83
g2485
sg76
(lp2765
g69
(g90
g71
NtRp2766
(dp2767
g74
(dp2768
g94
g95
ssg83
g2762
sg76
(lp2769
S'REQUEST_METHOD'
p2770
asbag69
(g90
g71
NtRp2771
(dp2772
g74
(dp2773
g101
g102
ssg83
g2762
sg76
(lp2774
S':'
asbag69
(g90
g71
NtRp2775
(dp2776
g74
(dp2777
sg83
g2762
sg76
(lp2778
g69
(g70
g71
NtRp2779
(dp2780
g74
(dp2781
g82
I3
ssg83
g2775
sg76
(lp2782
g1366
asbasbasbag69
(g85
g71
NtRp2783
(dp2784
g74
(dp2785
sg83
g2485
sg76
(lp2786
g69
(g90
g71
NtRp2787
(dp2788
g74
(dp2789
g94
g95
ssg83
g2783
sg76
(lp2790
S'SCRIPT_NAME'
p2791
asbag69
(g90
g71
NtRp2792
(dp2793
g74
(dp2794
g101
g102
ssg83
g2783
sg76
(lp2795
S':'
asbag69
(g90
g71
NtRp2796
(dp2797
g74
(dp2798
sg83
g2783
sg76
(lp2799
g69
(g70
g71
NtRp2800
(dp2801
g74
(dp2802
g82
I3
ssg83
g2796
sg76
(lp2803
S''
asbasbasbag69
(g85
g71
NtRp2804
(dp2805
g74
(dp2806
sg83
g2485
sg76
(lp2807
g69
(g90
g71
NtRp2808
(dp2809
g74
(dp2810
g94
g95
ssg83
g2804
sg76
(lp2811
S'SERVER_NAME'
p2812
asbag69
(g90
g71
NtRp2813
(dp2814
g74
(dp2815
g101
g102
ssg83
g2804
sg76
(lp2816
S':'
asbag69
(g90
g71
NtRp2817
(dp2818
g74
(dp2819
sg83
g2804
sg76
(lp2820
g69
(g70
g71
NtRp2821
(dp2822
g74
(dp2823
g82
I3
ssg83
g2817
sg76
(lp2824
g1409
asbasbasbag69
(g85
g71
NtRp2825
(dp2826
g74
(dp2827
sg83
g2485
sg76
(lp2828
g69
(g90
g71
NtRp2829
(dp2830
g74
(dp2831
g94
g95
ssg83
g2825
sg76
(lp2832
S'SERVER_PORT'
p2833
asbag69
(g90
g71
NtRp2834
(dp2835
g74
(dp2836
g101
g102
ssg83
g2825
sg76
(lp2837
S':'
asbag69
(g90
g71
NtRp2838
(dp2839
g74
(dp2840
sg83
g2825
sg76
(lp2841
g69
(g70
g71
NtRp2842
(dp2843
g74
(dp2844
g82
I3
ssg83
g2838
sg76
(lp2845
g1431
asbasbasbag69
(g85
g71
NtRp2846
(dp2847
g74
(dp2848
sg83
g2485
sg76
(lp2849
g69
(g90
g71
NtRp2850
(dp2851
g74
(dp2852
g94
g95
ssg83
g2846
sg76
(lp2853
S'SERVER_PROTOCOL'
p2854
asbag69
(g90
g71
NtRp2855
(dp2856
g74
(dp2857
g101
g102
ssg83
g2846
sg76
(lp2858
S':'
asbag69
(g90
g71
NtRp2859
(dp2860
g74
(dp2861
sg83
g2846
sg76
(lp2862
g69
(g70
g71
NtRp2863
(dp2864
g74
(dp2865
g82
I3
ssg83
g2859
sg76
(lp2866
g1453
asbasbasbag69
(g85
g71
NtRp2867
(dp2868
g74
(dp2869
sg83
g2485
sg76
(lp2870
g69
(g90
g71
NtRp2871
(dp2872
g74
(dp2873
g94
g95
ssg83
g2867
sg76
(lp2874
S'SERVER_SOFTWARE'
p2875
asbag69
(g90
g71
NtRp2876
(dp2877
g74
(dp2878
g101
g102
ssg83
g2867
sg76
(lp2879
S':'
asbag69
(g90
g71
NtRp2880
(dp2881
g74
(dp2882
sg83
g2867
sg76
(lp2883
g69
(g70
g71
NtRp2884
(dp2885
g74
(dp2886
g82
I3
ssg83
g2880
sg76
(lp2887
g1475
asbasbasbag69
(g85
g71
NtRp2888
(dp2889
g74
(dp2890
sg83
g2485
sg76
(lp2891
g69
(g90
g71
NtRp2892
(dp2893
g74
(dp2894
g94
g95
ssg83
g2888
sg76
(lp2895
S'wsgi.errors'
p2896
asbag69
(g90
g71
NtRp2897
(dp2898
g74
(dp2899
g101
g102
ssg83
g2888
sg76
(lp2900
S':'
asbag69
(g90
g71
NtRp2901
(dp2902
g74
(dp2903
sg83
g2888
sg76
(lp2904
g69
(g70
g71
NtRp2905
(dp2906
g74
(dp2907
g82
I3
ssg83
g2901
sg76
(lp2908
S"<open file '<stderr>', mode 'w' at 0x7fb48f9e6270>"
p2909
asbasbasbag69
(g85
g71
NtRp2910
(dp2911
g74
(dp2912
sg83
g2485
sg76
(lp2913
g69
(g90
g71
NtRp2914
(dp2915
g74
(dp2916
g94
g95
ssg83
g2910
sg76
(lp2917
S'wsgi.file_wrapper'
p2918
asbag69
(g90
g71
NtRp2919
(dp2920
g74
(dp2921
g101
g102
ssg83
g2910
sg76
(lp2922
S':'
asbag69
(g90
g71
NtRp2923
(dp2924
g74
(dp2925
sg83
g2910
sg76
(lp2926
g69
(g70
g71
NtRp2927
(dp2928
g74
(dp2929
g82
I3
ssg83
g2923
sg76
(lp2930
S'<class wsgiref.util.FileWrapper at 0x2f52328>'
p2931
asbasbasbag69
(g85
g71
NtRp2932
(dp2933
g74
(dp2934
sg83
g2485
sg76
(lp2935
g69
(g90
g71
NtRp2936
(dp2937
g74
(dp2938
g94
g95
ssg83
g2932
sg76
(lp2939
S'wsgi.input'
p2940
asbag69
(g90
g71
NtRp2941
(dp2942
g74
(dp2943
g101
g102
ssg83
g2932
sg76
(lp2944
S':'
asbag69
(g90
g71
NtRp2945
(dp2946
g74
(dp2947
sg83
g2932
sg76
(lp2948
g69
(g70
g71
NtRp2949
(dp2950
g74
(dp2951
g82
I3
ssg83
g2945
sg76
(lp2952
S'<cStringIO.StringO object at 0x7fb44045a148>'
p2953
asbasbasbag69
(g85
g71
NtRp2954
(dp2955
g74
(dp2956
sg83
g2485
sg76
(lp2957
g69
(g90
g71
NtRp2958
(dp2959
g74
(dp2960
g94
g95
ssg83
g2954
sg76
(lp2961
S'wsgi.multiprocess'
p2962
asbag69
(g90
g71
NtRp2963
(dp2964
g74
(dp2965
g101
g102
ssg83
g2954
sg76
(lp2966
S':'
asbag69
(g90
g71
NtRp2967
(dp2968
g74
(dp2969
sg83
g2954
sg76
(lp2970
g69
(g70
g71
NtRp2971
(dp2972
g74
(dp2973
g82
I3
ssg83
g2967
sg76
(lp2974
g112
asbasbasbag69
(g85
g71
NtRp2975
(dp2976
g74
(dp2977
sg83
g2485
sg76
(lp2978
g69
(g90
g71
NtRp2979
(dp2980
g74
(dp2981
g94
g95
ssg83
g2975
sg76
(lp2982
S'wsgi.multithread'
p2983
asbag69
(g90
g71
NtRp2984
(dp2985
g74
(dp2986
g101
g102
ssg83
g2975
sg76
(lp2987
S':'
asbag69
(g90
g71
NtRp2988
(dp2989
g74
(dp2990
sg83
g2975
sg76
(lp2991
g69
(g70
g71
NtRp2992
(dp2993
g74
(dp2994
g82
I3
ssg83
g2988
sg76
(lp2995
g1715
asbasbasbag69
(g85
g71
NtRp2996
(dp2997
g74
(dp2998
sg83
g2485
sg76
(lp2999
g69
(g90
g71
NtRp3000
(dp3001
g74
(dp3002
g94
g95
ssg83
g2996
sg76
(lp3003
S'wsgi.run_once'
p3004
asbag69
(g90
g71
NtRp3005
(dp3006
g74
(dp3007
g101
g102
ssg83
g2996
sg76
(lp3008
S':'
asbag69
(g90
g71
NtRp3009
(dp3010
g74
(dp3011
sg83
g2996
sg76
(lp3012
g69
(g70
g71
NtRp3013
(dp3014
g74
(dp3015
g82
I3
ssg83
g3009
sg76
(lp3016
g112
asbasbasbag69
(g85
g71
NtRp3017
(dp3018
g74
(dp3019
sg83
g2485
sg76
(lp3020
g69
(g90
g71
NtRp3021
(dp3022
g74
(dp3023
g94
g95
ssg83
g3017
sg76
(lp3024
S'wsgi.url_scheme'
p3025
asbag69
(g90
g71
NtRp3026
(dp3027
g74
(dp3028
g101
g102
ssg83
g3017
sg76
(lp3029
S':'
asbag69
(g90
g71
NtRp3030
(dp3031
g74
(dp3032
sg83
g3017
sg76
(lp3033
g69
(g70
g71
NtRp3034
(dp3035
g74
(dp3036
g82
I3
ssg83
g3030
sg76
(lp3037
g1758
asbasbasbag69
(g85
g71
NtRp3038
(dp3039
g74
(dp3040
sg83
g2485
sg76
(lp3041
g69
(g90
g71
NtRp3042
(dp3043
g74
(dp3044
g94
g95
ssg83
g3038
sg76
(lp3045
S'wsgi.version'
p3046
asbag69
(g90
g71
NtRp3047
(dp3048
g74
(dp3049
g101
g102
ssg83
g3038
sg76
(lp3050
S':'
asbag69
(g90
g71
NtRp3051
(dp3052
g74
(dp3053
sg83
g3038
sg76
(lp3054
g69
(g70
g71
NtRp3055
(dp3056
g74
(dp3057
g82
I3
ssg83
g3051
sg76
(lp3058
S'1'
asbasbasbasbasbasbasbasbasbasbasbasbasbsS'frames'
p3059
(lp3060
(dp3061
S'file'
p3062
S'/usr/lib/pymodules/python2.7/gluon/restricted.py'
p3063
sS'dump'
p3064
(dp3065
S'code'
p3066
S"'# -*- coding: utf-8 -*-\\n# this file is released ...n locals()\\n\\n\\n\\nresponse._vars=response._caller(l)\\n'"
p3067
sS'layer'
p3068
S"'/home/jigar/web2py/applications/app1/controllers/default.py'"
p3069
sS'global compile2'
p3070
S'<function compile2>'
p3071
sS'ccode'
p3072
S'undefined'
p3073
ssS'lnum'
p3074
I203
sS'lines'
p3075
(dp3076
I198
S"    environment['__file__'] = layer"
p3077
sI199
S'    try:'
p3078
sI200
S'        if type(code) == types.CodeType:'
p3079
sI201
S'            ccode = code'
p3080
sI202
S'        else:'
p3081
sI203
S'            ccode = compile2(code,layer)'
p3082
sI204
S'        exec ccode in environment'
p3083
sI205
S'    except HTTP:'
p3084
sI206
S'        raise'
p3085
sI207
S'    except RestrictedError:'
p3086
ssS'call'
p3087
S"(code='# -*- coding: utf-8 -*-\\n# this file is released ...n locals()\\n\\n\\n\\nresponse._vars=response._caller(l)\\n', environment={'A': <class 'gluon.html.A'>, 'Auth': <class 'gluon.tools.Auth'>, 'B': <class 'gluon.html.B'>, 'BEAUTIFY': <class 'gluon.html.BEAUTIFY'>, 'BODY': <class 'gluon.html.BODY'>, 'BR': <class 'gluon.html.BR'>, 'BUTTON': <class 'gluon.html.BUTTON'>, 'CAT': <class 'gluon.html.CAT'>, 'CENTER': <class 'gluon.html.CENTER'>, 'CLEANUP': <class 'gluon.validators.CLEANUP'>, ...}, layer='/home/jigar/web2py/applications/app1/controllers/default.py')"
p3088
sS'func'
p3089
S'restricted'
p3090
sa(dp3091
g3062
S'/usr/lib/pymodules/python2.7/gluon/restricted.py'
p3092
sg3064
(dp3093
S'builtincompile'
p3094
S'<built-in function compile>'
p3095
sS'code'
p3096
S"'# -*- coding: utf-8 -*-\\n# this file is released ...n locals()\\n\\n\\n\\nresponse._vars=response._caller(l)\\n'"
p3097
sS'code.rstrip'
p3098
S'<built-in method rstrip of str object>'
p3099
sS').replace'
p3100
g3073
sS'layer'
p3101
S"'/home/jigar/web2py/applications/app1/controllers/default.py'"
p3102
ssg3074
I189
sg3075
(dp3103
I192
S'    """'
p3104
sI193
S'    runs code in environment and returns the output. if an exception occurs'
p3105
sI184
S''
sI185
S'def compile2(code,layer):'
p3106
sI186
S'    """'
p3107
sI187
S"    The +'\\n' is necessary else compile fails when code ends in a comment."
p3108
sI188
S'    """'
p3109
sI189
S"    return compile(code.rstrip().replace('\\r\\n','\\n')+'\\n', layer, 'exec')"
p3110
sI190
S''
sI191
S"def restricted(code, environment=None, layer='Unknown'):"
p3111
ssg3087
S"(code='# -*- coding: utf-8 -*-\\n# this file is released ...n locals()\\n\\n\\n\\nresponse._vars=response._caller(l)\\n', layer='/home/jigar/web2py/applications/app1/controllers/default.py')"
p3112
sg3089
S'compile2'
p3113
sasS'pyver'
p3114
S'Python 2.7.3: /usr/bin/python'
p3115
sS'session'
p3116
g69
(g70
g71
NtRp3117
(dp3118
g74
(dp3119
sg76
(lp3120
g69
(g78
g71
NtRp3121
(dp3122
g74
(dp3123
g82
I5
ssg83
Nsg76
(lp3124
g69
(g85
g71
NtRp3125
(dp3126
g74
(dp3127
sg83
g3121
sg76
(lp3128
g69
(g90
g71
NtRp3129
(dp3130
g74
(dp3131
g94
g95
ssg83
g3125
sg76
(lp3132
S'auth'
p3133
asbag69
(g90
g71
NtRp3134
(dp3135
g74
(dp3136
g101
g102
ssg83
g3125
sg76
(lp3137
S':'
asbag69
(g90
g71
NtRp3138
(dp3139
g74
(dp3140
sg83
g3125
sg76
(lp3141
g69
(g70
g71
NtRp3142
(dp3143
g74
(dp3144
g82
I5
ssg83
g3138
sg76
(lp3145
g69
(g78
g71
NtRp3146
(dp3147
g74
(dp3148
g82
I4
ssg83
Nsg76
(lp3149
g69
(g85
g71
NtRp3150
(dp3151
g74
(dp3152
sg83
g3146
sg76
(lp3153
g69
(g90
g71
NtRp3154
(dp3155
g74
(dp3156
g94
g95
ssg83
g3150
sg76
(lp3157
S'expiration'
p3158
asbag69
(g90
g71
NtRp3159
(dp3160
g74
(dp3161
g101
g102
ssg83
g3150
sg76
(lp3162
S':'
asbag69
(g90
g71
NtRp3163
(dp3164
g74
(dp3165
sg83
g3150
sg76
(lp3166
g69
(g70
g71
NtRp3167
(dp3168
g74
(dp3169
g82
I4
ssg83
g3163
sg76
(lp3170
S'2592000'
p3171
asbasbasbag69
(g85
g71
NtRp3172
(dp3173
g74
(dp3174
sg83
g3146
sg76
(lp3175
g69
(g90
g71
NtRp3176
(dp3177
g74
(dp3178
g94
g95
ssg83
g3172
sg76
(lp3179
S'hmac_key'
p3180
asbag69
(g90
g71
NtRp3181
(dp3182
g74
(dp3183
g101
g102
ssg83
g3172
sg76
(lp3184
S':'
asbag69
(g90
g71
NtRp3185
(dp3186
g74
(dp3187
sg83
g3172
sg76
(lp3188
g69
(g70
g71
NtRp3189
(dp3190
g74
(dp3191
g82
I4
ssg83
g3185
sg76
(lp3192
S'4a30d51c-691f-4b81-bf9a-7f6d78f50333'
p3193
asbasbasbag69
(g85
g71
NtRp3194
(dp3195
g74
(dp3196
sg83
g3146
sg76
(lp3197
g69
(g90
g71
NtRp3198
(dp3199
g74
(dp3200
g94
g95
ssg83
g3194
sg76
(lp3201
S'last_visit'
p3202
asbag69
(g90
g71
NtRp3203
(dp3204
g74
(dp3205
g101
g102
ssg83
g3194
sg76
(lp3206
S':'
asbag69
(g90
g71
NtRp3207
(dp3208
g74
(dp3209
sg83
g3194
sg76
(lp3210
g69
(g70
g71
NtRp3211
(dp3212
g74
(dp3213
g82
I4
ssg83
g3207
sg76
(lp3214
S'datetime.datetime(2013, 9, 1, 17, 25, 25, 945654)'
p3215
asbasbasbag69
(g85
g71
NtRp3216
(dp3217
g74
(dp3218
sg83
g3146
sg76
(lp3219
g69
(g90
g71
NtRp3220
(dp3221
g74
(dp3222
g94
g95
ssg83
g3216
sg76
(lp3223
S'remember'
p3224
asbag69
(g90
g71
NtRp3225
(dp3226
g74
(dp3227
g101
g102
ssg83
g3216
sg76
(lp3228
S':'
asbag69
(g90
g71
NtRp3229
(dp3230
g74
(dp3231
sg83
g3216
sg76
(lp3232
g69
(g70
g71
NtRp3233
(dp3234
g74
(dp3235
g82
I4
ssg83
g3229
sg76
(lp3236
g112
asbasbasbag69
(g85
g71
NtRp3237
(dp3238
g74
(dp3239
sg83
g3146
sg76
(lp3240
g69
(g90
g71
NtRp3241
(dp3242
g74
(dp3243
g94
g95
ssg83
g3237
sg76
(lp3244
S'user'
p3245
asbag69
(g90
g71
NtRp3246
(dp3247
g74
(dp3248
g101
g102
ssg83
g3237
sg76
(lp3249
S':'
asbag69
(g90
g71
NtRp3250
(dp3251
g74
(dp3252
sg83
g3237
sg76
(lp3253
g69
(g70
g71
NtRp3254
(dp3255
g74
(dp3256
g82
I4
ssg83
g3250
sg76
(lp3257
g69
(g78
g71
NtRp3258
(dp3259
g74
(dp3260
g82
I3
ssg83
Nsg76
(lp3261
g69
(g85
g71
NtRp3262
(dp3263
g74
(dp3264
sg83
g3258
sg76
(lp3265
g69
(g90
g71
NtRp3266
(dp3267
g74
(dp3268
g94
g95
ssg83
g3262
sg76
(lp3269
S'City'
p3270
asbag69
(g90
g71
NtRp3271
(dp3272
g74
(dp3273
g101
g102
ssg83
g3262
sg76
(lp3274
S':'
asbag69
(g90
g71
NtRp3275
(dp3276
g74
(dp3277
sg83
g3262
sg76
(lp3278
g69
(g70
g71
NtRp3279
(dp3280
g74
(dp3281
g82
I3
ssg83
g3275
sg76
(lp3282
S'Vadodara'
p3283
asbasbasbag69
(g85
g71
NtRp3284
(dp3285
g74
(dp3286
sg83
g3258
sg76
(lp3287
g69
(g90
g71
NtRp3288
(dp3289
g74
(dp3290
g94
g95
ssg83
g3284
sg76
(lp3291
S'Member_type'
p3292
asbag69
(g90
g71
NtRp3293
(dp3294
g74
(dp3295
g101
g102
ssg83
g3284
sg76
(lp3296
S':'
asbag69
(g90
g71
NtRp3297
(dp3298
g74
(dp3299
sg83
g3284
sg76
(lp3300
g69
(g70
g71
NtRp3301
(dp3302
g74
(dp3303
g82
I3
ssg83
g3297
sg76
(lp3304
S'Admin'
p3305
asbasbasbag69
(g85
g71
NtRp3306
(dp3307
g74
(dp3308
sg83
g3258
sg76
(lp3309
g69
(g90
g71
NtRp3310
(dp3311
g74
(dp3312
g94
g95
ssg83
g3306
sg76
(lp3313
S'Profile_Pic'
p3314
asbag69
(g90
g71
NtRp3315
(dp3316
g74
(dp3317
g101
g102
ssg83
g3306
sg76
(lp3318
S':'
asbag69
(g90
g71
NtRp3319
(dp3320
g74
(dp3321
sg83
g3306
sg76
(lp3322
g69
(g70
g71
NtRp3323
(dp3324
g74
(dp3325
g82
I3
ssg83
g3319
sg76
(lp3326
S'auth_user.Profile_Pic.ae49517be24fd41d.53637265656e73686f742066726f6d20323031332d30382d31312032333a30313a35342e706e67.png'
p3327
asbasbasbag69
(g85
g71
NtRp3328
(dp3329
g74
(dp3330
sg83
g3258
sg76
(lp3331
g69
(g90
g71
NtRp3332
(dp3333
g74
(dp3334
g94
g95
ssg83
g3328
sg76
(lp3335
S'email'
p3336
asbag69
(g90
g71
NtRp3337
(dp3338
g74
(dp3339
g101
g102
ssg83
g3328
sg76
(lp3340
S':'
asbag69
(g90
g71
NtRp3341
(dp3342
g74
(dp3343
sg83
g3328
sg76
(lp3344
g69
(g70
g71
NtRp3345
(dp3346
g74
(dp3347
g82
I3
ssg83
g3341
sg76
(lp3348
S'jigar.thakkar@students.iiit.ac.in'
p3349
asbasbasbag69
(g85
g71
NtRp3350
(dp3351
g74
(dp3352
sg83
g3258
sg76
(lp3353
g69
(g90
g71
NtRp3354
(dp3355
g74
(dp3356
g94
g95
ssg83
g3350
sg76
(lp3357
S'first_name'
p3358
asbag69
(g90
g71
NtRp3359
(dp3360
g74
(dp3361
g101
g102
ssg83
g3350
sg76
(lp3362
S':'
asbag69
(g90
g71
NtRp3363
(dp3364
g74
(dp3365
sg83
g3350
sg76
(lp3366
g69
(g70
g71
NtRp3367
(dp3368
g74
(dp3369
g82
I3
ssg83
g3363
sg76
(lp3370
S'Jigar'
p3371
asbasbasbag69
(g85
g71
NtRp3372
(dp3373
g74
(dp3374
sg83
g3258
sg76
(lp3375
g69
(g90
g71
NtRp3376
(dp3377
g74
(dp3378
g94
g95
ssg83
g3372
sg76
(lp3379
S'id'
p3380
asbag69
(g90
g71
NtRp3381
(dp3382
g74
(dp3383
g101
g102
ssg83
g3372
sg76
(lp3384
S':'
asbag69
(g90
g71
NtRp3385
(dp3386
g74
(dp3387
sg83
g3372
sg76
(lp3388
g69
(g70
g71
NtRp3389
(dp3390
g74
(dp3391
g82
I3
ssg83
g3385
sg76
(lp3392
S'1'
asbasbasbag69
(g85
g71
NtRp3393
(dp3394
g74
(dp3395
sg83
g3258
sg76
(lp3396
g69
(g90
g71
NtRp3397
(dp3398
g74
(dp3399
g94
g95
ssg83
g3393
sg76
(lp3400
S'last_name'
p3401
asbag69
(g90
g71
NtRp3402
(dp3403
g74
(dp3404
g101
g102
ssg83
g3393
sg76
(lp3405
S':'
asbag69
(g90
g71
NtRp3406
(dp3407
g74
(dp3408
sg83
g3393
sg76
(lp3409
g69
(g70
g71
NtRp3410
(dp3411
g74
(dp3412
g82
I3
ssg83
g3406
sg76
(lp3413
S'Thakkar'
p3414
asbasbasbag69
(g85
g71
NtRp3415
(dp3416
g74
(dp3417
sg83
g3258
sg76
(lp3418
g69
(g90
g71
NtRp3419
(dp3420
g74
(dp3421
g94
g95
ssg83
g3415
sg76
(lp3422
S'password'
p3423
asbag69
(g90
g71
NtRp3424
(dp3425
g74
(dp3426
g101
g102
ssg83
g3415
sg76
(lp3427
S':'
asbag69
(g90
g71
NtRp3428
(dp3429
g74
(dp3430
sg83
g3415
sg76
(lp3431
g69
(g70
g71
NtRp3432
(dp3433
g74
(dp3434
g82
I3
ssg83
g3428
sg76
(lp3435
S'5d8c8afe4854a5830a3fd1282cfa4eff'
p3436
asbasbasbag69
(g85
g71
NtRp3437
(dp3438
g74
(dp3439
sg83
g3258
sg76
(lp3440
g69
(g90
g71
NtRp3441
(dp3442
g74
(dp3443
g94
g95
ssg83
g3437
sg76
(lp3444
S'registration_id'
p3445
asbag69
(g90
g71
NtRp3446
(dp3447
g74
(dp3448
g101
g102
ssg83
g3437
sg76
(lp3449
S':'
asbag69
(g90
g71
NtRp3450
(dp3451
g74
(dp3452
sg83
g3437
sg76
(lp3453
g69
(g70
g71
NtRp3454
(dp3455
g74
(dp3456
g82
I3
ssg83
g3450
sg76
(lp3457
S''
asbasbasbag69
(g85
g71
NtRp3458
(dp3459
g74
(dp3460
sg83
g3258
sg76
(lp3461
g69
(g90
g71
NtRp3462
(dp3463
g74
(dp3464
g94
g95
ssg83
g3458
sg76
(lp3465
S'registration_key'
p3466
asbag69
(g90
g71
NtRp3467
(dp3468
g74
(dp3469
g101
g102
ssg83
g3458
sg76
(lp3470
S':'
asbag69
(g90
g71
NtRp3471
(dp3472
g74
(dp3473
sg83
g3458
sg76
(lp3474
g69
(g70
g71
NtRp3475
(dp3476
g74
(dp3477
g82
I3
ssg83
g3471
sg76
(lp3478
S''
asbasbasbag69
(g85
g71
NtRp3479
(dp3480
g74
(dp3481
sg83
g3258
sg76
(lp3482
g69
(g90
g71
NtRp3483
(dp3484
g74
(dp3485
g94
g95
ssg83
g3479
sg76
(lp3486
S'reset_password_key'
p3487
asbag69
(g90
g71
NtRp3488
(dp3489
g74
(dp3490
g101
g102
ssg83
g3479
sg76
(lp3491
S':'
asbag69
(g90
g71
NtRp3492
(dp3493
g74
(dp3494
sg83
g3479
sg76
(lp3495
g69
(g70
g71
NtRp3496
(dp3497
g74
(dp3498
g82
I3
ssg83
g3492
sg76
(lp3499
S''
asbasbasbasbasbasbasbasbasbasbasbasbasbsS'etype'
p3500
S"<type 'exceptions.SyntaxError'>"
p3501
sS'date'
p3502
S'Sun Sep  1 18:40:51 2013'
p3503
sS'response'
p3504
g69
(g70
g71
NtRp3505
(dp3506
g74
(dp3507
sg76
(lp3508
g69
(g78
g71
NtRp3509
(dp3510
g74
(dp3511
g82
I5
ssg83
Nsg76
(lp3512
g69
(g85
g71
NtRp3513
(dp3514
g74
(dp3515
sg83
g3509
sg76
(lp3516
g69
(g90
g71
NtRp3517
(dp3518
g74
(dp3519
g94
g95
ssg83
g3513
sg76
(lp3520
g192
asbag69
(g90
g71
NtRp3521
(dp3522
g74
(dp3523
g101
g102
ssg83
g3513
sg76
(lp3524
S':'
asbag69
(g90
g71
NtRp3525
(dp3526
g74
(dp3527
sg83
g3513
sg76
(lp3528
g69
(g70
g71
NtRp3529
(dp3530
g74
(dp3531
g82
I5
ssg83
g3525
sg76
(lp3532
S'<cStringIO.StringO object at 0x7fb44043cd50>'
p3533
asbasbasbag69
(g85
g71
NtRp3534
(dp3535
g74
(dp3536
sg83
g3509
sg76
(lp3537
g69
(g90
g71
NtRp3538
(dp3539
g74
(dp3540
g94
g95
ssg83
g3534
sg76
(lp3541
g258
asbag69
(g90
g71
NtRp3542
(dp3543
g74
(dp3544
g101
g102
ssg83
g3534
sg76
(lp3545
S':'
asbag69
(g90
g71
NtRp3546
(dp3547
g74
(dp3548
sg83
g3534
sg76
(lp3549
g69
(g70
g71
NtRp3550
(dp3551
g74
(dp3552
g82
I5
ssg83
g3546
sg76
(lp3553
g69
(g78
g71
NtRp3554
(dp3555
g74
(dp3556
g82
I4
ssg83
Nsg76
(lp3557
g69
(g85
g71
NtRp3558
(dp3559
g74
(dp3560
sg83
g3554
sg76
(lp3561
g69
(g90
g71
NtRp3562
(dp3563
g74
(dp3564
g94
g95
ssg83
g3558
sg76
(lp3565
S'session_id_app1'
p3566
asbag69
(g90
g71
NtRp3567
(dp3568
g74
(dp3569
g101
g102
ssg83
g3558
sg76
(lp3570
S':'
asbag69
(g90
g71
NtRp3571
(dp3572
g74
(dp3573
sg83
g3558
sg76
(lp3574
g69
(g70
g71
NtRp3575
(dp3576
g74
(dp3577
g82
I4
ssg83
g3571
sg76
(lp3578
g69
(g78
g71
NtRp3579
(dp3580
g74
(dp3581
g82
I3
ssg83
Nsg76
(lp3582
g69
(g85
g71
NtRp3583
(dp3584
g74
(dp3585
sg83
g3579
sg76
(lp3586
g69
(g90
g71
NtRp3587
(dp3588
g74
(dp3589
g94
g95
ssg83
g3583
sg76
(lp3590
g308
asbag69
(g90
g71
NtRp3591
(dp3592
g74
(dp3593
g101
g102
ssg83
g3583
sg76
(lp3594
S':'
asbag69
(g90
g71
NtRp3595
(dp3596
g74
(dp3597
sg83
g3583
sg76
(lp3598
g69
(g70
g71
NtRp3599
(dp3600
g74
(dp3601
g82
I3
ssg83
g3595
sg76
(lp3602
S''
asbasbasbag69
(g85
g71
NtRp3603
(dp3604
g74
(dp3605
sg83
g3579
sg76
(lp3606
g69
(g90
g71
NtRp3607
(dp3608
g74
(dp3609
g94
g95
ssg83
g3603
sg76
(lp3610
g329
asbag69
(g90
g71
NtRp3611
(dp3612
g74
(dp3613
g101
g102
ssg83
g3603
sg76
(lp3614
S':'
asbag69
(g90
g71
NtRp3615
(dp3616
g74
(dp3617
sg83
g3603
sg76
(lp3618
g69
(g70
g71
NtRp3619
(dp3620
g74
(dp3621
g82
I3
ssg83
g3615
sg76
(lp3622
S''
asbasbasbag69
(g85
g71
NtRp3623
(dp3624
g74
(dp3625
sg83
g3579
sg76
(lp3626
g69
(g90
g71
NtRp3627
(dp3628
g74
(dp3629
g94
g95
ssg83
g3623
sg76
(lp3630
g350
asbag69
(g90
g71
NtRp3631
(dp3632
g74
(dp3633
g101
g102
ssg83
g3623
sg76
(lp3634
S':'
asbag69
(g90
g71
NtRp3635
(dp3636
g74
(dp3637
sg83
g3623
sg76
(lp3638
g69
(g70
g71
NtRp3639
(dp3640
g74
(dp3641
g82
I3
ssg83
g3635
sg76
(lp3642
S''
asbasbasbag69
(g85
g71
NtRp3643
(dp3644
g74
(dp3645
sg83
g3579
sg76
(lp3646
g69
(g90
g71
NtRp3647
(dp3648
g74
(dp3649
g94
g95
ssg83
g3643
sg76
(lp3650
g371
asbag69
(g90
g71
NtRp3651
(dp3652
g74
(dp3653
g101
g102
ssg83
g3643
sg76
(lp3654
S':'
asbag69
(g90
g71
NtRp3655
(dp3656
g74
(dp3657
sg83
g3643
sg76
(lp3658
g69
(g70
g71
NtRp3659
(dp3660
g74
(dp3661
g82
I3
ssg83
g3655
sg76
(lp3662
S''
asbasbasbag69
(g85
g71
NtRp3663
(dp3664
g74
(dp3665
sg83
g3579
sg76
(lp3666
g69
(g90
g71
NtRp3667
(dp3668
g74
(dp3669
g94
g95
ssg83
g3663
sg76
(lp3670
g392
asbag69
(g90
g71
NtRp3671
(dp3672
g74
(dp3673
g101
g102
ssg83
g3663
sg76
(lp3674
S':'
asbag69
(g90
g71
NtRp3675
(dp3676
g74
(dp3677
sg83
g3663
sg76
(lp3678
g69
(g70
g71
NtRp3679
(dp3680
g74
(dp3681
g82
I3
ssg83
g3675
sg76
(lp3682
S''
asbasbasbag69
(g85
g71
NtRp3683
(dp3684
g74
(dp3685
sg83
g3579
sg76
(lp3686
g69
(g90
g71
NtRp3687
(dp3688
g74
(dp3689
g94
g95
ssg83
g3683
sg76
(lp3690
g413
asbag69
(g90
g71
NtRp3691
(dp3692
g74
(dp3693
g101
g102
ssg83
g3683
sg76
(lp3694
S':'
asbag69
(g90
g71
NtRp3695
(dp3696
g74
(dp3697
sg83
g3683
sg76
(lp3698
g69
(g70
g71
NtRp3699
(dp3700
g74
(dp3701
g82
I3
ssg83
g3695
sg76
(lp3702
S'/'
asbasbasbag69
(g85
g71
NtRp3703
(dp3704
g74
(dp3705
sg83
g3579
sg76
(lp3706
g69
(g90
g71
NtRp3707
(dp3708
g74
(dp3709
g94
g95
ssg83
g3703
sg76
(lp3710
g434
asbag69
(g90
g71
NtRp3711
(dp3712
g74
(dp3713
g101
g102
ssg83
g3703
sg76
(lp3714
S':'
asbag69
(g90
g71
NtRp3715
(dp3716
g74
(dp3717
sg83
g3703
sg76
(lp3718
g69
(g70
g71
NtRp3719
(dp3720
g74
(dp3721
g82
I3
ssg83
g3715
sg76
(lp3722
S''
asbasbasbag69
(g85
g71
NtRp3723
(dp3724
g74
(dp3725
sg83
g3579
sg76
(lp3726
g69
(g90
g71
NtRp3727
(dp3728
g74
(dp3729
g94
g95
ssg83
g3723
sg76
(lp3730
g455
asbag69
(g90
g71
NtRp3731
(dp3732
g74
(dp3733
g101
g102
ssg83
g3723
sg76
(lp3734
S':'
asbag69
(g90
g71
NtRp3735
(dp3736
g74
(dp3737
sg83
g3723
sg76
(lp3738
g69
(g70
g71
NtRp3739
(dp3740
g74
(dp3741
g82
I3
ssg83
g3735
sg76
(lp3742
S''
asbasbasbasbasbasbasbasbasbasbasbag69
(g85
g71
NtRp3743
(dp3744
g74
(dp3745
sg83
g3509
sg76
(lp3746
g69
(g90
g71
NtRp3747
(dp3748
g74
(dp3749
g94
g95
ssg83
g3743
sg76
(lp3750
S'files'
p3751
asbag69
(g90
g71
NtRp3752
(dp3753
g74
(dp3754
g101
g102
ssg83
g3743
sg76
(lp3755
S':'
asbag69
(g90
g71
NtRp3756
(dp3757
g74
(dp3758
sg83
g3743
sg76
(lp3759
g69
(g70
g71
NtRp3760
(dp3761
g74
(dp3762
g82
I5
ssg83
g3756
sg76
(lp3763
g69
(g78
g71
NtRp3764
(dp3765
g74
(dp3766
g82
I4
ssg83
Nsg76
(lp3767
sbasbasbasbag69
(g85
g71
NtRp3768
(dp3769
g74
(dp3770
sg83
g3509
sg76
(lp3771
g69
(g90
g71
NtRp3772
(dp3773
g74
(dp3774
g94
g95
ssg83
g3768
sg76
(lp3775
S'flash'
p3776
asbag69
(g90
g71
NtRp3777
(dp3778
g74
(dp3779
g101
g102
ssg83
g3768
sg76
(lp3780
S':'
asbag69
(g90
g71
NtRp3781
(dp3782
g74
(dp3783
sg83
g3768
sg76
(lp3784
g69
(g70
g71
NtRp3785
(dp3786
g74
(dp3787
g82
I5
ssg83
g3781
sg76
(lp3788
S''
asbasbasbag69
(g85
g71
NtRp3789
(dp3790
g74
(dp3791
sg83
g3509
sg76
(lp3792
g69
(g90
g71
NtRp3793
(dp3794
g74
(dp3795
g94
g95
ssg83
g3789
sg76
(lp3796
S'generic_patterns'
p3797
asbag69
(g90
g71
NtRp3798
(dp3799
g74
(dp3800
g101
g102
ssg83
g3789
sg76
(lp3801
S':'
asbag69
(g90
g71
NtRp3802
(dp3803
g74
(dp3804
sg83
g3789
sg76
(lp3805
g69
(g70
g71
NtRp3806
(dp3807
g74
(dp3808
g82
I5
ssg83
g3802
sg76
(lp3809
g69
(g78
g71
NtRp3810
(dp3811
g74
(dp3812
g82
I4
ssg83
Nsg76
(lp3813
g69
(g85
g71
NtRp3814
(dp3815
g74
(dp3816
sg83
g3810
sg76
(lp3817
g69
(g90
g71
NtRp3818
(dp3819
g74
(dp3820
sg83
g3814
sg76
(lp3821
g69
(g70
g71
NtRp3822
(dp3823
g74
(dp3824
g82
I4
ssg83
g3818
sg76
(lp3825
S'*'
asbasbasbasbasbasbasbag69
(g85
g71
NtRp3826
(dp3827
g74
(dp3828
sg83
g3509
sg76
(lp3829
g69
(g90
g71
NtRp3830
(dp3831
g74
(dp3832
g94
g95
ssg83
g3826
sg76
(lp3833
S'headers'
p3834
asbag69
(g90
g71
NtRp3835
(dp3836
g74
(dp3837
g101
g102
ssg83
g3826
sg76
(lp3838
S':'
asbag69
(g90
g71
NtRp3839
(dp3840
g74
(dp3841
sg83
g3826
sg76
(lp3842
g69
(g70
g71
NtRp3843
(dp3844
g74
(dp3845
g82
I5
ssg83
g3839
sg76
(lp3846
g69
(g78
g71
NtRp3847
(dp3848
g74
(dp3849
g82
I4
ssg83
Nsg76
(lp3850
g69
(g85
g71
NtRp3851
(dp3852
g74
(dp3853
sg83
g3847
sg76
(lp3854
g69
(g90
g71
NtRp3855
(dp3856
g74
(dp3857
g94
g95
ssg83
g3851
sg76
(lp3858
S'Cache-Control'
p3859
asbag69
(g90
g71
NtRp3860
(dp3861
g74
(dp3862
g101
g102
ssg83
g3851
sg76
(lp3863
S':'
asbag69
(g90
g71
NtRp3864
(dp3865
g74
(dp3866
sg83
g3851
sg76
(lp3867
g69
(g70
g71
NtRp3868
(dp3869
g74
(dp3870
g82
I4
ssg83
g3864
sg76
(lp3871
S'no-store, no-cache, must-revalidate, post-check=0, pre-check=0'
p3872
asbasbasbag69
(g85
g71
NtRp3873
(dp3874
g74
(dp3875
sg83
g3847
sg76
(lp3876
g69
(g90
g71
NtRp3877
(dp3878
g74
(dp3879
g94
g95
ssg83
g3873
sg76
(lp3880
S'Content-Type'
p3881
asbag69
(g90
g71
NtRp3882
(dp3883
g74
(dp3884
g101
g102
ssg83
g3873
sg76
(lp3885
S':'
asbag69
(g90
g71
NtRp3886
(dp3887
g74
(dp3888
sg83
g3873
sg76
(lp3889
g69
(g70
g71
NtRp3890
(dp3891
g74
(dp3892
g82
I4
ssg83
g3886
sg76
(lp3893
S'text/html; charset=utf-8'
p3894
asbasbasbag69
(g85
g71
NtRp3895
(dp3896
g74
(dp3897
sg83
g3847
sg76
(lp3898
g69
(g90
g71
NtRp3899
(dp3900
g74
(dp3901
g94
g95
ssg83
g3895
sg76
(lp3902
S'Expires'
p3903
asbag69
(g90
g71
NtRp3904
(dp3905
g74
(dp3906
g101
g102
ssg83
g3895
sg76
(lp3907
S':'
asbag69
(g90
g71
NtRp3908
(dp3909
g74
(dp3910
sg83
g3895
sg76
(lp3911
g69
(g70
g71
NtRp3912
(dp3913
g74
(dp3914
g82
I4
ssg83
g3908
sg76
(lp3915
S'Sun, 01 Sep 2013 13:10:51 GMT'
p3916
asbasbasbag69
(g85
g71
NtRp3917
(dp3918
g74
(dp3919
sg83
g3847
sg76
(lp3920
g69
(g90
g71
NtRp3921
(dp3922
g74
(dp3923
g94
g95
ssg83
g3917
sg76
(lp3924
S'Pragma'
p3925
asbag69
(g90
g71
NtRp3926
(dp3927
g74
(dp3928
g101
g102
ssg83
g3917
sg76
(lp3929
S':'
asbag69
(g90
g71
NtRp3930
(dp3931
g74
(dp3932
sg83
g3917
sg76
(lp3933
g69
(g70
g71
NtRp3934
(dp3935
g74
(dp3936
g82
I4
ssg83
g3930
sg76
(lp3937
S'no-cache'
p3938
asbasbasbag69
(g85
g71
NtRp3939
(dp3940
g74
(dp3941
sg83
g3847
sg76
(lp3942
g69
(g90
g71
NtRp3943
(dp3944
g74
(dp3945
g94
g95
ssg83
g3939
sg76
(lp3946
S'X-Powered-By'
p3947
asbag69
(g90
g71
NtRp3948
(dp3949
g74
(dp3950
g101
g102
ssg83
g3939
sg76
(lp3951
S':'
asbag69
(g90
g71
NtRp3952
(dp3953
g74
(dp3954
sg83
g3939
sg76
(lp3955
g69
(g70
g71
NtRp3956
(dp3957
g74
(dp3958
g82
I4
ssg83
g3952
sg76
(lp3959
S'web2py'
p3960
asbasbasbasbasbasbasbag69
(g85
g71
NtRp3961
(dp3962
g74
(dp3963
sg83
g3509
sg76
(lp3964
g69
(g90
g71
NtRp3965
(dp3966
g74
(dp3967
g94
g95
ssg83
g3961
sg76
(lp3968
S'menu'
p3969
asbag69
(g90
g71
NtRp3970
(dp3971
g74
(dp3972
g101
g102
ssg83
g3961
sg76
(lp3973
S':'
asbag69
(g90
g71
NtRp3974
(dp3975
g74
(dp3976
sg83
g3961
sg76
(lp3977
g69
(g70
g71
NtRp3978
(dp3979
g74
(dp3980
g82
I5
ssg83
g3974
sg76
(lp3981
g69
(g78
g71
NtRp3982
(dp3983
g74
(dp3984
g82
I4
ssg83
Nsg76
(lp3985
g69
(g85
g71
NtRp3986
(dp3987
g74
(dp3988
sg83
g3982
sg76
(lp3989
g69
(g90
g71
NtRp3990
(dp3991
g74
(dp3992
sg83
g3986
sg76
(lp3993
g69
(g70
g71
NtRp3994
(dp3995
g74
(dp3996
g82
I4
ssg83
g3990
sg76
(lp3997
g69
(g78
g71
NtRp3998
(dp3999
g74
(dp4000
g82
I3
ssg83
Nsg76
(lp4001
g69
(g85
g71
NtRp4002
(dp4003
g74
(dp4004
sg83
g3998
sg76
(lp4005
g69
(g90
g71
NtRp4006
(dp4007
g74
(dp4008
sg83
g4002
sg76
(lp4009
g69
(g70
g71
NtRp4010
(dp4011
g74
(dp4012
g82
I3
ssg83
g4006
sg76
(lp4013
cgluon.languages
lazyT_unpickle
p4014
(S't\x04\x00\x00\x00Home'
tRp4015
asbasbasbag69
(g85
g71
NtRp4016
(dp4017
g74
(dp4018
sg83
g3998
sg76
(lp4019
g69
(g90
g71
NtRp4020
(dp4021
g74
(dp4022
sg83
g4016
sg76
(lp4023
g69
(g70
g71
NtRp4024
(dp4025
g74
(dp4026
g82
I3
ssg83
g4020
sg76
(lp4027
g112
asbasbasbag69
(g85
g71
NtRp4028
(dp4029
g74
(dp4030
sg83
g3998
sg76
(lp4031
g69
(g90
g71
NtRp4032
(dp4033
g74
(dp4034
sg83
g4028
sg76
(lp4035
g69
(g70
g71
NtRp4036
(dp4037
g74
(dp4038
g82
I3
ssg83
g4032
sg76
(lp4039
S'/app1/default/index'
p4040
asbasbasbag69
(g85
g71
NtRp4041
(dp4042
g74
(dp4043
sg83
g3998
sg76
(lp4044
g69
(g90
g71
NtRp4045
(dp4046
g74
(dp4047
sg83
g4041
sg76
(lp4048
g69
(g70
g71
NtRp4049
(dp4050
g74
(dp4051
g82
I3
ssg83
g4045
sg76
(lp4052
g69
(g78
g71
NtRp4053
(dp4054
g74
(dp4055
g82
I2
ssg83
Nsg76
(lp4056
sbasbasbasbasbasbasbasbag69
(g85
g71
NtRp4057
(dp4058
g74
(dp4059
sg83
g3982
sg76
(lp4060
g69
(g90
g71
NtRp4061
(dp4062
g74
(dp4063
sg83
g4057
sg76
(lp4064
g69
(g70
g71
NtRp4065
(dp4066
g74
(dp4067
g82
I4
ssg83
g4061
sg76
(lp4068
g69
(g78
g71
NtRp4069
(dp4070
g74
(dp4071
g82
I3
ssg83
Nsg76
(lp4072
g69
(g85
g71
NtRp4073
(dp4074
g74
(dp4075
sg83
g4069
sg76
(lp4076
g69
(g90
g71
NtRp4077
(dp4078
g74
(dp4079
sg83
g4073
sg76
(lp4080
g69
(g70
g71
NtRp4081
(dp4082
g74
(dp4083
g82
I3
ssg83
g4077
sg76
(lp4084
g69
(cgluon.html
SPAN
p4085
g71
NtRp4086
(dp4087
g74
(dp4088
g94
S'color:yellow'
p4089
ssg83
Nsg76
(lp4090
g3960
asbasbasbasbag69
(g85
g71
NtRp4091
(dp4092
g74
(dp4093
sg83
g4069
sg76
(lp4094
g69
(g90
g71
NtRp4095
(dp4096
g74
(dp4097
sg83
g4091
sg76
(lp4098
g69
(g70
g71
NtRp4099
(dp4100
g74
(dp4101
g82
I3
ssg83
g4095
sg76
(lp4102
g112
asbasbasbag69
(g85
g71
NtRp4103
(dp4104
g74
(dp4105
sg83
g4069
sg76
(lp4106
g69
(g90
g71
NtRp4107
(dp4108
g74
(dp4109
sg83
g4103
sg76
(lp4110
g69
(g70
g71
NtRp4111
(dp4112
g74
(dp4113
g82
I3
ssg83
g4107
sg76
(lp4114
S'None'
p4115
asbasbasbag69
(g85
g71
NtRp4116
(dp4117
g74
(dp4118
sg83
g4069
sg76
(lp4119
g69
(g90
g71
NtRp4120
(dp4121
g74
(dp4122
sg83
g4116
sg76
(lp4123
g69
(g70
g71
NtRp4124
(dp4125
g74
(dp4126
g82
I3
ssg83
g4120
sg76
(lp4127
g69
(g78
g71
NtRp4128
(dp4129
g74
(dp4130
g82
I2
ssg83
Nsg76
(lp4131
g69
(g85
g71
NtRp4132
(dp4133
g74
(dp4134
sg83
g4128
sg76
(lp4135
g69
(g90
g71
NtRp4136
(dp4137
g74
(dp4138
sg83
g4132
sg76
(lp4139
g69
(g70
g71
NtRp4140
(dp4141
g74
(dp4142
g82
I2
ssg83
g4136
sg76
(lp4143
g69
(g78
g71
NtRp4144
(dp4145
g74
(dp4146
g82
I1
ssg83
Nsg76
(lp4147
g69
(g85
g71
NtRp4148
(dp4149
g74
(dp4150
sg83
g4144
sg76
(lp4151
g69
(g90
g71
NtRp4152
(dp4153
g74
(dp4154
sg83
g4148
sg76
(lp4155
g69
(g70
g71
NtRp4156
(dp4157
g74
(dp4158
g82
I1
ssg83
g4152
sg76
(lp4159
g4014
(S's\x08\x00\x00\x00My Sites'
tRp4160
asbasbasbag69
(g85
g71
NtRp4161
(dp4162
g74
(dp4163
sg83
g4144
sg76
(lp4164
g69
(g90
g71
NtRp4165
(dp4166
g74
(dp4167
sg83
g4161
sg76
(lp4168
g69
(g70
g71
NtRp4169
(dp4170
g74
(dp4171
g82
I1
ssg83
g4165
sg76
(lp4172
I00
asbasbasbag69
(g85
g71
NtRp4173
(dp4174
g74
(dp4175
sg83
g4144
sg76
(lp4176
g69
(g90
g71
NtRp4177
(dp4178
g74
(dp4179
sg83
g4173
sg76
(lp4180
g69
(g70
g71
NtRp4181
(dp4182
g74
(dp4183
g82
I1
ssg83
g4177
sg76
(lp4184
S'/admin/default/site'
p4185
asbasbasbasbasbasbasbag69
(g85
g71
NtRp4186
(dp4187
g74
(dp4188
sg83
g4128
sg76
(lp4189
g69
(g90
g71
NtRp4190
(dp4191
g74
(dp4192
sg83
g4186
sg76
(lp4193
g69
(g70
g71
NtRp4194
(dp4195
g74
(dp4196
g82
I2
ssg83
g4190
sg76
(lp4197
g69
(g78
g71
NtRp4198
(dp4199
g74
(dp4200
g82
I1
ssg83
Nsg76
(lp4201
g69
(g85
g71
NtRp4202
(dp4203
g74
(dp4204
sg83
g4198
sg76
(lp4205
g69
(g90
g71
NtRp4206
(dp4207
g74
(dp4208
sg83
g4202
sg76
(lp4209
g69
(g70
g71
NtRp4210
(dp4211
g74
(dp4212
g82
I1
ssg83
g4206
sg76
(lp4213
g4014
(S's\x08\x00\x00\x00This App'
tRp4214
asbasbasbag69
(g85
g71
NtRp4215
(dp4216
g74
(dp4217
sg83
g4198
sg76
(lp4218
g69
(g90
g71
NtRp4219
(dp4220
g74
(dp4221
sg83
g4215
sg76
(lp4222
g69
(g70
g71
NtRp4223
(dp4224
g74
(dp4225
g82
I1
ssg83
g4219
sg76
(lp4226
I00
asbasbasbag69
(g85
g71
NtRp4227
(dp4228
g74
(dp4229
sg83
g4198
sg76
(lp4230
g69
(g90
g71
NtRp4231
(dp4232
g74
(dp4233
sg83
g4227
sg76
(lp4234
g69
(g70
g71
NtRp4235
(dp4236
g74
(dp4237
g82
I1
ssg83
g4231
sg76
(lp4238
S'/admin/default/design/app1'
p4239
asbasbasbag69
(g85
g71
NtRp4240
(dp4241
g74
(dp4242
sg83
g4198
sg76
(lp4243
g69
(g90
g71
NtRp4244
(dp4245
g74
(dp4246
sg83
g4240
sg76
(lp4247
g69
(g70
g71
NtRp4248
(dp4249
g74
(dp4250
g82
I1
ssg83
g4244
sg76
(lp4251
(lp4252
(g4014
(S't\n\x00\x00\x00Controller'
tRp4253
I00
S'/admin/default/edit/app1/controllers/default.py'
tp4254
a(g4014
(S't\x04\x00\x00\x00View'
tRp4255
I00
S'/admin/default/edit/app1/views/default/l.html'
tp4256
a(g4014
(S't\x06\x00\x00\x00Layout'
tRp4257
I00
S'/admin/default/edit/app1/views/layout.html'
tp4258
a(g4014
(S't\n\x00\x00\x00Stylesheet'
tRp4259
I00
S'/admin/default/edit/app1/static/css/web2py.css'
tp4260
a(g4014
(S's\x08\x00\x00\x00DB Model'
tRp4261
I00
S'/admin/default/edit/app1/models/db.py'
tp4262
a(g4014
(S's\n\x00\x00\x00Menu Model'
tRp4263
I00
S'/admin/default/edit/app1/models/menu.py'
tp4264
a(g4014
(S't\x08\x00\x00\x00Database'
tRp4265
I00
S'/app1/appadmin/index'
tp4266
a(g4014
(S't\x06\x00\x00\x00Errors'
tRp4267
I00
S'/admin/default/errors/app1'
tp4268
a(g4014
(S't\x05\x00\x00\x00About'
tRp4269
I00
S'/admin/default/about/app1'
tp4270
aasbasbasbasbasbasbasbag69
(g85
g71
NtRp4271
(dp4272
g74
(dp4273
sg83
g4128
sg76
(lp4274
g69
(g90
g71
NtRp4275
(dp4276
g74
(dp4277
sg83
g4271
sg76
(lp4278
g69
(g70
g71
NtRp4279
(dp4280
g74
(dp4281
g82
I2
ssg83
g4275
sg76
(lp4282
g69
(g78
g71
NtRp4283
(dp4284
g74
(dp4285
g82
I1
ssg83
Nsg76
(lp4286
g69
(g85
g71
NtRp4287
(dp4288
g74
(dp4289
sg83
g4283
sg76
(lp4290
g69
(g90
g71
NtRp4291
(dp4292
g74
(dp4293
sg83
g4287
sg76
(lp4294
g69
(g70
g71
NtRp4295
(dp4296
g74
(dp4297
g82
I1
ssg83
g4291
sg76
(lp4298
S'web2py.com'
p4299
asbasbasbag69
(g85
g71
NtRp4300
(dp4301
g74
(dp4302
sg83
g4283
sg76
(lp4303
g69
(g90
g71
NtRp4304
(dp4305
g74
(dp4306
sg83
g4300
sg76
(lp4307
g69
(g70
g71
NtRp4308
(dp4309
g74
(dp4310
g82
I1
ssg83
g4304
sg76
(lp4311
I00
asbasbasbag69
(g85
g71
NtRp4312
(dp4313
g74
(dp4314
sg83
g4283
sg76
(lp4315
g69
(g90
g71
NtRp4316
(dp4317
g74
(dp4318
sg83
g4312
sg76
(lp4319
g69
(g70
g71
NtRp4320
(dp4321
g74
(dp4322
g82
I1
ssg83
g4316
sg76
(lp4323
S'http://www.web2py.com'
p4324
asbasbasbag69
(g85
g71
NtRp4325
(dp4326
g74
(dp4327
sg83
g4283
sg76
(lp4328
g69
(g90
g71
NtRp4329
(dp4330
g74
(dp4331
sg83
g4325
sg76
(lp4332
g69
(g70
g71
NtRp4333
(dp4334
g74
(dp4335
g82
I1
ssg83
g4329
sg76
(lp4336
(lp4337
(g4014
(S't\x08\x00\x00\x00Download'
tRp4338
I00
S'http://www.web2py.com/examples/default/download'
p4339
tp4340
a(g4014
(S't\x07\x00\x00\x00Support'
tRp4341
I00
S'http://www.web2py.com/examples/default/support'
p4342
tp4343
a(g4014
(S't\x04\x00\x00\x00Demo'
tRp4344
I00
S'http://web2py.com/demo_admin'
p4345
tp4346
a(g4014
(S's\x0e\x00\x00\x00Quick Examples'
tRp4347
I00
S'http://web2py.com/examples/default/examples'
p4348
tp4349
a(g4014
(S't\x03\x00\x00\x00FAQ'
tRp4350
I00
S'http://web2py.com/AlterEgo'
p4351
tp4352
a(g4014
(S't\x06\x00\x00\x00Videos'
tRp4353
I00
S'http://www.web2py.com/examples/default/videos/'
p4354
tp4355
a(g4014
(S's\x11\x00\x00\x00Free Applications'
tRp4356
I00
S'http://web2py.com/appliances'
p4357
tp4358
a(g4014
(S't\x07\x00\x00\x00Plugins'
tRp4359
I00
S'http://web2py.com/plugins'
p4360
tp4361
a(g4014
(S't\x07\x00\x00\x00Layouts'
tRp4362
I00
S'http://web2py.com/layouts'
p4363
tp4364
a(g4014
(S't\x07\x00\x00\x00Recipes'
tRp4365
I00
S'http://web2pyslices.com/'
p4366
tp4367
a(g4014
(S't\x08\x00\x00\x00Semantic'
tRp4368
I00
S'http://web2py.com/semantic'
p4369
tp4370
aasbasbasbasbasbasbasbag69
(g85
g71
NtRp4371
(dp4372
g74
(dp4373
sg83
g4128
sg76
(lp4374
g69
(g90
g71
NtRp4375
(dp4376
g74
(dp4377
sg83
g4371
sg76
(lp4378
g69
(g70
g71
NtRp4379
(dp4380
g74
(dp4381
g82
I2
ssg83
g4375
sg76
(lp4382
g69
(g78
g71
NtRp4383
(dp4384
g74
(dp4385
g82
I1
ssg83
Nsg76
(lp4386
g69
(g85
g71
NtRp4387
(dp4388
g74
(dp4389
sg83
g4383
sg76
(lp4390
g69
(g90
g71
NtRp4391
(dp4392
g74
(dp4393
sg83
g4387
sg76
(lp4394
g69
(g70
g71
NtRp4395
(dp4396
g74
(dp4397
g82
I1
ssg83
g4391
sg76
(lp4398
g4014
(S't\r\x00\x00\x00Documentation'
tRp4399
asbasbasbag69
(g85
g71
NtRp4400
(dp4401
g74
(dp4402
sg83
g4383
sg76
(lp4403
g69
(g90
g71
NtRp4404
(dp4405
g74
(dp4406
sg83
g4400
sg76
(lp4407
g69
(g70
g71
NtRp4408
(dp4409
g74
(dp4410
g82
I1
ssg83
g4404
sg76
(lp4411
I00
asbasbasbag69
(g85
g71
NtRp4412
(dp4413
g74
(dp4414
sg83
g4383
sg76
(lp4415
g69
(g90
g71
NtRp4416
(dp4417
g74
(dp4418
sg83
g4412
sg76
(lp4419
g69
(g70
g71
NtRp4420
(dp4421
g74
(dp4422
g82
I1
ssg83
g4416
sg76
(lp4423
S'http://www.web2py.com/book'
p4424
asbasbasbag69
(g85
g71
NtRp4425
(dp4426
g74
(dp4427
sg83
g4383
sg76
(lp4428
g69
(g90
g71
NtRp4429
(dp4430
g74
(dp4431
sg83
g4425
sg76
(lp4432
g69
(g70
g71
NtRp4433
(dp4434
g74
(dp4435
g82
I1
ssg83
g4429
sg76
(lp4436
(lp4437
(g4014
(S't\x07\x00\x00\x00Preface'
tRp4438
I00
S'http://www.web2py.com/book/default/chapter/00'
p4439
tp4440
a(g4014
(S't\x0c\x00\x00\x00Introduction'
tRp4441
I00
S'http://www.web2py.com/book/default/chapter/01'
p4442
tp4443
a(g4014
(S't\x06\x00\x00\x00Python'
tRp4444
I00
S'http://www.web2py.com/book/default/chapter/02'
p4445
tp4446
a(g4014
(S't\x08\x00\x00\x00Overview'
tRp4447
I00
S'http://www.web2py.com/book/default/chapter/03'
p4448
tp4449
a(g4014
(S's\x08\x00\x00\x00The Core'
tRp4450
I00
S'http://www.web2py.com/book/default/chapter/04'
p4451
tp4452
a(g4014
(S's\t\x00\x00\x00The Views'
tRp4453
I00
S'http://www.web2py.com/book/default/chapter/05'
p4454
tp4455
a(g4014
(S't\x08\x00\x00\x00Database'
tRp4456
I00
S'http://www.web2py.com/book/default/chapter/06'
p4457
tp4458
a(g4014
(S's\x14\x00\x00\x00Forms and Validators'
tRp4459
I00
S'http://www.web2py.com/book/default/chapter/07'
p4460
tp4461
a(g4014
(S's\r\x00\x00\x00Email and SMS'
tRp4462
I00
S'http://www.web2py.com/book/default/chapter/08'
p4463
tp4464
a(g4014
(S's\x0e\x00\x00\x00Access Control'
tRp4465
I00
S'http://www.web2py.com/book/default/chapter/09'
p4466
tp4467
a(g4014
(S't\x08\x00\x00\x00Services'
tRp4468
I00
S'http://www.web2py.com/book/default/chapter/10'
p4469
tp4470
a(g4014
(S's\x0c\x00\x00\x00Ajax Recipes'
tRp4471
I00
S'http://www.web2py.com/book/default/chapter/11'
p4472
tp4473
a(g4014
(S's\x16\x00\x00\x00Components and Plugins'
tRp4474
I00
S'http://www.web2py.com/book/default/chapter/12'
p4475
tp4476
a(g4014
(S's\x12\x00\x00\x00Deployment Recipes'
tRp4477
I00
S'http://www.web2py.com/book/default/chapter/13'
p4478
tp4479
a(g4014
(S's\r\x00\x00\x00Other Recipes'
tRp4480
I00
S'http://www.web2py.com/book/default/chapter/14'
p4481
tp4482
a(g4014
(S's\r\x00\x00\x00Buy this book'
tRp4483
I00
S'http://stores.lulu.com/web2py'
p4484
tp4485
aasbasbasbasbasbasbasbag69
(g85
g71
NtRp4486
(dp4487
g74
(dp4488
sg83
g4128
sg76
(lp4489
g69
(g90
g71
NtRp4490
(dp4491
g74
(dp4492
sg83
g4486
sg76
(lp4493
g69
(g70
g71
NtRp4494
(dp4495
g74
(dp4496
g82
I2
ssg83
g4490
sg76
(lp4497
g69
(g78
g71
NtRp4498
(dp4499
g74
(dp4500
g82
I1
ssg83
Nsg76
(lp4501
g69
(g85
g71
NtRp4502
(dp4503
g74
(dp4504
sg83
g4498
sg76
(lp4505
g69
(g90
g71
NtRp4506
(dp4507
g74
(dp4508
sg83
g4502
sg76
(lp4509
g69
(g70
g71
NtRp4510
(dp4511
g74
(dp4512
g82
I1
ssg83
g4506
sg76
(lp4513
g4014
(S't\t\x00\x00\x00Community'
tRp4514
asbasbasbag69
(g85
g71
NtRp4515
(dp4516
g74
(dp4517
sg83
g4498
sg76
(lp4518
g69
(g90
g71
NtRp4519
(dp4520
g74
(dp4521
sg83
g4515
sg76
(lp4522
g69
(g70
g71
NtRp4523
(dp4524
g74
(dp4525
g82
I1
ssg83
g4519
sg76
(lp4526
I00
asbasbasbag69
(g85
g71
NtRp4527
(dp4528
g74
(dp4529
sg83
g4498
sg76
(lp4530
g69
(g90
g71
NtRp4531
(dp4532
g74
(dp4533
sg83
g4527
sg76
(lp4534
g69
(g70
g71
NtRp4535
(dp4536
g74
(dp4537
g82
I1
ssg83
g4531
sg76
(lp4538
Nasbasbasbag69
(g85
g71
NtRp4539
(dp4540
g74
(dp4541
sg83
g4498
sg76
(lp4542
g69
(g90
g71
NtRp4543
(dp4544
g74
(dp4545
sg83
g4539
sg76
(lp4546
g69
(g70
g71
NtRp4547
(dp4548
g74
(dp4549
g82
I1
ssg83
g4543
sg76
(lp4550
(lp4551
(g4014
(S't\x06\x00\x00\x00Groups'
tRp4552
I00
S'http://www.web2py.com/examples/default/usergroups'
p4553
tp4554
a(g4014
(S't\x07\x00\x00\x00Twitter'
tRp4555
I00
S'http://twitter.com/web2py'
p4556
tp4557
a(g4014
(S's\t\x00\x00\x00Live Chat'
tRp4558
I00
S'http://webchat.freenode.net/?channels=web2py'
p4559
tp4560
aasbasbasbasbasbasbasbag69
(g85
g71
NtRp4561
(dp4562
g74
(dp4563
sg83
g4128
sg76
(lp4564
g69
(g90
g71
NtRp4565
(dp4566
g74
(dp4567
sg83
g4561
sg76
(lp4568
g69
(g70
g71
NtRp4569
(dp4570
g74
(dp4571
g82
I2
ssg83
g4565
sg76
(lp4572
g69
(g78
g71
NtRp4573
(dp4574
g74
(dp4575
g82
I1
ssg83
Nsg76
(lp4576
g69
(g85
g71
NtRp4577
(dp4578
g74
(dp4579
sg83
g4573
sg76
(lp4580
g69
(g90
g71
NtRp4581
(dp4582
g74
(dp4583
sg83
g4577
sg76
(lp4584
g69
(g70
g71
NtRp4585
(dp4586
g74
(dp4587
g82
I1
ssg83
g4581
sg76
(lp4588
g4014
(S't\x07\x00\x00\x00Plugins'
tRp4589
asbasbasbag69
(g85
g71
NtRp4590
(dp4591
g74
(dp4592
sg83
g4573
sg76
(lp4593
g69
(g90
g71
NtRp4594
(dp4595
g74
(dp4596
sg83
g4590
sg76
(lp4597
g69
(g70
g71
NtRp4598
(dp4599
g74
(dp4600
g82
I1
ssg83
g4594
sg76
(lp4601
I00
asbasbasbag69
(g85
g71
NtRp4602
(dp4603
g74
(dp4604
sg83
g4573
sg76
(lp4605
g69
(g90
g71
NtRp4606
(dp4607
g74
(dp4608
sg83
g4602
sg76
(lp4609
g69
(g70
g71
NtRp4610
(dp4611
g74
(dp4612
g82
I1
ssg83
g4606
sg76
(lp4613
Nasbasbasbag69
(g85
g71
NtRp4614
(dp4615
g74
(dp4616
sg83
g4573
sg76
(lp4617
g69
(g90
g71
NtRp4618
(dp4619
g74
(dp4620
sg83
g4614
sg76
(lp4621
g69
(g70
g71
NtRp4622
(dp4623
g74
(dp4624
g82
I1
ssg83
g4618
sg76
(lp4625
(lp4626
(S'plugin_wiki'
p4627
I00
S'http://web2py.com/examples/default/download'
p4628
tp4629
a(g4014
(S's\r\x00\x00\x00Other Plugins'
tRp4630
I00
g4360
tp4631
a(g4014
(S's\x0e\x00\x00\x00Layout Plugins'
tRp4632
I00
g4363
tp4633
aasbasbasbasbasbasbasbasbasbasbasbasbasbasbasbasbasbasbasbag69
(g85
g71
NtRp4634
(dp4635
g74
(dp4636
sg83
g3509
sg76
(lp4637
g69
(g90
g71
NtRp4638
(dp4639
g74
(dp4640
g94
g95
ssg83
g4634
sg76
(lp4641
S'meta'
p4642
asbag69
(g90
g71
NtRp4643
(dp4644
g74
(dp4645
g101
g102
ssg83
g4634
sg76
(lp4646
S':'
asbag69
(g90
g71
NtRp4647
(dp4648
g74
(dp4649
sg83
g4634
sg76
(lp4650
g69
(g70
g71
NtRp4651
(dp4652
g74
(dp4653
g82
I5
ssg83
g4647
sg76
(lp4654
g69
(g78
g71
NtRp4655
(dp4656
g74
(dp4657
g82
I4
ssg83
Nsg76
(lp4658
g69
(g85
g71
NtRp4659
(dp4660
g74
(dp4661
sg83
g4655
sg76
(lp4662
g69
(g90
g71
NtRp4663
(dp4664
g74
(dp4665
g94
g95
ssg83
g4659
sg76
(lp4666
S'author'
p4667
asbag69
(g90
g71
NtRp4668
(dp4669
g74
(dp4670
g101
g102
ssg83
g4659
sg76
(lp4671
S':'
asbag69
(g90
g71
NtRp4672
(dp4673
g74
(dp4674
sg83
g4659
sg76
(lp4675
g69
(g70
g71
NtRp4676
(dp4677
g74
(dp4678
g82
I4
ssg83
g4672
sg76
(lp4679
S'Your Name <you@example.com>'
p4680
asbasbasbag69
(g85
g71
NtRp4681
(dp4682
g74
(dp4683
sg83
g4655
sg76
(lp4684
g69
(g90
g71
NtRp4685
(dp4686
g74
(dp4687
g94
g95
ssg83
g4681
sg76
(lp4688
S'copyright'
p4689
asbag69
(g90
g71
NtRp4690
(dp4691
g74
(dp4692
g101
g102
ssg83
g4681
sg76
(lp4693
S':'
asbag69
(g90
g71
NtRp4694
(dp4695
g74
(dp4696
sg83
g4681
sg76
(lp4697
g69
(g70
g71
NtRp4698
(dp4699
g74
(dp4700
g82
I4
ssg83
g4694
sg76
(lp4701
S'Copyright 2011'
p4702
asbasbasbag69
(g85
g71
NtRp4703
(dp4704
g74
(dp4705
sg83
g4655
sg76
(lp4706
g69
(g90
g71
NtRp4707
(dp4708
g74
(dp4709
g94
g95
ssg83
g4703
sg76
(lp4710
S'description'
p4711
asbag69
(g90
g71
NtRp4712
(dp4713
g74
(dp4714
g101
g102
ssg83
g4703
sg76
(lp4715
S':'
asbag69
(g90
g71
NtRp4716
(dp4717
g74
(dp4718
sg83
g4703
sg76
(lp4719
g69
(g70
g71
NtRp4720
(dp4721
g74
(dp4722
g82
I4
ssg83
g4716
sg76
(lp4723
S'a cool new app'
p4724
asbasbasbag69
(g85
g71
NtRp4725
(dp4726
g74
(dp4727
sg83
g4655
sg76
(lp4728
g69
(g90
g71
NtRp4729
(dp4730
g74
(dp4731
g94
g95
ssg83
g4725
sg76
(lp4732
S'generator'
p4733
asbag69
(g90
g71
NtRp4734
(dp4735
g74
(dp4736
g101
g102
ssg83
g4725
sg76
(lp4737
S':'
asbag69
(g90
g71
NtRp4738
(dp4739
g74
(dp4740
sg83
g4725
sg76
(lp4741
g69
(g70
g71
NtRp4742
(dp4743
g74
(dp4744
g82
I4
ssg83
g4738
sg76
(lp4745
S'Web2py Web Framework'
p4746
asbasbasbag69
(g85
g71
NtRp4747
(dp4748
g74
(dp4749
sg83
g4655
sg76
(lp4750
g69
(g90
g71
NtRp4751
(dp4752
g74
(dp4753
g94
g95
ssg83
g4747
sg76
(lp4754
S'keywords'
p4755
asbag69
(g90
g71
NtRp4756
(dp4757
g74
(dp4758
g101
g102
ssg83
g4747
sg76
(lp4759
S':'
asbag69
(g90
g71
NtRp4760
(dp4761
g74
(dp4762
sg83
g4747
sg76
(lp4763
g69
(g70
g71
NtRp4764
(dp4765
g74
(dp4766
g82
I4
ssg83
g4760
sg76
(lp4767
S'web2py, python, framework'
p4768
asbasbasbasbasbasbasbag69
(g85
g71
NtRp4769
(dp4770
g74
(dp4771
sg83
g3509
sg76
(lp4772
g69
(g90
g71
NtRp4773
(dp4774
g74
(dp4775
g94
g95
ssg83
g4769
sg76
(lp4776
S'postprocessing'
p4777
asbag69
(g90
g71
NtRp4778
(dp4779
g74
(dp4780
g101
g102
ssg83
g4769
sg76
(lp4781
S':'
asbag69
(g90
g71
NtRp4782
(dp4783
g74
(dp4784
sg83
g4769
sg76
(lp4785
g69
(g70
g71
NtRp4786
(dp4787
g74
(dp4788
g82
I5
ssg83
g4782
sg76
(lp4789
g69
(g78
g71
NtRp4790
(dp4791
g74
(dp4792
g82
I4
ssg83
Nsg76
(lp4793
sbasbasbasbag69
(g85
g71
NtRp4794
(dp4795
g74
(dp4796
sg83
g3509
sg76
(lp4797
g69
(g90
g71
NtRp4798
(dp4799
g74
(dp4800
g94
g95
ssg83
g4794
sg76
(lp4801
S'session_file'
p4802
asbag69
(g90
g71
NtRp4803
(dp4804
g74
(dp4805
g101
g102
ssg83
g4794
sg76
(lp4806
S':'
asbag69
(g90
g71
NtRp4807
(dp4808
g74
(dp4809
sg83
g4794
sg76
(lp4810
g69
(g70
g71
NtRp4811
(dp4812
g74
(dp4813
g82
I5
ssg83
g4807
sg76
(lp4814
S"<open file '/home/jigar/web2py/applications/app1/sessions/127.0.0.1-a7d133f4-acec-437f-a963-db7b5b722c49', mode 'rb+' at 0x7fb4645a5ed0>"
p4815
asbasbasbag69
(g85
g71
NtRp4816
(dp4817
g74
(dp4818
sg83
g3509
sg76
(lp4819
g69
(g90
g71
NtRp4820
(dp4821
g74
(dp4822
g94
g95
ssg83
g4816
sg76
(lp4823
S'session_filename'
p4824
asbag69
(g90
g71
NtRp4825
(dp4826
g74
(dp4827
g101
g102
ssg83
g4816
sg76
(lp4828
S':'
asbag69
(g90
g71
NtRp4829
(dp4830
g74
(dp4831
sg83
g4816
sg76
(lp4832
g69
(g70
g71
NtRp4833
(dp4834
g74
(dp4835
g82
I5
ssg83
g4829
sg76
(lp4836
S'/home/jigar/web2py/applications/app1/sessions/127.0.0.1-a7d133f4-acec-437f-a963-db7b5b722c49'
p4837
asbasbasbag69
(g85
g71
NtRp4838
(dp4839
g74
(dp4840
sg83
g3509
sg76
(lp4841
g69
(g90
g71
NtRp4842
(dp4843
g74
(dp4844
g94
g95
ssg83
g4838
sg76
(lp4845
S'session_id'
p4846
asbag69
(g90
g71
NtRp4847
(dp4848
g74
(dp4849
g101
g102
ssg83
g4838
sg76
(lp4850
S':'
asbag69
(g90
g71
NtRp4851
(dp4852
g74
(dp4853
sg83
g4838
sg76
(lp4854
g69
(g70
g71
NtRp4855
(dp4856
g74
(dp4857
g82
I5
ssg83
g4851
sg76
(lp4858
S'127.0.0.1-a7d133f4-acec-437f-a963-db7b5b722c49'
p4859
asbasbasbag69
(g85
g71
NtRp4860
(dp4861
g74
(dp4862
sg83
g3509
sg76
(lp4863
g69
(g90
g71
NtRp4864
(dp4865
g74
(dp4866
g94
g95
ssg83
g4860
sg76
(lp4867
S'session_id_name'
p4868
asbag69
(g90
g71
NtRp4869
(dp4870
g74
(dp4871
g101
g102
ssg83
g4860
sg76
(lp4872
S':'
asbag69
(g90
g71
NtRp4873
(dp4874
g74
(dp4875
sg83
g4860
sg76
(lp4876
g69
(g70
g71
NtRp4877
(dp4878
g74
(dp4879
g82
I5
ssg83
g4873
sg76
(lp4880
g3566
asbasbasbag69
(g85
g71
NtRp4881
(dp4882
g74
(dp4883
sg83
g3509
sg76
(lp4884
g69
(g90
g71
NtRp4885
(dp4886
g74
(dp4887
g94
g95
ssg83
g4881
sg76
(lp4888
S'session_locked'
p4889
asbag69
(g90
g71
NtRp4890
(dp4891
g74
(dp4892
g101
g102
ssg83
g4881
sg76
(lp4893
S':'
asbag69
(g90
g71
NtRp4894
(dp4895
g74
(dp4896
sg83
g4881
sg76
(lp4897
g69
(g70
g71
NtRp4898
(dp4899
g74
(dp4900
g82
I5
ssg83
g4894
sg76
(lp4901
g1715
asbasbasbag69
(g85
g71
NtRp4902
(dp4903
g74
(dp4904
sg83
g3509
sg76
(lp4905
g69
(g90
g71
NtRp4906
(dp4907
g74
(dp4908
g94
g95
ssg83
g4902
sg76
(lp4909
S'session_new'
p4910
asbag69
(g90
g71
NtRp4911
(dp4912
g74
(dp4913
g101
g102
ssg83
g4902
sg76
(lp4914
S':'
asbag69
(g90
g71
NtRp4915
(dp4916
g74
(dp4917
sg83
g4902
sg76
(lp4918
g69
(g70
g71
NtRp4919
(dp4920
g74
(dp4921
g82
I5
ssg83
g4915
sg76
(lp4922
g112
asbasbasbag69
(g85
g71
NtRp4923
(dp4924
g74
(dp4925
sg83
g3509
sg76
(lp4926
g69
(g90
g71
NtRp4927
(dp4928
g74
(dp4929
g94
g95
ssg83
g4923
sg76
(lp4930
S'status'
p4931
asbag69
(g90
g71
NtRp4932
(dp4933
g74
(dp4934
g101
g102
ssg83
g4923
sg76
(lp4935
S':'
asbag69
(g90
g71
NtRp4936
(dp4937
g74
(dp4938
sg83
g4923
sg76
(lp4939
g69
(g70
g71
NtRp4940
(dp4941
g74
(dp4942
g82
I5
ssg83
g4936
sg76
(lp4943
S'200'
p4944
asbasbasbag69
(g85
g71
NtRp4945
(dp4946
g74
(dp4947
sg83
g3509
sg76
(lp4948
g69
(g90
g71
NtRp4949
(dp4950
g74
(dp4951
g94
g95
ssg83
g4945
sg76
(lp4952
S'subtitle'
p4953
asbag69
(g90
g71
NtRp4954
(dp4955
g74
(dp4956
g101
g102
ssg83
g4945
sg76
(lp4957
S':'
asbag69
(g90
g71
NtRp4958
(dp4959
g74
(dp4960
sg83
g4945
sg76
(lp4961
g69
(g70
g71
NtRp4962
(dp4963
g74
(dp4964
g82
I5
ssg83
g4958
sg76
(lp4965
g4014
(S's\r\x00\x00\x00customize me!'
tRp4966
asbasbasbag69
(g85
g71
NtRp4967
(dp4968
g74
(dp4969
sg83
g3509
sg76
(lp4970
g69
(g90
g71
NtRp4971
(dp4972
g74
(dp4973
g94
g95
ssg83
g4967
sg76
(lp4974
S'title'
p4975
asbag69
(g90
g71
NtRp4976
(dp4977
g74
(dp4978
g101
g102
ssg83
g4967
sg76
(lp4979
S':'
asbag69
(g90
g71
NtRp4980
(dp4981
g74
(dp4982
sg83
g4967
sg76
(lp4983
g69
(g70
g71
NtRp4984
(dp4985
g74
(dp4986
g82
I5
ssg83
g4980
sg76
(lp4987
S'App1'
p4988
asbasbasbag69
(g85
g71
NtRp4989
(dp4990
g74
(dp4991
sg83
g3509
sg76
(lp4992
g69
(g90
g71
NtRp4993
(dp4994
g74
(dp4995
g94
g95
ssg83
g4989
sg76
(lp4996
g2400
asbag69
(g90
g71
NtRp4997
(dp4998
g74
(dp4999
g101
g102
ssg83
g4989
sg76
(lp5000
S':'
asbag69
(g90
g71
NtRp5001
(dp5002
g74
(dp5003
sg83
g4989
sg76
(lp5004
g69
(g70
g71
NtRp5005
(dp5006
g74
(dp5007
g82
I5
ssg83
g5001
sg76
(lp5008
g2413
asbasbasbag69
(g85
g71
NtRp5009
(dp5010
g74
(dp5011
sg83
g3509
sg76
(lp5012
g69
(g90
g71
NtRp5013
(dp5014
g74
(dp5015
g94
g95
ssg83
g5009
sg76
(lp5016
S'view'
p5017
asbag69
(g90
g71
NtRp5018
(dp5019
g74
(dp5020
g101
g102
ssg83
g5009
sg76
(lp5021
S':'
asbag69
(g90
g71
NtRp5022
(dp5023
g74
(dp5024
sg83
g5009
sg76
(lp5025
g69
(g70
g71
NtRp5026
(dp5027
g74
(dp5028
g82
I5
ssg83
g5022
sg76
(lp5029
S'default/l.html'
p5030
asbasbasbasbasbsS'locals'
p5031
(dp5032
g4
S"'/home/jigar/web2py/applications/app1/controllers/default.py'"
p5033
sg6
S"'# -*- coding: utf-8 -*-\\n# this file is released ...n locals()\\n\\n\\n\\nresponse._vars=response._caller(l)\\n'"
p5034
sssS'traceback'
p5035
S'Traceback (most recent call last):\n  File "/usr/lib/pymodules/python2.7/gluon/restricted.py", line 203, in restricted\n    ccode = compile2(code,layer)\n  File "/usr/lib/pymodules/python2.7/gluon/restricted.py", line 189, in compile2\n    return compile(code.rstrip().replace(\'\\r\\n\',\'\\n\')+\'\\n\', layer, \'exec\')\n  File "/home/jigar/web2py/applications/app1/controllers/default.py", line 126\n    elif ((len(db(db.Post.id==r) & (db.Post.By_User==auth.user.id))==0) or (len(db(db.Votes.id>0).select())==0):\n                                                                                                               ^\nSyntaxError: invalid syntax\n'
p5036
s.