(dp1
S'output'
p2
S"<type 'exceptions.AttributeError'> 'Field' object has no attribute 'append'"
p3
sS'layer'
p4
S'/home/jigar/web2py/applications/app1/controllers/default.py'
p5
sS'code'
p6
S'# -*- coding: utf-8 -*-\n# this file is released under public domain and you can use without limitations\n\n#########################################################################\n## This is a samples controller\n## - index is the default action of any application\n## - user is required for authentication and authorization\n## - download is for downloading files uploaded in the db (does streaming)\n## - call exposes all registered services (none by default)\n#########################################################################\n\ndef index():\n    """\n    example action using the internationalization operator T and flash\n    rendered by views/default/index.html or views/generic.html\n    """\n    response.flash = "Welcome to web2py!"\n    return dict(message=T(\'Hello World\'))\n\ndef user():\n    """\n    exposes:\n    http://..../[app]/default/user/login\n    http://..../[app]/default/user/logout\n    http://..../[app]/default/user/register\n    http://..../[app]/default/user/profile\n    http://..../[app]/default/user/retrieve_password\n    http://..../[app]/default/user/change_password\n    use @auth.requires_login()\n        @auth.requires_membership(\'group name\')\n        @auth.requires_permission(\'read\',\'table name\',record_id)\n    to decorate functions that need access control\n    """\n    return dict(form=auth())\n\n\ndef download():\n    """\n    allows downloading of uploaded files\n    http://..../[app]/default/download/[filename]\n    """\n    return response.download(request,db)\n\n\ndef call():\n    """\n    exposes services. for example:\n    http://..../[app]/default/call/jsonrpc\n    decorate with @services.jsonrpc the functions to expose\n    supports xml, json, xmlrpc, jsonrpc, amfrpc, rss, csv\n    """\n    return service()\n\n\n@auth.requires_signature()\ndef data():\n    """\n    http://..../[app]/default/data/tables\n    http://..../[app]/default/data/create/[table]\n    http://..../[app]/default/data/read/[table]/[id]\n    http://..../[app]/default/data/update/[table]/[id]\n    http://..../[app]/default/data/delete/[table]/[id]\n    http://..../[app]/default/data/select/[table]\n    http://..../[app]/default/data/search/[table]\n    but URLs must be signed, i.e. linked with\n      A(\'table\',_href=URL(\'data/tables\',user_signature=True))\n    or with the signed load operator\n      LOAD(\'default\',\'data.load\',args=\'tables\',ajax=True,user_signature=True)\n    """\n    return dict(form=crud())\n\n@auth.requires_login()\ndef lall():\n\tx=db(db.Post.id>0).select()\n\ty=db(db.Post.User==db.auth_user.id).select(db.auth_user.first_name)\n\tz=db(db.auth_user.id==db.Votes.User).select()\n\tif (request.args):\n\t\tr=request.args[0]\n\t\tp=request.args[1]\n\t\tprint r\n\t\tif (request.args[1]=="like" ):\t\n\t\t\tb=db(db.Post.id==(int(r)+1)).select()\n#\t\t\tfor j in range(len(b[0][\'User_liked\'])):\n#\t\t\t\tif (b[0][\'User_liked\'][j]==auth.user.id):\n#\t\t\t\t\tq=0\n#\t\t\t\telse:\n\t\t\ta=db(db.Post.id==(int(r)+1)).update(Rating=b[0][\'Rating\']+5)\t\n\t\t\tdb.Post.User_liked.append(auth.user.id)\n\t\t\tredirect(URL("lall"))\n\t\telif (request.args[1]=="dislike"):\t\n\t\t\tb=db(db.Post.id==int(r)+1).select(db.Post.Rating)\n\t\t\ta=db(db.Post.id==int(r)+1).update(Rating=b[0][\'Rating\']-3)\n\t\t\tredirect(URL("lall"))\n\treturn locals()\n\n@auth.requires_login()\ndef postnews():\n\tform=SQLFORM(db.Post)\n\tif form.process().accepts:\n\t\tresponse.flash= \'News Posted!\'\n\treturn locals()\n\n@auth.requires_login()\ndef listcat():\n\tp=db(db.Post.id>0).select()\n\tq=db(db.Post.User==db.auth_user.id).select(db.auth_user.first_name)\n\ty=request.args[0]\n\tx=db(db.Post.Category==y).select()\n\tif (len(x)>0):\n\t\treturn locals()\t\n\telse :\n\t\treturn locals()\n\nresponse._vars=response._caller(lall)\n'
p7
sS'snapshot'
p8
(dp9
S'exception'
p10
(dp11
S'__hash__'
p12
S"<method-wrapper '__hash__' of exceptions.AttributeError object>"
p13
sS'__setattr__'
p14
S"<method-wrapper '__setattr__' of exceptions.AttributeError object>"
p15
sS'__reduce_ex__'
p16
S'<built-in method __reduce_ex__ of exceptions.AttributeError object>'
p17
sS'__getslice__'
p18
S"<method-wrapper '__getslice__' of exceptions.AttributeError object>"
p19
sS'__getitem__'
p20
S"<method-wrapper '__getitem__' of exceptions.AttributeError object>"
p21
sS'__setstate__'
p22
S'<built-in method __setstate__ of exceptions.AttributeError object>'
p23
sS'args'
p24
S'("\'Field\' object has no attribute \'append\'",)'
p25
sS'__reduce__'
p26
S'<built-in method __reduce__ of exceptions.AttributeError object>'
p27
sS'__str__'
p28
S"<method-wrapper '__str__' of exceptions.AttributeError object>"
p29
sS'__format__'
p30
S'<built-in method __format__ of exceptions.AttributeError object>'
p31
sS'__getattribute__'
p32
S"<method-wrapper '__getattribute__' of exceptions.AttributeError object>"
p33
sS'__class__'
p34
S"<type 'exceptions.AttributeError'>"
p35
sS'__unicode__'
p36
S'<built-in method __unicode__ of exceptions.AttributeError object>'
p37
sS'__delattr__'
p38
S"<method-wrapper '__delattr__' of exceptions.AttributeError object>"
p39
sS'__subclasshook__'
p40
S'<built-in method __subclasshook__ of type object>'
p41
sS'__repr__'
p42
S"<method-wrapper '__repr__' of exceptions.AttributeError object>"
p43
sS'__dict__'
p44
S'{}'
p45
sS'__sizeof__'
p46
S'<built-in method __sizeof__ of exceptions.AttributeError object>'
p47
sS'__doc__'
p48
S"'Attribute not found.'"
p49
sS'__init__'
p50
S"<method-wrapper '__init__' of exceptions.AttributeError object>"
p51
sS'__new__'
p52
S'<built-in method __new__ of type object>'
p53
ssS'evalue'
p54
S"'Field' object has no attribute 'append'"
p55
sS'request'
p56
ccopy_reg
_reconstructor
p57
(cgluon.html
BEAUTIFY
p58
c__builtin__
object
p59
NtRp60
(dp61
S'attributes'
p62
(dp63
sS'components'
p64
(lp65
g57
(cgluon.html
TABLE
p66
g59
NtRp67
(dp68
g62
(dp69
S'level'
p70
I5
ssS'parent'
p71
Nsg64
(lp72
g57
(cgluon.html
TR
p73
g59
NtRp74
(dp75
g62
(dp76
sg71
g67
sg64
(lp77
g57
(cgluon.html
TD
p78
g59
NtRp79
(dp80
g62
(dp81
S'_style'
p82
S'font-weight:bold;vertical-align:top'
p83
ssg71
g74
sg64
(lp84
S'ajax'
p85
asbag57
(g78
g59
NtRp86
(dp87
g62
(dp88
S'_valign'
p89
S'top'
p90
ssg71
g74
sg64
(lp91
S':'
asbag57
(g78
g59
NtRp92
(dp93
g62
(dp94
sg71
g74
sg64
(lp95
g57
(g58
g59
NtRp96
(dp97
g62
(dp98
g70
I5
ssg71
g92
sg64
(lp99
S'False'
p100
asbasbasbag57
(g73
g59
NtRp101
(dp102
g62
(dp103
sg71
g67
sg64
(lp104
g57
(g78
g59
NtRp105
(dp106
g62
(dp107
g82
g83
ssg71
g101
sg64
(lp108
S'application'
p109
asbag57
(g78
g59
NtRp110
(dp111
g62
(dp112
g89
g90
ssg71
g101
sg64
(lp113
S':'
asbag57
(g78
g59
NtRp114
(dp115
g62
(dp116
sg71
g101
sg64
(lp117
g57
(g58
g59
NtRp118
(dp119
g62
(dp120
g70
I5
ssg71
g114
sg64
(lp121
S'app1'
p122
asbasbasbag57
(g73
g59
NtRp123
(dp124
g62
(dp125
sg71
g67
sg64
(lp126
g57
(g78
g59
NtRp127
(dp128
g62
(dp129
g82
g83
ssg71
g123
sg64
(lp130
g24
asbag57
(g78
g59
NtRp131
(dp132
g62
(dp133
g89
g90
ssg71
g123
sg64
(lp134
S':'
asbag57
(g78
g59
NtRp135
(dp136
g62
(dp137
sg71
g123
sg64
(lp138
g57
(g58
g59
NtRp139
(dp140
g62
(dp141
g70
I5
ssg71
g135
sg64
(lp142
g57
(g66
g59
NtRp143
(dp144
g62
(dp145
g70
I4
ssg71
Nsg64
(lp146
g57
(g73
g59
NtRp147
(dp148
g62
(dp149
sg71
g143
sg64
(lp150
g57
(g78
g59
NtRp151
(dp152
g62
(dp153
sg71
g147
sg64
(lp154
g57
(g58
g59
NtRp155
(dp156
g62
(dp157
g70
I4
ssg71
g151
sg64
(lp158
S'0'
asbasbasbag57
(g73
g59
NtRp159
(dp160
g62
(dp161
sg71
g143
sg64
(lp162
g57
(g78
g59
NtRp163
(dp164
g62
(dp165
sg71
g159
sg64
(lp166
g57
(g58
g59
NtRp167
(dp168
g62
(dp169
g70
I4
ssg71
g163
sg64
(lp170
S'like'
p171
asbasbasbasbasbasbasbag57
(g73
g59
NtRp172
(dp173
g62
(dp174
sg71
g67
sg64
(lp175
g57
(g78
g59
NtRp176
(dp177
g62
(dp178
g82
g83
ssg71
g172
sg64
(lp179
S'body'
p180
asbag57
(g78
g59
NtRp181
(dp182
g62
(dp183
g89
g90
ssg71
g172
sg64
(lp184
S':'
asbag57
(g78
g59
NtRp185
(dp186
g62
(dp187
sg71
g172
sg64
(lp188
g57
(g58
g59
NtRp189
(dp190
g62
(dp191
g70
I5
ssg71
g185
sg64
(lp192
S'<cStringIO.StringO object at 0x7fc840465ed8>'
p193
asbasbasbag57
(g73
g59
NtRp194
(dp195
g62
(dp196
sg71
g67
sg64
(lp197
g57
(g78
g59
NtRp198
(dp199
g62
(dp200
g82
g83
ssg71
g194
sg64
(lp201
S'client'
p202
asbag57
(g78
g59
NtRp203
(dp204
g62
(dp205
g89
g90
ssg71
g194
sg64
(lp206
S':'
asbag57
(g78
g59
NtRp207
(dp208
g62
(dp209
sg71
g194
sg64
(lp210
g57
(g58
g59
NtRp211
(dp212
g62
(dp213
g70
I5
ssg71
g207
sg64
(lp214
S'127.0.0.1'
p215
asbasbasbag57
(g73
g59
NtRp216
(dp217
g62
(dp218
sg71
g67
sg64
(lp219
g57
(g78
g59
NtRp220
(dp221
g62
(dp222
g82
g83
ssg71
g216
sg64
(lp223
S'controller'
p224
asbag57
(g78
g59
NtRp225
(dp226
g62
(dp227
g89
g90
ssg71
g216
sg64
(lp228
S':'
asbag57
(g78
g59
NtRp229
(dp230
g62
(dp231
sg71
g216
sg64
(lp232
g57
(g58
g59
NtRp233
(dp234
g62
(dp235
g70
I5
ssg71
g229
sg64
(lp236
S'default'
p237
asbasbasbag57
(g73
g59
NtRp238
(dp239
g62
(dp240
sg71
g67
sg64
(lp241
g57
(g78
g59
NtRp242
(dp243
g62
(dp244
g82
g83
ssg71
g238
sg64
(lp245
S'cookies'
p246
asbag57
(g78
g59
NtRp247
(dp248
g62
(dp249
g89
g90
ssg71
g238
sg64
(lp250
S':'
asbag57
(g78
g59
NtRp251
(dp252
g62
(dp253
sg71
g238
sg64
(lp254
g57
(g58
g59
NtRp255
(dp256
g62
(dp257
g70
I5
ssg71
g251
sg64
(lp258
g57
(g66
g59
NtRp259
(dp260
g62
(dp261
g70
I4
ssg71
Nsg64
(lp262
g57
(g73
g59
NtRp263
(dp264
g62
(dp265
sg71
g259
sg64
(lp266
g57
(g78
g59
NtRp267
(dp268
g62
(dp269
g82
g83
ssg71
g263
sg64
(lp270
S'session_id_admin'
p271
asbag57
(g78
g59
NtRp272
(dp273
g62
(dp274
g89
g90
ssg71
g263
sg64
(lp275
S':'
asbag57
(g78
g59
NtRp276
(dp277
g62
(dp278
sg71
g263
sg64
(lp279
g57
(g58
g59
NtRp280
(dp281
g62
(dp282
g70
I4
ssg71
g276
sg64
(lp283
g57
(g66
g59
NtRp284
(dp285
g62
(dp286
g70
I3
ssg71
Nsg64
(lp287
g57
(g73
g59
NtRp288
(dp289
g62
(dp290
sg71
g284
sg64
(lp291
g57
(g78
g59
NtRp292
(dp293
g62
(dp294
g82
g83
ssg71
g288
sg64
(lp295
S'comment'
p296
asbag57
(g78
g59
NtRp297
(dp298
g62
(dp299
g89
g90
ssg71
g288
sg64
(lp300
S':'
asbag57
(g78
g59
NtRp301
(dp302
g62
(dp303
sg71
g288
sg64
(lp304
g57
(g58
g59
NtRp305
(dp306
g62
(dp307
g70
I3
ssg71
g301
sg64
(lp308
S''
asbasbasbag57
(g73
g59
NtRp309
(dp310
g62
(dp311
sg71
g284
sg64
(lp312
g57
(g78
g59
NtRp313
(dp314
g62
(dp315
g82
g83
ssg71
g309
sg64
(lp316
S'domain'
p317
asbag57
(g78
g59
NtRp318
(dp319
g62
(dp320
g89
g90
ssg71
g309
sg64
(lp321
S':'
asbag57
(g78
g59
NtRp322
(dp323
g62
(dp324
sg71
g309
sg64
(lp325
g57
(g58
g59
NtRp326
(dp327
g62
(dp328
g70
I3
ssg71
g322
sg64
(lp329
S''
asbasbasbag57
(g73
g59
NtRp330
(dp331
g62
(dp332
sg71
g284
sg64
(lp333
g57
(g78
g59
NtRp334
(dp335
g62
(dp336
g82
g83
ssg71
g330
sg64
(lp337
S'expires'
p338
asbag57
(g78
g59
NtRp339
(dp340
g62
(dp341
g89
g90
ssg71
g330
sg64
(lp342
S':'
asbag57
(g78
g59
NtRp343
(dp344
g62
(dp345
sg71
g330
sg64
(lp346
g57
(g58
g59
NtRp347
(dp348
g62
(dp349
g70
I3
ssg71
g343
sg64
(lp350
S''
asbasbasbag57
(g73
g59
NtRp351
(dp352
g62
(dp353
sg71
g284
sg64
(lp354
g57
(g78
g59
NtRp355
(dp356
g62
(dp357
g82
g83
ssg71
g351
sg64
(lp358
S'httponly'
p359
asbag57
(g78
g59
NtRp360
(dp361
g62
(dp362
g89
g90
ssg71
g351
sg64
(lp363
S':'
asbag57
(g78
g59
NtRp364
(dp365
g62
(dp366
sg71
g351
sg64
(lp367
g57
(g58
g59
NtRp368
(dp369
g62
(dp370
g70
I3
ssg71
g364
sg64
(lp371
S''
asbasbasbag57
(g73
g59
NtRp372
(dp373
g62
(dp374
sg71
g284
sg64
(lp375
g57
(g78
g59
NtRp376
(dp377
g62
(dp378
g82
g83
ssg71
g372
sg64
(lp379
S'max-age'
p380
asbag57
(g78
g59
NtRp381
(dp382
g62
(dp383
g89
g90
ssg71
g372
sg64
(lp384
S':'
asbag57
(g78
g59
NtRp385
(dp386
g62
(dp387
sg71
g372
sg64
(lp388
g57
(g58
g59
NtRp389
(dp390
g62
(dp391
g70
I3
ssg71
g385
sg64
(lp392
S''
asbasbasbag57
(g73
g59
NtRp393
(dp394
g62
(dp395
sg71
g284
sg64
(lp396
g57
(g78
g59
NtRp397
(dp398
g62
(dp399
g82
g83
ssg71
g393
sg64
(lp400
S'path'
p401
asbag57
(g78
g59
NtRp402
(dp403
g62
(dp404
g89
g90
ssg71
g393
sg64
(lp405
S':'
asbag57
(g78
g59
NtRp406
(dp407
g62
(dp408
sg71
g393
sg64
(lp409
g57
(g58
g59
NtRp410
(dp411
g62
(dp412
g70
I3
ssg71
g406
sg64
(lp413
S''
asbasbasbag57
(g73
g59
NtRp414
(dp415
g62
(dp416
sg71
g284
sg64
(lp417
g57
(g78
g59
NtRp418
(dp419
g62
(dp420
g82
g83
ssg71
g414
sg64
(lp421
S'secure'
p422
asbag57
(g78
g59
NtRp423
(dp424
g62
(dp425
g89
g90
ssg71
g414
sg64
(lp426
S':'
asbag57
(g78
g59
NtRp427
(dp428
g62
(dp429
sg71
g414
sg64
(lp430
g57
(g58
g59
NtRp431
(dp432
g62
(dp433
g70
I3
ssg71
g427
sg64
(lp434
S''
asbasbasbag57
(g73
g59
NtRp435
(dp436
g62
(dp437
sg71
g284
sg64
(lp438
g57
(g78
g59
NtRp439
(dp440
g62
(dp441
g82
g83
ssg71
g435
sg64
(lp442
S'version'
p443
asbag57
(g78
g59
NtRp444
(dp445
g62
(dp446
g89
g90
ssg71
g435
sg64
(lp447
S':'
asbag57
(g78
g59
NtRp448
(dp449
g62
(dp450
sg71
g435
sg64
(lp451
g57
(g58
g59
NtRp452
(dp453
g62
(dp454
g70
I3
ssg71
g448
sg64
(lp455
S''
asbasbasbasbasbasbasbag57
(g73
g59
NtRp456
(dp457
g62
(dp458
sg71
g259
sg64
(lp459
g57
(g78
g59
NtRp460
(dp461
g62
(dp462
g82
g83
ssg71
g456
sg64
(lp463
S'session_id_app1'
p464
asbag57
(g78
g59
NtRp465
(dp466
g62
(dp467
g89
g90
ssg71
g456
sg64
(lp468
S':'
asbag57
(g78
g59
NtRp469
(dp470
g62
(dp471
sg71
g456
sg64
(lp472
g57
(g58
g59
NtRp473
(dp474
g62
(dp475
g70
I4
ssg71
g469
sg64
(lp476
g57
(g66
g59
NtRp477
(dp478
g62
(dp479
g70
I3
ssg71
Nsg64
(lp480
g57
(g73
g59
NtRp481
(dp482
g62
(dp483
sg71
g477
sg64
(lp484
g57
(g78
g59
NtRp485
(dp486
g62
(dp487
g82
g83
ssg71
g481
sg64
(lp488
g296
asbag57
(g78
g59
NtRp489
(dp490
g62
(dp491
g89
g90
ssg71
g481
sg64
(lp492
S':'
asbag57
(g78
g59
NtRp493
(dp494
g62
(dp495
sg71
g481
sg64
(lp496
g57
(g58
g59
NtRp497
(dp498
g62
(dp499
g70
I3
ssg71
g493
sg64
(lp500
S''
asbasbasbag57
(g73
g59
NtRp501
(dp502
g62
(dp503
sg71
g477
sg64
(lp504
g57
(g78
g59
NtRp505
(dp506
g62
(dp507
g82
g83
ssg71
g501
sg64
(lp508
g317
asbag57
(g78
g59
NtRp509
(dp510
g62
(dp511
g89
g90
ssg71
g501
sg64
(lp512
S':'
asbag57
(g78
g59
NtRp513
(dp514
g62
(dp515
sg71
g501
sg64
(lp516
g57
(g58
g59
NtRp517
(dp518
g62
(dp519
g70
I3
ssg71
g513
sg64
(lp520
S''
asbasbasbag57
(g73
g59
NtRp521
(dp522
g62
(dp523
sg71
g477
sg64
(lp524
g57
(g78
g59
NtRp525
(dp526
g62
(dp527
g82
g83
ssg71
g521
sg64
(lp528
g338
asbag57
(g78
g59
NtRp529
(dp530
g62
(dp531
g89
g90
ssg71
g521
sg64
(lp532
S':'
asbag57
(g78
g59
NtRp533
(dp534
g62
(dp535
sg71
g521
sg64
(lp536
g57
(g58
g59
NtRp537
(dp538
g62
(dp539
g70
I3
ssg71
g533
sg64
(lp540
S''
asbasbasbag57
(g73
g59
NtRp541
(dp542
g62
(dp543
sg71
g477
sg64
(lp544
g57
(g78
g59
NtRp545
(dp546
g62
(dp547
g82
g83
ssg71
g541
sg64
(lp548
g359
asbag57
(g78
g59
NtRp549
(dp550
g62
(dp551
g89
g90
ssg71
g541
sg64
(lp552
S':'
asbag57
(g78
g59
NtRp553
(dp554
g62
(dp555
sg71
g541
sg64
(lp556
g57
(g58
g59
NtRp557
(dp558
g62
(dp559
g70
I3
ssg71
g553
sg64
(lp560
S''
asbasbasbag57
(g73
g59
NtRp561
(dp562
g62
(dp563
sg71
g477
sg64
(lp564
g57
(g78
g59
NtRp565
(dp566
g62
(dp567
g82
g83
ssg71
g561
sg64
(lp568
g380
asbag57
(g78
g59
NtRp569
(dp570
g62
(dp571
g89
g90
ssg71
g561
sg64
(lp572
S':'
asbag57
(g78
g59
NtRp573
(dp574
g62
(dp575
sg71
g561
sg64
(lp576
g57
(g58
g59
NtRp577
(dp578
g62
(dp579
g70
I3
ssg71
g573
sg64
(lp580
S''
asbasbasbag57
(g73
g59
NtRp581
(dp582
g62
(dp583
sg71
g477
sg64
(lp584
g57
(g78
g59
NtRp585
(dp586
g62
(dp587
g82
g83
ssg71
g581
sg64
(lp588
g401
asbag57
(g78
g59
NtRp589
(dp590
g62
(dp591
g89
g90
ssg71
g581
sg64
(lp592
S':'
asbag57
(g78
g59
NtRp593
(dp594
g62
(dp595
sg71
g581
sg64
(lp596
g57
(g58
g59
NtRp597
(dp598
g62
(dp599
g70
I3
ssg71
g593
sg64
(lp600
S''
asbasbasbag57
(g73
g59
NtRp601
(dp602
g62
(dp603
sg71
g477
sg64
(lp604
g57
(g78
g59
NtRp605
(dp606
g62
(dp607
g82
g83
ssg71
g601
sg64
(lp608
g422
asbag57
(g78
g59
NtRp609
(dp610
g62
(dp611
g89
g90
ssg71
g601
sg64
(lp612
S':'
asbag57
(g78
g59
NtRp613
(dp614
g62
(dp615
sg71
g601
sg64
(lp616
g57
(g58
g59
NtRp617
(dp618
g62
(dp619
g70
I3
ssg71
g613
sg64
(lp620
S''
asbasbasbag57
(g73
g59
NtRp621
(dp622
g62
(dp623
sg71
g477
sg64
(lp624
g57
(g78
g59
NtRp625
(dp626
g62
(dp627
g82
g83
ssg71
g621
sg64
(lp628
g443
asbag57
(g78
g59
NtRp629
(dp630
g62
(dp631
g89
g90
ssg71
g621
sg64
(lp632
S':'
asbag57
(g78
g59
NtRp633
(dp634
g62
(dp635
sg71
g621
sg64
(lp636
g57
(g58
g59
NtRp637
(dp638
g62
(dp639
g70
I3
ssg71
g633
sg64
(lp640
S''
asbasbasbasbasbasbasbag57
(g73
g59
NtRp641
(dp642
g62
(dp643
sg71
g259
sg64
(lp644
g57
(g78
g59
NtRp645
(dp646
g62
(dp647
g82
g83
ssg71
g641
sg64
(lp648
S'session_id_welcome'
p649
asbag57
(g78
g59
NtRp650
(dp651
g62
(dp652
g89
g90
ssg71
g641
sg64
(lp653
S':'
asbag57
(g78
g59
NtRp654
(dp655
g62
(dp656
sg71
g641
sg64
(lp657
g57
(g58
g59
NtRp658
(dp659
g62
(dp660
g70
I4
ssg71
g654
sg64
(lp661
g57
(g66
g59
NtRp662
(dp663
g62
(dp664
g70
I3
ssg71
Nsg64
(lp665
g57
(g73
g59
NtRp666
(dp667
g62
(dp668
sg71
g662
sg64
(lp669
g57
(g78
g59
NtRp670
(dp671
g62
(dp672
g82
g83
ssg71
g666
sg64
(lp673
g296
asbag57
(g78
g59
NtRp674
(dp675
g62
(dp676
g89
g90
ssg71
g666
sg64
(lp677
S':'
asbag57
(g78
g59
NtRp678
(dp679
g62
(dp680
sg71
g666
sg64
(lp681
g57
(g58
g59
NtRp682
(dp683
g62
(dp684
g70
I3
ssg71
g678
sg64
(lp685
S''
asbasbasbag57
(g73
g59
NtRp686
(dp687
g62
(dp688
sg71
g662
sg64
(lp689
g57
(g78
g59
NtRp690
(dp691
g62
(dp692
g82
g83
ssg71
g686
sg64
(lp693
g317
asbag57
(g78
g59
NtRp694
(dp695
g62
(dp696
g89
g90
ssg71
g686
sg64
(lp697
S':'
asbag57
(g78
g59
NtRp698
(dp699
g62
(dp700
sg71
g686
sg64
(lp701
g57
(g58
g59
NtRp702
(dp703
g62
(dp704
g70
I3
ssg71
g698
sg64
(lp705
S''
asbasbasbag57
(g73
g59
NtRp706
(dp707
g62
(dp708
sg71
g662
sg64
(lp709
g57
(g78
g59
NtRp710
(dp711
g62
(dp712
g82
g83
ssg71
g706
sg64
(lp713
g338
asbag57
(g78
g59
NtRp714
(dp715
g62
(dp716
g89
g90
ssg71
g706
sg64
(lp717
S':'
asbag57
(g78
g59
NtRp718
(dp719
g62
(dp720
sg71
g706
sg64
(lp721
g57
(g58
g59
NtRp722
(dp723
g62
(dp724
g70
I3
ssg71
g718
sg64
(lp725
S''
asbasbasbag57
(g73
g59
NtRp726
(dp727
g62
(dp728
sg71
g662
sg64
(lp729
g57
(g78
g59
NtRp730
(dp731
g62
(dp732
g82
g83
ssg71
g726
sg64
(lp733
g359
asbag57
(g78
g59
NtRp734
(dp735
g62
(dp736
g89
g90
ssg71
g726
sg64
(lp737
S':'
asbag57
(g78
g59
NtRp738
(dp739
g62
(dp740
sg71
g726
sg64
(lp741
g57
(g58
g59
NtRp742
(dp743
g62
(dp744
g70
I3
ssg71
g738
sg64
(lp745
S''
asbasbasbag57
(g73
g59
NtRp746
(dp747
g62
(dp748
sg71
g662
sg64
(lp749
g57
(g78
g59
NtRp750
(dp751
g62
(dp752
g82
g83
ssg71
g746
sg64
(lp753
g380
asbag57
(g78
g59
NtRp754
(dp755
g62
(dp756
g89
g90
ssg71
g746
sg64
(lp757
S':'
asbag57
(g78
g59
NtRp758
(dp759
g62
(dp760
sg71
g746
sg64
(lp761
g57
(g58
g59
NtRp762
(dp763
g62
(dp764
g70
I3
ssg71
g758
sg64
(lp765
S''
asbasbasbag57
(g73
g59
NtRp766
(dp767
g62
(dp768
sg71
g662
sg64
(lp769
g57
(g78
g59
NtRp770
(dp771
g62
(dp772
g82
g83
ssg71
g766
sg64
(lp773
g401
asbag57
(g78
g59
NtRp774
(dp775
g62
(dp776
g89
g90
ssg71
g766
sg64
(lp777
S':'
asbag57
(g78
g59
NtRp778
(dp779
g62
(dp780
sg71
g766
sg64
(lp781
g57
(g58
g59
NtRp782
(dp783
g62
(dp784
g70
I3
ssg71
g778
sg64
(lp785
S''
asbasbasbag57
(g73
g59
NtRp786
(dp787
g62
(dp788
sg71
g662
sg64
(lp789
g57
(g78
g59
NtRp790
(dp791
g62
(dp792
g82
g83
ssg71
g786
sg64
(lp793
g422
asbag57
(g78
g59
NtRp794
(dp795
g62
(dp796
g89
g90
ssg71
g786
sg64
(lp797
S':'
asbag57
(g78
g59
NtRp798
(dp799
g62
(dp800
sg71
g786
sg64
(lp801
g57
(g58
g59
NtRp802
(dp803
g62
(dp804
g70
I3
ssg71
g798
sg64
(lp805
S''
asbasbasbag57
(g73
g59
NtRp806
(dp807
g62
(dp808
sg71
g662
sg64
(lp809
g57
(g78
g59
NtRp810
(dp811
g62
(dp812
g82
g83
ssg71
g806
sg64
(lp813
g443
asbag57
(g78
g59
NtRp814
(dp815
g62
(dp816
g89
g90
ssg71
g806
sg64
(lp817
S':'
asbag57
(g78
g59
NtRp818
(dp819
g62
(dp820
sg71
g806
sg64
(lp821
g57
(g58
g59
NtRp822
(dp823
g62
(dp824
g70
I3
ssg71
g818
sg64
(lp825
S''
asbasbasbasbasbasbasbasbasbasbasbag57
(g73
g59
NtRp826
(dp827
g62
(dp828
sg71
g67
sg64
(lp829
g57
(g78
g59
NtRp830
(dp831
g62
(dp832
g82
g83
ssg71
g826
sg64
(lp833
S'env'
p834
asbag57
(g78
g59
NtRp835
(dp836
g62
(dp837
g89
g90
ssg71
g826
sg64
(lp838
S':'
asbag57
(g78
g59
NtRp839
(dp840
g62
(dp841
sg71
g826
sg64
(lp842
g57
(g58
g59
NtRp843
(dp844
g62
(dp845
g70
I5
ssg71
g839
sg64
(lp846
g57
(g66
g59
NtRp847
(dp848
g62
(dp849
g70
I4
ssg71
Nsg64
(lp850
g57
(g73
g59
NtRp851
(dp852
g62
(dp853
sg71
g847
sg64
(lp854
g57
(g78
g59
NtRp855
(dp856
g62
(dp857
g82
g83
ssg71
g851
sg64
(lp858
S'app_folders'
p859
asbag57
(g78
g59
NtRp860
(dp861
g62
(dp862
g89
g90
ssg71
g851
sg64
(lp863
S':'
asbag57
(g78
g59
NtRp864
(dp865
g62
(dp866
sg71
g851
sg64
(lp867
g57
(g58
g59
NtRp868
(dp869
g62
(dp870
g70
I4
ssg71
g864
sg64
(lp871
S"set(['/home/jigar/web2py/applications/welcome/', '/home/jigar/web2py/applications/app1/', '/home/jigar/web2py/applications/admin/'])"
p872
asbasbasbag57
(g73
g59
NtRp873
(dp874
g62
(dp875
sg71
g847
sg64
(lp876
g57
(g78
g59
NtRp877
(dp878
g62
(dp879
g82
g83
ssg71
g873
sg64
(lp880
S'applications_parent'
p881
asbag57
(g78
g59
NtRp882
(dp883
g62
(dp884
g89
g90
ssg71
g873
sg64
(lp885
S':'
asbag57
(g78
g59
NtRp886
(dp887
g62
(dp888
sg71
g873
sg64
(lp889
g57
(g58
g59
NtRp890
(dp891
g62
(dp892
g70
I4
ssg71
g886
sg64
(lp893
S'/home/jigar/web2py'
p894
asbasbasbag57
(g73
g59
NtRp895
(dp896
g62
(dp897
sg71
g847
sg64
(lp898
g57
(g78
g59
NtRp899
(dp900
g62
(dp901
g82
g83
ssg71
g895
sg64
(lp902
S'cmd_args'
p903
asbag57
(g78
g59
NtRp904
(dp905
g62
(dp906
g89
g90
ssg71
g895
sg64
(lp907
S':'
asbag57
(g78
g59
NtRp908
(dp909
g62
(dp910
sg71
g895
sg64
(lp911
g57
(g58
g59
NtRp912
(dp913
g62
(dp914
g70
I4
ssg71
g908
sg64
(lp915
g57
(g66
g59
NtRp916
(dp917
g62
(dp918
g70
I3
ssg71
Nsg64
(lp919
sbasbasbasbag57
(g73
g59
NtRp920
(dp921
g62
(dp922
sg71
g847
sg64
(lp923
g57
(g78
g59
NtRp924
(dp925
g62
(dp926
g82
g83
ssg71
g920
sg64
(lp927
S'cmd_options'
p928
asbag57
(g78
g59
NtRp929
(dp930
g62
(dp931
g89
g90
ssg71
g920
sg64
(lp932
S':'
asbag57
(g78
g59
NtRp933
(dp934
g62
(dp935
sg71
g920
sg64
(lp936
g57
(g58
g59
NtRp937
(dp938
g62
(dp939
g70
I4
ssg71
g933
sg64
(lp940
S"<Values at 0x19fcbd8: {'verbose': False, 'ip': '127.0.0.1', 'shutdown_timeout': 5, 'taskbar': False, 'port': 8000, 'maxthreads': None, 'softcron': False, 'server_name': 'jigar-Lenovo-Z580', 'bpython': False, 'nogui': False, 'nocron': False, 'extcron': False, 'debuglevel': 30, 'test': None, 'folder': '/home/jigar/web2py', 'config': '', 'import_models': False, 'winservice': '', 'shell': None, 'run': '', 'log_filename': 'httpserver.log', 'args': [''], 'socket_timeout': 1, 'profiler_filename': None, 'ssl_private_key': '', 'password': '<ask>', 'request_queue_size': 5, 'ssl_certificate': '', 'cronjob': False, 'plain': False, 'quiet': False, 'interfaces': None, 'minthreads': None, 'timeout': 10, 'numthreads': None, 'nobanner': False, 'pid_filename': 'httpserver.pid'}>"
p941
asbasbasbag57
(g73
g59
NtRp942
(dp943
g62
(dp944
sg71
g847
sg64
(lp945
g57
(g78
g59
NtRp946
(dp947
g62
(dp948
g82
g83
ssg71
g942
sg64
(lp949
S'db_sessions'
p950
asbag57
(g78
g59
NtRp951
(dp952
g62
(dp953
g89
g90
ssg71
g942
sg64
(lp954
S':'
asbag57
(g78
g59
NtRp955
(dp956
g62
(dp957
sg71
g942
sg64
(lp958
g57
(g58
g59
NtRp959
(dp960
g62
(dp961
g70
I4
ssg71
g955
sg64
(lp962
S'set([])'
p963
asbasbasbag57
(g73
g59
NtRp964
(dp965
g62
(dp966
sg71
g847
sg64
(lp967
g57
(g78
g59
NtRp968
(dp969
g62
(dp970
g82
g83
ssg71
g964
sg64
(lp971
S'debugging'
p972
asbag57
(g78
g59
NtRp973
(dp974
g62
(dp975
g89
g90
ssg71
g964
sg64
(lp976
S':'
asbag57
(g78
g59
NtRp977
(dp978
g62
(dp979
sg71
g964
sg64
(lp980
g57
(g58
g59
NtRp981
(dp982
g62
(dp983
g70
I4
ssg71
g977
sg64
(lp984
g100
asbasbasbag57
(g73
g59
NtRp985
(dp986
g62
(dp987
sg71
g847
sg64
(lp988
g57
(g78
g59
NtRp989
(dp990
g62
(dp991
g82
g83
ssg71
g985
sg64
(lp992
S'gluon_parent'
p993
asbag57
(g78
g59
NtRp994
(dp995
g62
(dp996
g89
g90
ssg71
g985
sg64
(lp997
S':'
asbag57
(g78
g59
NtRp998
(dp999
g62
(dp1000
sg71
g985
sg64
(lp1001
g57
(g58
g59
NtRp1002
(dp1003
g62
(dp1004
g70
I4
ssg71
g998
sg64
(lp1005
S'/usr/share/web2py'
p1006
asbasbasbag57
(g73
g59
NtRp1007
(dp1008
g62
(dp1009
sg71
g847
sg64
(lp1010
g57
(g78
g59
NtRp1011
(dp1012
g62
(dp1013
g82
g83
ssg71
g1007
sg64
(lp1014
S'http_accept'
p1015
asbag57
(g78
g59
NtRp1016
(dp1017
g62
(dp1018
g89
g90
ssg71
g1007
sg64
(lp1019
S':'
asbag57
(g78
g59
NtRp1020
(dp1021
g62
(dp1022
sg71
g1007
sg64
(lp1023
g57
(g58
g59
NtRp1024
(dp1025
g62
(dp1026
g70
I4
ssg71
g1020
sg64
(lp1027
S'text/html,application/xhtml+xml,application/xml;q=0.9,*/*;q=0.8'
p1028
asbasbasbag57
(g73
g59
NtRp1029
(dp1030
g62
(dp1031
sg71
g847
sg64
(lp1032
g57
(g78
g59
NtRp1033
(dp1034
g62
(dp1035
g82
g83
ssg71
g1029
sg64
(lp1036
S'http_accept_encoding'
p1037
asbag57
(g78
g59
NtRp1038
(dp1039
g62
(dp1040
g89
g90
ssg71
g1029
sg64
(lp1041
S':'
asbag57
(g78
g59
NtRp1042
(dp1043
g62
(dp1044
sg71
g1029
sg64
(lp1045
g57
(g58
g59
NtRp1046
(dp1047
g62
(dp1048
g70
I4
ssg71
g1042
sg64
(lp1049
S'gzip, deflate'
p1050
asbasbasbag57
(g73
g59
NtRp1051
(dp1052
g62
(dp1053
sg71
g847
sg64
(lp1054
g57
(g78
g59
NtRp1055
(dp1056
g62
(dp1057
g82
g83
ssg71
g1051
sg64
(lp1058
S'http_accept_language'
p1059
asbag57
(g78
g59
NtRp1060
(dp1061
g62
(dp1062
g89
g90
ssg71
g1051
sg64
(lp1063
S':'
asbag57
(g78
g59
NtRp1064
(dp1065
g62
(dp1066
sg71
g1051
sg64
(lp1067
g57
(g58
g59
NtRp1068
(dp1069
g62
(dp1070
g70
I4
ssg71
g1064
sg64
(lp1071
S'en-US,en;q=0.5'
p1072
asbasbasbag57
(g73
g59
NtRp1073
(dp1074
g62
(dp1075
sg71
g847
sg64
(lp1076
g57
(g78
g59
NtRp1077
(dp1078
g62
(dp1079
g82
g83
ssg71
g1073
sg64
(lp1080
S'http_cache_control'
p1081
asbag57
(g78
g59
NtRp1082
(dp1083
g62
(dp1084
g89
g90
ssg71
g1073
sg64
(lp1085
S':'
asbag57
(g78
g59
NtRp1086
(dp1087
g62
(dp1088
sg71
g1073
sg64
(lp1089
g57
(g58
g59
NtRp1090
(dp1091
g62
(dp1092
g70
I4
ssg71
g1086
sg64
(lp1093
S'max-age=0'
p1094
asbasbasbag57
(g73
g59
NtRp1095
(dp1096
g62
(dp1097
sg71
g847
sg64
(lp1098
g57
(g78
g59
NtRp1099
(dp1100
g62
(dp1101
g82
g83
ssg71
g1095
sg64
(lp1102
S'http_connection'
p1103
asbag57
(g78
g59
NtRp1104
(dp1105
g62
(dp1106
g89
g90
ssg71
g1095
sg64
(lp1107
S':'
asbag57
(g78
g59
NtRp1108
(dp1109
g62
(dp1110
sg71
g1095
sg64
(lp1111
g57
(g58
g59
NtRp1112
(dp1113
g62
(dp1114
g70
I4
ssg71
g1108
sg64
(lp1115
S'keep-alive'
p1116
asbasbasbag57
(g73
g59
NtRp1117
(dp1118
g62
(dp1119
sg71
g847
sg64
(lp1120
g57
(g78
g59
NtRp1121
(dp1122
g62
(dp1123
g82
g83
ssg71
g1117
sg64
(lp1124
S'http_cookie'
p1125
asbag57
(g78
g59
NtRp1126
(dp1127
g62
(dp1128
g89
g90
ssg71
g1117
sg64
(lp1129
S':'
asbag57
(g78
g59
NtRp1130
(dp1131
g62
(dp1132
sg71
g1117
sg64
(lp1133
g57
(g58
g59
NtRp1134
(dp1135
g62
(dp1136
g70
I4
ssg71
g1130
sg64
(lp1137
S'session_id_welcome=127.0.0.1-b6f0729f-1b7b-417f-a0c4-729ef9448dca; session_id_admin=127.0.0.1-932cca65-c849-4cc4-aeab-720ab1480de6; session_id_app1=127.0.0.1-15782adb-a404-4b3e-868f-e60d89b9be1b'
p1138
asbasbasbag57
(g73
g59
NtRp1139
(dp1140
g62
(dp1141
sg71
g847
sg64
(lp1142
g57
(g78
g59
NtRp1143
(dp1144
g62
(dp1145
g82
g83
ssg71
g1139
sg64
(lp1146
S'http_host'
p1147
asbag57
(g78
g59
NtRp1148
(dp1149
g62
(dp1150
g89
g90
ssg71
g1139
sg64
(lp1151
S':'
asbag57
(g78
g59
NtRp1152
(dp1153
g62
(dp1154
sg71
g1139
sg64
(lp1155
g57
(g58
g59
NtRp1156
(dp1157
g62
(dp1158
g70
I4
ssg71
g1152
sg64
(lp1159
S'127.0.0.1:8000'
p1160
asbasbasbag57
(g73
g59
NtRp1161
(dp1162
g62
(dp1163
sg71
g847
sg64
(lp1164
g57
(g78
g59
NtRp1165
(dp1166
g62
(dp1167
g82
g83
ssg71
g1161
sg64
(lp1168
S'http_referer'
p1169
asbag57
(g78
g59
NtRp1170
(dp1171
g62
(dp1172
g89
g90
ssg71
g1161
sg64
(lp1173
S':'
asbag57
(g78
g59
NtRp1174
(dp1175
g62
(dp1176
sg71
g1161
sg64
(lp1177
g57
(g58
g59
NtRp1178
(dp1179
g62
(dp1180
g70
I4
ssg71
g1174
sg64
(lp1181
S'http://127.0.0.1:8000/app1/default/lall'
p1182
asbasbasbag57
(g73
g59
NtRp1183
(dp1184
g62
(dp1185
sg71
g847
sg64
(lp1186
g57
(g78
g59
NtRp1187
(dp1188
g62
(dp1189
g82
g83
ssg71
g1183
sg64
(lp1190
S'http_user_agent'
p1191
asbag57
(g78
g59
NtRp1192
(dp1193
g62
(dp1194
g89
g90
ssg71
g1183
sg64
(lp1195
S':'
asbag57
(g78
g59
NtRp1196
(dp1197
g62
(dp1198
sg71
g1183
sg64
(lp1199
g57
(g58
g59
NtRp1200
(dp1201
g62
(dp1202
g70
I4
ssg71
g1196
sg64
(lp1203
S'Mozilla/5.0 (X11; Ubuntu; Linux x86_64; rv:23.0) Gecko/20100101 Firefox/23.0'
p1204
asbasbasbag57
(g73
g59
NtRp1205
(dp1206
g62
(dp1207
sg71
g847
sg64
(lp1208
g57
(g78
g59
NtRp1209
(dp1210
g62
(dp1211
g82
g83
ssg71
g1205
sg64
(lp1212
S'is_jython'
p1213
asbag57
(g78
g59
NtRp1214
(dp1215
g62
(dp1216
g89
g90
ssg71
g1205
sg64
(lp1217
S':'
asbag57
(g78
g59
NtRp1218
(dp1219
g62
(dp1220
sg71
g1205
sg64
(lp1221
g57
(g58
g59
NtRp1222
(dp1223
g62
(dp1224
g70
I4
ssg71
g1218
sg64
(lp1225
g100
asbasbasbag57
(g73
g59
NtRp1226
(dp1227
g62
(dp1228
sg71
g847
sg64
(lp1229
g57
(g78
g59
NtRp1230
(dp1231
g62
(dp1232
g82
g83
ssg71
g1226
sg64
(lp1233
S'is_pypy'
p1234
asbag57
(g78
g59
NtRp1235
(dp1236
g62
(dp1237
g89
g90
ssg71
g1226
sg64
(lp1238
S':'
asbag57
(g78
g59
NtRp1239
(dp1240
g62
(dp1241
sg71
g1226
sg64
(lp1242
g57
(g58
g59
NtRp1243
(dp1244
g62
(dp1245
g70
I4
ssg71
g1239
sg64
(lp1246
g100
asbasbasbag57
(g73
g59
NtRp1247
(dp1248
g62
(dp1249
sg71
g847
sg64
(lp1250
g57
(g78
g59
NtRp1251
(dp1252
g62
(dp1253
g82
g83
ssg71
g1247
sg64
(lp1254
S'path_info'
p1255
asbag57
(g78
g59
NtRp1256
(dp1257
g62
(dp1258
g89
g90
ssg71
g1247
sg64
(lp1259
S':'
asbag57
(g78
g59
NtRp1260
(dp1261
g62
(dp1262
sg71
g1247
sg64
(lp1263
g57
(g58
g59
NtRp1264
(dp1265
g62
(dp1266
g70
I4
ssg71
g1260
sg64
(lp1267
S'/app1/default/lall/0/like'
p1268
asbasbasbag57
(g73
g59
NtRp1269
(dp1270
g62
(dp1271
sg71
g847
sg64
(lp1272
g57
(g78
g59
NtRp1273
(dp1274
g62
(dp1275
g82
g83
ssg71
g1269
sg64
(lp1276
S'query_string'
p1277
asbag57
(g78
g59
NtRp1278
(dp1279
g62
(dp1280
g89
g90
ssg71
g1269
sg64
(lp1281
S':'
asbag57
(g78
g59
NtRp1282
(dp1283
g62
(dp1284
sg71
g1269
sg64
(lp1285
g57
(g58
g59
NtRp1286
(dp1287
g62
(dp1288
g70
I4
ssg71
g1282
sg64
(lp1289
S''
asbasbasbag57
(g73
g59
NtRp1290
(dp1291
g62
(dp1292
sg71
g847
sg64
(lp1293
g57
(g78
g59
NtRp1294
(dp1295
g62
(dp1296
g82
g83
ssg71
g1290
sg64
(lp1297
S'remote_addr'
p1298
asbag57
(g78
g59
NtRp1299
(dp1300
g62
(dp1301
g89
g90
ssg71
g1290
sg64
(lp1302
S':'
asbag57
(g78
g59
NtRp1303
(dp1304
g62
(dp1305
sg71
g1290
sg64
(lp1306
g57
(g58
g59
NtRp1307
(dp1308
g62
(dp1309
g70
I4
ssg71
g1303
sg64
(lp1310
g215
asbasbasbag57
(g73
g59
NtRp1311
(dp1312
g62
(dp1313
sg71
g847
sg64
(lp1314
g57
(g78
g59
NtRp1315
(dp1316
g62
(dp1317
g82
g83
ssg71
g1311
sg64
(lp1318
S'remote_port'
p1319
asbag57
(g78
g59
NtRp1320
(dp1321
g62
(dp1322
g89
g90
ssg71
g1311
sg64
(lp1323
S':'
asbag57
(g78
g59
NtRp1324
(dp1325
g62
(dp1326
sg71
g1311
sg64
(lp1327
g57
(g58
g59
NtRp1328
(dp1329
g62
(dp1330
g70
I4
ssg71
g1324
sg64
(lp1331
S'56783'
p1332
asbasbasbag57
(g73
g59
NtRp1333
(dp1334
g62
(dp1335
sg71
g847
sg64
(lp1336
g57
(g78
g59
NtRp1337
(dp1338
g62
(dp1339
g82
g83
ssg71
g1333
sg64
(lp1340
S'request_method'
p1341
asbag57
(g78
g59
NtRp1342
(dp1343
g62
(dp1344
g89
g90
ssg71
g1333
sg64
(lp1345
S':'
asbag57
(g78
g59
NtRp1346
(dp1347
g62
(dp1348
sg71
g1333
sg64
(lp1349
g57
(g58
g59
NtRp1350
(dp1351
g62
(dp1352
g70
I4
ssg71
g1346
sg64
(lp1353
S'GET'
p1354
asbasbasbag57
(g73
g59
NtRp1355
(dp1356
g62
(dp1357
sg71
g847
sg64
(lp1358
g57
(g78
g59
NtRp1359
(dp1360
g62
(dp1361
g82
g83
ssg71
g1355
sg64
(lp1362
S'script_name'
p1363
asbag57
(g78
g59
NtRp1364
(dp1365
g62
(dp1366
g89
g90
ssg71
g1355
sg64
(lp1367
S':'
asbag57
(g78
g59
NtRp1368
(dp1369
g62
(dp1370
sg71
g1355
sg64
(lp1371
g57
(g58
g59
NtRp1372
(dp1373
g62
(dp1374
g70
I4
ssg71
g1368
sg64
(lp1375
S''
asbasbasbag57
(g73
g59
NtRp1376
(dp1377
g62
(dp1378
sg71
g847
sg64
(lp1379
g57
(g78
g59
NtRp1380
(dp1381
g62
(dp1382
g82
g83
ssg71
g1376
sg64
(lp1383
S'server_name'
p1384
asbag57
(g78
g59
NtRp1385
(dp1386
g62
(dp1387
g89
g90
ssg71
g1376
sg64
(lp1388
S':'
asbag57
(g78
g59
NtRp1389
(dp1390
g62
(dp1391
sg71
g1376
sg64
(lp1392
g57
(g58
g59
NtRp1393
(dp1394
g62
(dp1395
g70
I4
ssg71
g1389
sg64
(lp1396
S'jigar-Lenovo-Z580'
p1397
asbasbasbag57
(g73
g59
NtRp1398
(dp1399
g62
(dp1400
sg71
g847
sg64
(lp1401
g57
(g78
g59
NtRp1402
(dp1403
g62
(dp1404
g82
g83
ssg71
g1398
sg64
(lp1405
S'server_port'
p1406
asbag57
(g78
g59
NtRp1407
(dp1408
g62
(dp1409
g89
g90
ssg71
g1398
sg64
(lp1410
S':'
asbag57
(g78
g59
NtRp1411
(dp1412
g62
(dp1413
sg71
g1398
sg64
(lp1414
g57
(g58
g59
NtRp1415
(dp1416
g62
(dp1417
g70
I4
ssg71
g1411
sg64
(lp1418
S'8000'
p1419
asbasbasbag57
(g73
g59
NtRp1420
(dp1421
g62
(dp1422
sg71
g847
sg64
(lp1423
g57
(g78
g59
NtRp1424
(dp1425
g62
(dp1426
g82
g83
ssg71
g1420
sg64
(lp1427
S'server_protocol'
p1428
asbag57
(g78
g59
NtRp1429
(dp1430
g62
(dp1431
g89
g90
ssg71
g1420
sg64
(lp1432
S':'
asbag57
(g78
g59
NtRp1433
(dp1434
g62
(dp1435
sg71
g1420
sg64
(lp1436
g57
(g58
g59
NtRp1437
(dp1438
g62
(dp1439
g70
I4
ssg71
g1433
sg64
(lp1440
S'HTTP/1.1'
p1441
asbasbasbag57
(g73
g59
NtRp1442
(dp1443
g62
(dp1444
sg71
g847
sg64
(lp1445
g57
(g78
g59
NtRp1446
(dp1447
g62
(dp1448
g82
g83
ssg71
g1442
sg64
(lp1449
S'server_software'
p1450
asbag57
(g78
g59
NtRp1451
(dp1452
g62
(dp1453
g89
g90
ssg71
g1442
sg64
(lp1454
S':'
asbag57
(g78
g59
NtRp1455
(dp1456
g62
(dp1457
sg71
g1442
sg64
(lp1458
g57
(g58
g59
NtRp1459
(dp1460
g62
(dp1461
g70
I4
ssg71
g1455
sg64
(lp1462
S'Rocket 1.2.4'
p1463
asbasbasbag57
(g73
g59
NtRp1464
(dp1465
g62
(dp1466
sg71
g847
sg64
(lp1467
g57
(g78
g59
NtRp1468
(dp1469
g62
(dp1470
g82
g83
ssg71
g1464
sg64
(lp1471
S'web2py_crontype'
p1472
asbag57
(g78
g59
NtRp1473
(dp1474
g62
(dp1475
g89
g90
ssg71
g1464
sg64
(lp1476
S':'
asbag57
(g78
g59
NtRp1477
(dp1478
g62
(dp1479
sg71
g1464
sg64
(lp1480
g57
(g58
g59
NtRp1481
(dp1482
g62
(dp1483
g70
I4
ssg71
g1477
sg64
(lp1484
S'hard'
p1485
asbasbasbag57
(g73
g59
NtRp1486
(dp1487
g62
(dp1488
sg71
g847
sg64
(lp1489
g57
(g78
g59
NtRp1490
(dp1491
g62
(dp1492
g82
g83
ssg71
g1486
sg64
(lp1493
S'web2py_path'
p1494
asbag57
(g78
g59
NtRp1495
(dp1496
g62
(dp1497
g89
g90
ssg71
g1486
sg64
(lp1498
S':'
asbag57
(g78
g59
NtRp1499
(dp1500
g62
(dp1501
sg71
g1486
sg64
(lp1502
g57
(g58
g59
NtRp1503
(dp1504
g62
(dp1505
g70
I4
ssg71
g1499
sg64
(lp1506
g894
asbasbasbag57
(g73
g59
NtRp1507
(dp1508
g62
(dp1509
sg71
g847
sg64
(lp1510
g57
(g78
g59
NtRp1511
(dp1512
g62
(dp1513
g82
g83
ssg71
g1507
sg64
(lp1514
S'web2py_version'
p1515
asbag57
(g78
g59
NtRp1516
(dp1517
g62
(dp1518
g89
g90
ssg71
g1507
sg64
(lp1519
S':'
asbag57
(g78
g59
NtRp1520
(dp1521
g62
(dp1522
sg71
g1507
sg64
(lp1523
g57
(g58
g59
NtRp1524
(dp1525
g62
(dp1526
g70
I4
ssg71
g1520
sg64
(lp1527
g57
(g66
g59
NtRp1528
(dp1529
g62
(dp1530
g70
I3
ssg71
Nsg64
(lp1531
g57
(g73
g59
NtRp1532
(dp1533
g62
(dp1534
sg71
g1528
sg64
(lp1535
g57
(g78
g59
NtRp1536
(dp1537
g62
(dp1538
sg71
g1532
sg64
(lp1539
g57
(g58
g59
NtRp1540
(dp1541
g62
(dp1542
g70
I3
ssg71
g1536
sg64
(lp1543
S'1'
asbasbasbag57
(g73
g59
NtRp1544
(dp1545
g62
(dp1546
sg71
g1528
sg64
(lp1547
g57
(g78
g59
NtRp1548
(dp1549
g62
(dp1550
sg71
g1544
sg64
(lp1551
g57
(g58
g59
NtRp1552
(dp1553
g62
(dp1554
g70
I3
ssg71
g1548
sg64
(lp1555
S'99'
p1556
asbasbasbag57
(g73
g59
NtRp1557
(dp1558
g62
(dp1559
sg71
g1528
sg64
(lp1560
g57
(g78
g59
NtRp1561
(dp1562
g62
(dp1563
sg71
g1557
sg64
(lp1564
g57
(g58
g59
NtRp1565
(dp1566
g62
(dp1567
g70
I3
ssg71
g1561
sg64
(lp1568
S'4'
asbasbasbag57
(g73
g59
NtRp1569
(dp1570
g62
(dp1571
sg71
g1528
sg64
(lp1572
g57
(g78
g59
NtRp1573
(dp1574
g62
(dp1575
sg71
g1569
sg64
(lp1576
g57
(g58
g59
NtRp1577
(dp1578
g62
(dp1579
g70
I3
ssg71
g1573
sg64
(lp1580
S'datetime.datetime(2011, 12, 14, 14, 46, 14)'
p1581
asbasbasbag57
(g73
g59
NtRp1582
(dp1583
g62
(dp1584
sg71
g1528
sg64
(lp1585
g57
(g78
g59
NtRp1586
(dp1587
g62
(dp1588
sg71
g1582
sg64
(lp1589
g57
(g58
g59
NtRp1590
(dp1591
g62
(dp1592
g70
I3
ssg71
g1586
sg64
(lp1593
S'stable'
p1594
asbasbasbasbasbasbasbag57
(g73
g59
NtRp1595
(dp1596
g62
(dp1597
sg71
g847
sg64
(lp1598
g57
(g78
g59
NtRp1599
(dp1600
g62
(dp1601
g82
g83
ssg71
g1595
sg64
(lp1602
S'wsgi_errors'
p1603
asbag57
(g78
g59
NtRp1604
(dp1605
g62
(dp1606
g89
g90
ssg71
g1595
sg64
(lp1607
S':'
asbag57
(g78
g59
NtRp1608
(dp1609
g62
(dp1610
sg71
g1595
sg64
(lp1611
g57
(g58
g59
NtRp1612
(dp1613
g62
(dp1614
g70
I4
ssg71
g1608
sg64
(lp1615
S"<open file '<stderr>', mode 'w' at 0x7fc883477270>"
p1616
asbasbasbag57
(g73
g59
NtRp1617
(dp1618
g62
(dp1619
sg71
g847
sg64
(lp1620
g57
(g78
g59
NtRp1621
(dp1622
g62
(dp1623
g82
g83
ssg71
g1617
sg64
(lp1624
S'wsgi_file_wrapper'
p1625
asbag57
(g78
g59
NtRp1626
(dp1627
g62
(dp1628
g89
g90
ssg71
g1617
sg64
(lp1629
S':'
asbag57
(g78
g59
NtRp1630
(dp1631
g62
(dp1632
sg71
g1617
sg64
(lp1633
g57
(g58
g59
NtRp1634
(dp1635
g62
(dp1636
g70
I4
ssg71
g1630
sg64
(lp1637
S'<class wsgiref.util.FileWrapper at 0x1937328>'
p1638
asbasbasbag57
(g73
g59
NtRp1639
(dp1640
g62
(dp1641
sg71
g847
sg64
(lp1642
g57
(g78
g59
NtRp1643
(dp1644
g62
(dp1645
g82
g83
ssg71
g1639
sg64
(lp1646
S'wsgi_input'
p1647
asbag57
(g78
g59
NtRp1648
(dp1649
g62
(dp1650
g89
g90
ssg71
g1639
sg64
(lp1651
S':'
asbag57
(g78
g59
NtRp1652
(dp1653
g62
(dp1654
sg71
g1639
sg64
(lp1655
g57
(g58
g59
NtRp1656
(dp1657
g62
(dp1658
g70
I4
ssg71
g1652
sg64
(lp1659
S'<socket._fileobject object at 0x7fc854252750>'
p1660
asbasbasbag57
(g73
g59
NtRp1661
(dp1662
g62
(dp1663
sg71
g847
sg64
(lp1664
g57
(g78
g59
NtRp1665
(dp1666
g62
(dp1667
g82
g83
ssg71
g1661
sg64
(lp1668
S'wsgi_multiprocess'
p1669
asbag57
(g78
g59
NtRp1670
(dp1671
g62
(dp1672
g89
g90
ssg71
g1661
sg64
(lp1673
S':'
asbag57
(g78
g59
NtRp1674
(dp1675
g62
(dp1676
sg71
g1661
sg64
(lp1677
g57
(g58
g59
NtRp1678
(dp1679
g62
(dp1680
g70
I4
ssg71
g1674
sg64
(lp1681
g100
asbasbasbag57
(g73
g59
NtRp1682
(dp1683
g62
(dp1684
sg71
g847
sg64
(lp1685
g57
(g78
g59
NtRp1686
(dp1687
g62
(dp1688
g82
g83
ssg71
g1682
sg64
(lp1689
S'wsgi_multithread'
p1690
asbag57
(g78
g59
NtRp1691
(dp1692
g62
(dp1693
g89
g90
ssg71
g1682
sg64
(lp1694
S':'
asbag57
(g78
g59
NtRp1695
(dp1696
g62
(dp1697
sg71
g1682
sg64
(lp1698
g57
(g58
g59
NtRp1699
(dp1700
g62
(dp1701
g70
I4
ssg71
g1695
sg64
(lp1702
S'True'
p1703
asbasbasbag57
(g73
g59
NtRp1704
(dp1705
g62
(dp1706
sg71
g847
sg64
(lp1707
g57
(g78
g59
NtRp1708
(dp1709
g62
(dp1710
g82
g83
ssg71
g1704
sg64
(lp1711
S'wsgi_run_once'
p1712
asbag57
(g78
g59
NtRp1713
(dp1714
g62
(dp1715
g89
g90
ssg71
g1704
sg64
(lp1716
S':'
asbag57
(g78
g59
NtRp1717
(dp1718
g62
(dp1719
sg71
g1704
sg64
(lp1720
g57
(g58
g59
NtRp1721
(dp1722
g62
(dp1723
g70
I4
ssg71
g1717
sg64
(lp1724
g100
asbasbasbag57
(g73
g59
NtRp1725
(dp1726
g62
(dp1727
sg71
g847
sg64
(lp1728
g57
(g78
g59
NtRp1729
(dp1730
g62
(dp1731
g82
g83
ssg71
g1725
sg64
(lp1732
S'wsgi_url_scheme'
p1733
asbag57
(g78
g59
NtRp1734
(dp1735
g62
(dp1736
g89
g90
ssg71
g1725
sg64
(lp1737
S':'
asbag57
(g78
g59
NtRp1738
(dp1739
g62
(dp1740
sg71
g1725
sg64
(lp1741
g57
(g58
g59
NtRp1742
(dp1743
g62
(dp1744
g70
I4
ssg71
g1738
sg64
(lp1745
S'http'
p1746
asbasbasbag57
(g73
g59
NtRp1747
(dp1748
g62
(dp1749
sg71
g847
sg64
(lp1750
g57
(g78
g59
NtRp1751
(dp1752
g62
(dp1753
g82
g83
ssg71
g1747
sg64
(lp1754
S'wsgi_version'
p1755
asbag57
(g78
g59
NtRp1756
(dp1757
g62
(dp1758
g89
g90
ssg71
g1747
sg64
(lp1759
S':'
asbag57
(g78
g59
NtRp1760
(dp1761
g62
(dp1762
sg71
g1747
sg64
(lp1763
g57
(g58
g59
NtRp1764
(dp1765
g62
(dp1766
g70
I4
ssg71
g1760
sg64
(lp1767
g57
(g66
g59
NtRp1768
(dp1769
g62
(dp1770
g70
I3
ssg71
Nsg64
(lp1771
g57
(g73
g59
NtRp1772
(dp1773
g62
(dp1774
sg71
g1768
sg64
(lp1775
g57
(g78
g59
NtRp1776
(dp1777
g62
(dp1778
sg71
g1772
sg64
(lp1779
g57
(g58
g59
NtRp1780
(dp1781
g62
(dp1782
g70
I3
ssg71
g1776
sg64
(lp1783
S'1'
asbasbasbag57
(g73
g59
NtRp1784
(dp1785
g62
(dp1786
sg71
g1768
sg64
(lp1787
g57
(g78
g59
NtRp1788
(dp1789
g62
(dp1790
sg71
g1784
sg64
(lp1791
g57
(g58
g59
NtRp1792
(dp1793
g62
(dp1794
g70
I3
ssg71
g1788
sg64
(lp1795
S'0'
asbasbasbasbasbasbasbasbasbasbasbag57
(g73
g59
NtRp1796
(dp1797
g62
(dp1798
sg71
g67
sg64
(lp1799
g57
(g78
g59
NtRp1800
(dp1801
g62
(dp1802
g82
g83
ssg71
g1796
sg64
(lp1803
S'extension'
p1804
asbag57
(g78
g59
NtRp1805
(dp1806
g62
(dp1807
g89
g90
ssg71
g1796
sg64
(lp1808
S':'
asbag57
(g78
g59
NtRp1809
(dp1810
g62
(dp1811
sg71
g1796
sg64
(lp1812
g57
(g58
g59
NtRp1813
(dp1814
g62
(dp1815
g70
I5
ssg71
g1809
sg64
(lp1816
S'html'
p1817
asbasbasbag57
(g73
g59
NtRp1818
(dp1819
g62
(dp1820
sg71
g67
sg64
(lp1821
g57
(g78
g59
NtRp1822
(dp1823
g62
(dp1824
g82
g83
ssg71
g1818
sg64
(lp1825
S'folder'
p1826
asbag57
(g78
g59
NtRp1827
(dp1828
g62
(dp1829
g89
g90
ssg71
g1818
sg64
(lp1830
S':'
asbag57
(g78
g59
NtRp1831
(dp1832
g62
(dp1833
sg71
g1818
sg64
(lp1834
g57
(g58
g59
NtRp1835
(dp1836
g62
(dp1837
g70
I5
ssg71
g1831
sg64
(lp1838
S'/home/jigar/web2py/applications/app1/'
p1839
asbasbasbag57
(g73
g59
NtRp1840
(dp1841
g62
(dp1842
sg71
g67
sg64
(lp1843
g57
(g78
g59
NtRp1844
(dp1845
g62
(dp1846
g82
g83
ssg71
g1840
sg64
(lp1847
S'function'
p1848
asbag57
(g78
g59
NtRp1849
(dp1850
g62
(dp1851
g89
g90
ssg71
g1840
sg64
(lp1852
S':'
asbag57
(g78
g59
NtRp1853
(dp1854
g62
(dp1855
sg71
g1840
sg64
(lp1856
g57
(g58
g59
NtRp1857
(dp1858
g62
(dp1859
g70
I5
ssg71
g1853
sg64
(lp1860
S'lall'
p1861
asbasbasbag57
(g73
g59
NtRp1862
(dp1863
g62
(dp1864
sg71
g67
sg64
(lp1865
g57
(g78
g59
NtRp1866
(dp1867
g62
(dp1868
g82
g83
ssg71
g1862
sg64
(lp1869
S'get_vars'
p1870
asbag57
(g78
g59
NtRp1871
(dp1872
g62
(dp1873
g89
g90
ssg71
g1862
sg64
(lp1874
S':'
asbag57
(g78
g59
NtRp1875
(dp1876
g62
(dp1877
sg71
g1862
sg64
(lp1878
g57
(g58
g59
NtRp1879
(dp1880
g62
(dp1881
g70
I5
ssg71
g1875
sg64
(lp1882
g57
(g66
g59
NtRp1883
(dp1884
g62
(dp1885
g70
I4
ssg71
Nsg64
(lp1886
sbasbasbasbag57
(g73
g59
NtRp1887
(dp1888
g62
(dp1889
sg71
g67
sg64
(lp1890
g57
(g78
g59
NtRp1891
(dp1892
g62
(dp1893
g82
g83
ssg71
g1887
sg64
(lp1894
S'global_settings'
p1895
asbag57
(g78
g59
NtRp1896
(dp1897
g62
(dp1898
g89
g90
ssg71
g1887
sg64
(lp1899
S':'
asbag57
(g78
g59
NtRp1900
(dp1901
g62
(dp1902
sg71
g1887
sg64
(lp1903
g57
(g58
g59
NtRp1904
(dp1905
g62
(dp1906
g70
I5
ssg71
g1900
sg64
(lp1907
g57
(g66
g59
NtRp1908
(dp1909
g62
(dp1910
g70
I4
ssg71
Nsg64
(lp1911
g57
(g73
g59
NtRp1912
(dp1913
g62
(dp1914
sg71
g1908
sg64
(lp1915
g57
(g78
g59
NtRp1916
(dp1917
g62
(dp1918
g82
g83
ssg71
g1912
sg64
(lp1919
g859
asbag57
(g78
g59
NtRp1920
(dp1921
g62
(dp1922
g89
g90
ssg71
g1912
sg64
(lp1923
S':'
asbag57
(g78
g59
NtRp1924
(dp1925
g62
(dp1926
sg71
g1912
sg64
(lp1927
g57
(g58
g59
NtRp1928
(dp1929
g62
(dp1930
g70
I4
ssg71
g1924
sg64
(lp1931
S"set(['/home/jigar/web2py/applications/welcome/', '/home/jigar/web2py/applications/app1/', '/home/jigar/web2py/applications/admin/'])"
p1932
asbasbasbag57
(g73
g59
NtRp1933
(dp1934
g62
(dp1935
sg71
g1908
sg64
(lp1936
g57
(g78
g59
NtRp1937
(dp1938
g62
(dp1939
g82
g83
ssg71
g1933
sg64
(lp1940
g881
asbag57
(g78
g59
NtRp1941
(dp1942
g62
(dp1943
g89
g90
ssg71
g1933
sg64
(lp1944
S':'
asbag57
(g78
g59
NtRp1945
(dp1946
g62
(dp1947
sg71
g1933
sg64
(lp1948
g57
(g58
g59
NtRp1949
(dp1950
g62
(dp1951
g70
I4
ssg71
g1945
sg64
(lp1952
g894
asbasbasbag57
(g73
g59
NtRp1953
(dp1954
g62
(dp1955
sg71
g1908
sg64
(lp1956
g57
(g78
g59
NtRp1957
(dp1958
g62
(dp1959
g82
g83
ssg71
g1953
sg64
(lp1960
g903
asbag57
(g78
g59
NtRp1961
(dp1962
g62
(dp1963
g89
g90
ssg71
g1953
sg64
(lp1964
S':'
asbag57
(g78
g59
NtRp1965
(dp1966
g62
(dp1967
sg71
g1953
sg64
(lp1968
g57
(g58
g59
NtRp1969
(dp1970
g62
(dp1971
g70
I4
ssg71
g1965
sg64
(lp1972
g57
(g66
g59
NtRp1973
(dp1974
g62
(dp1975
g70
I3
ssg71
Nsg64
(lp1976
sbasbasbasbag57
(g73
g59
NtRp1977
(dp1978
g62
(dp1979
sg71
g1908
sg64
(lp1980
g57
(g78
g59
NtRp1981
(dp1982
g62
(dp1983
g82
g83
ssg71
g1977
sg64
(lp1984
g928
asbag57
(g78
g59
NtRp1985
(dp1986
g62
(dp1987
g89
g90
ssg71
g1977
sg64
(lp1988
S':'
asbag57
(g78
g59
NtRp1989
(dp1990
g62
(dp1991
sg71
g1977
sg64
(lp1992
g57
(g58
g59
NtRp1993
(dp1994
g62
(dp1995
g70
I4
ssg71
g1989
sg64
(lp1996
S"<Values at 0x19fcbd8: {'verbose': False, 'ip': '127.0.0.1', 'shutdown_timeout': 5, 'taskbar': False, 'port': 8000, 'maxthreads': None, 'softcron': False, 'server_name': 'jigar-Lenovo-Z580', 'bpython': False, 'nogui': False, 'nocron': False, 'extcron': False, 'debuglevel': 30, 'test': None, 'folder': '/home/jigar/web2py', 'config': '', 'import_models': False, 'winservice': '', 'shell': None, 'run': '', 'log_filename': 'httpserver.log', 'args': [''], 'socket_timeout': 1, 'profiler_filename': None, 'ssl_private_key': '', 'password': '<ask>', 'request_queue_size': 5, 'ssl_certificate': '', 'cronjob': False, 'plain': False, 'quiet': False, 'interfaces': None, 'minthreads': None, 'timeout': 10, 'numthreads': None, 'nobanner': False, 'pid_filename': 'httpserver.pid'}>"
p1997
asbasbasbag57
(g73
g59
NtRp1998
(dp1999
g62
(dp2000
sg71
g1908
sg64
(lp2001
g57
(g78
g59
NtRp2002
(dp2003
g62
(dp2004
g82
g83
ssg71
g1998
sg64
(lp2005
g950
asbag57
(g78
g59
NtRp2006
(dp2007
g62
(dp2008
g89
g90
ssg71
g1998
sg64
(lp2009
S':'
asbag57
(g78
g59
NtRp2010
(dp2011
g62
(dp2012
sg71
g1998
sg64
(lp2013
g57
(g58
g59
NtRp2014
(dp2015
g62
(dp2016
g70
I4
ssg71
g2010
sg64
(lp2017
S'set([])'
p2018
asbasbasbag57
(g73
g59
NtRp2019
(dp2020
g62
(dp2021
sg71
g1908
sg64
(lp2022
g57
(g78
g59
NtRp2023
(dp2024
g62
(dp2025
g82
g83
ssg71
g2019
sg64
(lp2026
g972
asbag57
(g78
g59
NtRp2027
(dp2028
g62
(dp2029
g89
g90
ssg71
g2019
sg64
(lp2030
S':'
asbag57
(g78
g59
NtRp2031
(dp2032
g62
(dp2033
sg71
g2019
sg64
(lp2034
g57
(g58
g59
NtRp2035
(dp2036
g62
(dp2037
g70
I4
ssg71
g2031
sg64
(lp2038
g100
asbasbasbag57
(g73
g59
NtRp2039
(dp2040
g62
(dp2041
sg71
g1908
sg64
(lp2042
g57
(g78
g59
NtRp2043
(dp2044
g62
(dp2045
g82
g83
ssg71
g2039
sg64
(lp2046
g993
asbag57
(g78
g59
NtRp2047
(dp2048
g62
(dp2049
g89
g90
ssg71
g2039
sg64
(lp2050
S':'
asbag57
(g78
g59
NtRp2051
(dp2052
g62
(dp2053
sg71
g2039
sg64
(lp2054
g57
(g58
g59
NtRp2055
(dp2056
g62
(dp2057
g70
I4
ssg71
g2051
sg64
(lp2058
g1006
asbasbasbag57
(g73
g59
NtRp2059
(dp2060
g62
(dp2061
sg71
g1908
sg64
(lp2062
g57
(g78
g59
NtRp2063
(dp2064
g62
(dp2065
g82
g83
ssg71
g2059
sg64
(lp2066
g1213
asbag57
(g78
g59
NtRp2067
(dp2068
g62
(dp2069
g89
g90
ssg71
g2059
sg64
(lp2070
S':'
asbag57
(g78
g59
NtRp2071
(dp2072
g62
(dp2073
sg71
g2059
sg64
(lp2074
g57
(g58
g59
NtRp2075
(dp2076
g62
(dp2077
g70
I4
ssg71
g2071
sg64
(lp2078
g100
asbasbasbag57
(g73
g59
NtRp2079
(dp2080
g62
(dp2081
sg71
g1908
sg64
(lp2082
g57
(g78
g59
NtRp2083
(dp2084
g62
(dp2085
g82
g83
ssg71
g2079
sg64
(lp2086
g1234
asbag57
(g78
g59
NtRp2087
(dp2088
g62
(dp2089
g89
g90
ssg71
g2079
sg64
(lp2090
S':'
asbag57
(g78
g59
NtRp2091
(dp2092
g62
(dp2093
sg71
g2079
sg64
(lp2094
g57
(g58
g59
NtRp2095
(dp2096
g62
(dp2097
g70
I4
ssg71
g2091
sg64
(lp2098
g100
asbasbasbag57
(g73
g59
NtRp2099
(dp2100
g62
(dp2101
sg71
g1908
sg64
(lp2102
g57
(g78
g59
NtRp2103
(dp2104
g62
(dp2105
g82
g83
ssg71
g2099
sg64
(lp2106
g1472
asbag57
(g78
g59
NtRp2107
(dp2108
g62
(dp2109
g89
g90
ssg71
g2099
sg64
(lp2110
S':'
asbag57
(g78
g59
NtRp2111
(dp2112
g62
(dp2113
sg71
g2099
sg64
(lp2114
g57
(g58
g59
NtRp2115
(dp2116
g62
(dp2117
g70
I4
ssg71
g2111
sg64
(lp2118
g1485
asbasbasbag57
(g73
g59
NtRp2119
(dp2120
g62
(dp2121
sg71
g1908
sg64
(lp2122
g57
(g78
g59
NtRp2123
(dp2124
g62
(dp2125
g82
g83
ssg71
g2119
sg64
(lp2126
g1515
asbag57
(g78
g59
NtRp2127
(dp2128
g62
(dp2129
g89
g90
ssg71
g2119
sg64
(lp2130
S':'
asbag57
(g78
g59
NtRp2131
(dp2132
g62
(dp2133
sg71
g2119
sg64
(lp2134
g57
(g58
g59
NtRp2135
(dp2136
g62
(dp2137
g70
I4
ssg71
g2131
sg64
(lp2138
g57
(g66
g59
NtRp2139
(dp2140
g62
(dp2141
g70
I3
ssg71
Nsg64
(lp2142
g57
(g73
g59
NtRp2143
(dp2144
g62
(dp2145
sg71
g2139
sg64
(lp2146
g57
(g78
g59
NtRp2147
(dp2148
g62
(dp2149
sg71
g2143
sg64
(lp2150
g57
(g58
g59
NtRp2151
(dp2152
g62
(dp2153
g70
I3
ssg71
g2147
sg64
(lp2154
S'1'
asbasbasbag57
(g73
g59
NtRp2155
(dp2156
g62
(dp2157
sg71
g2139
sg64
(lp2158
g57
(g78
g59
NtRp2159
(dp2160
g62
(dp2161
sg71
g2155
sg64
(lp2162
g57
(g58
g59
NtRp2163
(dp2164
g62
(dp2165
g70
I3
ssg71
g2159
sg64
(lp2166
S'99'
p2167
asbasbasbag57
(g73
g59
NtRp2168
(dp2169
g62
(dp2170
sg71
g2139
sg64
(lp2171
g57
(g78
g59
NtRp2172
(dp2173
g62
(dp2174
sg71
g2168
sg64
(lp2175
g57
(g58
g59
NtRp2176
(dp2177
g62
(dp2178
g70
I3
ssg71
g2172
sg64
(lp2179
S'4'
asbasbasbag57
(g73
g59
NtRp2180
(dp2181
g62
(dp2182
sg71
g2139
sg64
(lp2183
g57
(g78
g59
NtRp2184
(dp2185
g62
(dp2186
sg71
g2180
sg64
(lp2187
g57
(g58
g59
NtRp2188
(dp2189
g62
(dp2190
g70
I3
ssg71
g2184
sg64
(lp2191
S'datetime.datetime(2011, 12, 14, 14, 46, 14)'
p2192
asbasbasbag57
(g73
g59
NtRp2193
(dp2194
g62
(dp2195
sg71
g2139
sg64
(lp2196
g57
(g78
g59
NtRp2197
(dp2198
g62
(dp2199
sg71
g2193
sg64
(lp2200
g57
(g58
g59
NtRp2201
(dp2202
g62
(dp2203
g70
I3
ssg71
g2197
sg64
(lp2204
g1594
asbasbasbasbasbasbasbasbasbasbasbag57
(g73
g59
NtRp2205
(dp2206
g62
(dp2207
sg71
g67
sg64
(lp2208
g57
(g78
g59
NtRp2209
(dp2210
g62
(dp2211
g82
g83
ssg71
g2205
sg64
(lp2212
S'is_https'
p2213
asbag57
(g78
g59
NtRp2214
(dp2215
g62
(dp2216
g89
g90
ssg71
g2205
sg64
(lp2217
S':'
asbag57
(g78
g59
NtRp2218
(dp2219
g62
(dp2220
sg71
g2205
sg64
(lp2221
g57
(g58
g59
NtRp2222
(dp2223
g62
(dp2224
g70
I5
ssg71
g2218
sg64
(lp2225
g100
asbasbasbag57
(g73
g59
NtRp2226
(dp2227
g62
(dp2228
sg71
g67
sg64
(lp2229
g57
(g78
g59
NtRp2230
(dp2231
g62
(dp2232
g82
g83
ssg71
g2226
sg64
(lp2233
S'is_local'
p2234
asbag57
(g78
g59
NtRp2235
(dp2236
g62
(dp2237
g89
g90
ssg71
g2226
sg64
(lp2238
S':'
asbag57
(g78
g59
NtRp2239
(dp2240
g62
(dp2241
sg71
g2226
sg64
(lp2242
g57
(g58
g59
NtRp2243
(dp2244
g62
(dp2245
g70
I5
ssg71
g2239
sg64
(lp2246
g1703
asbasbasbag57
(g73
g59
NtRp2247
(dp2248
g62
(dp2249
sg71
g67
sg64
(lp2250
g57
(g78
g59
NtRp2251
(dp2252
g62
(dp2253
g82
g83
ssg71
g2247
sg64
(lp2254
S'is_restful'
p2255
asbag57
(g78
g59
NtRp2256
(dp2257
g62
(dp2258
g89
g90
ssg71
g2247
sg64
(lp2259
S':'
asbag57
(g78
g59
NtRp2260
(dp2261
g62
(dp2262
sg71
g2247
sg64
(lp2263
g57
(g58
g59
NtRp2264
(dp2265
g62
(dp2266
g70
I5
ssg71
g2260
sg64
(lp2267
g100
asbasbasbag57
(g73
g59
NtRp2268
(dp2269
g62
(dp2270
sg71
g67
sg64
(lp2271
g57
(g78
g59
NtRp2272
(dp2273
g62
(dp2274
g82
g83
ssg71
g2268
sg64
(lp2275
S'now'
p2276
asbag57
(g78
g59
NtRp2277
(dp2278
g62
(dp2279
g89
g90
ssg71
g2268
sg64
(lp2280
S':'
asbag57
(g78
g59
NtRp2281
(dp2282
g62
(dp2283
sg71
g2268
sg64
(lp2284
g57
(g58
g59
NtRp2285
(dp2286
g62
(dp2287
g70
I5
ssg71
g2281
sg64
(lp2288
S'datetime.datetime(2013, 8, 29, 22, 50, 4, 561207)'
p2289
asbasbasbag57
(g73
g59
NtRp2290
(dp2291
g62
(dp2292
sg71
g67
sg64
(lp2293
g57
(g78
g59
NtRp2294
(dp2295
g62
(dp2296
g82
g83
ssg71
g2290
sg64
(lp2297
S'post_vars'
p2298
asbag57
(g78
g59
NtRp2299
(dp2300
g62
(dp2301
g89
g90
ssg71
g2290
sg64
(lp2302
S':'
asbag57
(g78
g59
NtRp2303
(dp2304
g62
(dp2305
sg71
g2290
sg64
(lp2306
g57
(g58
g59
NtRp2307
(dp2308
g62
(dp2309
g70
I5
ssg71
g2303
sg64
(lp2310
g57
(g66
g59
NtRp2311
(dp2312
g62
(dp2313
g70
I4
ssg71
Nsg64
(lp2314
sbasbasbasbag57
(g73
g59
NtRp2315
(dp2316
g62
(dp2317
sg71
g67
sg64
(lp2318
g57
(g78
g59
NtRp2319
(dp2320
g62
(dp2321
g82
g83
ssg71
g2315
sg64
(lp2322
S'raw_args'
p2323
asbag57
(g78
g59
NtRp2324
(dp2325
g62
(dp2326
g89
g90
ssg71
g2315
sg64
(lp2327
S':'
asbag57
(g78
g59
NtRp2328
(dp2329
g62
(dp2330
sg71
g2315
sg64
(lp2331
g57
(g58
g59
NtRp2332
(dp2333
g62
(dp2334
g70
I5
ssg71
g2328
sg64
(lp2335
S'0/like'
p2336
asbasbasbag57
(g73
g59
NtRp2337
(dp2338
g62
(dp2339
sg71
g67
sg64
(lp2340
g57
(g78
g59
NtRp2341
(dp2342
g62
(dp2343
g82
g83
ssg71
g2337
sg64
(lp2344
S'url'
p2345
asbag57
(g78
g59
NtRp2346
(dp2347
g62
(dp2348
g89
g90
ssg71
g2337
sg64
(lp2349
S':'
asbag57
(g78
g59
NtRp2350
(dp2351
g62
(dp2352
sg71
g2337
sg64
(lp2353
g57
(g58
g59
NtRp2354
(dp2355
g62
(dp2356
g70
I5
ssg71
g2350
sg64
(lp2357
S'/app1/default/lall/0/like'
p2358
asbasbasbag57
(g73
g59
NtRp2359
(dp2360
g62
(dp2361
sg71
g67
sg64
(lp2362
g57
(g78
g59
NtRp2363
(dp2364
g62
(dp2365
g82
g83
ssg71
g2359
sg64
(lp2366
S'utcnow'
p2367
asbag57
(g78
g59
NtRp2368
(dp2369
g62
(dp2370
g89
g90
ssg71
g2359
sg64
(lp2371
S':'
asbag57
(g78
g59
NtRp2372
(dp2373
g62
(dp2374
sg71
g2359
sg64
(lp2375
g57
(g58
g59
NtRp2376
(dp2377
g62
(dp2378
g70
I5
ssg71
g2372
sg64
(lp2379
S'datetime.datetime(2013, 8, 29, 17, 20, 4, 561265)'
p2380
asbasbasbag57
(g73
g59
NtRp2381
(dp2382
g62
(dp2383
sg71
g67
sg64
(lp2384
g57
(g78
g59
NtRp2385
(dp2386
g62
(dp2387
g82
g83
ssg71
g2381
sg64
(lp2388
S'uuid'
p2389
asbag57
(g78
g59
NtRp2390
(dp2391
g62
(dp2392
g89
g90
ssg71
g2381
sg64
(lp2393
S':'
asbag57
(g78
g59
NtRp2394
(dp2395
g62
(dp2396
sg71
g2381
sg64
(lp2397
g57
(g58
g59
NtRp2398
(dp2399
g62
(dp2400
g70
I5
ssg71
g2394
sg64
(lp2401
S'app1/127.0.0.1.2013-08-29.22-50-04.b1a541fd-8d57-40e7-88f5-beb10986159f'
p2402
asbasbasbag57
(g73
g59
NtRp2403
(dp2404
g62
(dp2405
sg71
g67
sg64
(lp2406
g57
(g78
g59
NtRp2407
(dp2408
g62
(dp2409
g82
g83
ssg71
g2403
sg64
(lp2410
S'vars'
p2411
asbag57
(g78
g59
NtRp2412
(dp2413
g62
(dp2414
g89
g90
ssg71
g2403
sg64
(lp2415
S':'
asbag57
(g78
g59
NtRp2416
(dp2417
g62
(dp2418
sg71
g2403
sg64
(lp2419
g57
(g58
g59
NtRp2420
(dp2421
g62
(dp2422
g70
I5
ssg71
g2416
sg64
(lp2423
g57
(g66
g59
NtRp2424
(dp2425
g62
(dp2426
g70
I4
ssg71
Nsg64
(lp2427
sbasbasbasbag57
(g73
g59
NtRp2428
(dp2429
g62
(dp2430
sg71
g67
sg64
(lp2431
g57
(g78
g59
NtRp2432
(dp2433
g62
(dp2434
g82
g83
ssg71
g2428
sg64
(lp2435
S'wsgi'
p2436
asbag57
(g78
g59
NtRp2437
(dp2438
g62
(dp2439
g89
g90
ssg71
g2428
sg64
(lp2440
S':'
asbag57
(g78
g59
NtRp2441
(dp2442
g62
(dp2443
sg71
g2428
sg64
(lp2444
g57
(g58
g59
NtRp2445
(dp2446
g62
(dp2447
g70
I5
ssg71
g2441
sg64
(lp2448
g57
(g66
g59
NtRp2449
(dp2450
g62
(dp2451
g70
I4
ssg71
Nsg64
(lp2452
g57
(g73
g59
NtRp2453
(dp2454
g62
(dp2455
sg71
g2449
sg64
(lp2456
g57
(g78
g59
NtRp2457
(dp2458
g62
(dp2459
g82
g83
ssg71
g2453
sg64
(lp2460
S'environ'
p2461
asbag57
(g78
g59
NtRp2462
(dp2463
g62
(dp2464
g89
g90
ssg71
g2453
sg64
(lp2465
S':'
asbag57
(g78
g59
NtRp2466
(dp2467
g62
(dp2468
sg71
g2453
sg64
(lp2469
g57
(g58
g59
NtRp2470
(dp2471
g62
(dp2472
g70
I4
ssg71
g2466
sg64
(lp2473
g57
(g66
g59
NtRp2474
(dp2475
g62
(dp2476
g70
I3
ssg71
Nsg64
(lp2477
g57
(g73
g59
NtRp2478
(dp2479
g62
(dp2480
sg71
g2474
sg64
(lp2481
g57
(g78
g59
NtRp2482
(dp2483
g62
(dp2484
g82
g83
ssg71
g2478
sg64
(lp2485
S'HTTP_ACCEPT'
p2486
asbag57
(g78
g59
NtRp2487
(dp2488
g62
(dp2489
g89
g90
ssg71
g2478
sg64
(lp2490
S':'
asbag57
(g78
g59
NtRp2491
(dp2492
g62
(dp2493
sg71
g2478
sg64
(lp2494
g57
(g58
g59
NtRp2495
(dp2496
g62
(dp2497
g70
I3
ssg71
g2491
sg64
(lp2498
g1028
asbasbasbag57
(g73
g59
NtRp2499
(dp2500
g62
(dp2501
sg71
g2474
sg64
(lp2502
g57
(g78
g59
NtRp2503
(dp2504
g62
(dp2505
g82
g83
ssg71
g2499
sg64
(lp2506
S'HTTP_ACCEPT_ENCODING'
p2507
asbag57
(g78
g59
NtRp2508
(dp2509
g62
(dp2510
g89
g90
ssg71
g2499
sg64
(lp2511
S':'
asbag57
(g78
g59
NtRp2512
(dp2513
g62
(dp2514
sg71
g2499
sg64
(lp2515
g57
(g58
g59
NtRp2516
(dp2517
g62
(dp2518
g70
I3
ssg71
g2512
sg64
(lp2519
g1050
asbasbasbag57
(g73
g59
NtRp2520
(dp2521
g62
(dp2522
sg71
g2474
sg64
(lp2523
g57
(g78
g59
NtRp2524
(dp2525
g62
(dp2526
g82
g83
ssg71
g2520
sg64
(lp2527
S'HTTP_ACCEPT_LANGUAGE'
p2528
asbag57
(g78
g59
NtRp2529
(dp2530
g62
(dp2531
g89
g90
ssg71
g2520
sg64
(lp2532
S':'
asbag57
(g78
g59
NtRp2533
(dp2534
g62
(dp2535
sg71
g2520
sg64
(lp2536
g57
(g58
g59
NtRp2537
(dp2538
g62
(dp2539
g70
I3
ssg71
g2533
sg64
(lp2540
g1072
asbasbasbag57
(g73
g59
NtRp2541
(dp2542
g62
(dp2543
sg71
g2474
sg64
(lp2544
g57
(g78
g59
NtRp2545
(dp2546
g62
(dp2547
g82
g83
ssg71
g2541
sg64
(lp2548
S'HTTP_CACHE_CONTROL'
p2549
asbag57
(g78
g59
NtRp2550
(dp2551
g62
(dp2552
g89
g90
ssg71
g2541
sg64
(lp2553
S':'
asbag57
(g78
g59
NtRp2554
(dp2555
g62
(dp2556
sg71
g2541
sg64
(lp2557
g57
(g58
g59
NtRp2558
(dp2559
g62
(dp2560
g70
I3
ssg71
g2554
sg64
(lp2561
g1094
asbasbasbag57
(g73
g59
NtRp2562
(dp2563
g62
(dp2564
sg71
g2474
sg64
(lp2565
g57
(g78
g59
NtRp2566
(dp2567
g62
(dp2568
g82
g83
ssg71
g2562
sg64
(lp2569
S'HTTP_CONNECTION'
p2570
asbag57
(g78
g59
NtRp2571
(dp2572
g62
(dp2573
g89
g90
ssg71
g2562
sg64
(lp2574
S':'
asbag57
(g78
g59
NtRp2575
(dp2576
g62
(dp2577
sg71
g2562
sg64
(lp2578
g57
(g58
g59
NtRp2579
(dp2580
g62
(dp2581
g70
I3
ssg71
g2575
sg64
(lp2582
g1116
asbasbasbag57
(g73
g59
NtRp2583
(dp2584
g62
(dp2585
sg71
g2474
sg64
(lp2586
g57
(g78
g59
NtRp2587
(dp2588
g62
(dp2589
g82
g83
ssg71
g2583
sg64
(lp2590
S'HTTP_COOKIE'
p2591
asbag57
(g78
g59
NtRp2592
(dp2593
g62
(dp2594
g89
g90
ssg71
g2583
sg64
(lp2595
S':'
asbag57
(g78
g59
NtRp2596
(dp2597
g62
(dp2598
sg71
g2583
sg64
(lp2599
g57
(g58
g59
NtRp2600
(dp2601
g62
(dp2602
g70
I3
ssg71
g2596
sg64
(lp2603
g1138
asbasbasbag57
(g73
g59
NtRp2604
(dp2605
g62
(dp2606
sg71
g2474
sg64
(lp2607
g57
(g78
g59
NtRp2608
(dp2609
g62
(dp2610
g82
g83
ssg71
g2604
sg64
(lp2611
S'HTTP_HOST'
p2612
asbag57
(g78
g59
NtRp2613
(dp2614
g62
(dp2615
g89
g90
ssg71
g2604
sg64
(lp2616
S':'
asbag57
(g78
g59
NtRp2617
(dp2618
g62
(dp2619
sg71
g2604
sg64
(lp2620
g57
(g58
g59
NtRp2621
(dp2622
g62
(dp2623
g70
I3
ssg71
g2617
sg64
(lp2624
g1160
asbasbasbag57
(g73
g59
NtRp2625
(dp2626
g62
(dp2627
sg71
g2474
sg64
(lp2628
g57
(g78
g59
NtRp2629
(dp2630
g62
(dp2631
g82
g83
ssg71
g2625
sg64
(lp2632
S'HTTP_REFERER'
p2633
asbag57
(g78
g59
NtRp2634
(dp2635
g62
(dp2636
g89
g90
ssg71
g2625
sg64
(lp2637
S':'
asbag57
(g78
g59
NtRp2638
(dp2639
g62
(dp2640
sg71
g2625
sg64
(lp2641
g57
(g58
g59
NtRp2642
(dp2643
g62
(dp2644
g70
I3
ssg71
g2638
sg64
(lp2645
g1182
asbasbasbag57
(g73
g59
NtRp2646
(dp2647
g62
(dp2648
sg71
g2474
sg64
(lp2649
g57
(g78
g59
NtRp2650
(dp2651
g62
(dp2652
g82
g83
ssg71
g2646
sg64
(lp2653
S'HTTP_USER_AGENT'
p2654
asbag57
(g78
g59
NtRp2655
(dp2656
g62
(dp2657
g89
g90
ssg71
g2646
sg64
(lp2658
S':'
asbag57
(g78
g59
NtRp2659
(dp2660
g62
(dp2661
sg71
g2646
sg64
(lp2662
g57
(g58
g59
NtRp2663
(dp2664
g62
(dp2665
g70
I3
ssg71
g2659
sg64
(lp2666
g1204
asbasbasbag57
(g73
g59
NtRp2667
(dp2668
g62
(dp2669
sg71
g2474
sg64
(lp2670
g57
(g78
g59
NtRp2671
(dp2672
g62
(dp2673
g82
g83
ssg71
g2667
sg64
(lp2674
S'PATH_INFO'
p2675
asbag57
(g78
g59
NtRp2676
(dp2677
g62
(dp2678
g89
g90
ssg71
g2667
sg64
(lp2679
S':'
asbag57
(g78
g59
NtRp2680
(dp2681
g62
(dp2682
sg71
g2667
sg64
(lp2683
g57
(g58
g59
NtRp2684
(dp2685
g62
(dp2686
g70
I3
ssg71
g2680
sg64
(lp2687
g1268
asbasbasbag57
(g73
g59
NtRp2688
(dp2689
g62
(dp2690
sg71
g2474
sg64
(lp2691
g57
(g78
g59
NtRp2692
(dp2693
g62
(dp2694
g82
g83
ssg71
g2688
sg64
(lp2695
S'QUERY_STRING'
p2696
asbag57
(g78
g59
NtRp2697
(dp2698
g62
(dp2699
g89
g90
ssg71
g2688
sg64
(lp2700
S':'
asbag57
(g78
g59
NtRp2701
(dp2702
g62
(dp2703
sg71
g2688
sg64
(lp2704
g57
(g58
g59
NtRp2705
(dp2706
g62
(dp2707
g70
I3
ssg71
g2701
sg64
(lp2708
S''
asbasbasbag57
(g73
g59
NtRp2709
(dp2710
g62
(dp2711
sg71
g2474
sg64
(lp2712
g57
(g78
g59
NtRp2713
(dp2714
g62
(dp2715
g82
g83
ssg71
g2709
sg64
(lp2716
S'REMOTE_ADDR'
p2717
asbag57
(g78
g59
NtRp2718
(dp2719
g62
(dp2720
g89
g90
ssg71
g2709
sg64
(lp2721
S':'
asbag57
(g78
g59
NtRp2722
(dp2723
g62
(dp2724
sg71
g2709
sg64
(lp2725
g57
(g58
g59
NtRp2726
(dp2727
g62
(dp2728
g70
I3
ssg71
g2722
sg64
(lp2729
g215
asbasbasbag57
(g73
g59
NtRp2730
(dp2731
g62
(dp2732
sg71
g2474
sg64
(lp2733
g57
(g78
g59
NtRp2734
(dp2735
g62
(dp2736
g82
g83
ssg71
g2730
sg64
(lp2737
S'REMOTE_PORT'
p2738
asbag57
(g78
g59
NtRp2739
(dp2740
g62
(dp2741
g89
g90
ssg71
g2730
sg64
(lp2742
S':'
asbag57
(g78
g59
NtRp2743
(dp2744
g62
(dp2745
sg71
g2730
sg64
(lp2746
g57
(g58
g59
NtRp2747
(dp2748
g62
(dp2749
g70
I3
ssg71
g2743
sg64
(lp2750
g1332
asbasbasbag57
(g73
g59
NtRp2751
(dp2752
g62
(dp2753
sg71
g2474
sg64
(lp2754
g57
(g78
g59
NtRp2755
(dp2756
g62
(dp2757
g82
g83
ssg71
g2751
sg64
(lp2758
S'REQUEST_METHOD'
p2759
asbag57
(g78
g59
NtRp2760
(dp2761
g62
(dp2762
g89
g90
ssg71
g2751
sg64
(lp2763
S':'
asbag57
(g78
g59
NtRp2764
(dp2765
g62
(dp2766
sg71
g2751
sg64
(lp2767
g57
(g58
g59
NtRp2768
(dp2769
g62
(dp2770
g70
I3
ssg71
g2764
sg64
(lp2771
g1354
asbasbasbag57
(g73
g59
NtRp2772
(dp2773
g62
(dp2774
sg71
g2474
sg64
(lp2775
g57
(g78
g59
NtRp2776
(dp2777
g62
(dp2778
g82
g83
ssg71
g2772
sg64
(lp2779
S'SCRIPT_NAME'
p2780
asbag57
(g78
g59
NtRp2781
(dp2782
g62
(dp2783
g89
g90
ssg71
g2772
sg64
(lp2784
S':'
asbag57
(g78
g59
NtRp2785
(dp2786
g62
(dp2787
sg71
g2772
sg64
(lp2788
g57
(g58
g59
NtRp2789
(dp2790
g62
(dp2791
g70
I3
ssg71
g2785
sg64
(lp2792
S''
asbasbasbag57
(g73
g59
NtRp2793
(dp2794
g62
(dp2795
sg71
g2474
sg64
(lp2796
g57
(g78
g59
NtRp2797
(dp2798
g62
(dp2799
g82
g83
ssg71
g2793
sg64
(lp2800
S'SERVER_NAME'
p2801
asbag57
(g78
g59
NtRp2802
(dp2803
g62
(dp2804
g89
g90
ssg71
g2793
sg64
(lp2805
S':'
asbag57
(g78
g59
NtRp2806
(dp2807
g62
(dp2808
sg71
g2793
sg64
(lp2809
g57
(g58
g59
NtRp2810
(dp2811
g62
(dp2812
g70
I3
ssg71
g2806
sg64
(lp2813
g1397
asbasbasbag57
(g73
g59
NtRp2814
(dp2815
g62
(dp2816
sg71
g2474
sg64
(lp2817
g57
(g78
g59
NtRp2818
(dp2819
g62
(dp2820
g82
g83
ssg71
g2814
sg64
(lp2821
S'SERVER_PORT'
p2822
asbag57
(g78
g59
NtRp2823
(dp2824
g62
(dp2825
g89
g90
ssg71
g2814
sg64
(lp2826
S':'
asbag57
(g78
g59
NtRp2827
(dp2828
g62
(dp2829
sg71
g2814
sg64
(lp2830
g57
(g58
g59
NtRp2831
(dp2832
g62
(dp2833
g70
I3
ssg71
g2827
sg64
(lp2834
g1419
asbasbasbag57
(g73
g59
NtRp2835
(dp2836
g62
(dp2837
sg71
g2474
sg64
(lp2838
g57
(g78
g59
NtRp2839
(dp2840
g62
(dp2841
g82
g83
ssg71
g2835
sg64
(lp2842
S'SERVER_PROTOCOL'
p2843
asbag57
(g78
g59
NtRp2844
(dp2845
g62
(dp2846
g89
g90
ssg71
g2835
sg64
(lp2847
S':'
asbag57
(g78
g59
NtRp2848
(dp2849
g62
(dp2850
sg71
g2835
sg64
(lp2851
g57
(g58
g59
NtRp2852
(dp2853
g62
(dp2854
g70
I3
ssg71
g2848
sg64
(lp2855
g1441
asbasbasbag57
(g73
g59
NtRp2856
(dp2857
g62
(dp2858
sg71
g2474
sg64
(lp2859
g57
(g78
g59
NtRp2860
(dp2861
g62
(dp2862
g82
g83
ssg71
g2856
sg64
(lp2863
S'SERVER_SOFTWARE'
p2864
asbag57
(g78
g59
NtRp2865
(dp2866
g62
(dp2867
g89
g90
ssg71
g2856
sg64
(lp2868
S':'
asbag57
(g78
g59
NtRp2869
(dp2870
g62
(dp2871
sg71
g2856
sg64
(lp2872
g57
(g58
g59
NtRp2873
(dp2874
g62
(dp2875
g70
I3
ssg71
g2869
sg64
(lp2876
g1463
asbasbasbag57
(g73
g59
NtRp2877
(dp2878
g62
(dp2879
sg71
g2474
sg64
(lp2880
g57
(g78
g59
NtRp2881
(dp2882
g62
(dp2883
g82
g83
ssg71
g2877
sg64
(lp2884
S'wsgi.errors'
p2885
asbag57
(g78
g59
NtRp2886
(dp2887
g62
(dp2888
g89
g90
ssg71
g2877
sg64
(lp2889
S':'
asbag57
(g78
g59
NtRp2890
(dp2891
g62
(dp2892
sg71
g2877
sg64
(lp2893
g57
(g58
g59
NtRp2894
(dp2895
g62
(dp2896
g70
I3
ssg71
g2890
sg64
(lp2897
S"<open file '<stderr>', mode 'w' at 0x7fc883477270>"
p2898
asbasbasbag57
(g73
g59
NtRp2899
(dp2900
g62
(dp2901
sg71
g2474
sg64
(lp2902
g57
(g78
g59
NtRp2903
(dp2904
g62
(dp2905
g82
g83
ssg71
g2899
sg64
(lp2906
S'wsgi.file_wrapper'
p2907
asbag57
(g78
g59
NtRp2908
(dp2909
g62
(dp2910
g89
g90
ssg71
g2899
sg64
(lp2911
S':'
asbag57
(g78
g59
NtRp2912
(dp2913
g62
(dp2914
sg71
g2899
sg64
(lp2915
g57
(g58
g59
NtRp2916
(dp2917
g62
(dp2918
g70
I3
ssg71
g2912
sg64
(lp2919
S'<class wsgiref.util.FileWrapper at 0x1937328>'
p2920
asbasbasbag57
(g73
g59
NtRp2921
(dp2922
g62
(dp2923
sg71
g2474
sg64
(lp2924
g57
(g78
g59
NtRp2925
(dp2926
g62
(dp2927
g82
g83
ssg71
g2921
sg64
(lp2928
S'wsgi.input'
p2929
asbag57
(g78
g59
NtRp2930
(dp2931
g62
(dp2932
g89
g90
ssg71
g2921
sg64
(lp2933
S':'
asbag57
(g78
g59
NtRp2934
(dp2935
g62
(dp2936
sg71
g2921
sg64
(lp2937
g57
(g58
g59
NtRp2938
(dp2939
g62
(dp2940
g70
I3
ssg71
g2934
sg64
(lp2941
S'<cStringIO.StringO object at 0x7fc840465ed8>'
p2942
asbasbasbag57
(g73
g59
NtRp2943
(dp2944
g62
(dp2945
sg71
g2474
sg64
(lp2946
g57
(g78
g59
NtRp2947
(dp2948
g62
(dp2949
g82
g83
ssg71
g2943
sg64
(lp2950
S'wsgi.multiprocess'
p2951
asbag57
(g78
g59
NtRp2952
(dp2953
g62
(dp2954
g89
g90
ssg71
g2943
sg64
(lp2955
S':'
asbag57
(g78
g59
NtRp2956
(dp2957
g62
(dp2958
sg71
g2943
sg64
(lp2959
g57
(g58
g59
NtRp2960
(dp2961
g62
(dp2962
g70
I3
ssg71
g2956
sg64
(lp2963
g100
asbasbasbag57
(g73
g59
NtRp2964
(dp2965
g62
(dp2966
sg71
g2474
sg64
(lp2967
g57
(g78
g59
NtRp2968
(dp2969
g62
(dp2970
g82
g83
ssg71
g2964
sg64
(lp2971
S'wsgi.multithread'
p2972
asbag57
(g78
g59
NtRp2973
(dp2974
g62
(dp2975
g89
g90
ssg71
g2964
sg64
(lp2976
S':'
asbag57
(g78
g59
NtRp2977
(dp2978
g62
(dp2979
sg71
g2964
sg64
(lp2980
g57
(g58
g59
NtRp2981
(dp2982
g62
(dp2983
g70
I3
ssg71
g2977
sg64
(lp2984
g1703
asbasbasbag57
(g73
g59
NtRp2985
(dp2986
g62
(dp2987
sg71
g2474
sg64
(lp2988
g57
(g78
g59
NtRp2989
(dp2990
g62
(dp2991
g82
g83
ssg71
g2985
sg64
(lp2992
S'wsgi.run_once'
p2993
asbag57
(g78
g59
NtRp2994
(dp2995
g62
(dp2996
g89
g90
ssg71
g2985
sg64
(lp2997
S':'
asbag57
(g78
g59
NtRp2998
(dp2999
g62
(dp3000
sg71
g2985
sg64
(lp3001
g57
(g58
g59
NtRp3002
(dp3003
g62
(dp3004
g70
I3
ssg71
g2998
sg64
(lp3005
g100
asbasbasbag57
(g73
g59
NtRp3006
(dp3007
g62
(dp3008
sg71
g2474
sg64
(lp3009
g57
(g78
g59
NtRp3010
(dp3011
g62
(dp3012
g82
g83
ssg71
g3006
sg64
(lp3013
S'wsgi.url_scheme'
p3014
asbag57
(g78
g59
NtRp3015
(dp3016
g62
(dp3017
g89
g90
ssg71
g3006
sg64
(lp3018
S':'
asbag57
(g78
g59
NtRp3019
(dp3020
g62
(dp3021
sg71
g3006
sg64
(lp3022
g57
(g58
g59
NtRp3023
(dp3024
g62
(dp3025
g70
I3
ssg71
g3019
sg64
(lp3026
g1746
asbasbasbag57
(g73
g59
NtRp3027
(dp3028
g62
(dp3029
sg71
g2474
sg64
(lp3030
g57
(g78
g59
NtRp3031
(dp3032
g62
(dp3033
g82
g83
ssg71
g3027
sg64
(lp3034
S'wsgi.version'
p3035
asbag57
(g78
g59
NtRp3036
(dp3037
g62
(dp3038
g89
g90
ssg71
g3027
sg64
(lp3039
S':'
asbag57
(g78
g59
NtRp3040
(dp3041
g62
(dp3042
sg71
g3027
sg64
(lp3043
g57
(g58
g59
NtRp3044
(dp3045
g62
(dp3046
g70
I3
ssg71
g3040
sg64
(lp3047
S'1'
asbasbasbasbasbasbasbasbasbasbasbasbasbsS'frames'
p3048
(lp3049
(dp3050
S'file'
p3051
S'/usr/lib/pymodules/python2.7/gluon/restricted.py'
p3052
sS'dump'
p3053
(dp3054
S'environment'
p3055
S"{'A': <class 'gluon.html.A'>, 'Auth': <class 'gluon.tools.Auth'>, 'B': <class 'gluon.html.B'>, 'BEAUTIFY': <class 'gluon.html.BEAUTIFY'>, 'BODY': <class 'gluon.html.BODY'>, 'BR': <class 'gluon.html.BR'>, 'BUTTON': <class 'gluon.html.BUTTON'>, 'CAT': <class 'gluon.html.CAT'>, 'CENTER': <class 'gluon.html.CENTER'>, 'CLEANUP': <class 'gluon.validators.CLEANUP'>, ...}"
p3056
sS'ccode'
p3057
S'<code object <module> at 0x7fc83c4844b0, file "/...plications/app1/controllers/default.py", line 12>'
p3058
ssS'lnum'
p3059
I204
sS'lines'
p3060
(dp3061
I199
S'    try:'
p3062
sI200
S'        if type(code) == types.CodeType:'
p3063
sI201
S'            ccode = code'
p3064
sI202
S'        else:'
p3065
sI203
S'            ccode = compile2(code,layer)'
p3066
sI204
S'        exec ccode in environment'
p3067
sI205
S'    except HTTP:'
p3068
sI206
S'        raise'
p3069
sI207
S'    except RestrictedError:'
p3070
sI208
S'        # do not encapsulate (obfuscate) the original RestrictedError'
p3071
ssS'call'
p3072
S"(code='# -*- coding: utf-8 -*-\\n# this file is released ... locals()\\n\\nresponse._vars=response._caller(lall)\\n', environment={'A': <class 'gluon.html.A'>, 'Auth': <class 'gluon.tools.Auth'>, 'B': <class 'gluon.html.B'>, 'BEAUTIFY': <class 'gluon.html.BEAUTIFY'>, 'BODY': <class 'gluon.html.BODY'>, 'BR': <class 'gluon.html.BR'>, 'BUTTON': <class 'gluon.html.BUTTON'>, 'CAT': <class 'gluon.html.CAT'>, 'CENTER': <class 'gluon.html.CENTER'>, 'CLEANUP': <class 'gluon.validators.CLEANUP'>, ...}, layer='/home/jigar/web2py/applications/app1/controllers/default.py')"
p3073
sS'func'
p3074
S'restricted'
p3075
sa(dp3076
g3051
S'/home/jigar/web2py/applications/app1/controllers/default.py'
p3077
sg3053
(dp3078
sg3059
I114
sg3060
(dp3079
I103
S'@auth.requires_login()'
p3080
sI104
S'def listcat():'
p3081
sI105
S'\tp=db(db.Post.id>0).select()'
p3082
sI106
S'\tq=db(db.Post.User==db.auth_user.id).select(db.auth_user.first_name)'
p3083
sI107
S'\ty=request.args[0]'
p3084
sI108
S'\tx=db(db.Post.Category==y).select()'
p3085
sI109
S'\tif (len(x)>0):'
p3086
sI110
S'\t\treturn locals()'
p3087
sI111
S'\telse :'
p3088
sI112
S'\t\treturn locals()'
p3089
ssg3072
S'()'
p3090
sg3074
S'<module>'
p3091
sa(dp3092
g3051
S'/usr/lib/pymodules/python2.7/gluon/globals.py'
p3093
sg3053
(dp3094
S'self'
p3095
S'undefined'
p3096
sS'f'
S'<function lall>'
p3097
ssg3059
I172
sg3060
(dp3098
I167
S'        self.meta = Storage()      # used by web2py_ajax.html'
p3099
sI168
S'        self.menu = []             # used by the default view layout'
p3100
sI169
S'        self.files = []            # used by web2py_ajax.html'
p3101
sI170
S'        self.generic_patterns = [] # patterns to allow generic views'
p3102
sI171
S'        self._vars = None'
p3103
sI172
S'        self._caller = lambda f: f()'
p3104
sI173
S'        self._view_environment = None'
p3105
sI174
S'        self._custom_commit = None'
p3106
sI175
S'        self._custom_rollback = None'
p3107
sI176
S''
ssg3072
S'(f=<function lall>)'
p3108
sg3074
S'<lambda>'
p3109
sa(dp3110
g3051
S'/usr/lib/pymodules/python2.7/gluon/tools.py'
p3111
sg3053
(dp3112
S'action'
p3113
S'<function lall>'
p3114
sS'a'
S'()'
p3115
sS'b'
g45
ssg3059
I2533
sg3060
(dp3116
I2528
S'                # otherwise case 3 would be ok.'
p3117
sI2529
S'                if not (callable(condition) and condition() == True) and not condition == True:'
p3118
sI2530
S'                    current.session.flash = self.messages.access_denied'
p3119
sI2531
S'                    return call_or_redirect('
p3120
sI2532
S'                        self.settings.on_failed_authorization)'
p3121
sI2533
S'                return action(*a, **b)'
p3122
sI2534
S'            f.__doc__ = action.__doc__'
p3123
sI2535
S'            f.__name__ = action.__name__'
p3124
sI2536
S'            f.__dict__.update(action.__dict__)'
p3125
sI2537
S'            return f'
p3126
ssg3072
S'(*a=(), **b={})'
p3127
sg3074
S'f'
sa(dp3128
g3051
S'/home/jigar/web2py/applications/app1/controllers/default.py'
p3129
sg3053
(dp3130
S'auth.user.id'
p3131
S'1'
sS'auth.user'
p3132
S"<Storage {'City': 'Vadodara', 'first_name': 'Jig...fd1282cfa4eff', 'registration_key': '', 'id': 1}>"
p3133
sS'db.Post.User_liked'
p3134
S'<gluon.dal.Field object>'
p3135
sS'db.Post.User_liked.append'
p3136
g3096
sS'global auth'
p3137
S'<gluon.tools.Auth object>'
p3138
sS'db.Post'
p3139
S"<Table {'Category': <gluon.dal.Field object at 0...id': <gluon.dal.Field object at 0x7fc84404f110>}>"
p3140
sS'global db'
p3141
S"<DAL {'auth_event': <Table {'origin': <gluon.dal...': <gluon.dal.Field object at 0x7fc844049bd0>}>}>"
p3142
ssg3059
I88
sg3060
(dp3143
I83
S"#\t\t\tfor j in range(len(b[0]['User_liked'])):"
p3144
sI84
S"#\t\t\t\tif (b[0]['User_liked'][j]==auth.user.id):"
p3145
sI85
S'#\t\t\t\t\tq=0'
p3146
sI86
S'#\t\t\t\telse:'
p3147
sI87
S"\t\t\ta=db(db.Post.id==(int(r)+1)).update(Rating=b[0]['Rating']+5)"
p3148
sI88
S'\t\t\tdb.Post.User_liked.append(auth.user.id)'
p3149
sI89
S'\t\t\tredirect(URL("lall"))'
p3150
sI90
S'\t\telif (request.args[1]=="dislike"):'
p3151
sI91
S'\t\t\tb=db(db.Post.id==int(r)+1).select(db.Post.Rating)'
p3152
sI92
S"\t\t\ta=db(db.Post.id==int(r)+1).update(Rating=b[0]['Rating']-3)"
p3153
ssg3072
S'()'
p3154
sg3074
S'lall'
p3155
sasS'pyver'
p3156
S'Python 2.7.3: /usr/bin/python'
p3157
sS'session'
p3158
g57
(g58
g59
NtRp3159
(dp3160
g62
(dp3161
sg64
(lp3162
g57
(g66
g59
NtRp3163
(dp3164
g62
(dp3165
g70
I5
ssg71
Nsg64
(lp3166
g57
(g73
g59
NtRp3167
(dp3168
g62
(dp3169
sg71
g3163
sg64
(lp3170
g57
(g78
g59
NtRp3171
(dp3172
g62
(dp3173
g82
g83
ssg71
g3167
sg64
(lp3174
S'auth'
p3175
asbag57
(g78
g59
NtRp3176
(dp3177
g62
(dp3178
g89
g90
ssg71
g3167
sg64
(lp3179
S':'
asbag57
(g78
g59
NtRp3180
(dp3181
g62
(dp3182
sg71
g3167
sg64
(lp3183
g57
(g58
g59
NtRp3184
(dp3185
g62
(dp3186
g70
I5
ssg71
g3180
sg64
(lp3187
g57
(g66
g59
NtRp3188
(dp3189
g62
(dp3190
g70
I4
ssg71
Nsg64
(lp3191
g57
(g73
g59
NtRp3192
(dp3193
g62
(dp3194
sg71
g3188
sg64
(lp3195
g57
(g78
g59
NtRp3196
(dp3197
g62
(dp3198
g82
g83
ssg71
g3192
sg64
(lp3199
S'expiration'
p3200
asbag57
(g78
g59
NtRp3201
(dp3202
g62
(dp3203
g89
g90
ssg71
g3192
sg64
(lp3204
S':'
asbag57
(g78
g59
NtRp3205
(dp3206
g62
(dp3207
sg71
g3192
sg64
(lp3208
g57
(g58
g59
NtRp3209
(dp3210
g62
(dp3211
g70
I4
ssg71
g3205
sg64
(lp3212
S'2592000'
p3213
asbasbasbag57
(g73
g59
NtRp3214
(dp3215
g62
(dp3216
sg71
g3188
sg64
(lp3217
g57
(g78
g59
NtRp3218
(dp3219
g62
(dp3220
g82
g83
ssg71
g3214
sg64
(lp3221
S'hmac_key'
p3222
asbag57
(g78
g59
NtRp3223
(dp3224
g62
(dp3225
g89
g90
ssg71
g3214
sg64
(lp3226
S':'
asbag57
(g78
g59
NtRp3227
(dp3228
g62
(dp3229
sg71
g3214
sg64
(lp3230
g57
(g58
g59
NtRp3231
(dp3232
g62
(dp3233
g70
I4
ssg71
g3227
sg64
(lp3234
S'9a116555-de49-45d5-ad8c-8cb04b9d2cd9'
p3235
asbasbasbag57
(g73
g59
NtRp3236
(dp3237
g62
(dp3238
sg71
g3188
sg64
(lp3239
g57
(g78
g59
NtRp3240
(dp3241
g62
(dp3242
g82
g83
ssg71
g3236
sg64
(lp3243
S'last_visit'
p3244
asbag57
(g78
g59
NtRp3245
(dp3246
g62
(dp3247
g89
g90
ssg71
g3236
sg64
(lp3248
S':'
asbag57
(g78
g59
NtRp3249
(dp3250
g62
(dp3251
sg71
g3236
sg64
(lp3252
g57
(g58
g59
NtRp3253
(dp3254
g62
(dp3255
g70
I4
ssg71
g3249
sg64
(lp3256
S'datetime.datetime(2013, 8, 29, 13, 14, 14, 648258)'
p3257
asbasbasbag57
(g73
g59
NtRp3258
(dp3259
g62
(dp3260
sg71
g3188
sg64
(lp3261
g57
(g78
g59
NtRp3262
(dp3263
g62
(dp3264
g82
g83
ssg71
g3258
sg64
(lp3265
S'remember'
p3266
asbag57
(g78
g59
NtRp3267
(dp3268
g62
(dp3269
g89
g90
ssg71
g3258
sg64
(lp3270
S':'
asbag57
(g78
g59
NtRp3271
(dp3272
g62
(dp3273
sg71
g3258
sg64
(lp3274
g57
(g58
g59
NtRp3275
(dp3276
g62
(dp3277
g70
I4
ssg71
g3271
sg64
(lp3278
g100
asbasbasbag57
(g73
g59
NtRp3279
(dp3280
g62
(dp3281
sg71
g3188
sg64
(lp3282
g57
(g78
g59
NtRp3283
(dp3284
g62
(dp3285
g82
g83
ssg71
g3279
sg64
(lp3286
S'user'
p3287
asbag57
(g78
g59
NtRp3288
(dp3289
g62
(dp3290
g89
g90
ssg71
g3279
sg64
(lp3291
S':'
asbag57
(g78
g59
NtRp3292
(dp3293
g62
(dp3294
sg71
g3279
sg64
(lp3295
g57
(g58
g59
NtRp3296
(dp3297
g62
(dp3298
g70
I4
ssg71
g3292
sg64
(lp3299
g57
(g66
g59
NtRp3300
(dp3301
g62
(dp3302
g70
I3
ssg71
Nsg64
(lp3303
g57
(g73
g59
NtRp3304
(dp3305
g62
(dp3306
sg71
g3300
sg64
(lp3307
g57
(g78
g59
NtRp3308
(dp3309
g62
(dp3310
g82
g83
ssg71
g3304
sg64
(lp3311
S'City'
p3312
asbag57
(g78
g59
NtRp3313
(dp3314
g62
(dp3315
g89
g90
ssg71
g3304
sg64
(lp3316
S':'
asbag57
(g78
g59
NtRp3317
(dp3318
g62
(dp3319
sg71
g3304
sg64
(lp3320
g57
(g58
g59
NtRp3321
(dp3322
g62
(dp3323
g70
I3
ssg71
g3317
sg64
(lp3324
S'Vadodara'
p3325
asbasbasbag57
(g73
g59
NtRp3326
(dp3327
g62
(dp3328
sg71
g3300
sg64
(lp3329
g57
(g78
g59
NtRp3330
(dp3331
g62
(dp3332
g82
g83
ssg71
g3326
sg64
(lp3333
S'Member_type'
p3334
asbag57
(g78
g59
NtRp3335
(dp3336
g62
(dp3337
g89
g90
ssg71
g3326
sg64
(lp3338
S':'
asbag57
(g78
g59
NtRp3339
(dp3340
g62
(dp3341
sg71
g3326
sg64
(lp3342
g57
(g58
g59
NtRp3343
(dp3344
g62
(dp3345
g70
I3
ssg71
g3339
sg64
(lp3346
S'Admin'
p3347
asbasbasbag57
(g73
g59
NtRp3348
(dp3349
g62
(dp3350
sg71
g3300
sg64
(lp3351
g57
(g78
g59
NtRp3352
(dp3353
g62
(dp3354
g82
g83
ssg71
g3348
sg64
(lp3355
S'Profile_Pic'
p3356
asbag57
(g78
g59
NtRp3357
(dp3358
g62
(dp3359
g89
g90
ssg71
g3348
sg64
(lp3360
S':'
asbag57
(g78
g59
NtRp3361
(dp3362
g62
(dp3363
sg71
g3348
sg64
(lp3364
g57
(g58
g59
NtRp3365
(dp3366
g62
(dp3367
g70
I3
ssg71
g3361
sg64
(lp3368
S'auth_user.Profile_Pic.ae49517be24fd41d.53637265656e73686f742066726f6d20323031332d30382d31312032333a30313a35342e706e67.png'
p3369
asbasbasbag57
(g73
g59
NtRp3370
(dp3371
g62
(dp3372
sg71
g3300
sg64
(lp3373
g57
(g78
g59
NtRp3374
(dp3375
g62
(dp3376
g82
g83
ssg71
g3370
sg64
(lp3377
S'email'
p3378
asbag57
(g78
g59
NtRp3379
(dp3380
g62
(dp3381
g89
g90
ssg71
g3370
sg64
(lp3382
S':'
asbag57
(g78
g59
NtRp3383
(dp3384
g62
(dp3385
sg71
g3370
sg64
(lp3386
g57
(g58
g59
NtRp3387
(dp3388
g62
(dp3389
g70
I3
ssg71
g3383
sg64
(lp3390
S'jigar.thakkar@students.iiit.ac.in'
p3391
asbasbasbag57
(g73
g59
NtRp3392
(dp3393
g62
(dp3394
sg71
g3300
sg64
(lp3395
g57
(g78
g59
NtRp3396
(dp3397
g62
(dp3398
g82
g83
ssg71
g3392
sg64
(lp3399
S'first_name'
p3400
asbag57
(g78
g59
NtRp3401
(dp3402
g62
(dp3403
g89
g90
ssg71
g3392
sg64
(lp3404
S':'
asbag57
(g78
g59
NtRp3405
(dp3406
g62
(dp3407
sg71
g3392
sg64
(lp3408
g57
(g58
g59
NtRp3409
(dp3410
g62
(dp3411
g70
I3
ssg71
g3405
sg64
(lp3412
S'Jigar'
p3413
asbasbasbag57
(g73
g59
NtRp3414
(dp3415
g62
(dp3416
sg71
g3300
sg64
(lp3417
g57
(g78
g59
NtRp3418
(dp3419
g62
(dp3420
g82
g83
ssg71
g3414
sg64
(lp3421
S'id'
p3422
asbag57
(g78
g59
NtRp3423
(dp3424
g62
(dp3425
g89
g90
ssg71
g3414
sg64
(lp3426
S':'
asbag57
(g78
g59
NtRp3427
(dp3428
g62
(dp3429
sg71
g3414
sg64
(lp3430
g57
(g58
g59
NtRp3431
(dp3432
g62
(dp3433
g70
I3
ssg71
g3427
sg64
(lp3434
S'1'
asbasbasbag57
(g73
g59
NtRp3435
(dp3436
g62
(dp3437
sg71
g3300
sg64
(lp3438
g57
(g78
g59
NtRp3439
(dp3440
g62
(dp3441
g82
g83
ssg71
g3435
sg64
(lp3442
S'last_name'
p3443
asbag57
(g78
g59
NtRp3444
(dp3445
g62
(dp3446
g89
g90
ssg71
g3435
sg64
(lp3447
S':'
asbag57
(g78
g59
NtRp3448
(dp3449
g62
(dp3450
sg71
g3435
sg64
(lp3451
g57
(g58
g59
NtRp3452
(dp3453
g62
(dp3454
g70
I3
ssg71
g3448
sg64
(lp3455
S'Thakkar'
p3456
asbasbasbag57
(g73
g59
NtRp3457
(dp3458
g62
(dp3459
sg71
g3300
sg64
(lp3460
g57
(g78
g59
NtRp3461
(dp3462
g62
(dp3463
g82
g83
ssg71
g3457
sg64
(lp3464
S'password'
p3465
asbag57
(g78
g59
NtRp3466
(dp3467
g62
(dp3468
g89
g90
ssg71
g3457
sg64
(lp3469
S':'
asbag57
(g78
g59
NtRp3470
(dp3471
g62
(dp3472
sg71
g3457
sg64
(lp3473
g57
(g58
g59
NtRp3474
(dp3475
g62
(dp3476
g70
I3
ssg71
g3470
sg64
(lp3477
S'5d8c8afe4854a5830a3fd1282cfa4eff'
p3478
asbasbasbag57
(g73
g59
NtRp3479
(dp3480
g62
(dp3481
sg71
g3300
sg64
(lp3482
g57
(g78
g59
NtRp3483
(dp3484
g62
(dp3485
g82
g83
ssg71
g3479
sg64
(lp3486
S'registration_id'
p3487
asbag57
(g78
g59
NtRp3488
(dp3489
g62
(dp3490
g89
g90
ssg71
g3479
sg64
(lp3491
S':'
asbag57
(g78
g59
NtRp3492
(dp3493
g62
(dp3494
sg71
g3479
sg64
(lp3495
g57
(g58
g59
NtRp3496
(dp3497
g62
(dp3498
g70
I3
ssg71
g3492
sg64
(lp3499
S''
asbasbasbag57
(g73
g59
NtRp3500
(dp3501
g62
(dp3502
sg71
g3300
sg64
(lp3503
g57
(g78
g59
NtRp3504
(dp3505
g62
(dp3506
g82
g83
ssg71
g3500
sg64
(lp3507
S'registration_key'
p3508
asbag57
(g78
g59
NtRp3509
(dp3510
g62
(dp3511
g89
g90
ssg71
g3500
sg64
(lp3512
S':'
asbag57
(g78
g59
NtRp3513
(dp3514
g62
(dp3515
sg71
g3500
sg64
(lp3516
g57
(g58
g59
NtRp3517
(dp3518
g62
(dp3519
g70
I3
ssg71
g3513
sg64
(lp3520
S''
asbasbasbag57
(g73
g59
NtRp3521
(dp3522
g62
(dp3523
sg71
g3300
sg64
(lp3524
g57
(g78
g59
NtRp3525
(dp3526
g62
(dp3527
g82
g83
ssg71
g3521
sg64
(lp3528
S'reset_password_key'
p3529
asbag57
(g78
g59
NtRp3530
(dp3531
g62
(dp3532
g89
g90
ssg71
g3521
sg64
(lp3533
S':'
asbag57
(g78
g59
NtRp3534
(dp3535
g62
(dp3536
sg71
g3521
sg64
(lp3537
g57
(g58
g59
NtRp3538
(dp3539
g62
(dp3540
g70
I3
ssg71
g3534
sg64
(lp3541
S''
asbasbasbasbasbasbasbasbasbasbasbag57
(g73
g59
NtRp3542
(dp3543
g62
(dp3544
sg71
g3163
sg64
(lp3545
g57
(g78
g59
NtRp3546
(dp3547
g62
(dp3548
g82
g83
ssg71
g3542
sg64
(lp3549
S'last_query'
p3550
asbag57
(g78
g59
NtRp3551
(dp3552
g62
(dp3553
g89
g90
ssg71
g3542
sg64
(lp3554
S':'
asbag57
(g78
g59
NtRp3555
(dp3556
g62
(dp3557
sg71
g3542
sg64
(lp3558
g57
(g58
g59
NtRp3559
(dp3560
g62
(dp3561
g70
I5
ssg71
g3555
sg64
(lp3562
S'db.Post.id>0'
p3563
asbasbasbasbasbsS'etype'
p3564
S"<type 'exceptions.AttributeError'>"
p3565
sS'date'
p3566
S'Thu Aug 29 22:50:04 2013'
p3567
sS'response'
p3568
g57
(g58
g59
NtRp3569
(dp3570
g62
(dp3571
sg64
(lp3572
g57
(g66
g59
NtRp3573
(dp3574
g62
(dp3575
g70
I5
ssg71
Nsg64
(lp3576
g57
(g73
g59
NtRp3577
(dp3578
g62
(dp3579
sg71
g3573
sg64
(lp3580
g57
(g78
g59
NtRp3581
(dp3582
g62
(dp3583
g82
g83
ssg71
g3577
sg64
(lp3584
g180
asbag57
(g78
g59
NtRp3585
(dp3586
g62
(dp3587
g89
g90
ssg71
g3577
sg64
(lp3588
S':'
asbag57
(g78
g59
NtRp3589
(dp3590
g62
(dp3591
sg71
g3577
sg64
(lp3592
g57
(g58
g59
NtRp3593
(dp3594
g62
(dp3595
g70
I5
ssg71
g3589
sg64
(lp3596
S'<cStringIO.StringO object at 0x7fc8444a8f10>'
p3597
asbasbasbag57
(g73
g59
NtRp3598
(dp3599
g62
(dp3600
sg71
g3573
sg64
(lp3601
g57
(g78
g59
NtRp3602
(dp3603
g62
(dp3604
g82
g83
ssg71
g3598
sg64
(lp3605
g246
asbag57
(g78
g59
NtRp3606
(dp3607
g62
(dp3608
g89
g90
ssg71
g3598
sg64
(lp3609
S':'
asbag57
(g78
g59
NtRp3610
(dp3611
g62
(dp3612
sg71
g3598
sg64
(lp3613
g57
(g58
g59
NtRp3614
(dp3615
g62
(dp3616
g70
I5
ssg71
g3610
sg64
(lp3617
g57
(g66
g59
NtRp3618
(dp3619
g62
(dp3620
g70
I4
ssg71
Nsg64
(lp3621
g57
(g73
g59
NtRp3622
(dp3623
g62
(dp3624
sg71
g3618
sg64
(lp3625
g57
(g78
g59
NtRp3626
(dp3627
g62
(dp3628
g82
g83
ssg71
g3622
sg64
(lp3629
S'session_id_app1'
p3630
asbag57
(g78
g59
NtRp3631
(dp3632
g62
(dp3633
g89
g90
ssg71
g3622
sg64
(lp3634
S':'
asbag57
(g78
g59
NtRp3635
(dp3636
g62
(dp3637
sg71
g3622
sg64
(lp3638
g57
(g58
g59
NtRp3639
(dp3640
g62
(dp3641
g70
I4
ssg71
g3635
sg64
(lp3642
g57
(g66
g59
NtRp3643
(dp3644
g62
(dp3645
g70
I3
ssg71
Nsg64
(lp3646
g57
(g73
g59
NtRp3647
(dp3648
g62
(dp3649
sg71
g3643
sg64
(lp3650
g57
(g78
g59
NtRp3651
(dp3652
g62
(dp3653
g82
g83
ssg71
g3647
sg64
(lp3654
g296
asbag57
(g78
g59
NtRp3655
(dp3656
g62
(dp3657
g89
g90
ssg71
g3647
sg64
(lp3658
S':'
asbag57
(g78
g59
NtRp3659
(dp3660
g62
(dp3661
sg71
g3647
sg64
(lp3662
g57
(g58
g59
NtRp3663
(dp3664
g62
(dp3665
g70
I3
ssg71
g3659
sg64
(lp3666
S''
asbasbasbag57
(g73
g59
NtRp3667
(dp3668
g62
(dp3669
sg71
g3643
sg64
(lp3670
g57
(g78
g59
NtRp3671
(dp3672
g62
(dp3673
g82
g83
ssg71
g3667
sg64
(lp3674
g317
asbag57
(g78
g59
NtRp3675
(dp3676
g62
(dp3677
g89
g90
ssg71
g3667
sg64
(lp3678
S':'
asbag57
(g78
g59
NtRp3679
(dp3680
g62
(dp3681
sg71
g3667
sg64
(lp3682
g57
(g58
g59
NtRp3683
(dp3684
g62
(dp3685
g70
I3
ssg71
g3679
sg64
(lp3686
S''
asbasbasbag57
(g73
g59
NtRp3687
(dp3688
g62
(dp3689
sg71
g3643
sg64
(lp3690
g57
(g78
g59
NtRp3691
(dp3692
g62
(dp3693
g82
g83
ssg71
g3687
sg64
(lp3694
g338
asbag57
(g78
g59
NtRp3695
(dp3696
g62
(dp3697
g89
g90
ssg71
g3687
sg64
(lp3698
S':'
asbag57
(g78
g59
NtRp3699
(dp3700
g62
(dp3701
sg71
g3687
sg64
(lp3702
g57
(g58
g59
NtRp3703
(dp3704
g62
(dp3705
g70
I3
ssg71
g3699
sg64
(lp3706
S''
asbasbasbag57
(g73
g59
NtRp3707
(dp3708
g62
(dp3709
sg71
g3643
sg64
(lp3710
g57
(g78
g59
NtRp3711
(dp3712
g62
(dp3713
g82
g83
ssg71
g3707
sg64
(lp3714
g359
asbag57
(g78
g59
NtRp3715
(dp3716
g62
(dp3717
g89
g90
ssg71
g3707
sg64
(lp3718
S':'
asbag57
(g78
g59
NtRp3719
(dp3720
g62
(dp3721
sg71
g3707
sg64
(lp3722
g57
(g58
g59
NtRp3723
(dp3724
g62
(dp3725
g70
I3
ssg71
g3719
sg64
(lp3726
S''
asbasbasbag57
(g73
g59
NtRp3727
(dp3728
g62
(dp3729
sg71
g3643
sg64
(lp3730
g57
(g78
g59
NtRp3731
(dp3732
g62
(dp3733
g82
g83
ssg71
g3727
sg64
(lp3734
g380
asbag57
(g78
g59
NtRp3735
(dp3736
g62
(dp3737
g89
g90
ssg71
g3727
sg64
(lp3738
S':'
asbag57
(g78
g59
NtRp3739
(dp3740
g62
(dp3741
sg71
g3727
sg64
(lp3742
g57
(g58
g59
NtRp3743
(dp3744
g62
(dp3745
g70
I3
ssg71
g3739
sg64
(lp3746
S''
asbasbasbag57
(g73
g59
NtRp3747
(dp3748
g62
(dp3749
sg71
g3643
sg64
(lp3750
g57
(g78
g59
NtRp3751
(dp3752
g62
(dp3753
g82
g83
ssg71
g3747
sg64
(lp3754
g401
asbag57
(g78
g59
NtRp3755
(dp3756
g62
(dp3757
g89
g90
ssg71
g3747
sg64
(lp3758
S':'
asbag57
(g78
g59
NtRp3759
(dp3760
g62
(dp3761
sg71
g3747
sg64
(lp3762
g57
(g58
g59
NtRp3763
(dp3764
g62
(dp3765
g70
I3
ssg71
g3759
sg64
(lp3766
S'/'
asbasbasbag57
(g73
g59
NtRp3767
(dp3768
g62
(dp3769
sg71
g3643
sg64
(lp3770
g57
(g78
g59
NtRp3771
(dp3772
g62
(dp3773
g82
g83
ssg71
g3767
sg64
(lp3774
g422
asbag57
(g78
g59
NtRp3775
(dp3776
g62
(dp3777
g89
g90
ssg71
g3767
sg64
(lp3778
S':'
asbag57
(g78
g59
NtRp3779
(dp3780
g62
(dp3781
sg71
g3767
sg64
(lp3782
g57
(g58
g59
NtRp3783
(dp3784
g62
(dp3785
g70
I3
ssg71
g3779
sg64
(lp3786
S''
asbasbasbag57
(g73
g59
NtRp3787
(dp3788
g62
(dp3789
sg71
g3643
sg64
(lp3790
g57
(g78
g59
NtRp3791
(dp3792
g62
(dp3793
g82
g83
ssg71
g3787
sg64
(lp3794
g443
asbag57
(g78
g59
NtRp3795
(dp3796
g62
(dp3797
g89
g90
ssg71
g3787
sg64
(lp3798
S':'
asbag57
(g78
g59
NtRp3799
(dp3800
g62
(dp3801
sg71
g3787
sg64
(lp3802
g57
(g58
g59
NtRp3803
(dp3804
g62
(dp3805
g70
I3
ssg71
g3799
sg64
(lp3806
S''
asbasbasbasbasbasbasbasbasbasbasbag57
(g73
g59
NtRp3807
(dp3808
g62
(dp3809
sg71
g3573
sg64
(lp3810
g57
(g78
g59
NtRp3811
(dp3812
g62
(dp3813
g82
g83
ssg71
g3807
sg64
(lp3814
S'files'
p3815
asbag57
(g78
g59
NtRp3816
(dp3817
g62
(dp3818
g89
g90
ssg71
g3807
sg64
(lp3819
S':'
asbag57
(g78
g59
NtRp3820
(dp3821
g62
(dp3822
sg71
g3807
sg64
(lp3823
g57
(g58
g59
NtRp3824
(dp3825
g62
(dp3826
g70
I5
ssg71
g3820
sg64
(lp3827
g57
(g66
g59
NtRp3828
(dp3829
g62
(dp3830
g70
I4
ssg71
Nsg64
(lp3831
sbasbasbasbag57
(g73
g59
NtRp3832
(dp3833
g62
(dp3834
sg71
g3573
sg64
(lp3835
g57
(g78
g59
NtRp3836
(dp3837
g62
(dp3838
g82
g83
ssg71
g3832
sg64
(lp3839
S'flash'
p3840
asbag57
(g78
g59
NtRp3841
(dp3842
g62
(dp3843
g89
g90
ssg71
g3832
sg64
(lp3844
S':'
asbag57
(g78
g59
NtRp3845
(dp3846
g62
(dp3847
sg71
g3832
sg64
(lp3848
g57
(g58
g59
NtRp3849
(dp3850
g62
(dp3851
g70
I5
ssg71
g3845
sg64
(lp3852
S''
asbasbasbag57
(g73
g59
NtRp3853
(dp3854
g62
(dp3855
sg71
g3573
sg64
(lp3856
g57
(g78
g59
NtRp3857
(dp3858
g62
(dp3859
g82
g83
ssg71
g3853
sg64
(lp3860
S'generic_patterns'
p3861
asbag57
(g78
g59
NtRp3862
(dp3863
g62
(dp3864
g89
g90
ssg71
g3853
sg64
(lp3865
S':'
asbag57
(g78
g59
NtRp3866
(dp3867
g62
(dp3868
sg71
g3853
sg64
(lp3869
g57
(g58
g59
NtRp3870
(dp3871
g62
(dp3872
g70
I5
ssg71
g3866
sg64
(lp3873
g57
(g66
g59
NtRp3874
(dp3875
g62
(dp3876
g70
I4
ssg71
Nsg64
(lp3877
g57
(g73
g59
NtRp3878
(dp3879
g62
(dp3880
sg71
g3874
sg64
(lp3881
g57
(g78
g59
NtRp3882
(dp3883
g62
(dp3884
sg71
g3878
sg64
(lp3885
g57
(g58
g59
NtRp3886
(dp3887
g62
(dp3888
g70
I4
ssg71
g3882
sg64
(lp3889
S'*'
asbasbasbasbasbasbasbag57
(g73
g59
NtRp3890
(dp3891
g62
(dp3892
sg71
g3573
sg64
(lp3893
g57
(g78
g59
NtRp3894
(dp3895
g62
(dp3896
g82
g83
ssg71
g3890
sg64
(lp3897
S'headers'
p3898
asbag57
(g78
g59
NtRp3899
(dp3900
g62
(dp3901
g89
g90
ssg71
g3890
sg64
(lp3902
S':'
asbag57
(g78
g59
NtRp3903
(dp3904
g62
(dp3905
sg71
g3890
sg64
(lp3906
g57
(g58
g59
NtRp3907
(dp3908
g62
(dp3909
g70
I5
ssg71
g3903
sg64
(lp3910
g57
(g66
g59
NtRp3911
(dp3912
g62
(dp3913
g70
I4
ssg71
Nsg64
(lp3914
g57
(g73
g59
NtRp3915
(dp3916
g62
(dp3917
sg71
g3911
sg64
(lp3918
g57
(g78
g59
NtRp3919
(dp3920
g62
(dp3921
g82
g83
ssg71
g3915
sg64
(lp3922
S'Cache-Control'
p3923
asbag57
(g78
g59
NtRp3924
(dp3925
g62
(dp3926
g89
g90
ssg71
g3915
sg64
(lp3927
S':'
asbag57
(g78
g59
NtRp3928
(dp3929
g62
(dp3930
sg71
g3915
sg64
(lp3931
g57
(g58
g59
NtRp3932
(dp3933
g62
(dp3934
g70
I4
ssg71
g3928
sg64
(lp3935
S'no-store, no-cache, must-revalidate, post-check=0, pre-check=0'
p3936
asbasbasbag57
(g73
g59
NtRp3937
(dp3938
g62
(dp3939
sg71
g3911
sg64
(lp3940
g57
(g78
g59
NtRp3941
(dp3942
g62
(dp3943
g82
g83
ssg71
g3937
sg64
(lp3944
S'Content-Type'
p3945
asbag57
(g78
g59
NtRp3946
(dp3947
g62
(dp3948
g89
g90
ssg71
g3937
sg64
(lp3949
S':'
asbag57
(g78
g59
NtRp3950
(dp3951
g62
(dp3952
sg71
g3937
sg64
(lp3953
g57
(g58
g59
NtRp3954
(dp3955
g62
(dp3956
g70
I4
ssg71
g3950
sg64
(lp3957
S'text/html; charset=utf-8'
p3958
asbasbasbag57
(g73
g59
NtRp3959
(dp3960
g62
(dp3961
sg71
g3911
sg64
(lp3962
g57
(g78
g59
NtRp3963
(dp3964
g62
(dp3965
g82
g83
ssg71
g3959
sg64
(lp3966
S'Expires'
p3967
asbag57
(g78
g59
NtRp3968
(dp3969
g62
(dp3970
g89
g90
ssg71
g3959
sg64
(lp3971
S':'
asbag57
(g78
g59
NtRp3972
(dp3973
g62
(dp3974
sg71
g3959
sg64
(lp3975
g57
(g58
g59
NtRp3976
(dp3977
g62
(dp3978
g70
I4
ssg71
g3972
sg64
(lp3979
S'Thu, 29 Aug 2013 17:20:04 GMT'
p3980
asbasbasbag57
(g73
g59
NtRp3981
(dp3982
g62
(dp3983
sg71
g3911
sg64
(lp3984
g57
(g78
g59
NtRp3985
(dp3986
g62
(dp3987
g82
g83
ssg71
g3981
sg64
(lp3988
S'Pragma'
p3989
asbag57
(g78
g59
NtRp3990
(dp3991
g62
(dp3992
g89
g90
ssg71
g3981
sg64
(lp3993
S':'
asbag57
(g78
g59
NtRp3994
(dp3995
g62
(dp3996
sg71
g3981
sg64
(lp3997
g57
(g58
g59
NtRp3998
(dp3999
g62
(dp4000
g70
I4
ssg71
g3994
sg64
(lp4001
S'no-cache'
p4002
asbasbasbag57
(g73
g59
NtRp4003
(dp4004
g62
(dp4005
sg71
g3911
sg64
(lp4006
g57
(g78
g59
NtRp4007
(dp4008
g62
(dp4009
g82
g83
ssg71
g4003
sg64
(lp4010
S'X-Powered-By'
p4011
asbag57
(g78
g59
NtRp4012
(dp4013
g62
(dp4014
g89
g90
ssg71
g4003
sg64
(lp4015
S':'
asbag57
(g78
g59
NtRp4016
(dp4017
g62
(dp4018
sg71
g4003
sg64
(lp4019
g57
(g58
g59
NtRp4020
(dp4021
g62
(dp4022
g70
I4
ssg71
g4016
sg64
(lp4023
S'web2py'
p4024
asbasbasbasbasbasbasbag57
(g73
g59
NtRp4025
(dp4026
g62
(dp4027
sg71
g3573
sg64
(lp4028
g57
(g78
g59
NtRp4029
(dp4030
g62
(dp4031
g82
g83
ssg71
g4025
sg64
(lp4032
S'menu'
p4033
asbag57
(g78
g59
NtRp4034
(dp4035
g62
(dp4036
g89
g90
ssg71
g4025
sg64
(lp4037
S':'
asbag57
(g78
g59
NtRp4038
(dp4039
g62
(dp4040
sg71
g4025
sg64
(lp4041
g57
(g58
g59
NtRp4042
(dp4043
g62
(dp4044
g70
I5
ssg71
g4038
sg64
(lp4045
g57
(g66
g59
NtRp4046
(dp4047
g62
(dp4048
g70
I4
ssg71
Nsg64
(lp4049
g57
(g73
g59
NtRp4050
(dp4051
g62
(dp4052
sg71
g4046
sg64
(lp4053
g57
(g78
g59
NtRp4054
(dp4055
g62
(dp4056
sg71
g4050
sg64
(lp4057
g57
(g58
g59
NtRp4058
(dp4059
g62
(dp4060
g70
I4
ssg71
g4054
sg64
(lp4061
g57
(g66
g59
NtRp4062
(dp4063
g62
(dp4064
g70
I3
ssg71
Nsg64
(lp4065
g57
(g73
g59
NtRp4066
(dp4067
g62
(dp4068
sg71
g4062
sg64
(lp4069
g57
(g78
g59
NtRp4070
(dp4071
g62
(dp4072
sg71
g4066
sg64
(lp4073
g57
(g58
g59
NtRp4074
(dp4075
g62
(dp4076
g70
I3
ssg71
g4070
sg64
(lp4077
cgluon.languages
lazyT_unpickle
p4078
(S't\x04\x00\x00\x00Home'
tRp4079
asbasbasbag57
(g73
g59
NtRp4080
(dp4081
g62
(dp4082
sg71
g4062
sg64
(lp4083
g57
(g78
g59
NtRp4084
(dp4085
g62
(dp4086
sg71
g4080
sg64
(lp4087
g57
(g58
g59
NtRp4088
(dp4089
g62
(dp4090
g70
I3
ssg71
g4084
sg64
(lp4091
g100
asbasbasbag57
(g73
g59
NtRp4092
(dp4093
g62
(dp4094
sg71
g4062
sg64
(lp4095
g57
(g78
g59
NtRp4096
(dp4097
g62
(dp4098
sg71
g4092
sg64
(lp4099
g57
(g58
g59
NtRp4100
(dp4101
g62
(dp4102
g70
I3
ssg71
g4096
sg64
(lp4103
S'/app1/default/index'
p4104
asbasbasbag57
(g73
g59
NtRp4105
(dp4106
g62
(dp4107
sg71
g4062
sg64
(lp4108
g57
(g78
g59
NtRp4109
(dp4110
g62
(dp4111
sg71
g4105
sg64
(lp4112
g57
(g58
g59
NtRp4113
(dp4114
g62
(dp4115
g70
I3
ssg71
g4109
sg64
(lp4116
g57
(g66
g59
NtRp4117
(dp4118
g62
(dp4119
g70
I2
ssg71
Nsg64
(lp4120
sbasbasbasbasbasbasbasbag57
(g73
g59
NtRp4121
(dp4122
g62
(dp4123
sg71
g4046
sg64
(lp4124
g57
(g78
g59
NtRp4125
(dp4126
g62
(dp4127
sg71
g4121
sg64
(lp4128
g57
(g58
g59
NtRp4129
(dp4130
g62
(dp4131
g70
I4
ssg71
g4125
sg64
(lp4132
g57
(g66
g59
NtRp4133
(dp4134
g62
(dp4135
g70
I3
ssg71
Nsg64
(lp4136
g57
(g73
g59
NtRp4137
(dp4138
g62
(dp4139
sg71
g4133
sg64
(lp4140
g57
(g78
g59
NtRp4141
(dp4142
g62
(dp4143
sg71
g4137
sg64
(lp4144
g57
(g58
g59
NtRp4145
(dp4146
g62
(dp4147
g70
I3
ssg71
g4141
sg64
(lp4148
g57
(cgluon.html
SPAN
p4149
g59
NtRp4150
(dp4151
g62
(dp4152
g82
S'color:yellow'
p4153
ssg71
Nsg64
(lp4154
g4024
asbasbasbasbag57
(g73
g59
NtRp4155
(dp4156
g62
(dp4157
sg71
g4133
sg64
(lp4158
g57
(g78
g59
NtRp4159
(dp4160
g62
(dp4161
sg71
g4155
sg64
(lp4162
g57
(g58
g59
NtRp4163
(dp4164
g62
(dp4165
g70
I3
ssg71
g4159
sg64
(lp4166
g100
asbasbasbag57
(g73
g59
NtRp4167
(dp4168
g62
(dp4169
sg71
g4133
sg64
(lp4170
g57
(g78
g59
NtRp4171
(dp4172
g62
(dp4173
sg71
g4167
sg64
(lp4174
g57
(g58
g59
NtRp4175
(dp4176
g62
(dp4177
g70
I3
ssg71
g4171
sg64
(lp4178
S'None'
p4179
asbasbasbag57
(g73
g59
NtRp4180
(dp4181
g62
(dp4182
sg71
g4133
sg64
(lp4183
g57
(g78
g59
NtRp4184
(dp4185
g62
(dp4186
sg71
g4180
sg64
(lp4187
g57
(g58
g59
NtRp4188
(dp4189
g62
(dp4190
g70
I3
ssg71
g4184
sg64
(lp4191
g57
(g66
g59
NtRp4192
(dp4193
g62
(dp4194
g70
I2
ssg71
Nsg64
(lp4195
g57
(g73
g59
NtRp4196
(dp4197
g62
(dp4198
sg71
g4192
sg64
(lp4199
g57
(g78
g59
NtRp4200
(dp4201
g62
(dp4202
sg71
g4196
sg64
(lp4203
g57
(g58
g59
NtRp4204
(dp4205
g62
(dp4206
g70
I2
ssg71
g4200
sg64
(lp4207
g57
(g66
g59
NtRp4208
(dp4209
g62
(dp4210
g70
I1
ssg71
Nsg64
(lp4211
g57
(g73
g59
NtRp4212
(dp4213
g62
(dp4214
sg71
g4208
sg64
(lp4215
g57
(g78
g59
NtRp4216
(dp4217
g62
(dp4218
sg71
g4212
sg64
(lp4219
g57
(g58
g59
NtRp4220
(dp4221
g62
(dp4222
g70
I1
ssg71
g4216
sg64
(lp4223
g4078
(S's\x08\x00\x00\x00My Sites'
tRp4224
asbasbasbag57
(g73
g59
NtRp4225
(dp4226
g62
(dp4227
sg71
g4208
sg64
(lp4228
g57
(g78
g59
NtRp4229
(dp4230
g62
(dp4231
sg71
g4225
sg64
(lp4232
g57
(g58
g59
NtRp4233
(dp4234
g62
(dp4235
g70
I1
ssg71
g4229
sg64
(lp4236
I00
asbasbasbag57
(g73
g59
NtRp4237
(dp4238
g62
(dp4239
sg71
g4208
sg64
(lp4240
g57
(g78
g59
NtRp4241
(dp4242
g62
(dp4243
sg71
g4237
sg64
(lp4244
g57
(g58
g59
NtRp4245
(dp4246
g62
(dp4247
g70
I1
ssg71
g4241
sg64
(lp4248
S'/admin/default/site'
p4249
asbasbasbasbasbasbasbag57
(g73
g59
NtRp4250
(dp4251
g62
(dp4252
sg71
g4192
sg64
(lp4253
g57
(g78
g59
NtRp4254
(dp4255
g62
(dp4256
sg71
g4250
sg64
(lp4257
g57
(g58
g59
NtRp4258
(dp4259
g62
(dp4260
g70
I2
ssg71
g4254
sg64
(lp4261
g57
(g66
g59
NtRp4262
(dp4263
g62
(dp4264
g70
I1
ssg71
Nsg64
(lp4265
g57
(g73
g59
NtRp4266
(dp4267
g62
(dp4268
sg71
g4262
sg64
(lp4269
g57
(g78
g59
NtRp4270
(dp4271
g62
(dp4272
sg71
g4266
sg64
(lp4273
g57
(g58
g59
NtRp4274
(dp4275
g62
(dp4276
g70
I1
ssg71
g4270
sg64
(lp4277
g4078
(S's\x08\x00\x00\x00This App'
tRp4278
asbasbasbag57
(g73
g59
NtRp4279
(dp4280
g62
(dp4281
sg71
g4262
sg64
(lp4282
g57
(g78
g59
NtRp4283
(dp4284
g62
(dp4285
sg71
g4279
sg64
(lp4286
g57
(g58
g59
NtRp4287
(dp4288
g62
(dp4289
g70
I1
ssg71
g4283
sg64
(lp4290
I00
asbasbasbag57
(g73
g59
NtRp4291
(dp4292
g62
(dp4293
sg71
g4262
sg64
(lp4294
g57
(g78
g59
NtRp4295
(dp4296
g62
(dp4297
sg71
g4291
sg64
(lp4298
g57
(g58
g59
NtRp4299
(dp4300
g62
(dp4301
g70
I1
ssg71
g4295
sg64
(lp4302
S'/admin/default/design/app1'
p4303
asbasbasbag57
(g73
g59
NtRp4304
(dp4305
g62
(dp4306
sg71
g4262
sg64
(lp4307
g57
(g78
g59
NtRp4308
(dp4309
g62
(dp4310
sg71
g4304
sg64
(lp4311
g57
(g58
g59
NtRp4312
(dp4313
g62
(dp4314
g70
I1
ssg71
g4308
sg64
(lp4315
(lp4316
(g4078
(S't\n\x00\x00\x00Controller'
tRp4317
I00
S'/admin/default/edit/app1/controllers/default.py'
tp4318
a(g4078
(S't\x04\x00\x00\x00View'
tRp4319
I00
S'/admin/default/edit/app1/views/default/lall.html'
tp4320
a(g4078
(S't\x06\x00\x00\x00Layout'
tRp4321
I00
S'/admin/default/edit/app1/views/layout.html'
tp4322
a(g4078
(S't\n\x00\x00\x00Stylesheet'
tRp4323
I00
S'/admin/default/edit/app1/static/css/web2py.css'
tp4324
a(g4078
(S's\x08\x00\x00\x00DB Model'
tRp4325
I00
S'/admin/default/edit/app1/models/db.py'
tp4326
a(g4078
(S's\n\x00\x00\x00Menu Model'
tRp4327
I00
S'/admin/default/edit/app1/models/menu.py'
tp4328
a(g4078
(S't\x08\x00\x00\x00Database'
tRp4329
I00
S'/app1/appadmin/index'
tp4330
a(g4078
(S't\x06\x00\x00\x00Errors'
tRp4331
I00
S'/admin/default/errors/app1'
tp4332
a(g4078
(S't\x05\x00\x00\x00About'
tRp4333
I00
S'/admin/default/about/app1'
tp4334
aasbasbasbasbasbasbasbag57
(g73
g59
NtRp4335
(dp4336
g62
(dp4337
sg71
g4192
sg64
(lp4338
g57
(g78
g59
NtRp4339
(dp4340
g62
(dp4341
sg71
g4335
sg64
(lp4342
g57
(g58
g59
NtRp4343
(dp4344
g62
(dp4345
g70
I2
ssg71
g4339
sg64
(lp4346
g57
(g66
g59
NtRp4347
(dp4348
g62
(dp4349
g70
I1
ssg71
Nsg64
(lp4350
g57
(g73
g59
NtRp4351
(dp4352
g62
(dp4353
sg71
g4347
sg64
(lp4354
g57
(g78
g59
NtRp4355
(dp4356
g62
(dp4357
sg71
g4351
sg64
(lp4358
g57
(g58
g59
NtRp4359
(dp4360
g62
(dp4361
g70
I1
ssg71
g4355
sg64
(lp4362
S'web2py.com'
p4363
asbasbasbag57
(g73
g59
NtRp4364
(dp4365
g62
(dp4366
sg71
g4347
sg64
(lp4367
g57
(g78
g59
NtRp4368
(dp4369
g62
(dp4370
sg71
g4364
sg64
(lp4371
g57
(g58
g59
NtRp4372
(dp4373
g62
(dp4374
g70
I1
ssg71
g4368
sg64
(lp4375
I00
asbasbasbag57
(g73
g59
NtRp4376
(dp4377
g62
(dp4378
sg71
g4347
sg64
(lp4379
g57
(g78
g59
NtRp4380
(dp4381
g62
(dp4382
sg71
g4376
sg64
(lp4383
g57
(g58
g59
NtRp4384
(dp4385
g62
(dp4386
g70
I1
ssg71
g4380
sg64
(lp4387
S'http://www.web2py.com'
p4388
asbasbasbag57
(g73
g59
NtRp4389
(dp4390
g62
(dp4391
sg71
g4347
sg64
(lp4392
g57
(g78
g59
NtRp4393
(dp4394
g62
(dp4395
sg71
g4389
sg64
(lp4396
g57
(g58
g59
NtRp4397
(dp4398
g62
(dp4399
g70
I1
ssg71
g4393
sg64
(lp4400
(lp4401
(g4078
(S't\x08\x00\x00\x00Download'
tRp4402
I00
S'http://www.web2py.com/examples/default/download'
p4403
tp4404
a(g4078
(S't\x07\x00\x00\x00Support'
tRp4405
I00
S'http://www.web2py.com/examples/default/support'
p4406
tp4407
a(g4078
(S't\x04\x00\x00\x00Demo'
tRp4408
I00
S'http://web2py.com/demo_admin'
p4409
tp4410
a(g4078
(S's\x0e\x00\x00\x00Quick Examples'
tRp4411
I00
S'http://web2py.com/examples/default/examples'
p4412
tp4413
a(g4078
(S't\x03\x00\x00\x00FAQ'
tRp4414
I00
S'http://web2py.com/AlterEgo'
p4415
tp4416
a(g4078
(S't\x06\x00\x00\x00Videos'
tRp4417
I00
S'http://www.web2py.com/examples/default/videos/'
p4418
tp4419
a(g4078
(S's\x11\x00\x00\x00Free Applications'
tRp4420
I00
S'http://web2py.com/appliances'
p4421
tp4422
a(g4078
(S't\x07\x00\x00\x00Plugins'
tRp4423
I00
S'http://web2py.com/plugins'
p4424
tp4425
a(g4078
(S't\x07\x00\x00\x00Layouts'
tRp4426
I00
S'http://web2py.com/layouts'
p4427
tp4428
a(g4078
(S't\x07\x00\x00\x00Recipes'
tRp4429
I00
S'http://web2pyslices.com/'
p4430
tp4431
a(g4078
(S't\x08\x00\x00\x00Semantic'
tRp4432
I00
S'http://web2py.com/semantic'
p4433
tp4434
aasbasbasbasbasbasbasbag57
(g73
g59
NtRp4435
(dp4436
g62
(dp4437
sg71
g4192
sg64
(lp4438
g57
(g78
g59
NtRp4439
(dp4440
g62
(dp4441
sg71
g4435
sg64
(lp4442
g57
(g58
g59
NtRp4443
(dp4444
g62
(dp4445
g70
I2
ssg71
g4439
sg64
(lp4446
g57
(g66
g59
NtRp4447
(dp4448
g62
(dp4449
g70
I1
ssg71
Nsg64
(lp4450
g57
(g73
g59
NtRp4451
(dp4452
g62
(dp4453
sg71
g4447
sg64
(lp4454
g57
(g78
g59
NtRp4455
(dp4456
g62
(dp4457
sg71
g4451
sg64
(lp4458
g57
(g58
g59
NtRp4459
(dp4460
g62
(dp4461
g70
I1
ssg71
g4455
sg64
(lp4462
g4078
(S't\r\x00\x00\x00Documentation'
tRp4463
asbasbasbag57
(g73
g59
NtRp4464
(dp4465
g62
(dp4466
sg71
g4447
sg64
(lp4467
g57
(g78
g59
NtRp4468
(dp4469
g62
(dp4470
sg71
g4464
sg64
(lp4471
g57
(g58
g59
NtRp4472
(dp4473
g62
(dp4474
g70
I1
ssg71
g4468
sg64
(lp4475
I00
asbasbasbag57
(g73
g59
NtRp4476
(dp4477
g62
(dp4478
sg71
g4447
sg64
(lp4479
g57
(g78
g59
NtRp4480
(dp4481
g62
(dp4482
sg71
g4476
sg64
(lp4483
g57
(g58
g59
NtRp4484
(dp4485
g62
(dp4486
g70
I1
ssg71
g4480
sg64
(lp4487
S'http://www.web2py.com/book'
p4488
asbasbasbag57
(g73
g59
NtRp4489
(dp4490
g62
(dp4491
sg71
g4447
sg64
(lp4492
g57
(g78
g59
NtRp4493
(dp4494
g62
(dp4495
sg71
g4489
sg64
(lp4496
g57
(g58
g59
NtRp4497
(dp4498
g62
(dp4499
g70
I1
ssg71
g4493
sg64
(lp4500
(lp4501
(g4078
(S't\x07\x00\x00\x00Preface'
tRp4502
I00
S'http://www.web2py.com/book/default/chapter/00'
p4503
tp4504
a(g4078
(S't\x0c\x00\x00\x00Introduction'
tRp4505
I00
S'http://www.web2py.com/book/default/chapter/01'
p4506
tp4507
a(g4078
(S't\x06\x00\x00\x00Python'
tRp4508
I00
S'http://www.web2py.com/book/default/chapter/02'
p4509
tp4510
a(g4078
(S't\x08\x00\x00\x00Overview'
tRp4511
I00
S'http://www.web2py.com/book/default/chapter/03'
p4512
tp4513
a(g4078
(S's\x08\x00\x00\x00The Core'
tRp4514
I00
S'http://www.web2py.com/book/default/chapter/04'
p4515
tp4516
a(g4078
(S's\t\x00\x00\x00The Views'
tRp4517
I00
S'http://www.web2py.com/book/default/chapter/05'
p4518
tp4519
a(g4078
(S't\x08\x00\x00\x00Database'
tRp4520
I00
S'http://www.web2py.com/book/default/chapter/06'
p4521
tp4522
a(g4078
(S's\x14\x00\x00\x00Forms and Validators'
tRp4523
I00
S'http://www.web2py.com/book/default/chapter/07'
p4524
tp4525
a(g4078
(S's\r\x00\x00\x00Email and SMS'
tRp4526
I00
S'http://www.web2py.com/book/default/chapter/08'
p4527
tp4528
a(g4078
(S's\x0e\x00\x00\x00Access Control'
tRp4529
I00
S'http://www.web2py.com/book/default/chapter/09'
p4530
tp4531
a(g4078
(S't\x08\x00\x00\x00Services'
tRp4532
I00
S'http://www.web2py.com/book/default/chapter/10'
p4533
tp4534
a(g4078
(S's\x0c\x00\x00\x00Ajax Recipes'
tRp4535
I00
S'http://www.web2py.com/book/default/chapter/11'
p4536
tp4537
a(g4078
(S's\x16\x00\x00\x00Components and Plugins'
tRp4538
I00
S'http://www.web2py.com/book/default/chapter/12'
p4539
tp4540
a(g4078
(S's\x12\x00\x00\x00Deployment Recipes'
tRp4541
I00
S'http://www.web2py.com/book/default/chapter/13'
p4542
tp4543
a(g4078
(S's\r\x00\x00\x00Other Recipes'
tRp4544
I00
S'http://www.web2py.com/book/default/chapter/14'
p4545
tp4546
a(g4078
(S's\r\x00\x00\x00Buy this book'
tRp4547
I00
S'http://stores.lulu.com/web2py'
p4548
tp4549
aasbasbasbasbasbasbasbag57
(g73
g59
NtRp4550
(dp4551
g62
(dp4552
sg71
g4192
sg64
(lp4553
g57
(g78
g59
NtRp4554
(dp4555
g62
(dp4556
sg71
g4550
sg64
(lp4557
g57
(g58
g59
NtRp4558
(dp4559
g62
(dp4560
g70
I2
ssg71
g4554
sg64
(lp4561
g57
(g66
g59
NtRp4562
(dp4563
g62
(dp4564
g70
I1
ssg71
Nsg64
(lp4565
g57
(g73
g59
NtRp4566
(dp4567
g62
(dp4568
sg71
g4562
sg64
(lp4569
g57
(g78
g59
NtRp4570
(dp4571
g62
(dp4572
sg71
g4566
sg64
(lp4573
g57
(g58
g59
NtRp4574
(dp4575
g62
(dp4576
g70
I1
ssg71
g4570
sg64
(lp4577
g4078
(S't\t\x00\x00\x00Community'
tRp4578
asbasbasbag57
(g73
g59
NtRp4579
(dp4580
g62
(dp4581
sg71
g4562
sg64
(lp4582
g57
(g78
g59
NtRp4583
(dp4584
g62
(dp4585
sg71
g4579
sg64
(lp4586
g57
(g58
g59
NtRp4587
(dp4588
g62
(dp4589
g70
I1
ssg71
g4583
sg64
(lp4590
I00
asbasbasbag57
(g73
g59
NtRp4591
(dp4592
g62
(dp4593
sg71
g4562
sg64
(lp4594
g57
(g78
g59
NtRp4595
(dp4596
g62
(dp4597
sg71
g4591
sg64
(lp4598
g57
(g58
g59
NtRp4599
(dp4600
g62
(dp4601
g70
I1
ssg71
g4595
sg64
(lp4602
Nasbasbasbag57
(g73
g59
NtRp4603
(dp4604
g62
(dp4605
sg71
g4562
sg64
(lp4606
g57
(g78
g59
NtRp4607
(dp4608
g62
(dp4609
sg71
g4603
sg64
(lp4610
g57
(g58
g59
NtRp4611
(dp4612
g62
(dp4613
g70
I1
ssg71
g4607
sg64
(lp4614
(lp4615
(g4078
(S't\x06\x00\x00\x00Groups'
tRp4616
I00
S'http://www.web2py.com/examples/default/usergroups'
p4617
tp4618
a(g4078
(S't\x07\x00\x00\x00Twitter'
tRp4619
I00
S'http://twitter.com/web2py'
p4620
tp4621
a(g4078
(S's\t\x00\x00\x00Live Chat'
tRp4622
I00
S'http://webchat.freenode.net/?channels=web2py'
p4623
tp4624
aasbasbasbasbasbasbasbag57
(g73
g59
NtRp4625
(dp4626
g62
(dp4627
sg71
g4192
sg64
(lp4628
g57
(g78
g59
NtRp4629
(dp4630
g62
(dp4631
sg71
g4625
sg64
(lp4632
g57
(g58
g59
NtRp4633
(dp4634
g62
(dp4635
g70
I2
ssg71
g4629
sg64
(lp4636
g57
(g66
g59
NtRp4637
(dp4638
g62
(dp4639
g70
I1
ssg71
Nsg64
(lp4640
g57
(g73
g59
NtRp4641
(dp4642
g62
(dp4643
sg71
g4637
sg64
(lp4644
g57
(g78
g59
NtRp4645
(dp4646
g62
(dp4647
sg71
g4641
sg64
(lp4648
g57
(g58
g59
NtRp4649
(dp4650
g62
(dp4651
g70
I1
ssg71
g4645
sg64
(lp4652
g4078
(S't\x07\x00\x00\x00Plugins'
tRp4653
asbasbasbag57
(g73
g59
NtRp4654
(dp4655
g62
(dp4656
sg71
g4637
sg64
(lp4657
g57
(g78
g59
NtRp4658
(dp4659
g62
(dp4660
sg71
g4654
sg64
(lp4661
g57
(g58
g59
NtRp4662
(dp4663
g62
(dp4664
g70
I1
ssg71
g4658
sg64
(lp4665
I00
asbasbasbag57
(g73
g59
NtRp4666
(dp4667
g62
(dp4668
sg71
g4637
sg64
(lp4669
g57
(g78
g59
NtRp4670
(dp4671
g62
(dp4672
sg71
g4666
sg64
(lp4673
g57
(g58
g59
NtRp4674
(dp4675
g62
(dp4676
g70
I1
ssg71
g4670
sg64
(lp4677
Nasbasbasbag57
(g73
g59
NtRp4678
(dp4679
g62
(dp4680
sg71
g4637
sg64
(lp4681
g57
(g78
g59
NtRp4682
(dp4683
g62
(dp4684
sg71
g4678
sg64
(lp4685
g57
(g58
g59
NtRp4686
(dp4687
g62
(dp4688
g70
I1
ssg71
g4682
sg64
(lp4689
(lp4690
(S'plugin_wiki'
p4691
I00
S'http://web2py.com/examples/default/download'
p4692
tp4693
a(g4078
(S's\r\x00\x00\x00Other Plugins'
tRp4694
I00
g4424
tp4695
a(g4078
(S's\x0e\x00\x00\x00Layout Plugins'
tRp4696
I00
g4427
tp4697
aasbasbasbasbasbasbasbasbasbasbasbasbasbasbasbasbasbasbasbag57
(g73
g59
NtRp4698
(dp4699
g62
(dp4700
sg71
g3573
sg64
(lp4701
g57
(g78
g59
NtRp4702
(dp4703
g62
(dp4704
g82
g83
ssg71
g4698
sg64
(lp4705
S'meta'
p4706
asbag57
(g78
g59
NtRp4707
(dp4708
g62
(dp4709
g89
g90
ssg71
g4698
sg64
(lp4710
S':'
asbag57
(g78
g59
NtRp4711
(dp4712
g62
(dp4713
sg71
g4698
sg64
(lp4714
g57
(g58
g59
NtRp4715
(dp4716
g62
(dp4717
g70
I5
ssg71
g4711
sg64
(lp4718
g57
(g66
g59
NtRp4719
(dp4720
g62
(dp4721
g70
I4
ssg71
Nsg64
(lp4722
g57
(g73
g59
NtRp4723
(dp4724
g62
(dp4725
sg71
g4719
sg64
(lp4726
g57
(g78
g59
NtRp4727
(dp4728
g62
(dp4729
g82
g83
ssg71
g4723
sg64
(lp4730
S'author'
p4731
asbag57
(g78
g59
NtRp4732
(dp4733
g62
(dp4734
g89
g90
ssg71
g4723
sg64
(lp4735
S':'
asbag57
(g78
g59
NtRp4736
(dp4737
g62
(dp4738
sg71
g4723
sg64
(lp4739
g57
(g58
g59
NtRp4740
(dp4741
g62
(dp4742
g70
I4
ssg71
g4736
sg64
(lp4743
S'Your Name <you@example.com>'
p4744
asbasbasbag57
(g73
g59
NtRp4745
(dp4746
g62
(dp4747
sg71
g4719
sg64
(lp4748
g57
(g78
g59
NtRp4749
(dp4750
g62
(dp4751
g82
g83
ssg71
g4745
sg64
(lp4752
S'copyright'
p4753
asbag57
(g78
g59
NtRp4754
(dp4755
g62
(dp4756
g89
g90
ssg71
g4745
sg64
(lp4757
S':'
asbag57
(g78
g59
NtRp4758
(dp4759
g62
(dp4760
sg71
g4745
sg64
(lp4761
g57
(g58
g59
NtRp4762
(dp4763
g62
(dp4764
g70
I4
ssg71
g4758
sg64
(lp4765
S'Copyright 2011'
p4766
asbasbasbag57
(g73
g59
NtRp4767
(dp4768
g62
(dp4769
sg71
g4719
sg64
(lp4770
g57
(g78
g59
NtRp4771
(dp4772
g62
(dp4773
g82
g83
ssg71
g4767
sg64
(lp4774
S'description'
p4775
asbag57
(g78
g59
NtRp4776
(dp4777
g62
(dp4778
g89
g90
ssg71
g4767
sg64
(lp4779
S':'
asbag57
(g78
g59
NtRp4780
(dp4781
g62
(dp4782
sg71
g4767
sg64
(lp4783
g57
(g58
g59
NtRp4784
(dp4785
g62
(dp4786
g70
I4
ssg71
g4780
sg64
(lp4787
S'a cool new app'
p4788
asbasbasbag57
(g73
g59
NtRp4789
(dp4790
g62
(dp4791
sg71
g4719
sg64
(lp4792
g57
(g78
g59
NtRp4793
(dp4794
g62
(dp4795
g82
g83
ssg71
g4789
sg64
(lp4796
S'generator'
p4797
asbag57
(g78
g59
NtRp4798
(dp4799
g62
(dp4800
g89
g90
ssg71
g4789
sg64
(lp4801
S':'
asbag57
(g78
g59
NtRp4802
(dp4803
g62
(dp4804
sg71
g4789
sg64
(lp4805
g57
(g58
g59
NtRp4806
(dp4807
g62
(dp4808
g70
I4
ssg71
g4802
sg64
(lp4809
S'Web2py Web Framework'
p4810
asbasbasbag57
(g73
g59
NtRp4811
(dp4812
g62
(dp4813
sg71
g4719
sg64
(lp4814
g57
(g78
g59
NtRp4815
(dp4816
g62
(dp4817
g82
g83
ssg71
g4811
sg64
(lp4818
S'keywords'
p4819
asbag57
(g78
g59
NtRp4820
(dp4821
g62
(dp4822
g89
g90
ssg71
g4811
sg64
(lp4823
S':'
asbag57
(g78
g59
NtRp4824
(dp4825
g62
(dp4826
sg71
g4811
sg64
(lp4827
g57
(g58
g59
NtRp4828
(dp4829
g62
(dp4830
g70
I4
ssg71
g4824
sg64
(lp4831
S'web2py, python, framework'
p4832
asbasbasbasbasbasbasbag57
(g73
g59
NtRp4833
(dp4834
g62
(dp4835
sg71
g3573
sg64
(lp4836
g57
(g78
g59
NtRp4837
(dp4838
g62
(dp4839
g82
g83
ssg71
g4833
sg64
(lp4840
S'postprocessing'
p4841
asbag57
(g78
g59
NtRp4842
(dp4843
g62
(dp4844
g89
g90
ssg71
g4833
sg64
(lp4845
S':'
asbag57
(g78
g59
NtRp4846
(dp4847
g62
(dp4848
sg71
g4833
sg64
(lp4849
g57
(g58
g59
NtRp4850
(dp4851
g62
(dp4852
g70
I5
ssg71
g4846
sg64
(lp4853
g57
(g66
g59
NtRp4854
(dp4855
g62
(dp4856
g70
I4
ssg71
Nsg64
(lp4857
sbasbasbasbag57
(g73
g59
NtRp4858
(dp4859
g62
(dp4860
sg71
g3573
sg64
(lp4861
g57
(g78
g59
NtRp4862
(dp4863
g62
(dp4864
g82
g83
ssg71
g4858
sg64
(lp4865
S'session_file'
p4866
asbag57
(g78
g59
NtRp4867
(dp4868
g62
(dp4869
g89
g90
ssg71
g4858
sg64
(lp4870
S':'
asbag57
(g78
g59
NtRp4871
(dp4872
g62
(dp4873
sg71
g4858
sg64
(lp4874
g57
(g58
g59
NtRp4875
(dp4876
g62
(dp4877
g70
I5
ssg71
g4871
sg64
(lp4878
S"<open file '/home/jigar/web2py/applications/app1/sessions/127.0.0.1-15782adb-a404-4b3e-868f-e60d89b9be1b', mode 'rb+' at 0x7fc8444d9c00>"
p4879
asbasbasbag57
(g73
g59
NtRp4880
(dp4881
g62
(dp4882
sg71
g3573
sg64
(lp4883
g57
(g78
g59
NtRp4884
(dp4885
g62
(dp4886
g82
g83
ssg71
g4880
sg64
(lp4887
S'session_filename'
p4888
asbag57
(g78
g59
NtRp4889
(dp4890
g62
(dp4891
g89
g90
ssg71
g4880
sg64
(lp4892
S':'
asbag57
(g78
g59
NtRp4893
(dp4894
g62
(dp4895
sg71
g4880
sg64
(lp4896
g57
(g58
g59
NtRp4897
(dp4898
g62
(dp4899
g70
I5
ssg71
g4893
sg64
(lp4900
S'/home/jigar/web2py/applications/app1/sessions/127.0.0.1-15782adb-a404-4b3e-868f-e60d89b9be1b'
p4901
asbasbasbag57
(g73
g59
NtRp4902
(dp4903
g62
(dp4904
sg71
g3573
sg64
(lp4905
g57
(g78
g59
NtRp4906
(dp4907
g62
(dp4908
g82
g83
ssg71
g4902
sg64
(lp4909
S'session_id'
p4910
asbag57
(g78
g59
NtRp4911
(dp4912
g62
(dp4913
g89
g90
ssg71
g4902
sg64
(lp4914
S':'
asbag57
(g78
g59
NtRp4915
(dp4916
g62
(dp4917
sg71
g4902
sg64
(lp4918
g57
(g58
g59
NtRp4919
(dp4920
g62
(dp4921
g70
I5
ssg71
g4915
sg64
(lp4922
S'127.0.0.1-15782adb-a404-4b3e-868f-e60d89b9be1b'
p4923
asbasbasbag57
(g73
g59
NtRp4924
(dp4925
g62
(dp4926
sg71
g3573
sg64
(lp4927
g57
(g78
g59
NtRp4928
(dp4929
g62
(dp4930
g82
g83
ssg71
g4924
sg64
(lp4931
S'session_id_name'
p4932
asbag57
(g78
g59
NtRp4933
(dp4934
g62
(dp4935
g89
g90
ssg71
g4924
sg64
(lp4936
S':'
asbag57
(g78
g59
NtRp4937
(dp4938
g62
(dp4939
sg71
g4924
sg64
(lp4940
g57
(g58
g59
NtRp4941
(dp4942
g62
(dp4943
g70
I5
ssg71
g4937
sg64
(lp4944
g3630
asbasbasbag57
(g73
g59
NtRp4945
(dp4946
g62
(dp4947
sg71
g3573
sg64
(lp4948
g57
(g78
g59
NtRp4949
(dp4950
g62
(dp4951
g82
g83
ssg71
g4945
sg64
(lp4952
S'session_locked'
p4953
asbag57
(g78
g59
NtRp4954
(dp4955
g62
(dp4956
g89
g90
ssg71
g4945
sg64
(lp4957
S':'
asbag57
(g78
g59
NtRp4958
(dp4959
g62
(dp4960
sg71
g4945
sg64
(lp4961
g57
(g58
g59
NtRp4962
(dp4963
g62
(dp4964
g70
I5
ssg71
g4958
sg64
(lp4965
g1703
asbasbasbag57
(g73
g59
NtRp4966
(dp4967
g62
(dp4968
sg71
g3573
sg64
(lp4969
g57
(g78
g59
NtRp4970
(dp4971
g62
(dp4972
g82
g83
ssg71
g4966
sg64
(lp4973
S'session_new'
p4974
asbag57
(g78
g59
NtRp4975
(dp4976
g62
(dp4977
g89
g90
ssg71
g4966
sg64
(lp4978
S':'
asbag57
(g78
g59
NtRp4979
(dp4980
g62
(dp4981
sg71
g4966
sg64
(lp4982
g57
(g58
g59
NtRp4983
(dp4984
g62
(dp4985
g70
I5
ssg71
g4979
sg64
(lp4986
g100
asbasbasbag57
(g73
g59
NtRp4987
(dp4988
g62
(dp4989
sg71
g3573
sg64
(lp4990
g57
(g78
g59
NtRp4991
(dp4992
g62
(dp4993
g82
g83
ssg71
g4987
sg64
(lp4994
S'status'
p4995
asbag57
(g78
g59
NtRp4996
(dp4997
g62
(dp4998
g89
g90
ssg71
g4987
sg64
(lp4999
S':'
asbag57
(g78
g59
NtRp5000
(dp5001
g62
(dp5002
sg71
g4987
sg64
(lp5003
g57
(g58
g59
NtRp5004
(dp5005
g62
(dp5006
g70
I5
ssg71
g5000
sg64
(lp5007
S'200'
p5008
asbasbasbag57
(g73
g59
NtRp5009
(dp5010
g62
(dp5011
sg71
g3573
sg64
(lp5012
g57
(g78
g59
NtRp5013
(dp5014
g62
(dp5015
g82
g83
ssg71
g5009
sg64
(lp5016
S'subtitle'
p5017
asbag57
(g78
g59
NtRp5018
(dp5019
g62
(dp5020
g89
g90
ssg71
g5009
sg64
(lp5021
S':'
asbag57
(g78
g59
NtRp5022
(dp5023
g62
(dp5024
sg71
g5009
sg64
(lp5025
g57
(g58
g59
NtRp5026
(dp5027
g62
(dp5028
g70
I5
ssg71
g5022
sg64
(lp5029
g4078
(S's\r\x00\x00\x00customize me!'
tRp5030
asbasbasbag57
(g73
g59
NtRp5031
(dp5032
g62
(dp5033
sg71
g3573
sg64
(lp5034
g57
(g78
g59
NtRp5035
(dp5036
g62
(dp5037
g82
g83
ssg71
g5031
sg64
(lp5038
S'title'
p5039
asbag57
(g78
g59
NtRp5040
(dp5041
g62
(dp5042
g89
g90
ssg71
g5031
sg64
(lp5043
S':'
asbag57
(g78
g59
NtRp5044
(dp5045
g62
(dp5046
sg71
g5031
sg64
(lp5047
g57
(g58
g59
NtRp5048
(dp5049
g62
(dp5050
g70
I5
ssg71
g5044
sg64
(lp5051
S'App1'
p5052
asbasbasbag57
(g73
g59
NtRp5053
(dp5054
g62
(dp5055
sg71
g3573
sg64
(lp5056
g57
(g78
g59
NtRp5057
(dp5058
g62
(dp5059
g82
g83
ssg71
g5053
sg64
(lp5060
g2389
asbag57
(g78
g59
NtRp5061
(dp5062
g62
(dp5063
g89
g90
ssg71
g5053
sg64
(lp5064
S':'
asbag57
(g78
g59
NtRp5065
(dp5066
g62
(dp5067
sg71
g5053
sg64
(lp5068
g57
(g58
g59
NtRp5069
(dp5070
g62
(dp5071
g70
I5
ssg71
g5065
sg64
(lp5072
g2402
asbasbasbag57
(g73
g59
NtRp5073
(dp5074
g62
(dp5075
sg71
g3573
sg64
(lp5076
g57
(g78
g59
NtRp5077
(dp5078
g62
(dp5079
g82
g83
ssg71
g5073
sg64
(lp5080
S'view'
p5081
asbag57
(g78
g59
NtRp5082
(dp5083
g62
(dp5084
g89
g90
ssg71
g5073
sg64
(lp5085
S':'
asbag57
(g78
g59
NtRp5086
(dp5087
g62
(dp5088
sg71
g5073
sg64
(lp5089
g57
(g58
g59
NtRp5090
(dp5091
g62
(dp5092
g70
I5
ssg71
g5086
sg64
(lp5093
S'default/lall.html'
p5094
asbasbasbasbasbsS'locals'
p5095
(dp5096
S'a'
S'1'
sS'b'
S'<gluon.dal.Rows object>'
p5097
sS'p'
S"'like'"
p5098
sS'r'
S"'0'"
p5099
sS'y'
S'<gluon.dal.Rows object>'
p5100
sS'x'
S'<gluon.dal.Rows object>'
p5101
sS'z'
S'<gluon.dal.Rows object>'
p5102
sssS'traceback'
p5103
S'Traceback (most recent call last):\n  File "/usr/lib/pymodules/python2.7/gluon/restricted.py", line 204, in restricted\n    exec ccode in environment\n  File "/home/jigar/web2py/applications/app1/controllers/default.py", line 114, in <module>\n  File "/usr/lib/pymodules/python2.7/gluon/globals.py", line 172, in <lambda>\n    self._caller = lambda f: f()\n  File "/usr/lib/pymodules/python2.7/gluon/tools.py", line 2533, in f\n    return action(*a, **b)\n  File "/home/jigar/web2py/applications/app1/controllers/default.py", line 88, in lall\n    db.Post.User_liked.append(auth.user.id)\nAttributeError: \'Field\' object has no attribute \'append\'\n'
p5104
s.